ARM GAS  C:\Users\310309~1\AppData\Local\Temp\cckEzWOW.s 			page 1


   1              		.syntax unified
   2              		.cpu cortex-m0
   3              		.fpu softvfp
   4              		.eabi_attribute 20, 1
   5              		.eabi_attribute 21, 1
   6              		.eabi_attribute 23, 3
   7              		.eabi_attribute 24, 1
   8              		.eabi_attribute 25, 1
   9              		.eabi_attribute 26, 1
  10              		.eabi_attribute 30, 1
  11              		.eabi_attribute 34, 0
  12              		.eabi_attribute 18, 4
  13              		.thumb
  14              		.syntax unified
  15              		.file	"ble_uds.c"
  16              		.text
  17              	.Ltext0:
  18              		.cfi_sections	.debug_frame
  19              		.section	.text.CyBle_UdsInit,"ax",%progbits
  20              		.align	2
  21              		.global	CyBle_UdsInit
  22              		.code	16
  23              		.thumb_func
  24              		.type	CyBle_UdsInit, %function
  25              	CyBle_UdsInit:
  26              	.LFB2:
  27              		.file 1 "Generated_Source\\PSoC4\\ble_uds.c"
   1:Generated_Source\PSoC4/ble_uds.c **** /***************************************************************************//**
   2:Generated_Source\PSoC4/ble_uds.c **** * \file CYBLE_uds.c
   3:Generated_Source\PSoC4/ble_uds.c **** * \version 3.30
   4:Generated_Source\PSoC4/ble_uds.c **** * 
   5:Generated_Source\PSoC4/ble_uds.c **** * \brief
   6:Generated_Source\PSoC4/ble_uds.c **** *  This file contains the source code for
   7:Generated_Source\PSoC4/ble_uds.c **** *  the User Data Service of the BLE Component.
   8:Generated_Source\PSoC4/ble_uds.c **** * 
   9:Generated_Source\PSoC4/ble_uds.c **** ********************************************************************************
  10:Generated_Source\PSoC4/ble_uds.c **** * \copyright
  11:Generated_Source\PSoC4/ble_uds.c **** * Copyright 2014-2016, Cypress Semiconductor Corporation.  All rights reserved.
  12:Generated_Source\PSoC4/ble_uds.c **** * You may use this file only in accordance with the license, terms, conditions,
  13:Generated_Source\PSoC4/ble_uds.c **** * disclaimers, and limitations in the end user license agreement accompanying
  14:Generated_Source\PSoC4/ble_uds.c **** * the software package with which this file was provided.
  15:Generated_Source\PSoC4/ble_uds.c **** *******************************************************************************/
  16:Generated_Source\PSoC4/ble_uds.c **** 
  17:Generated_Source\PSoC4/ble_uds.c **** 
  18:Generated_Source\PSoC4/ble_uds.c **** #include "ble_eventHandler.h"
  19:Generated_Source\PSoC4/ble_uds.c **** 
  20:Generated_Source\PSoC4/ble_uds.c **** static CYBLE_CALLBACK_T CyBle_UdsApplCallback;
  21:Generated_Source\PSoC4/ble_uds.c **** 
  22:Generated_Source\PSoC4/ble_uds.c **** #ifdef CYBLE_UDS_SERVER
  23:Generated_Source\PSoC4/ble_uds.c **** /* Generated code */
  24:Generated_Source\PSoC4/ble_uds.c **** const CYBLE_UDSS_T cyBle_udss =
  25:Generated_Source\PSoC4/ble_uds.c **** {
  26:Generated_Source\PSoC4/ble_uds.c ****     0x0050u,    /* Handle of the UDS service */
  27:Generated_Source\PSoC4/ble_uds.c ****     {
  28:Generated_Source\PSoC4/ble_uds.c ****         
  29:Generated_Source\PSoC4/ble_uds.c ****         /* First Name characteristic */
  30:Generated_Source\PSoC4/ble_uds.c ****         {
ARM GAS  C:\Users\310309~1\AppData\Local\Temp\cckEzWOW.s 			page 2


  31:Generated_Source\PSoC4/ble_uds.c ****             0x0052u, /* Handle of the First Name characteristic */ 
  32:Generated_Source\PSoC4/ble_uds.c ****             
  33:Generated_Source\PSoC4/ble_uds.c ****             /* Array of Descriptors handles */
  34:Generated_Source\PSoC4/ble_uds.c ****             {
  35:Generated_Source\PSoC4/ble_uds.c ****                 CYBLE_GATT_INVALID_ATTR_HANDLE_VALUE, 
  36:Generated_Source\PSoC4/ble_uds.c ****             }, 
  37:Generated_Source\PSoC4/ble_uds.c ****         }, 
  38:Generated_Source\PSoC4/ble_uds.c ****         
  39:Generated_Source\PSoC4/ble_uds.c ****         /* Last Name characteristic */
  40:Generated_Source\PSoC4/ble_uds.c ****         {
  41:Generated_Source\PSoC4/ble_uds.c ****             0x0054u, /* Handle of the Last Name characteristic */ 
  42:Generated_Source\PSoC4/ble_uds.c ****             
  43:Generated_Source\PSoC4/ble_uds.c ****             /* Array of Descriptors handles */
  44:Generated_Source\PSoC4/ble_uds.c ****             {
  45:Generated_Source\PSoC4/ble_uds.c ****                 CYBLE_GATT_INVALID_ATTR_HANDLE_VALUE, 
  46:Generated_Source\PSoC4/ble_uds.c ****             }, 
  47:Generated_Source\PSoC4/ble_uds.c ****         }, 
  48:Generated_Source\PSoC4/ble_uds.c ****         
  49:Generated_Source\PSoC4/ble_uds.c ****         /* Email Address characteristic */
  50:Generated_Source\PSoC4/ble_uds.c ****         {
  51:Generated_Source\PSoC4/ble_uds.c ****             0x0056u, /* Handle of the Email Address characteristic */ 
  52:Generated_Source\PSoC4/ble_uds.c ****             
  53:Generated_Source\PSoC4/ble_uds.c ****             /* Array of Descriptors handles */
  54:Generated_Source\PSoC4/ble_uds.c ****             {
  55:Generated_Source\PSoC4/ble_uds.c ****                 CYBLE_GATT_INVALID_ATTR_HANDLE_VALUE, 
  56:Generated_Source\PSoC4/ble_uds.c ****             }, 
  57:Generated_Source\PSoC4/ble_uds.c ****         }, 
  58:Generated_Source\PSoC4/ble_uds.c ****         
  59:Generated_Source\PSoC4/ble_uds.c ****         /* Age characteristic */
  60:Generated_Source\PSoC4/ble_uds.c ****         {
  61:Generated_Source\PSoC4/ble_uds.c ****             0x0058u, /* Handle of the Age characteristic */ 
  62:Generated_Source\PSoC4/ble_uds.c ****             
  63:Generated_Source\PSoC4/ble_uds.c ****             /* Array of Descriptors handles */
  64:Generated_Source\PSoC4/ble_uds.c ****             {
  65:Generated_Source\PSoC4/ble_uds.c ****                 CYBLE_GATT_INVALID_ATTR_HANDLE_VALUE, 
  66:Generated_Source\PSoC4/ble_uds.c ****             }, 
  67:Generated_Source\PSoC4/ble_uds.c ****         }, 
  68:Generated_Source\PSoC4/ble_uds.c ****         
  69:Generated_Source\PSoC4/ble_uds.c ****         /* Date of Birth characteristic */
  70:Generated_Source\PSoC4/ble_uds.c ****         {
  71:Generated_Source\PSoC4/ble_uds.c ****             0x005Au, /* Handle of the Date of Birth characteristic */ 
  72:Generated_Source\PSoC4/ble_uds.c ****             
  73:Generated_Source\PSoC4/ble_uds.c ****             /* Array of Descriptors handles */
  74:Generated_Source\PSoC4/ble_uds.c ****             {
  75:Generated_Source\PSoC4/ble_uds.c ****                 CYBLE_GATT_INVALID_ATTR_HANDLE_VALUE, 
  76:Generated_Source\PSoC4/ble_uds.c ****             }, 
  77:Generated_Source\PSoC4/ble_uds.c ****         }, 
  78:Generated_Source\PSoC4/ble_uds.c ****         
  79:Generated_Source\PSoC4/ble_uds.c ****         /* Gender characteristic */
  80:Generated_Source\PSoC4/ble_uds.c ****         {
  81:Generated_Source\PSoC4/ble_uds.c ****             0x005Cu, /* Handle of the Gender characteristic */ 
  82:Generated_Source\PSoC4/ble_uds.c ****             
  83:Generated_Source\PSoC4/ble_uds.c ****             /* Array of Descriptors handles */
  84:Generated_Source\PSoC4/ble_uds.c ****             {
  85:Generated_Source\PSoC4/ble_uds.c ****                 CYBLE_GATT_INVALID_ATTR_HANDLE_VALUE, 
  86:Generated_Source\PSoC4/ble_uds.c ****             }, 
  87:Generated_Source\PSoC4/ble_uds.c ****         }, 
ARM GAS  C:\Users\310309~1\AppData\Local\Temp\cckEzWOW.s 			page 3


  88:Generated_Source\PSoC4/ble_uds.c ****         
  89:Generated_Source\PSoC4/ble_uds.c ****         /* Weight characteristic */
  90:Generated_Source\PSoC4/ble_uds.c ****         {
  91:Generated_Source\PSoC4/ble_uds.c ****             0x005Eu, /* Handle of the Weight characteristic */ 
  92:Generated_Source\PSoC4/ble_uds.c ****             
  93:Generated_Source\PSoC4/ble_uds.c ****             /* Array of Descriptors handles */
  94:Generated_Source\PSoC4/ble_uds.c ****             {
  95:Generated_Source\PSoC4/ble_uds.c ****                 CYBLE_GATT_INVALID_ATTR_HANDLE_VALUE, 
  96:Generated_Source\PSoC4/ble_uds.c ****             }, 
  97:Generated_Source\PSoC4/ble_uds.c ****         }, 
  98:Generated_Source\PSoC4/ble_uds.c ****         
  99:Generated_Source\PSoC4/ble_uds.c ****         /* Height characteristic */
 100:Generated_Source\PSoC4/ble_uds.c ****         {
 101:Generated_Source\PSoC4/ble_uds.c ****             0x0060u, /* Handle of the Height characteristic */ 
 102:Generated_Source\PSoC4/ble_uds.c ****             
 103:Generated_Source\PSoC4/ble_uds.c ****             /* Array of Descriptors handles */
 104:Generated_Source\PSoC4/ble_uds.c ****             {
 105:Generated_Source\PSoC4/ble_uds.c ****                 CYBLE_GATT_INVALID_ATTR_HANDLE_VALUE, 
 106:Generated_Source\PSoC4/ble_uds.c ****             }, 
 107:Generated_Source\PSoC4/ble_uds.c ****         }, 
 108:Generated_Source\PSoC4/ble_uds.c ****         
 109:Generated_Source\PSoC4/ble_uds.c ****         /* VO2 Max characteristic */
 110:Generated_Source\PSoC4/ble_uds.c ****         {
 111:Generated_Source\PSoC4/ble_uds.c ****             0x0062u, /* Handle of the VO2 Max characteristic */ 
 112:Generated_Source\PSoC4/ble_uds.c ****             
 113:Generated_Source\PSoC4/ble_uds.c ****             /* Array of Descriptors handles */
 114:Generated_Source\PSoC4/ble_uds.c ****             {
 115:Generated_Source\PSoC4/ble_uds.c ****                 CYBLE_GATT_INVALID_ATTR_HANDLE_VALUE, 
 116:Generated_Source\PSoC4/ble_uds.c ****             }, 
 117:Generated_Source\PSoC4/ble_uds.c ****         }, 
 118:Generated_Source\PSoC4/ble_uds.c ****         
 119:Generated_Source\PSoC4/ble_uds.c ****         /* Heart Rate Max characteristic */
 120:Generated_Source\PSoC4/ble_uds.c ****         {
 121:Generated_Source\PSoC4/ble_uds.c ****             0x0064u, /* Handle of the Heart Rate Max characteristic */ 
 122:Generated_Source\PSoC4/ble_uds.c ****             
 123:Generated_Source\PSoC4/ble_uds.c ****             /* Array of Descriptors handles */
 124:Generated_Source\PSoC4/ble_uds.c ****             {
 125:Generated_Source\PSoC4/ble_uds.c ****                 CYBLE_GATT_INVALID_ATTR_HANDLE_VALUE, 
 126:Generated_Source\PSoC4/ble_uds.c ****             }, 
 127:Generated_Source\PSoC4/ble_uds.c ****         }, 
 128:Generated_Source\PSoC4/ble_uds.c ****         
 129:Generated_Source\PSoC4/ble_uds.c ****         /* Resting Heart Rate characteristic */
 130:Generated_Source\PSoC4/ble_uds.c ****         {
 131:Generated_Source\PSoC4/ble_uds.c ****             0x0066u, /* Handle of the Resting Heart Rate characteristic */ 
 132:Generated_Source\PSoC4/ble_uds.c ****             
 133:Generated_Source\PSoC4/ble_uds.c ****             /* Array of Descriptors handles */
 134:Generated_Source\PSoC4/ble_uds.c ****             {
 135:Generated_Source\PSoC4/ble_uds.c ****                 CYBLE_GATT_INVALID_ATTR_HANDLE_VALUE, 
 136:Generated_Source\PSoC4/ble_uds.c ****             }, 
 137:Generated_Source\PSoC4/ble_uds.c ****         }, 
 138:Generated_Source\PSoC4/ble_uds.c ****         
 139:Generated_Source\PSoC4/ble_uds.c ****         /* Maximum Recommended Heart Rate characteristic */
 140:Generated_Source\PSoC4/ble_uds.c ****         {
 141:Generated_Source\PSoC4/ble_uds.c ****             0x0068u, /* Handle of the Maximum Recommended Heart Rate characteristic */ 
 142:Generated_Source\PSoC4/ble_uds.c ****             
 143:Generated_Source\PSoC4/ble_uds.c ****             /* Array of Descriptors handles */
 144:Generated_Source\PSoC4/ble_uds.c ****             {
ARM GAS  C:\Users\310309~1\AppData\Local\Temp\cckEzWOW.s 			page 4


 145:Generated_Source\PSoC4/ble_uds.c ****                 CYBLE_GATT_INVALID_ATTR_HANDLE_VALUE, 
 146:Generated_Source\PSoC4/ble_uds.c ****             }, 
 147:Generated_Source\PSoC4/ble_uds.c ****         }, 
 148:Generated_Source\PSoC4/ble_uds.c ****         
 149:Generated_Source\PSoC4/ble_uds.c ****         /* Aerobic Threshold characteristic */
 150:Generated_Source\PSoC4/ble_uds.c ****         {
 151:Generated_Source\PSoC4/ble_uds.c ****             0x006Au, /* Handle of the Aerobic Threshold characteristic */ 
 152:Generated_Source\PSoC4/ble_uds.c ****             
 153:Generated_Source\PSoC4/ble_uds.c ****             /* Array of Descriptors handles */
 154:Generated_Source\PSoC4/ble_uds.c ****             {
 155:Generated_Source\PSoC4/ble_uds.c ****                 CYBLE_GATT_INVALID_ATTR_HANDLE_VALUE, 
 156:Generated_Source\PSoC4/ble_uds.c ****             }, 
 157:Generated_Source\PSoC4/ble_uds.c ****         }, 
 158:Generated_Source\PSoC4/ble_uds.c ****         
 159:Generated_Source\PSoC4/ble_uds.c ****         /* Anaerobic Threshold characteristic */
 160:Generated_Source\PSoC4/ble_uds.c ****         {
 161:Generated_Source\PSoC4/ble_uds.c ****             0x006Cu, /* Handle of the Anaerobic Threshold characteristic */ 
 162:Generated_Source\PSoC4/ble_uds.c ****             
 163:Generated_Source\PSoC4/ble_uds.c ****             /* Array of Descriptors handles */
 164:Generated_Source\PSoC4/ble_uds.c ****             {
 165:Generated_Source\PSoC4/ble_uds.c ****                 CYBLE_GATT_INVALID_ATTR_HANDLE_VALUE, 
 166:Generated_Source\PSoC4/ble_uds.c ****             }, 
 167:Generated_Source\PSoC4/ble_uds.c ****         }, 
 168:Generated_Source\PSoC4/ble_uds.c ****         
 169:Generated_Source\PSoC4/ble_uds.c ****         /* Sport Type for Aerobic and Anaerobic Thresholds characteristic */
 170:Generated_Source\PSoC4/ble_uds.c ****         {
 171:Generated_Source\PSoC4/ble_uds.c ****             0x006Eu, /* Handle of the Sport Type for Aerobic and Anaerobic Thresholds characteristi
 172:Generated_Source\PSoC4/ble_uds.c ****             
 173:Generated_Source\PSoC4/ble_uds.c ****             /* Array of Descriptors handles */
 174:Generated_Source\PSoC4/ble_uds.c ****             {
 175:Generated_Source\PSoC4/ble_uds.c ****                 CYBLE_GATT_INVALID_ATTR_HANDLE_VALUE, 
 176:Generated_Source\PSoC4/ble_uds.c ****             }, 
 177:Generated_Source\PSoC4/ble_uds.c ****         }, 
 178:Generated_Source\PSoC4/ble_uds.c ****         
 179:Generated_Source\PSoC4/ble_uds.c ****         /* Date of Threshold Assessment characteristic */
 180:Generated_Source\PSoC4/ble_uds.c ****         {
 181:Generated_Source\PSoC4/ble_uds.c ****             0x0070u, /* Handle of the Date of Threshold Assessment characteristic */ 
 182:Generated_Source\PSoC4/ble_uds.c ****             
 183:Generated_Source\PSoC4/ble_uds.c ****             /* Array of Descriptors handles */
 184:Generated_Source\PSoC4/ble_uds.c ****             {
 185:Generated_Source\PSoC4/ble_uds.c ****                 CYBLE_GATT_INVALID_ATTR_HANDLE_VALUE, 
 186:Generated_Source\PSoC4/ble_uds.c ****             }, 
 187:Generated_Source\PSoC4/ble_uds.c ****         }, 
 188:Generated_Source\PSoC4/ble_uds.c ****         
 189:Generated_Source\PSoC4/ble_uds.c ****         /* Waist Circumference characteristic */
 190:Generated_Source\PSoC4/ble_uds.c ****         {
 191:Generated_Source\PSoC4/ble_uds.c ****             0x0072u, /* Handle of the Waist Circumference characteristic */ 
 192:Generated_Source\PSoC4/ble_uds.c ****             
 193:Generated_Source\PSoC4/ble_uds.c ****             /* Array of Descriptors handles */
 194:Generated_Source\PSoC4/ble_uds.c ****             {
 195:Generated_Source\PSoC4/ble_uds.c ****                 CYBLE_GATT_INVALID_ATTR_HANDLE_VALUE, 
 196:Generated_Source\PSoC4/ble_uds.c ****             }, 
 197:Generated_Source\PSoC4/ble_uds.c ****         }, 
 198:Generated_Source\PSoC4/ble_uds.c ****         
 199:Generated_Source\PSoC4/ble_uds.c ****         /* Hip Circumference characteristic */
 200:Generated_Source\PSoC4/ble_uds.c ****         {
 201:Generated_Source\PSoC4/ble_uds.c ****             0x0074u, /* Handle of the Hip Circumference characteristic */ 
ARM GAS  C:\Users\310309~1\AppData\Local\Temp\cckEzWOW.s 			page 5


 202:Generated_Source\PSoC4/ble_uds.c ****             
 203:Generated_Source\PSoC4/ble_uds.c ****             /* Array of Descriptors handles */
 204:Generated_Source\PSoC4/ble_uds.c ****             {
 205:Generated_Source\PSoC4/ble_uds.c ****                 CYBLE_GATT_INVALID_ATTR_HANDLE_VALUE, 
 206:Generated_Source\PSoC4/ble_uds.c ****             }, 
 207:Generated_Source\PSoC4/ble_uds.c ****         }, 
 208:Generated_Source\PSoC4/ble_uds.c ****         
 209:Generated_Source\PSoC4/ble_uds.c ****         /* Fat Burn Heart Rate Lower Limit characteristic */
 210:Generated_Source\PSoC4/ble_uds.c ****         {
 211:Generated_Source\PSoC4/ble_uds.c ****             0x0076u, /* Handle of the Fat Burn Heart Rate Lower Limit characteristic */ 
 212:Generated_Source\PSoC4/ble_uds.c ****             
 213:Generated_Source\PSoC4/ble_uds.c ****             /* Array of Descriptors handles */
 214:Generated_Source\PSoC4/ble_uds.c ****             {
 215:Generated_Source\PSoC4/ble_uds.c ****                 CYBLE_GATT_INVALID_ATTR_HANDLE_VALUE, 
 216:Generated_Source\PSoC4/ble_uds.c ****             }, 
 217:Generated_Source\PSoC4/ble_uds.c ****         }, 
 218:Generated_Source\PSoC4/ble_uds.c ****         
 219:Generated_Source\PSoC4/ble_uds.c ****         /* Fat Burn Heart Rate Upper Limit characteristic */
 220:Generated_Source\PSoC4/ble_uds.c ****         {
 221:Generated_Source\PSoC4/ble_uds.c ****             0x0078u, /* Handle of the Fat Burn Heart Rate Upper Limit characteristic */ 
 222:Generated_Source\PSoC4/ble_uds.c ****             
 223:Generated_Source\PSoC4/ble_uds.c ****             /* Array of Descriptors handles */
 224:Generated_Source\PSoC4/ble_uds.c ****             {
 225:Generated_Source\PSoC4/ble_uds.c ****                 CYBLE_GATT_INVALID_ATTR_HANDLE_VALUE, 
 226:Generated_Source\PSoC4/ble_uds.c ****             }, 
 227:Generated_Source\PSoC4/ble_uds.c ****         }, 
 228:Generated_Source\PSoC4/ble_uds.c ****         
 229:Generated_Source\PSoC4/ble_uds.c ****         /* Aerobic Heart Rate Lower Limit characteristic */
 230:Generated_Source\PSoC4/ble_uds.c ****         {
 231:Generated_Source\PSoC4/ble_uds.c ****             0x007Au, /* Handle of the Aerobic Heart Rate Lower Limit characteristic */ 
 232:Generated_Source\PSoC4/ble_uds.c ****             
 233:Generated_Source\PSoC4/ble_uds.c ****             /* Array of Descriptors handles */
 234:Generated_Source\PSoC4/ble_uds.c ****             {
 235:Generated_Source\PSoC4/ble_uds.c ****                 CYBLE_GATT_INVALID_ATTR_HANDLE_VALUE, 
 236:Generated_Source\PSoC4/ble_uds.c ****             }, 
 237:Generated_Source\PSoC4/ble_uds.c ****         }, 
 238:Generated_Source\PSoC4/ble_uds.c ****         
 239:Generated_Source\PSoC4/ble_uds.c ****         /* Aerobic Heart Rate Upper Limit characteristic */
 240:Generated_Source\PSoC4/ble_uds.c ****         {
 241:Generated_Source\PSoC4/ble_uds.c ****             0x007Cu, /* Handle of the Aerobic Heart Rate Upper Limit characteristic */ 
 242:Generated_Source\PSoC4/ble_uds.c ****             
 243:Generated_Source\PSoC4/ble_uds.c ****             /* Array of Descriptors handles */
 244:Generated_Source\PSoC4/ble_uds.c ****             {
 245:Generated_Source\PSoC4/ble_uds.c ****                 CYBLE_GATT_INVALID_ATTR_HANDLE_VALUE, 
 246:Generated_Source\PSoC4/ble_uds.c ****             }, 
 247:Generated_Source\PSoC4/ble_uds.c ****         }, 
 248:Generated_Source\PSoC4/ble_uds.c ****         
 249:Generated_Source\PSoC4/ble_uds.c ****         /* Anaerobic Heart Rate Lower Limit characteristic */
 250:Generated_Source\PSoC4/ble_uds.c ****         {
 251:Generated_Source\PSoC4/ble_uds.c ****             0x007Eu, /* Handle of the Anaerobic Heart Rate Lower Limit characteristic */ 
 252:Generated_Source\PSoC4/ble_uds.c ****             
 253:Generated_Source\PSoC4/ble_uds.c ****             /* Array of Descriptors handles */
 254:Generated_Source\PSoC4/ble_uds.c ****             {
 255:Generated_Source\PSoC4/ble_uds.c ****                 CYBLE_GATT_INVALID_ATTR_HANDLE_VALUE, 
 256:Generated_Source\PSoC4/ble_uds.c ****             }, 
 257:Generated_Source\PSoC4/ble_uds.c ****         }, 
 258:Generated_Source\PSoC4/ble_uds.c ****         
ARM GAS  C:\Users\310309~1\AppData\Local\Temp\cckEzWOW.s 			page 6


 259:Generated_Source\PSoC4/ble_uds.c ****         /* Anaerobic Heart Rate Upper Limit characteristic */
 260:Generated_Source\PSoC4/ble_uds.c ****         {
 261:Generated_Source\PSoC4/ble_uds.c ****             0x0080u, /* Handle of the Anaerobic Heart Rate Upper Limit characteristic */ 
 262:Generated_Source\PSoC4/ble_uds.c ****             
 263:Generated_Source\PSoC4/ble_uds.c ****             /* Array of Descriptors handles */
 264:Generated_Source\PSoC4/ble_uds.c ****             {
 265:Generated_Source\PSoC4/ble_uds.c ****                 CYBLE_GATT_INVALID_ATTR_HANDLE_VALUE, 
 266:Generated_Source\PSoC4/ble_uds.c ****             }, 
 267:Generated_Source\PSoC4/ble_uds.c ****         }, 
 268:Generated_Source\PSoC4/ble_uds.c ****         
 269:Generated_Source\PSoC4/ble_uds.c ****         /* Five Zone Heart Rate Limits characteristic */
 270:Generated_Source\PSoC4/ble_uds.c ****         {
 271:Generated_Source\PSoC4/ble_uds.c ****             0x0082u, /* Handle of the Five Zone Heart Rate Limits characteristic */ 
 272:Generated_Source\PSoC4/ble_uds.c ****             
 273:Generated_Source\PSoC4/ble_uds.c ****             /* Array of Descriptors handles */
 274:Generated_Source\PSoC4/ble_uds.c ****             {
 275:Generated_Source\PSoC4/ble_uds.c ****                 CYBLE_GATT_INVALID_ATTR_HANDLE_VALUE, 
 276:Generated_Source\PSoC4/ble_uds.c ****             }, 
 277:Generated_Source\PSoC4/ble_uds.c ****         }, 
 278:Generated_Source\PSoC4/ble_uds.c ****         
 279:Generated_Source\PSoC4/ble_uds.c ****         /* Three Zone Heart Rate Limits characteristic */
 280:Generated_Source\PSoC4/ble_uds.c ****         {
 281:Generated_Source\PSoC4/ble_uds.c ****             0x0084u, /* Handle of the Three Zone Heart Rate Limits characteristic */ 
 282:Generated_Source\PSoC4/ble_uds.c ****             
 283:Generated_Source\PSoC4/ble_uds.c ****             /* Array of Descriptors handles */
 284:Generated_Source\PSoC4/ble_uds.c ****             {
 285:Generated_Source\PSoC4/ble_uds.c ****                 CYBLE_GATT_INVALID_ATTR_HANDLE_VALUE, 
 286:Generated_Source\PSoC4/ble_uds.c ****             }, 
 287:Generated_Source\PSoC4/ble_uds.c ****         }, 
 288:Generated_Source\PSoC4/ble_uds.c ****         
 289:Generated_Source\PSoC4/ble_uds.c ****         /* Two Zone Heart Rate Limit characteristic */
 290:Generated_Source\PSoC4/ble_uds.c ****         {
 291:Generated_Source\PSoC4/ble_uds.c ****             0x0086u, /* Handle of the Two Zone Heart Rate Limit characteristic */ 
 292:Generated_Source\PSoC4/ble_uds.c ****             
 293:Generated_Source\PSoC4/ble_uds.c ****             /* Array of Descriptors handles */
 294:Generated_Source\PSoC4/ble_uds.c ****             {
 295:Generated_Source\PSoC4/ble_uds.c ****                 CYBLE_GATT_INVALID_ATTR_HANDLE_VALUE, 
 296:Generated_Source\PSoC4/ble_uds.c ****             }, 
 297:Generated_Source\PSoC4/ble_uds.c ****         }, 
 298:Generated_Source\PSoC4/ble_uds.c ****         
 299:Generated_Source\PSoC4/ble_uds.c ****         /* Database Change Increment characteristic */
 300:Generated_Source\PSoC4/ble_uds.c ****         {
 301:Generated_Source\PSoC4/ble_uds.c ****             0x0088u, /* Handle of the Database Change Increment characteristic */ 
 302:Generated_Source\PSoC4/ble_uds.c ****             
 303:Generated_Source\PSoC4/ble_uds.c ****             /* Array of Descriptors handles */
 304:Generated_Source\PSoC4/ble_uds.c ****             {
 305:Generated_Source\PSoC4/ble_uds.c ****                 0x0089u, /* Handle of the Client Characteristic Configuration descriptor */ 
 306:Generated_Source\PSoC4/ble_uds.c ****             }, 
 307:Generated_Source\PSoC4/ble_uds.c ****         }, 
 308:Generated_Source\PSoC4/ble_uds.c ****         
 309:Generated_Source\PSoC4/ble_uds.c ****         /* User Index characteristic */
 310:Generated_Source\PSoC4/ble_uds.c ****         {
 311:Generated_Source\PSoC4/ble_uds.c ****             0x008Bu, /* Handle of the User Index characteristic */ 
 312:Generated_Source\PSoC4/ble_uds.c ****             
 313:Generated_Source\PSoC4/ble_uds.c ****             /* Array of Descriptors handles */
 314:Generated_Source\PSoC4/ble_uds.c ****             {
 315:Generated_Source\PSoC4/ble_uds.c ****                 CYBLE_GATT_INVALID_ATTR_HANDLE_VALUE, 
ARM GAS  C:\Users\310309~1\AppData\Local\Temp\cckEzWOW.s 			page 7


 316:Generated_Source\PSoC4/ble_uds.c ****             }, 
 317:Generated_Source\PSoC4/ble_uds.c ****         }, 
 318:Generated_Source\PSoC4/ble_uds.c ****         
 319:Generated_Source\PSoC4/ble_uds.c ****         /* User Control Point characteristic */
 320:Generated_Source\PSoC4/ble_uds.c ****         {
 321:Generated_Source\PSoC4/ble_uds.c ****             0x008Du, /* Handle of the User Control Point characteristic */ 
 322:Generated_Source\PSoC4/ble_uds.c ****             
 323:Generated_Source\PSoC4/ble_uds.c ****             /* Array of Descriptors handles */
 324:Generated_Source\PSoC4/ble_uds.c ****             {
 325:Generated_Source\PSoC4/ble_uds.c ****                 0x008Eu, /* Handle of the Client Characteristic Configuration descriptor */ 
 326:Generated_Source\PSoC4/ble_uds.c ****             }, 
 327:Generated_Source\PSoC4/ble_uds.c ****         }, 
 328:Generated_Source\PSoC4/ble_uds.c ****         
 329:Generated_Source\PSoC4/ble_uds.c ****         /* Language characteristic */
 330:Generated_Source\PSoC4/ble_uds.c ****         {
 331:Generated_Source\PSoC4/ble_uds.c ****             0x0090u, /* Handle of the Language characteristic */ 
 332:Generated_Source\PSoC4/ble_uds.c ****             
 333:Generated_Source\PSoC4/ble_uds.c ****             /* Array of Descriptors handles */
 334:Generated_Source\PSoC4/ble_uds.c ****             {
 335:Generated_Source\PSoC4/ble_uds.c ****                 CYBLE_GATT_INVALID_ATTR_HANDLE_VALUE, 
 336:Generated_Source\PSoC4/ble_uds.c ****             }, 
 337:Generated_Source\PSoC4/ble_uds.c ****         }, 
 338:Generated_Source\PSoC4/ble_uds.c ****     },
 339:Generated_Source\PSoC4/ble_uds.c **** };
 340:Generated_Source\PSoC4/ble_uds.c **** /* End of generated code */
 341:Generated_Source\PSoC4/ble_uds.c ****     uint8 cyBle_udsFlag;
 342:Generated_Source\PSoC4/ble_uds.c ****     
 343:Generated_Source\PSoC4/ble_uds.c **** static CYBLE_GATT_DB_ATTR_HANDLE_T cyBle_udssReqHandle;
 344:Generated_Source\PSoC4/ble_uds.c **** 
 345:Generated_Source\PSoC4/ble_uds.c **** #endif /* CYBLE_UDS_SERVER */
 346:Generated_Source\PSoC4/ble_uds.c **** 
 347:Generated_Source\PSoC4/ble_uds.c **** #ifdef CYBLE_UDS_CLIENT
 348:Generated_Source\PSoC4/ble_uds.c ****     
 349:Generated_Source\PSoC4/ble_uds.c **** /* Server's User Data Service characteristics GATT DB handles structure */
 350:Generated_Source\PSoC4/ble_uds.c **** CYBLE_UDSC_T cyBle_udsc;
 351:Generated_Source\PSoC4/ble_uds.c **** 
 352:Generated_Source\PSoC4/ble_uds.c **** /* Internal storage for last request handle to check response */
 353:Generated_Source\PSoC4/ble_uds.c **** static CYBLE_GATT_DB_ATTR_HANDLE_T cyBle_udscReqHandle;
 354:Generated_Source\PSoC4/ble_uds.c ****     
 355:Generated_Source\PSoC4/ble_uds.c **** /* Read Long Descriptors variables */
 356:Generated_Source\PSoC4/ble_uds.c **** static uint8 * cyBle_udscRdLongBuffPtr = NULL;
 357:Generated_Source\PSoC4/ble_uds.c **** static uint8 cyBle_udscRdLongBuffLen = 0u;
 358:Generated_Source\PSoC4/ble_uds.c **** static uint8 cyBle_udscCurrLen = 0u;
 359:Generated_Source\PSoC4/ble_uds.c ****     
 360:Generated_Source\PSoC4/ble_uds.c **** #endif /* CYBLE_UDS_CLIENT */
 361:Generated_Source\PSoC4/ble_uds.c **** 
 362:Generated_Source\PSoC4/ble_uds.c **** 
 363:Generated_Source\PSoC4/ble_uds.c **** /******************************************************************************
 364:Generated_Source\PSoC4/ble_uds.c **** * Function Name: CyBle_UdsInit
 365:Generated_Source\PSoC4/ble_uds.c **** ***************************************************************************//**
 366:Generated_Source\PSoC4/ble_uds.c **** * 
 367:Generated_Source\PSoC4/ble_uds.c **** *  Initializes the profile internals.
 368:Generated_Source\PSoC4/ble_uds.c **** * 
 369:Generated_Source\PSoC4/ble_uds.c **** ******************************************************************************/
 370:Generated_Source\PSoC4/ble_uds.c **** void CyBle_UdsInit(void)
 371:Generated_Source\PSoC4/ble_uds.c **** {
  28              		.loc 1 371 0
ARM GAS  C:\Users\310309~1\AppData\Local\Temp\cckEzWOW.s 			page 8


  29              		.cfi_startproc
  30              		@ args = 0, pretend = 0, frame = 0
  31              		@ frame_needed = 0, uses_anonymous_args = 0
  32              		@ link register save eliminated.
 372:Generated_Source\PSoC4/ble_uds.c **** #ifdef CYBLE_UDS_SERVER
 373:Generated_Source\PSoC4/ble_uds.c ****     cyBle_udsFlag = 0u;
  33              		.loc 1 373 0
  34 0000 0023     		movs	r3, #0
  35 0002 024A     		ldr	r2, .L2
  36 0004 1370     		strb	r3, [r2]
 374:Generated_Source\PSoC4/ble_uds.c ****     cyBle_udssReqHandle = CYBLE_GATT_INVALID_ATTR_HANDLE_VALUE;
  37              		.loc 1 374 0
  38 0006 024A     		ldr	r2, .L2+4
  39 0008 1380     		strh	r3, [r2]
 375:Generated_Source\PSoC4/ble_uds.c **** #endif /* CYBLE_UDS_SERVER */
 376:Generated_Source\PSoC4/ble_uds.c **** #ifdef CYBLE_UDS_CLIENT
 377:Generated_Source\PSoC4/ble_uds.c ****     if(cyBle_serverInfo[CYBLE_SRVI_UDS].range.startHandle == CYBLE_GATT_INVALID_ATTR_HANDLE_VALUE)
 378:Generated_Source\PSoC4/ble_uds.c ****     {
 379:Generated_Source\PSoC4/ble_uds.c ****         (void)memset(&cyBle_udsc, 0, sizeof(cyBle_udsc));
 380:Generated_Source\PSoC4/ble_uds.c ****     }
 381:Generated_Source\PSoC4/ble_uds.c ****     cyBle_udscReqHandle = CYBLE_GATT_INVALID_ATTR_HANDLE_VALUE;
 382:Generated_Source\PSoC4/ble_uds.c **** #endif /* CYBLE_UDS_CLIENT */
 383:Generated_Source\PSoC4/ble_uds.c **** }
  40              		.loc 1 383 0
  41              		@ sp needed
  42 000a 7047     		bx	lr
  43              	.L3:
  44              		.align	2
  45              	.L2:
  46 000c 00000000 		.word	cyBle_udsFlag
  47 0010 00000000 		.word	.LANCHOR0
  48              		.cfi_endproc
  49              	.LFE2:
  50              		.size	CyBle_UdsInit, .-CyBle_UdsInit
  51              		.section	.text.CyBle_UdsRegisterAttrCallback,"ax",%progbits
  52              		.align	2
  53              		.global	CyBle_UdsRegisterAttrCallback
  54              		.code	16
  55              		.thumb_func
  56              		.type	CyBle_UdsRegisterAttrCallback, %function
  57              	CyBle_UdsRegisterAttrCallback:
  58              	.LFB3:
 384:Generated_Source\PSoC4/ble_uds.c **** 
 385:Generated_Source\PSoC4/ble_uds.c **** 
 386:Generated_Source\PSoC4/ble_uds.c **** /******************************************************************************
 387:Generated_Source\PSoC4/ble_uds.c **** * Function Name: CyBle_UdsRegisterAttrCallback
 388:Generated_Source\PSoC4/ble_uds.c **** ***************************************************************************//**
 389:Generated_Source\PSoC4/ble_uds.c **** * 
 390:Generated_Source\PSoC4/ble_uds.c **** *  Registers a callback function for service-specific attribute operations.
 391:Generated_Source\PSoC4/ble_uds.c **** *  Service-specific write requests from a peer device will not be handled with
 392:Generated_Source\PSoC4/ble_uds.c **** *  an unregistered callback function.
 393:Generated_Source\PSoC4/ble_uds.c **** * 
 394:Generated_Source\PSoC4/ble_uds.c **** *  \param callbackFunc: An application layer event callback function to receive 
 395:Generated_Source\PSoC4/ble_uds.c **** *                        events from the BLE Component. The definition of 
 396:Generated_Source\PSoC4/ble_uds.c **** *                        CYBLE_CALLBACK_T for UDS is: \n
 397:Generated_Source\PSoC4/ble_uds.c **** *    typedef void (* CYBLE_CALLBACK_T) (uint32 eventCode, void *eventParam),
 398:Generated_Source\PSoC4/ble_uds.c **** *    where:
ARM GAS  C:\Users\310309~1\AppData\Local\Temp\cckEzWOW.s 			page 9


 399:Generated_Source\PSoC4/ble_uds.c **** *      * eventCode indicates the event that triggered this callback.
 400:Generated_Source\PSoC4/ble_uds.c **** *      * eventParam contains the parameters corresponding to the current event.
 401:Generated_Source\PSoC4/ble_uds.c **** *
 402:Generated_Source\PSoC4/ble_uds.c **** * \sideeffect
 403:Generated_Source\PSoC4/ble_uds.c **** *  The *eventParams in the callback function should not be used by the 
 404:Generated_Source\PSoC4/ble_uds.c **** *  application once the callback function execution is finished. Otherwise this
 405:Generated_Source\PSoC4/ble_uds.c **** *  data may become corrupted.
 406:Generated_Source\PSoC4/ble_uds.c **** *  
 407:Generated_Source\PSoC4/ble_uds.c **** ******************************************************************************/
 408:Generated_Source\PSoC4/ble_uds.c **** void CyBle_UdsRegisterAttrCallback(CYBLE_CALLBACK_T callbackFunc)
 409:Generated_Source\PSoC4/ble_uds.c **** {
  59              		.loc 1 409 0
  60              		.cfi_startproc
  61              		@ args = 0, pretend = 0, frame = 0
  62              		@ frame_needed = 0, uses_anonymous_args = 0
  63              		@ link register save eliminated.
  64              	.LVL0:
 410:Generated_Source\PSoC4/ble_uds.c ****     CyBle_UdsApplCallback = callbackFunc;
  65              		.loc 1 410 0
  66 0000 014B     		ldr	r3, .L5
  67 0002 5860     		str	r0, [r3, #4]
 411:Generated_Source\PSoC4/ble_uds.c **** }
  68              		.loc 1 411 0
  69              		@ sp needed
  70 0004 7047     		bx	lr
  71              	.L6:
  72 0006 C046     		.align	2
  73              	.L5:
  74 0008 00000000 		.word	.LANCHOR0
  75              		.cfi_endproc
  76              	.LFE3:
  77              		.size	CyBle_UdsRegisterAttrCallback, .-CyBle_UdsRegisterAttrCallback
  78              		.section	.text.CyBle_UdssSetCharacteristicValue,"ax",%progbits
  79              		.align	2
  80              		.global	CyBle_UdssSetCharacteristicValue
  81              		.code	16
  82              		.thumb_func
  83              		.type	CyBle_UdssSetCharacteristicValue, %function
  84              	CyBle_UdssSetCharacteristicValue:
  85              	.LFB4:
 412:Generated_Source\PSoC4/ble_uds.c **** 
 413:Generated_Source\PSoC4/ble_uds.c **** 
 414:Generated_Source\PSoC4/ble_uds.c **** #ifdef CYBLE_UDS_SERVER
 415:Generated_Source\PSoC4/ble_uds.c **** 
 416:Generated_Source\PSoC4/ble_uds.c **** 
 417:Generated_Source\PSoC4/ble_uds.c **** /******************************************************************************
 418:Generated_Source\PSoC4/ble_uds.c **** * Function Name: CyBle_UdssSetCharacteristicValue
 419:Generated_Source\PSoC4/ble_uds.c **** ***************************************************************************//**
 420:Generated_Source\PSoC4/ble_uds.c **** * 
 421:Generated_Source\PSoC4/ble_uds.c **** *  Sets the value of the characteristic, as identified by charIndex.
 422:Generated_Source\PSoC4/ble_uds.c **** * 
 423:Generated_Source\PSoC4/ble_uds.c **** *  \param charIndex:  The index of the service characteristic.
 424:Generated_Source\PSoC4/ble_uds.c **** *  \param attrSize:   The size of the characteristic value attribute.
 425:Generated_Source\PSoC4/ble_uds.c **** *  \param attrValue: The pointer to the characteristic value data that should be
 426:Generated_Source\PSoC4/ble_uds.c **** *                     stored to the GATT database.
 427:Generated_Source\PSoC4/ble_uds.c **** * 
 428:Generated_Source\PSoC4/ble_uds.c **** * \return
ARM GAS  C:\Users\310309~1\AppData\Local\Temp\cckEzWOW.s 			page 10


 429:Generated_Source\PSoC4/ble_uds.c **** *  A return value is of type CYBLE_API_RESULT_T.
 430:Generated_Source\PSoC4/ble_uds.c **** *  * CYBLE_ERROR_OK - The request handled successfully.
 431:Generated_Source\PSoC4/ble_uds.c **** *  * CYBLE_ERROR_INVALID_PARAMETER - Validation of the input parameter failed.
 432:Generated_Source\PSoC4/ble_uds.c **** *  * CYBLE_ERROR_GATT_DB_INVALID_ATTR_HANDLE - An optional characteristic is absent
 433:Generated_Source\PSoC4/ble_uds.c **** *
 434:Generated_Source\PSoC4/ble_uds.c **** ******************************************************************************/
 435:Generated_Source\PSoC4/ble_uds.c **** CYBLE_API_RESULT_T CyBle_UdssSetCharacteristicValue(CYBLE_UDS_CHAR_INDEX_T charIndex, uint8 attrSiz
 436:Generated_Source\PSoC4/ble_uds.c **** {
  86              		.loc 1 436 0
  87              		.cfi_startproc
  88              		@ args = 0, pretend = 0, frame = 16
  89              		@ frame_needed = 0, uses_anonymous_args = 0
  90              	.LVL1:
  91 0000 00B5     		push	{lr}
  92              		.cfi_def_cfa_offset 4
  93              		.cfi_offset 14, -4
  94 0002 85B0     		sub	sp, sp, #20
  95              		.cfi_def_cfa_offset 24
 437:Generated_Source\PSoC4/ble_uds.c ****     CYBLE_API_RESULT_T apiResult;
 438:Generated_Source\PSoC4/ble_uds.c ****     
 439:Generated_Source\PSoC4/ble_uds.c ****     /* Check parameters */
 440:Generated_Source\PSoC4/ble_uds.c ****     if(charIndex >= CYBLE_UDS_CHAR_COUNT)
  96              		.loc 1 440 0
  97 0004 1E28     		cmp	r0, #30
  98 0006 14D8     		bhi	.L10
 441:Generated_Source\PSoC4/ble_uds.c ****     {
 442:Generated_Source\PSoC4/ble_uds.c ****         apiResult = CYBLE_ERROR_INVALID_PARAMETER;
 443:Generated_Source\PSoC4/ble_uds.c ****     }
 444:Generated_Source\PSoC4/ble_uds.c **** 	else if(cyBle_udss.charInfo[charIndex].charHandle == CYBLE_GATT_INVALID_ATTR_HANDLE_VALUE)
  99              		.loc 1 444 0
 100 0008 8000     		lsls	r0, r0, #2
 101              	.LVL2:
 102 000a 0C4B     		ldr	r3, .L13
 103 000c 1818     		adds	r0, r3, r0
 104 000e 4388     		ldrh	r3, [r0, #2]
 105 0010 002B     		cmp	r3, #0
 106 0012 10D0     		beq	.L11
 107              	.LBB2:
 445:Generated_Source\PSoC4/ble_uds.c ****     {
 446:Generated_Source\PSoC4/ble_uds.c ****         apiResult = CYBLE_ERROR_GATT_DB_INVALID_ATTR_HANDLE;
 447:Generated_Source\PSoC4/ble_uds.c ****     } 
 448:Generated_Source\PSoC4/ble_uds.c ****     else
 449:Generated_Source\PSoC4/ble_uds.c ****     {
 450:Generated_Source\PSoC4/ble_uds.c ****         CYBLE_GATT_HANDLE_VALUE_PAIR_T locHandleValuePair;
 451:Generated_Source\PSoC4/ble_uds.c ****         
 452:Generated_Source\PSoC4/ble_uds.c ****         /* Store characteristic value into GATT database */
 453:Generated_Source\PSoC4/ble_uds.c ****         locHandleValuePair.attrHandle = cyBle_udss.charInfo[charIndex].charHandle;
 108              		.loc 1 453 0
 109 0014 01A8     		add	r0, sp, #4
 110 0016 0381     		strh	r3, [r0, #8]
 454:Generated_Source\PSoC4/ble_uds.c ****         locHandleValuePair.value.len = attrSize;
 111              		.loc 1 454 0
 112 0018 8180     		strh	r1, [r0, #4]
 455:Generated_Source\PSoC4/ble_uds.c ****         locHandleValuePair.value.val = attrValue;
 113              		.loc 1 455 0
 114 001a 0192     		str	r2, [sp, #4]
 456:Generated_Source\PSoC4/ble_uds.c ****         
ARM GAS  C:\Users\310309~1\AppData\Local\Temp\cckEzWOW.s 			page 11


 457:Generated_Source\PSoC4/ble_uds.c ****         if(CYBLE_GATT_ERR_NONE != CyBle_GattsWriteAttributeValue(&locHandleValuePair,
 115              		.loc 1 457 0
 116 001c 0023     		movs	r3, #0
 117 001e 0022     		movs	r2, #0
 118              	.LVL3:
 119 0020 0021     		movs	r1, #0
 120              	.LVL4:
 121 0022 FFF7FEFF 		bl	CyBle_GattsWriteAttributeValue
 122              	.LVL5:
 123 0026 0028     		cmp	r0, #0
 124 0028 01D0     		beq	.L12
 458:Generated_Source\PSoC4/ble_uds.c ****                                     0u, NULL, CYBLE_GATT_DB_LOCALLY_INITIATED))
 459:Generated_Source\PSoC4/ble_uds.c ****         {
 460:Generated_Source\PSoC4/ble_uds.c ****             apiResult = CYBLE_ERROR_INVALID_PARAMETER;
 125              		.loc 1 460 0
 126 002a 0120     		movs	r0, #1
 127 002c 04E0     		b	.L8
 128              	.L12:
 461:Generated_Source\PSoC4/ble_uds.c ****         }
 462:Generated_Source\PSoC4/ble_uds.c ****         else
 463:Generated_Source\PSoC4/ble_uds.c ****         {
 464:Generated_Source\PSoC4/ble_uds.c ****             apiResult = CYBLE_ERROR_OK;
 129              		.loc 1 464 0
 130 002e 0020     		movs	r0, #0
 131              	.LVL6:
 132 0030 02E0     		b	.L8
 133              	.LVL7:
 134              	.L10:
 135              	.LBE2:
 442:Generated_Source\PSoC4/ble_uds.c ****     }
 136              		.loc 1 442 0
 137 0032 0120     		movs	r0, #1
 138              	.LVL8:
 139 0034 00E0     		b	.L8
 140              	.L11:
 446:Generated_Source\PSoC4/ble_uds.c ****     } 
 141              		.loc 1 446 0
 142 0036 1320     		movs	r0, #19
 143              	.LVL9:
 144              	.L8:
 465:Generated_Source\PSoC4/ble_uds.c ****         }
 466:Generated_Source\PSoC4/ble_uds.c ****     }
 467:Generated_Source\PSoC4/ble_uds.c **** 
 468:Generated_Source\PSoC4/ble_uds.c ****     return (apiResult);
 469:Generated_Source\PSoC4/ble_uds.c **** }
 145              		.loc 1 469 0
 146 0038 05B0     		add	sp, sp, #20
 147              		@ sp needed
 148 003a 00BD     		pop	{pc}
 149              	.L14:
 150              		.align	2
 151              	.L13:
 152 003c 00000000 		.word	.LANCHOR1
 153              		.cfi_endproc
 154              	.LFE4:
 155              		.size	CyBle_UdssSetCharacteristicValue, .-CyBle_UdssSetCharacteristicValue
 156              		.section	.text.CyBle_UdssGetCharacteristicValue,"ax",%progbits
ARM GAS  C:\Users\310309~1\AppData\Local\Temp\cckEzWOW.s 			page 12


 157              		.align	2
 158              		.global	CyBle_UdssGetCharacteristicValue
 159              		.code	16
 160              		.thumb_func
 161              		.type	CyBle_UdssGetCharacteristicValue, %function
 162              	CyBle_UdssGetCharacteristicValue:
 163              	.LFB5:
 470:Generated_Source\PSoC4/ble_uds.c **** 
 471:Generated_Source\PSoC4/ble_uds.c **** 
 472:Generated_Source\PSoC4/ble_uds.c **** /******************************************************************************
 473:Generated_Source\PSoC4/ble_uds.c **** * Function Name: CyBle_UdssGetCharacteristicValue
 474:Generated_Source\PSoC4/ble_uds.c **** ***************************************************************************//**
 475:Generated_Source\PSoC4/ble_uds.c **** * 
 476:Generated_Source\PSoC4/ble_uds.c **** *  Gets the value of the characteristic, as identified by charIndex.
 477:Generated_Source\PSoC4/ble_uds.c **** * 
 478:Generated_Source\PSoC4/ble_uds.c **** *  \param charIndex:  The index of the service characteristic.
 479:Generated_Source\PSoC4/ble_uds.c **** *  \param attrSize:   The size of the characteristic value attribute.
 480:Generated_Source\PSoC4/ble_uds.c **** *  \param attrValue: The pointer to the location where characteristic 
 481:Generated_Source\PSoC4/ble_uds.c **** *                     value data should be stored.
 482:Generated_Source\PSoC4/ble_uds.c **** * 
 483:Generated_Source\PSoC4/ble_uds.c **** * \return
 484:Generated_Source\PSoC4/ble_uds.c **** *  A return value is of type CYBLE_API_RESULT_T.
 485:Generated_Source\PSoC4/ble_uds.c **** *   * CYBLE_ERROR_OK - The characteristic value was read successfully
 486:Generated_Source\PSoC4/ble_uds.c **** *   * CYBLE_ERROR_INVALID_PARAMETER - Validation of the input parameter failed.
 487:Generated_Source\PSoC4/ble_uds.c **** *   * CYBLE_ERROR_GATT_DB_INVALID_ATTR_HANDLE - A characteristic is absent.
 488:Generated_Source\PSoC4/ble_uds.c **** *
 489:Generated_Source\PSoC4/ble_uds.c **** ******************************************************************************/
 490:Generated_Source\PSoC4/ble_uds.c **** CYBLE_API_RESULT_T CyBle_UdssGetCharacteristicValue(CYBLE_UDS_CHAR_INDEX_T charIndex, uint8 attrSiz
 491:Generated_Source\PSoC4/ble_uds.c **** {
 164              		.loc 1 491 0
 165              		.cfi_startproc
 166              		@ args = 0, pretend = 0, frame = 16
 167              		@ frame_needed = 0, uses_anonymous_args = 0
 168              	.LVL10:
 169 0000 00B5     		push	{lr}
 170              		.cfi_def_cfa_offset 4
 171              		.cfi_offset 14, -4
 172 0002 85B0     		sub	sp, sp, #20
 173              		.cfi_def_cfa_offset 24
 492:Generated_Source\PSoC4/ble_uds.c ****     CYBLE_API_RESULT_T apiResult;
 493:Generated_Source\PSoC4/ble_uds.c ****     
 494:Generated_Source\PSoC4/ble_uds.c ****     /* Check parameters */
 495:Generated_Source\PSoC4/ble_uds.c ****     if(charIndex >= CYBLE_UDS_CHAR_COUNT)
 174              		.loc 1 495 0
 175 0004 1E28     		cmp	r0, #30
 176 0006 13D8     		bhi	.L18
 496:Generated_Source\PSoC4/ble_uds.c ****     {
 497:Generated_Source\PSoC4/ble_uds.c ****         apiResult = CYBLE_ERROR_INVALID_PARAMETER;
 498:Generated_Source\PSoC4/ble_uds.c ****     }
 499:Generated_Source\PSoC4/ble_uds.c **** 	else if(cyBle_udss.charInfo[charIndex].charHandle == CYBLE_GATT_INVALID_ATTR_HANDLE_VALUE)
 177              		.loc 1 499 0
 178 0008 8000     		lsls	r0, r0, #2
 179              	.LVL11:
 180 000a 0C4B     		ldr	r3, .L21
 181 000c 1818     		adds	r0, r3, r0
 182 000e 4388     		ldrh	r3, [r0, #2]
 183 0010 002B     		cmp	r3, #0
ARM GAS  C:\Users\310309~1\AppData\Local\Temp\cckEzWOW.s 			page 13


 184 0012 0FD0     		beq	.L19
 185              	.LBB3:
 500:Generated_Source\PSoC4/ble_uds.c ****     {
 501:Generated_Source\PSoC4/ble_uds.c ****         apiResult = CYBLE_ERROR_GATT_DB_INVALID_ATTR_HANDLE;
 502:Generated_Source\PSoC4/ble_uds.c ****     }
 503:Generated_Source\PSoC4/ble_uds.c ****     else
 504:Generated_Source\PSoC4/ble_uds.c ****     {
 505:Generated_Source\PSoC4/ble_uds.c ****         CYBLE_GATT_HANDLE_VALUE_PAIR_T locHandleValuePair;
 506:Generated_Source\PSoC4/ble_uds.c ****         
 507:Generated_Source\PSoC4/ble_uds.c ****         /* Get characteristic value from GATT database */
 508:Generated_Source\PSoC4/ble_uds.c ****         locHandleValuePair.attrHandle = cyBle_udss.charInfo[charIndex].charHandle;
 186              		.loc 1 508 0
 187 0014 01A8     		add	r0, sp, #4
 188 0016 0381     		strh	r3, [r0, #8]
 509:Generated_Source\PSoC4/ble_uds.c ****         locHandleValuePair.value.len = attrSize;
 189              		.loc 1 509 0
 190 0018 8180     		strh	r1, [r0, #4]
 510:Generated_Source\PSoC4/ble_uds.c ****         locHandleValuePair.value.val = attrValue;
 191              		.loc 1 510 0
 192 001a 0192     		str	r2, [sp, #4]
 511:Generated_Source\PSoC4/ble_uds.c ****         
 512:Generated_Source\PSoC4/ble_uds.c ****         if(CYBLE_GATT_ERR_NONE != CyBle_GattsReadAttributeValue(&locHandleValuePair,
 193              		.loc 1 512 0
 194 001c 0022     		movs	r2, #0
 195              	.LVL12:
 196 001e 0021     		movs	r1, #0
 197              	.LVL13:
 198 0020 FFF7FEFF 		bl	CyBle_GattsReadAttributeValue
 199              	.LVL14:
 200 0024 0028     		cmp	r0, #0
 201 0026 01D0     		beq	.L20
 513:Generated_Source\PSoC4/ble_uds.c ****                                     0u, CYBLE_GATT_DB_LOCALLY_INITIATED))
 514:Generated_Source\PSoC4/ble_uds.c ****         {
 515:Generated_Source\PSoC4/ble_uds.c ****             apiResult = CYBLE_ERROR_INVALID_PARAMETER;
 202              		.loc 1 515 0
 203 0028 0120     		movs	r0, #1
 204 002a 04E0     		b	.L16
 205              	.L20:
 516:Generated_Source\PSoC4/ble_uds.c ****         }
 517:Generated_Source\PSoC4/ble_uds.c ****         else
 518:Generated_Source\PSoC4/ble_uds.c ****         {
 519:Generated_Source\PSoC4/ble_uds.c ****             apiResult = CYBLE_ERROR_OK;
 206              		.loc 1 519 0
 207 002c 0020     		movs	r0, #0
 208              	.LVL15:
 209 002e 02E0     		b	.L16
 210              	.LVL16:
 211              	.L18:
 212              	.LBE3:
 497:Generated_Source\PSoC4/ble_uds.c ****     }
 213              		.loc 1 497 0
 214 0030 0120     		movs	r0, #1
 215              	.LVL17:
 216 0032 00E0     		b	.L16
 217              	.L19:
 501:Generated_Source\PSoC4/ble_uds.c ****     }
 218              		.loc 1 501 0
ARM GAS  C:\Users\310309~1\AppData\Local\Temp\cckEzWOW.s 			page 14


 219 0034 1320     		movs	r0, #19
 220              	.LVL18:
 221              	.L16:
 520:Generated_Source\PSoC4/ble_uds.c ****         }
 521:Generated_Source\PSoC4/ble_uds.c ****     }
 522:Generated_Source\PSoC4/ble_uds.c **** 
 523:Generated_Source\PSoC4/ble_uds.c ****     return (apiResult);
 524:Generated_Source\PSoC4/ble_uds.c **** }
 222              		.loc 1 524 0
 223 0036 05B0     		add	sp, sp, #20
 224              		@ sp needed
 225 0038 00BD     		pop	{pc}
 226              	.L22:
 227 003a C046     		.align	2
 228              	.L21:
 229 003c 00000000 		.word	.LANCHOR1
 230              		.cfi_endproc
 231              	.LFE5:
 232              		.size	CyBle_UdssGetCharacteristicValue, .-CyBle_UdssGetCharacteristicValue
 233              		.section	.text.CyBle_UdssGetCharacteristicDescriptor,"ax",%progbits
 234              		.align	2
 235              		.global	CyBle_UdssGetCharacteristicDescriptor
 236              		.code	16
 237              		.thumb_func
 238              		.type	CyBle_UdssGetCharacteristicDescriptor, %function
 239              	CyBle_UdssGetCharacteristicDescriptor:
 240              	.LFB6:
 525:Generated_Source\PSoC4/ble_uds.c **** 
 526:Generated_Source\PSoC4/ble_uds.c **** 
 527:Generated_Source\PSoC4/ble_uds.c **** /******************************************************************************
 528:Generated_Source\PSoC4/ble_uds.c **** * Function Name: CyBle_UdssGetCharacteristicDescriptor
 529:Generated_Source\PSoC4/ble_uds.c **** ***************************************************************************//**
 530:Generated_Source\PSoC4/ble_uds.c **** * 
 531:Generated_Source\PSoC4/ble_uds.c **** *  Gets a characteristic descriptor of the specified characteristic.
 532:Generated_Source\PSoC4/ble_uds.c **** * 
 533:Generated_Source\PSoC4/ble_uds.c **** *  \param charIndex:  The index of the characteristic.
 534:Generated_Source\PSoC4/ble_uds.c **** *  \param descrIndex: The index of the descriptor.
 535:Generated_Source\PSoC4/ble_uds.c **** *  \param attrSize:   The size of the descriptor value attribute.
 536:Generated_Source\PSoC4/ble_uds.c **** *  \param attrValue: The pointer to the location where characteristic descriptor value 
 537:Generated_Source\PSoC4/ble_uds.c **** *                     data should be stored. 
 538:Generated_Source\PSoC4/ble_uds.c **** * 
 539:Generated_Source\PSoC4/ble_uds.c **** * \return
 540:Generated_Source\PSoC4/ble_uds.c **** *  A return value is of type CYBLE_API_RESULT_T.
 541:Generated_Source\PSoC4/ble_uds.c **** *   * CYBLE_ERROR_OK - Characteristic Descriptor value was read successfully
 542:Generated_Source\PSoC4/ble_uds.c **** *   * CYBLE_ERROR_INVALID_PARAMETER - Validation of the input parameter failed.
 543:Generated_Source\PSoC4/ble_uds.c **** *   * CYBLE_ERROR_GATT_DB_INVALID_ATTR_HANDLE - A characteristic is absent.
 544:Generated_Source\PSoC4/ble_uds.c **** *
 545:Generated_Source\PSoC4/ble_uds.c **** ******************************************************************************/
 546:Generated_Source\PSoC4/ble_uds.c **** CYBLE_API_RESULT_T CyBle_UdssGetCharacteristicDescriptor(CYBLE_UDS_CHAR_INDEX_T charIndex, 
 547:Generated_Source\PSoC4/ble_uds.c ****                                                          CYBLE_UDS_DESCR_INDEX_T descrIndex,
 548:Generated_Source\PSoC4/ble_uds.c ****                                                          uint8 attrSize, uint8 *attrValue)
 549:Generated_Source\PSoC4/ble_uds.c **** {
 241              		.loc 1 549 0
 242              		.cfi_startproc
 243              		@ args = 0, pretend = 0, frame = 16
 244              		@ frame_needed = 0, uses_anonymous_args = 0
 245              	.LVL19:
ARM GAS  C:\Users\310309~1\AppData\Local\Temp\cckEzWOW.s 			page 15


 246 0000 30B5     		push	{r4, r5, lr}
 247              		.cfi_def_cfa_offset 12
 248              		.cfi_offset 4, -12
 249              		.cfi_offset 5, -8
 250              		.cfi_offset 14, -4
 251 0002 85B0     		sub	sp, sp, #20
 252              		.cfi_def_cfa_offset 32
 550:Generated_Source\PSoC4/ble_uds.c ****     CYBLE_API_RESULT_T apiResult;
 551:Generated_Source\PSoC4/ble_uds.c ****     
 552:Generated_Source\PSoC4/ble_uds.c ****     /* Check parameters */
 553:Generated_Source\PSoC4/ble_uds.c ****     if((charIndex >= CYBLE_UDS_CHAR_COUNT) || (descrIndex >= CYBLE_UDS_DESCR_COUNT))
 253              		.loc 1 553 0
 254 0004 1E28     		cmp	r0, #30
 255 0006 1AD8     		bhi	.L26
 256              		.loc 1 553 0 is_stmt 0 discriminator 1
 257 0008 0029     		cmp	r1, #0
 258 000a 1AD1     		bne	.L27
 554:Generated_Source\PSoC4/ble_uds.c ****     {
 555:Generated_Source\PSoC4/ble_uds.c ****         apiResult = CYBLE_ERROR_INVALID_PARAMETER;
 556:Generated_Source\PSoC4/ble_uds.c ****     }
 557:Generated_Source\PSoC4/ble_uds.c ****     else if(cyBle_udss.charInfo[charIndex].descrHandle[CYBLE_UDS_CCCD] == CYBLE_GATT_INVALID_ATTR_H
 259              		.loc 1 557 0 is_stmt 1
 260 000c 8400     		lsls	r4, r0, #2
 261 000e 0F4D     		ldr	r5, .L30
 262 0010 2C19     		adds	r4, r5, r4
 263 0012 A488     		ldrh	r4, [r4, #4]
 264 0014 002C     		cmp	r4, #0
 265 0016 16D0     		beq	.L28
 266              	.LBB4:
 558:Generated_Source\PSoC4/ble_uds.c ****     {
 559:Generated_Source\PSoC4/ble_uds.c ****         apiResult = CYBLE_ERROR_GATT_DB_INVALID_ATTR_HANDLE;
 560:Generated_Source\PSoC4/ble_uds.c ****     }
 561:Generated_Source\PSoC4/ble_uds.c ****     else
 562:Generated_Source\PSoC4/ble_uds.c ****     {
 563:Generated_Source\PSoC4/ble_uds.c ****         CYBLE_GATT_HANDLE_VALUE_PAIR_T locHandleValuePair;
 564:Generated_Source\PSoC4/ble_uds.c ****         
 565:Generated_Source\PSoC4/ble_uds.c ****         /* Get data from database */
 566:Generated_Source\PSoC4/ble_uds.c ****         locHandleValuePair.attrHandle = cyBle_udss.charInfo[charIndex].descrHandle[descrIndex];
 267              		.loc 1 566 0
 268 0018 4000     		lsls	r0, r0, #1
 269              	.LVL20:
 270 001a 4018     		adds	r0, r0, r1
 271 001c 4000     		lsls	r0, r0, #1
 272 001e 2818     		adds	r0, r5, r0
 273 0020 8188     		ldrh	r1, [r0, #4]
 274              	.LVL21:
 275 0022 01A8     		add	r0, sp, #4
 276 0024 0181     		strh	r1, [r0, #8]
 567:Generated_Source\PSoC4/ble_uds.c ****         locHandleValuePair.value.len = attrSize;
 277              		.loc 1 567 0
 278 0026 8280     		strh	r2, [r0, #4]
 568:Generated_Source\PSoC4/ble_uds.c ****         locHandleValuePair.value.val = attrValue;
 279              		.loc 1 568 0
 280 0028 0193     		str	r3, [sp, #4]
 569:Generated_Source\PSoC4/ble_uds.c **** 
 570:Generated_Source\PSoC4/ble_uds.c ****         if(CYBLE_GATT_ERR_NONE != CyBle_GattsReadAttributeValue(&locHandleValuePair,
 281              		.loc 1 570 0
ARM GAS  C:\Users\310309~1\AppData\Local\Temp\cckEzWOW.s 			page 16


 282 002a 0022     		movs	r2, #0
 283              	.LVL22:
 284 002c 0021     		movs	r1, #0
 285 002e FFF7FEFF 		bl	CyBle_GattsReadAttributeValue
 286              	.LVL23:
 287 0032 0028     		cmp	r0, #0
 288 0034 01D0     		beq	.L29
 571:Generated_Source\PSoC4/ble_uds.c ****                                     0u, CYBLE_GATT_DB_LOCALLY_INITIATED))
 572:Generated_Source\PSoC4/ble_uds.c ****         {
 573:Generated_Source\PSoC4/ble_uds.c ****             apiResult = CYBLE_ERROR_INVALID_PARAMETER;
 289              		.loc 1 573 0
 290 0036 0120     		movs	r0, #1
 291 0038 06E0     		b	.L24
 292              	.L29:
 574:Generated_Source\PSoC4/ble_uds.c ****         }
 575:Generated_Source\PSoC4/ble_uds.c ****         else
 576:Generated_Source\PSoC4/ble_uds.c ****         {
 577:Generated_Source\PSoC4/ble_uds.c ****             apiResult = CYBLE_ERROR_OK;
 293              		.loc 1 577 0
 294 003a 0020     		movs	r0, #0
 295              	.LVL24:
 296 003c 04E0     		b	.L24
 297              	.LVL25:
 298              	.L26:
 299              	.LBE4:
 555:Generated_Source\PSoC4/ble_uds.c ****     }
 300              		.loc 1 555 0
 301 003e 0120     		movs	r0, #1
 302              	.LVL26:
 303 0040 02E0     		b	.L24
 304              	.LVL27:
 305              	.L27:
 306 0042 0120     		movs	r0, #1
 307              	.LVL28:
 308 0044 00E0     		b	.L24
 309              	.LVL29:
 310              	.L28:
 559:Generated_Source\PSoC4/ble_uds.c ****     }
 311              		.loc 1 559 0
 312 0046 1320     		movs	r0, #19
 313              	.LVL30:
 314              	.L24:
 578:Generated_Source\PSoC4/ble_uds.c ****         }
 579:Generated_Source\PSoC4/ble_uds.c ****     }
 580:Generated_Source\PSoC4/ble_uds.c **** 
 581:Generated_Source\PSoC4/ble_uds.c ****     return (apiResult);
 582:Generated_Source\PSoC4/ble_uds.c **** }
 315              		.loc 1 582 0
 316 0048 05B0     		add	sp, sp, #20
 317              		@ sp needed
 318 004a 30BD     		pop	{r4, r5, pc}
 319              	.L31:
 320              		.align	2
 321              	.L30:
 322 004c 00000000 		.word	.LANCHOR1
 323              		.cfi_endproc
 324              	.LFE6:
ARM GAS  C:\Users\310309~1\AppData\Local\Temp\cckEzWOW.s 			page 17


 325              		.size	CyBle_UdssGetCharacteristicDescriptor, .-CyBle_UdssGetCharacteristicDescriptor
 326              		.section	.text.CyBle_UdssSendNotification,"ax",%progbits
 327              		.align	2
 328              		.global	CyBle_UdssSendNotification
 329              		.code	16
 330              		.thumb_func
 331              		.type	CyBle_UdssSendNotification, %function
 332              	CyBle_UdssSendNotification:
 333              	.LFB7:
 583:Generated_Source\PSoC4/ble_uds.c **** 
 584:Generated_Source\PSoC4/ble_uds.c **** 
 585:Generated_Source\PSoC4/ble_uds.c **** /******************************************************************************
 586:Generated_Source\PSoC4/ble_uds.c **** * Function Name: CyBle_UdssSendNotification
 587:Generated_Source\PSoC4/ble_uds.c **** ***************************************************************************//**
 588:Generated_Source\PSoC4/ble_uds.c **** * 
 589:Generated_Source\PSoC4/ble_uds.c **** *  Sends a notification of the specified characteristic value, as identified by
 590:Generated_Source\PSoC4/ble_uds.c **** *  the charIndex.
 591:Generated_Source\PSoC4/ble_uds.c **** *
 592:Generated_Source\PSoC4/ble_uds.c **** *  On enabling notification successfully for a service characteristic, if the GATT
 593:Generated_Source\PSoC4/ble_uds.c **** *  server has an updated value to be notified to the GATT Client, it sends out a
 594:Generated_Source\PSoC4/ble_uds.c **** *  'Handle Value Notification' which results in CYBLE_EVT_UDSC_NOTIFICATION event
 595:Generated_Source\PSoC4/ble_uds.c **** *  at the GATT Client's end.
 596:Generated_Source\PSoC4/ble_uds.c **** * 
 597:Generated_Source\PSoC4/ble_uds.c **** *  \param connHandle: The connection handle which consist of the device ID and ATT 
 598:Generated_Source\PSoC4/ble_uds.c **** *                     connection ID.
 599:Generated_Source\PSoC4/ble_uds.c **** *  \param charIndex:  The index of the service characteristic.
 600:Generated_Source\PSoC4/ble_uds.c **** *  \param attrSize:   The size of the characteristic value attribute.
 601:Generated_Source\PSoC4/ble_uds.c **** *  \param attrValue: The pointer to the characteristic value data
 602:Generated_Source\PSoC4/ble_uds.c **** *                     that should be sent to the client device. 
 603:Generated_Source\PSoC4/ble_uds.c **** * 
 604:Generated_Source\PSoC4/ble_uds.c **** * \return
 605:Generated_Source\PSoC4/ble_uds.c **** *  A return value is of type CYBLE_API_RESULT_T.
 606:Generated_Source\PSoC4/ble_uds.c **** *   * CYBLE_ERROR_OK - The request handled successfully.
 607:Generated_Source\PSoC4/ble_uds.c **** *   * CYBLE_ERROR_INVALID_PARAMETER - Validation of the input parameter failed.
 608:Generated_Source\PSoC4/ble_uds.c **** *   * CYBLE_ERROR_INVALID_OPERATION - Operation is invalid for this 
 609:Generated_Source\PSoC4/ble_uds.c **** *                                     characteristic
 610:Generated_Source\PSoC4/ble_uds.c **** *   * CYBLE_ERROR_GATT_DB_INVALID_ATTR_HANDLE - An optional characteristic is absent.
 611:Generated_Source\PSoC4/ble_uds.c **** *   * CYBLE_ERROR_INVALID_STATE - Connection with the client is not established.
 612:Generated_Source\PSoC4/ble_uds.c **** *   * CYBLE_ERROR_MEMORY_ALLOCATION_FAILED - Memory allocation failed.
 613:Generated_Source\PSoC4/ble_uds.c **** *   * CYBLE_ERROR_NTF_DISABLED - Notification is not enabled by the client.
 614:Generated_Source\PSoC4/ble_uds.c **** *
 615:Generated_Source\PSoC4/ble_uds.c **** ******************************************************************************/
 616:Generated_Source\PSoC4/ble_uds.c **** CYBLE_API_RESULT_T CyBle_UdssSendNotification(CYBLE_CONN_HANDLE_T connHandle,
 617:Generated_Source\PSoC4/ble_uds.c ****                     CYBLE_UDS_CHAR_INDEX_T charIndex, uint8 attrSize, uint8 *attrValue)
 618:Generated_Source\PSoC4/ble_uds.c **** {
 334              		.loc 1 618 0
 335              		.cfi_startproc
 336              		@ args = 0, pretend = 0, frame = 24
 337              		@ frame_needed = 0, uses_anonymous_args = 0
 338              	.LVL31:
 339 0000 70B5     		push	{r4, r5, r6, lr}
 340              		.cfi_def_cfa_offset 16
 341              		.cfi_offset 4, -16
 342              		.cfi_offset 5, -12
 343              		.cfi_offset 6, -8
 344              		.cfi_offset 14, -4
 345 0002 86B0     		sub	sp, sp, #24
ARM GAS  C:\Users\310309~1\AppData\Local\Temp\cckEzWOW.s 			page 18


 346              		.cfi_def_cfa_offset 40
 347 0004 01AC     		add	r4, sp, #4
 348 0006 2080     		strh	r0, [r4]
 349 0008 0C00     		movs	r4, r1
 350 000a 1500     		movs	r5, r2
 351 000c 1E00     		movs	r6, r3
 619:Generated_Source\PSoC4/ble_uds.c ****     CYBLE_API_RESULT_T apiResult;
 620:Generated_Source\PSoC4/ble_uds.c ****     
 621:Generated_Source\PSoC4/ble_uds.c ****     /* Send Notification if it is enabled and connected */
 622:Generated_Source\PSoC4/ble_uds.c ****     if(CYBLE_STATE_CONNECTED != CyBle_GetState())
 352              		.loc 1 622 0
 353 000e 174B     		ldr	r3, .L38
 354              	.LVL32:
 355 0010 1B78     		ldrb	r3, [r3]
 356 0012 022B     		cmp	r3, #2
 357 0014 1FD1     		bne	.L34
 623:Generated_Source\PSoC4/ble_uds.c ****     {
 624:Generated_Source\PSoC4/ble_uds.c ****         apiResult = CYBLE_ERROR_INVALID_STATE;
 625:Generated_Source\PSoC4/ble_uds.c ****     }
 626:Generated_Source\PSoC4/ble_uds.c ****     else if(charIndex >= CYBLE_UDS_CHAR_COUNT)
 358              		.loc 1 626 0
 359 0016 1E29     		cmp	r1, #30
 360 0018 20D8     		bhi	.L35
 627:Generated_Source\PSoC4/ble_uds.c ****     {
 628:Generated_Source\PSoC4/ble_uds.c ****         apiResult = CYBLE_ERROR_INVALID_PARAMETER;
 629:Generated_Source\PSoC4/ble_uds.c ****     }
 630:Generated_Source\PSoC4/ble_uds.c ****     else if(cyBle_udss.charInfo[charIndex].descrHandle[CYBLE_UDS_CCCD] == CYBLE_GATT_INVALID_ATTR_H
 361              		.loc 1 630 0
 362 001a 8B00     		lsls	r3, r1, #2
 363 001c 144A     		ldr	r2, .L38+4
 364              	.LVL33:
 365 001e D318     		adds	r3, r2, r3
 366 0020 9B88     		ldrh	r3, [r3, #4]
 367 0022 002B     		cmp	r3, #0
 368 0024 1CD0     		beq	.L36
 631:Generated_Source\PSoC4/ble_uds.c ****     {
 632:Generated_Source\PSoC4/ble_uds.c **** 		apiResult = CYBLE_ERROR_GATT_DB_INVALID_ATTR_HANDLE;
 633:Generated_Source\PSoC4/ble_uds.c **** 	}
 634:Generated_Source\PSoC4/ble_uds.c ****     else if(!CYBLE_IS_NOTIFICATION_ENABLED(cyBle_udss.charInfo[charIndex].descrHandle[CYBLE_UDS_CCC
 369              		.loc 1 634 0
 370 0026 013B     		subs	r3, r3, #1
 371 0028 9A00     		lsls	r2, r3, #2
 372 002a D318     		adds	r3, r2, r3
 373 002c 9A00     		lsls	r2, r3, #2
 374 002e 114B     		ldr	r3, .L38+8
 375 0030 9A18     		adds	r2, r3, r2
 376 0032 1369     		ldr	r3, [r2, #16]
 377 0034 5868     		ldr	r0, [r3, #4]
 378 0036 FFF7FEFF 		bl	CyBle_Get16ByPtr
 379              	.LVL34:
 380 003a C307     		lsls	r3, r0, #31
 381 003c 12D5     		bpl	.L37
 382              	.LBB5:
 635:Generated_Source\PSoC4/ble_uds.c ****     {
 636:Generated_Source\PSoC4/ble_uds.c ****         apiResult = CYBLE_ERROR_NTF_DISABLED;
 637:Generated_Source\PSoC4/ble_uds.c ****     }
 638:Generated_Source\PSoC4/ble_uds.c ****     else
ARM GAS  C:\Users\310309~1\AppData\Local\Temp\cckEzWOW.s 			page 19


 639:Generated_Source\PSoC4/ble_uds.c ****     {
 640:Generated_Source\PSoC4/ble_uds.c ****         CYBLE_GATTS_HANDLE_VALUE_NTF_T ntfParam;
 641:Generated_Source\PSoC4/ble_uds.c ****         
 642:Generated_Source\PSoC4/ble_uds.c ****         /* Fill all fields of write request structure ... */
 643:Generated_Source\PSoC4/ble_uds.c ****         ntfParam.attrHandle = cyBle_udss.charInfo[charIndex].charHandle; 
 383              		.loc 1 643 0
 384 003e A400     		lsls	r4, r4, #2
 385 0040 0B4B     		ldr	r3, .L38+4
 386 0042 1C19     		adds	r4, r3, r4
 387 0044 6388     		ldrh	r3, [r4, #2]
 388 0046 03A9     		add	r1, sp, #12
 389 0048 0B81     		strh	r3, [r1, #8]
 644:Generated_Source\PSoC4/ble_uds.c ****         ntfParam.value.val = attrValue;
 390              		.loc 1 644 0
 391 004a 0396     		str	r6, [sp, #12]
 645:Generated_Source\PSoC4/ble_uds.c ****         ntfParam.value.len = attrSize;
 392              		.loc 1 645 0
 393 004c 8D80     		strh	r5, [r1, #4]
 646:Generated_Source\PSoC4/ble_uds.c ****         
 647:Generated_Source\PSoC4/ble_uds.c ****         /* Send notification to client using previously filled structure */
 648:Generated_Source\PSoC4/ble_uds.c ****         apiResult = CyBle_GattsNotification(connHandle, &ntfParam);
 394              		.loc 1 648 0
 395 004e 0198     		ldr	r0, [sp, #4]
 396 0050 FFF7FEFF 		bl	CyBle_GattsNotification
 397              	.LVL35:
 398 0054 08E0     		b	.L33
 399              	.LVL36:
 400              	.L34:
 401              	.LBE5:
 624:Generated_Source\PSoC4/ble_uds.c ****     }
 402              		.loc 1 624 0
 403 0056 0420     		movs	r0, #4
 404 0058 FF30     		adds	r0, r0, #255
 405 005a 05E0     		b	.L33
 406              	.L35:
 628:Generated_Source\PSoC4/ble_uds.c ****     }
 407              		.loc 1 628 0
 408 005c 0120     		movs	r0, #1
 409 005e 03E0     		b	.L33
 410              	.LVL37:
 411              	.L36:
 632:Generated_Source\PSoC4/ble_uds.c **** 	}
 412              		.loc 1 632 0
 413 0060 1320     		movs	r0, #19
 414 0062 01E0     		b	.L33
 415              	.LVL38:
 416              	.L37:
 636:Generated_Source\PSoC4/ble_uds.c ****     }
 417              		.loc 1 636 0
 418 0064 8020     		movs	r0, #128
 419 0066 4000     		lsls	r0, r0, #1
 420              	.L33:
 421              	.LVL39:
 649:Generated_Source\PSoC4/ble_uds.c ****     }
 650:Generated_Source\PSoC4/ble_uds.c **** 
 651:Generated_Source\PSoC4/ble_uds.c ****     return (apiResult);
 652:Generated_Source\PSoC4/ble_uds.c **** }
ARM GAS  C:\Users\310309~1\AppData\Local\Temp\cckEzWOW.s 			page 20


 422              		.loc 1 652 0
 423 0068 06B0     		add	sp, sp, #24
 424              		@ sp needed
 425              	.LVL40:
 426 006a 70BD     		pop	{r4, r5, r6, pc}
 427              	.L39:
 428              		.align	2
 429              	.L38:
 430 006c 00000000 		.word	cyBle_state
 431 0070 00000000 		.word	.LANCHOR1
 432 0074 00000000 		.word	cyBle_gattDB
 433              		.cfi_endproc
 434              	.LFE7:
 435              		.size	CyBle_UdssSendNotification, .-CyBle_UdssSendNotification
 436              		.section	.text.CyBle_UdssSendIndication,"ax",%progbits
 437              		.align	2
 438              		.global	CyBle_UdssSendIndication
 439              		.code	16
 440              		.thumb_func
 441              		.type	CyBle_UdssSendIndication, %function
 442              	CyBle_UdssSendIndication:
 443              	.LFB8:
 653:Generated_Source\PSoC4/ble_uds.c **** 
 654:Generated_Source\PSoC4/ble_uds.c **** 
 655:Generated_Source\PSoC4/ble_uds.c **** /******************************************************************************
 656:Generated_Source\PSoC4/ble_uds.c **** * Function Name: CyBle_UdssSendIndication
 657:Generated_Source\PSoC4/ble_uds.c **** ***************************************************************************//**
 658:Generated_Source\PSoC4/ble_uds.c **** * 
 659:Generated_Source\PSoC4/ble_uds.c **** *  Sends an indication of the specified characteristic value, as identified by
 660:Generated_Source\PSoC4/ble_uds.c **** *  the charIndex.
 661:Generated_Source\PSoC4/ble_uds.c **** *
 662:Generated_Source\PSoC4/ble_uds.c **** *  On enabling indication successfully, if the GATT server has an updated value to be 
 663:Generated_Source\PSoC4/ble_uds.c **** *  indicated to the GATT Client, it sends out a 'Handle Value Indication' which
 664:Generated_Source\PSoC4/ble_uds.c **** *  results in CYBLE_EVT_UDSC_INDICATION or CYBLE_EVT_GATTC_HANDLE_VALUE_IND (if 
 665:Generated_Source\PSoC4/ble_uds.c **** *  service specific callback function is not registered) event at the GATT Client's end.
 666:Generated_Source\PSoC4/ble_uds.c **** *
 667:Generated_Source\PSoC4/ble_uds.c **** *  \param connHandle: The connection handle which consist of the device ID and ATT 
 668:Generated_Source\PSoC4/ble_uds.c **** *                     connection ID.
 669:Generated_Source\PSoC4/ble_uds.c **** *  \param charIndex:  The index of the service characteristic.
 670:Generated_Source\PSoC4/ble_uds.c **** *  \param attrSize:   The size of the characteristic value attribute.
 671:Generated_Source\PSoC4/ble_uds.c **** *  \param attrValue: The pointer to the characteristic value data that should be sent 
 672:Generated_Source\PSoC4/ble_uds.c **** *                     to the client device.
 673:Generated_Source\PSoC4/ble_uds.c **** * 
 674:Generated_Source\PSoC4/ble_uds.c **** * \return
 675:Generated_Source\PSoC4/ble_uds.c **** *  A return value is of type CYBLE_API_RESULT_T.
 676:Generated_Source\PSoC4/ble_uds.c **** *   * CYBLE_ERROR_OK - The request handled successfully.
 677:Generated_Source\PSoC4/ble_uds.c **** *   * CYBLE_ERROR_INVALID_PARAMETER - Validation of the input parameter failed.
 678:Generated_Source\PSoC4/ble_uds.c **** *   * CYBLE_ERROR_INVALID_OPERATION - Operation is invalid for this 
 679:Generated_Source\PSoC4/ble_uds.c **** *                                      characteristic.
 680:Generated_Source\PSoC4/ble_uds.c **** *   * CYBLE_ERROR_GATT_DB_INVALID_ATTR_HANDLE - An optional characteristic is absent.
 681:Generated_Source\PSoC4/ble_uds.c **** *   * CYBLE_ERROR_INVALID_STATE - Connection with the client is not established.
 682:Generated_Source\PSoC4/ble_uds.c **** *   * CYBLE_ERROR_MEMORY_ALLOCATION_FAILED - Memory allocation failed.
 683:Generated_Source\PSoC4/ble_uds.c **** *   * CYBLE_ERROR_NTF_DISABLED - Notification is not enabled by the client.
 684:Generated_Source\PSoC4/ble_uds.c **** *   * CYBLE_ERROR_IND_DISABLED - Indication is disabled for this characteristic.
 685:Generated_Source\PSoC4/ble_uds.c **** *
 686:Generated_Source\PSoC4/ble_uds.c **** * \events
 687:Generated_Source\PSoC4/ble_uds.c **** *  In case of successful execution (return value = CYBLE_ERROR_OK)
ARM GAS  C:\Users\310309~1\AppData\Local\Temp\cckEzWOW.s 			page 21


 688:Generated_Source\PSoC4/ble_uds.c **** *  the next events can appear: \n
 689:Generated_Source\PSoC4/ble_uds.c **** *   If the UDS service-specific callback is registered 
 690:Generated_Source\PSoC4/ble_uds.c **** *      (with CyBle_UdsRegisterAttrCallback):
 691:Generated_Source\PSoC4/ble_uds.c **** *  * CYBLE_EVT_UDSS_INDICATION_CONFIRMED - If the indication is
 692:Generated_Source\PSoC4/ble_uds.c **** *                                successfully delivered to the peer device.
 693:Generated_Source\PSoC4/ble_uds.c **** *  .
 694:Generated_Source\PSoC4/ble_uds.c **** *   Otherwise (if the UDS service-specific callback is not registered):
 695:Generated_Source\PSoC4/ble_uds.c **** *  * CYBLE_EVT_GATTS_HANDLE_VALUE_CNF - If the indication is
 696:Generated_Source\PSoC4/ble_uds.c **** *                                successfully delivered to the peer device.
 697:Generated_Source\PSoC4/ble_uds.c **** *
 698:Generated_Source\PSoC4/ble_uds.c **** ******************************************************************************/
 699:Generated_Source\PSoC4/ble_uds.c **** CYBLE_API_RESULT_T CyBle_UdssSendIndication(CYBLE_CONN_HANDLE_T connHandle,
 700:Generated_Source\PSoC4/ble_uds.c ****                     CYBLE_UDS_CHAR_INDEX_T charIndex, uint8 attrSize, uint8 *attrValue)
 701:Generated_Source\PSoC4/ble_uds.c **** {
 444              		.loc 1 701 0
 445              		.cfi_startproc
 446              		@ args = 0, pretend = 0, frame = 24
 447              		@ frame_needed = 0, uses_anonymous_args = 0
 448              	.LVL41:
 449 0000 70B5     		push	{r4, r5, r6, lr}
 450              		.cfi_def_cfa_offset 16
 451              		.cfi_offset 4, -16
 452              		.cfi_offset 5, -12
 453              		.cfi_offset 6, -8
 454              		.cfi_offset 14, -4
 455 0002 86B0     		sub	sp, sp, #24
 456              		.cfi_def_cfa_offset 40
 457 0004 01AC     		add	r4, sp, #4
 458 0006 2080     		strh	r0, [r4]
 459 0008 0C00     		movs	r4, r1
 460 000a 1500     		movs	r5, r2
 461 000c 1E00     		movs	r6, r3
 702:Generated_Source\PSoC4/ble_uds.c ****     CYBLE_API_RESULT_T apiResult;
 703:Generated_Source\PSoC4/ble_uds.c ****     
 704:Generated_Source\PSoC4/ble_uds.c ****     /* Send Indication if it is enabled and connected */
 705:Generated_Source\PSoC4/ble_uds.c ****     if(CYBLE_STATE_CONNECTED != CyBle_GetState())
 462              		.loc 1 705 0
 463 000e 1A4B     		ldr	r3, .L47
 464              	.LVL42:
 465 0010 1B78     		ldrb	r3, [r3]
 466 0012 022B     		cmp	r3, #2
 467 0014 25D1     		bne	.L43
 706:Generated_Source\PSoC4/ble_uds.c ****     {
 707:Generated_Source\PSoC4/ble_uds.c ****         apiResult = CYBLE_ERROR_INVALID_STATE;
 708:Generated_Source\PSoC4/ble_uds.c ****     }
 709:Generated_Source\PSoC4/ble_uds.c ****     else if(charIndex >= CYBLE_UDS_CHAR_COUNT)
 468              		.loc 1 709 0
 469 0016 1E29     		cmp	r1, #30
 470 0018 26D8     		bhi	.L44
 710:Generated_Source\PSoC4/ble_uds.c ****     {
 711:Generated_Source\PSoC4/ble_uds.c ****         apiResult = CYBLE_ERROR_INVALID_PARAMETER;
 712:Generated_Source\PSoC4/ble_uds.c ****     }
 713:Generated_Source\PSoC4/ble_uds.c ****     else if(cyBle_udss.charInfo[charIndex].descrHandle[CYBLE_UDS_CCCD] == CYBLE_GATT_INVALID_ATTR_H
 471              		.loc 1 713 0
 472 001a 8B00     		lsls	r3, r1, #2
 473 001c 174A     		ldr	r2, .L47+4
 474              	.LVL43:
ARM GAS  C:\Users\310309~1\AppData\Local\Temp\cckEzWOW.s 			page 22


 475 001e D318     		adds	r3, r2, r3
 476 0020 9B88     		ldrh	r3, [r3, #4]
 477 0022 002B     		cmp	r3, #0
 478 0024 22D0     		beq	.L45
 714:Generated_Source\PSoC4/ble_uds.c ****     {
 715:Generated_Source\PSoC4/ble_uds.c **** 		apiResult = CYBLE_ERROR_GATT_DB_INVALID_ATTR_HANDLE;
 716:Generated_Source\PSoC4/ble_uds.c **** 	}
 717:Generated_Source\PSoC4/ble_uds.c ****     else if(!CYBLE_IS_INDICATION_ENABLED(cyBle_udss.charInfo[charIndex].descrHandle[CYBLE_UDS_CCCD]
 479              		.loc 1 717 0
 480 0026 013B     		subs	r3, r3, #1
 481 0028 9A00     		lsls	r2, r3, #2
 482 002a D318     		adds	r3, r2, r3
 483 002c 9A00     		lsls	r2, r3, #2
 484 002e 144B     		ldr	r3, .L47+8
 485 0030 9A18     		adds	r2, r3, r2
 486 0032 1369     		ldr	r3, [r2, #16]
 487 0034 5868     		ldr	r0, [r3, #4]
 488 0036 FFF7FEFF 		bl	CyBle_Get16ByPtr
 489              	.LVL44:
 490 003a 8307     		lsls	r3, r0, #30
 491 003c 18D5     		bpl	.L46
 492              	.LBB6:
 718:Generated_Source\PSoC4/ble_uds.c ****     {
 719:Generated_Source\PSoC4/ble_uds.c ****         apiResult = CYBLE_ERROR_IND_DISABLED;
 720:Generated_Source\PSoC4/ble_uds.c ****     }
 721:Generated_Source\PSoC4/ble_uds.c ****     else
 722:Generated_Source\PSoC4/ble_uds.c ****     {
 723:Generated_Source\PSoC4/ble_uds.c ****         CYBLE_GATTS_HANDLE_VALUE_IND_T indParam;
 724:Generated_Source\PSoC4/ble_uds.c ****         
 725:Generated_Source\PSoC4/ble_uds.c ****         /* Fill all fields of write request structure ... */
 726:Generated_Source\PSoC4/ble_uds.c ****         indParam.attrHandle = cyBle_udss.charInfo[charIndex].charHandle; 
 493              		.loc 1 726 0
 494 003e A400     		lsls	r4, r4, #2
 495 0040 0E4B     		ldr	r3, .L47+4
 496 0042 1C19     		adds	r4, r3, r4
 497 0044 6388     		ldrh	r3, [r4, #2]
 498 0046 03A9     		add	r1, sp, #12
 499 0048 0B81     		strh	r3, [r1, #8]
 727:Generated_Source\PSoC4/ble_uds.c ****         indParam.value.val = attrValue;
 500              		.loc 1 727 0
 501 004a 0396     		str	r6, [sp, #12]
 728:Generated_Source\PSoC4/ble_uds.c ****         indParam.value.len = attrSize;
 502              		.loc 1 728 0
 503 004c 8D80     		strh	r5, [r1, #4]
 729:Generated_Source\PSoC4/ble_uds.c ****         
 730:Generated_Source\PSoC4/ble_uds.c ****         /* Send notification to client using previously filled structure */
 731:Generated_Source\PSoC4/ble_uds.c ****         apiResult = CyBle_GattsIndication(connHandle, &indParam);
 504              		.loc 1 731 0
 505 004e 0198     		ldr	r0, [sp, #4]
 506 0050 FFF7FEFF 		bl	CyBle_GattsIndication
 507              	.LVL45:
 732:Generated_Source\PSoC4/ble_uds.c ****         
 733:Generated_Source\PSoC4/ble_uds.c ****         if(apiResult == CYBLE_ERROR_OK)
 508              		.loc 1 733 0
 509 0054 0028     		cmp	r0, #0
 510 0056 0DD1     		bne	.L41
 734:Generated_Source\PSoC4/ble_uds.c ****         {
ARM GAS  C:\Users\310309~1\AppData\Local\Temp\cckEzWOW.s 			page 23


 735:Generated_Source\PSoC4/ble_uds.c ****             /* Save handle to support service specific value confirmation response from client */
 736:Generated_Source\PSoC4/ble_uds.c ****             cyBle_udssReqHandle = indParam.attrHandle;
 511              		.loc 1 736 0
 512 0058 03AB     		add	r3, sp, #12
 513 005a 1A89     		ldrh	r2, [r3, #8]
 514 005c 094B     		ldr	r3, .L47+12
 515 005e 1A80     		strh	r2, [r3]
 516 0060 08E0     		b	.L41
 517              	.LVL46:
 518              	.L43:
 519              	.LBE6:
 707:Generated_Source\PSoC4/ble_uds.c ****     }
 520              		.loc 1 707 0
 521 0062 0420     		movs	r0, #4
 522 0064 FF30     		adds	r0, r0, #255
 523 0066 05E0     		b	.L41
 524              	.L44:
 711:Generated_Source\PSoC4/ble_uds.c ****     }
 525              		.loc 1 711 0
 526 0068 0120     		movs	r0, #1
 527 006a 03E0     		b	.L41
 528              	.LVL47:
 529              	.L45:
 715:Generated_Source\PSoC4/ble_uds.c **** 	}
 530              		.loc 1 715 0
 531 006c 1320     		movs	r0, #19
 532 006e 01E0     		b	.L41
 533              	.LVL48:
 534              	.L46:
 719:Generated_Source\PSoC4/ble_uds.c ****     }
 535              		.loc 1 719 0
 536 0070 0220     		movs	r0, #2
 537 0072 FF30     		adds	r0, r0, #255
 538              	.L41:
 539              	.LVL49:
 737:Generated_Source\PSoC4/ble_uds.c ****         }
 738:Generated_Source\PSoC4/ble_uds.c ****     }
 739:Generated_Source\PSoC4/ble_uds.c **** 
 740:Generated_Source\PSoC4/ble_uds.c ****     return (apiResult);
 741:Generated_Source\PSoC4/ble_uds.c **** }
 540              		.loc 1 741 0
 541 0074 06B0     		add	sp, sp, #24
 542              		@ sp needed
 543              	.LVL50:
 544 0076 70BD     		pop	{r4, r5, r6, pc}
 545              	.L48:
 546              		.align	2
 547              	.L47:
 548 0078 00000000 		.word	cyBle_state
 549 007c 00000000 		.word	.LANCHOR1
 550 0080 00000000 		.word	cyBle_gattDB
 551 0084 00000000 		.word	.LANCHOR0
 552              		.cfi_endproc
 553              	.LFE8:
 554              		.size	CyBle_UdssSendIndication, .-CyBle_UdssSendIndication
 555              		.section	.text.CyBle_UdssConfirmationEventHandler,"ax",%progbits
 556              		.align	2
ARM GAS  C:\Users\310309~1\AppData\Local\Temp\cckEzWOW.s 			page 24


 557              		.global	CyBle_UdssConfirmationEventHandler
 558              		.code	16
 559              		.thumb_func
 560              		.type	CyBle_UdssConfirmationEventHandler, %function
 561              	CyBle_UdssConfirmationEventHandler:
 562              	.LFB9:
 742:Generated_Source\PSoC4/ble_uds.c **** 
 743:Generated_Source\PSoC4/ble_uds.c **** 
 744:Generated_Source\PSoC4/ble_uds.c **** /******************************************************************************
 745:Generated_Source\PSoC4/ble_uds.c **** * Function Name: CyBle_UdssConfirmationEventHandler
 746:Generated_Source\PSoC4/ble_uds.c **** ***************************************************************************//**
 747:Generated_Source\PSoC4/ble_uds.c **** * 
 748:Generated_Source\PSoC4/ble_uds.c **** *  Handles the Value Confirmation request event from the BLE stack.
 749:Generated_Source\PSoC4/ble_uds.c **** * 
 750:Generated_Source\PSoC4/ble_uds.c **** *  \param eventParam: The pointer to a structure of type CYBLE_CONN_HANDLE_T.
 751:Generated_Source\PSoC4/ble_uds.c **** * 
 752:Generated_Source\PSoC4/ble_uds.c **** ******************************************************************************/
 753:Generated_Source\PSoC4/ble_uds.c **** void CyBle_UdssConfirmationEventHandler(const CYBLE_CONN_HANDLE_T *eventParam)
 754:Generated_Source\PSoC4/ble_uds.c **** {
 563              		.loc 1 754 0
 564              		.cfi_startproc
 565              		@ args = 0, pretend = 0, frame = 16
 566              		@ frame_needed = 0, uses_anonymous_args = 0
 567              	.LVL51:
 568 0000 F0B5     		push	{r4, r5, r6, r7, lr}
 569              		.cfi_def_cfa_offset 20
 570              		.cfi_offset 4, -20
 571              		.cfi_offset 5, -16
 572              		.cfi_offset 6, -12
 573              		.cfi_offset 7, -8
 574              		.cfi_offset 14, -4
 575 0002 85B0     		sub	sp, sp, #20
 576              		.cfi_def_cfa_offset 40
 755:Generated_Source\PSoC4/ble_uds.c ****     if((NULL != CyBle_UdsApplCallback) 
 577              		.loc 1 755 0
 578 0004 104B     		ldr	r3, .L51
 579 0006 5C68     		ldr	r4, [r3, #4]
 580 0008 002C     		cmp	r4, #0
 581 000a 1BD0     		beq	.L49
 756:Generated_Source\PSoC4/ble_uds.c ****         && (cyBle_udss.charInfo[CYBLE_UDS_UCP].charHandle == cyBle_udssReqHandle))
 582              		.loc 1 756 0
 583 000c 1B88     		ldrh	r3, [r3]
 584 000e 8D2B     		cmp	r3, #141
 585 0010 18D1     		bne	.L49
 586              	.LBB7:
 757:Generated_Source\PSoC4/ble_uds.c ****     {   
 758:Generated_Source\PSoC4/ble_uds.c ****         CYBLE_UDS_CHAR_VALUE_T locCharIndex;
 759:Generated_Source\PSoC4/ble_uds.c ****         
 760:Generated_Source\PSoC4/ble_uds.c ****         cyBle_udssReqHandle = CYBLE_GATT_INVALID_ATTR_HANDLE_VALUE;
 587              		.loc 1 760 0
 588 0012 0027     		movs	r7, #0
 589 0014 0C4B     		ldr	r3, .L51
 590 0016 1F80     		strh	r7, [r3]
 761:Generated_Source\PSoC4/ble_uds.c ****         
 762:Generated_Source\PSoC4/ble_uds.c ****         cyBle_udsFlag &= (uint8) ~CYBLE_UDS_FLAG_PROCESS;
 591              		.loc 1 762 0
 592 0018 0C4A     		ldr	r2, .L51+4
ARM GAS  C:\Users\310309~1\AppData\Local\Temp\cckEzWOW.s 			page 25


 593 001a 1378     		ldrb	r3, [r2]
 594 001c 0126     		movs	r6, #1
 595 001e B343     		bics	r3, r6
 596 0020 1370     		strb	r3, [r2]
 763:Generated_Source\PSoC4/ble_uds.c ****         
 764:Generated_Source\PSoC4/ble_uds.c ****         locCharIndex.connHandle = *eventParam;
 597              		.loc 1 764 0
 598 0022 01AD     		add	r5, sp, #4
 599 0024 0222     		movs	r2, #2
 600 0026 0100     		movs	r1, r0
 601 0028 2800     		movs	r0, r5
 602              	.LVL52:
 603 002a FFF7FEFF 		bl	memcpy
 604              	.LVL53:
 765:Generated_Source\PSoC4/ble_uds.c ****         locCharIndex.charIndex = CYBLE_UDS_UCP;
 605              		.loc 1 765 0
 606 002e 1D23     		movs	r3, #29
 607 0030 AB70     		strb	r3, [r5, #2]
 766:Generated_Source\PSoC4/ble_uds.c ****         locCharIndex.value = NULL;
 608              		.loc 1 766 0
 609 0032 6F60     		str	r7, [r5, #4]
 767:Generated_Source\PSoC4/ble_uds.c ****         
 768:Generated_Source\PSoC4/ble_uds.c ****         cyBle_eventHandlerFlag &= (uint8)~CYBLE_CALLBACK;
 610              		.loc 1 768 0
 611 0034 064A     		ldr	r2, .L51+8
 612 0036 1378     		ldrb	r3, [r2]
 613 0038 B343     		bics	r3, r6
 614 003a 1370     		strb	r3, [r2]
 769:Generated_Source\PSoC4/ble_uds.c ****         CyBle_UdsApplCallback((uint32)CYBLE_EVT_UDSS_INDICATION_CONFIRMED, &locCharIndex);
 615              		.loc 1 769 0
 616 003c 2900     		movs	r1, r5
 617 003e 8120     		movs	r0, #129
 618 0040 8000     		lsls	r0, r0, #2
 619 0042 A047     		blx	r4
 620              	.LVL54:
 621              	.L49:
 622              	.LBE7:
 770:Generated_Source\PSoC4/ble_uds.c ****     }
 771:Generated_Source\PSoC4/ble_uds.c **** }
 623              		.loc 1 771 0
 624 0044 05B0     		add	sp, sp, #20
 625              		@ sp needed
 626 0046 F0BD     		pop	{r4, r5, r6, r7, pc}
 627              	.L52:
 628              		.align	2
 629              	.L51:
 630 0048 00000000 		.word	.LANCHOR0
 631 004c 00000000 		.word	cyBle_udsFlag
 632 0050 00000000 		.word	cyBle_eventHandlerFlag
 633              		.cfi_endproc
 634              	.LFE9:
 635              		.size	CyBle_UdssConfirmationEventHandler, .-CyBle_UdssConfirmationEventHandler
 636              		.section	.text.CyBle_UdssReadRequestEventHandler,"ax",%progbits
 637              		.align	2
 638              		.global	CyBle_UdssReadRequestEventHandler
 639              		.code	16
 640              		.thumb_func
ARM GAS  C:\Users\310309~1\AppData\Local\Temp\cckEzWOW.s 			page 26


 641              		.type	CyBle_UdssReadRequestEventHandler, %function
 642              	CyBle_UdssReadRequestEventHandler:
 643              	.LFB10:
 772:Generated_Source\PSoC4/ble_uds.c **** 
 773:Generated_Source\PSoC4/ble_uds.c **** 
 774:Generated_Source\PSoC4/ble_uds.c **** /******************************************************************************
 775:Generated_Source\PSoC4/ble_uds.c **** * Function Name: CyBle_UdssReadRequestEventHandler
 776:Generated_Source\PSoC4/ble_uds.c **** ***************************************************************************//**
 777:Generated_Source\PSoC4/ble_uds.c **** * 
 778:Generated_Source\PSoC4/ble_uds.c **** *  Handles the Read Request Event.
 779:Generated_Source\PSoC4/ble_uds.c **** * 
 780:Generated_Source\PSoC4/ble_uds.c **** *  \param eventParam: The pointer to the data structure specified by the event.
 781:Generated_Source\PSoC4/ble_uds.c **** * 
 782:Generated_Source\PSoC4/ble_uds.c **** ******************************************************************************/
 783:Generated_Source\PSoC4/ble_uds.c **** void CyBle_UdssReadRequestEventHandler(CYBLE_GATTS_CHAR_VAL_READ_REQ_T *eventParam)
 784:Generated_Source\PSoC4/ble_uds.c **** {
 644              		.loc 1 784 0
 645              		.cfi_startproc
 646              		@ args = 0, pretend = 0, frame = 16
 647              		@ frame_needed = 0, uses_anonymous_args = 0
 648              	.LVL55:
 649 0000 70B5     		push	{r4, r5, r6, lr}
 650              		.cfi_def_cfa_offset 16
 651              		.cfi_offset 4, -16
 652              		.cfi_offset 5, -12
 653              		.cfi_offset 6, -8
 654              		.cfi_offset 14, -4
 655 0002 84B0     		sub	sp, sp, #16
 656              		.cfi_def_cfa_offset 32
 657 0004 0400     		movs	r4, r0
 785:Generated_Source\PSoC4/ble_uds.c ****     if(CyBle_UdsApplCallback != NULL)
 658              		.loc 1 785 0
 659 0006 184B     		ldr	r3, .L61
 660 0008 5D68     		ldr	r5, [r3, #4]
 661 000a 002D     		cmp	r5, #0
 662 000c 2AD0     		beq	.L53
 663              	.LBB8:
 786:Generated_Source\PSoC4/ble_uds.c ****     {
 787:Generated_Source\PSoC4/ble_uds.c ****         CYBLE_UDS_CHAR_VALUE_T locCharValue;
 788:Generated_Source\PSoC4/ble_uds.c ****         locCharValue.connHandle = eventParam->connHandle;
 664              		.loc 1 788 0
 665 000e 01AB     		add	r3, sp, #4
 666 0010 0288     		ldrh	r2, [r0]
 667 0012 1A80     		strh	r2, [r3]
 789:Generated_Source\PSoC4/ble_uds.c ****         locCharValue.gattErrorCode = CYBLE_GATT_ERR_NONE;
 668              		.loc 1 789 0
 669 0014 0022     		movs	r2, #0
 670 0016 1A72     		strb	r2, [r3, #8]
 790:Generated_Source\PSoC4/ble_uds.c ****         locCharValue.value = NULL;
 671              		.loc 1 790 0
 672 0018 0292     		str	r2, [sp, #8]
 791:Generated_Source\PSoC4/ble_uds.c ****     
 792:Generated_Source\PSoC4/ble_uds.c ****         for(locCharValue.charIndex = CYBLE_UDS_FNM; 
 673              		.loc 1 792 0
 674 001a 9A70     		strb	r2, [r3, #2]
 675 001c 1EE0     		b	.L55
 676              	.LVL56:
ARM GAS  C:\Users\310309~1\AppData\Local\Temp\cckEzWOW.s 			page 27


 677              	.L60:
 793:Generated_Source\PSoC4/ble_uds.c ****             locCharValue.charIndex < CYBLE_UDS_CHAR_COUNT; 
 794:Generated_Source\PSoC4/ble_uds.c ****             locCharValue.charIndex++)
 795:Generated_Source\PSoC4/ble_uds.c ****         {
 796:Generated_Source\PSoC4/ble_uds.c ****             if(locCharValue.charIndex == CYBLE_UDS_UCP)
 678              		.loc 1 796 0
 679 001e 1D2B     		cmp	r3, #29
 680 0020 02D1     		bne	.L56
 797:Generated_Source\PSoC4/ble_uds.c ****             {
 798:Generated_Source\PSoC4/ble_uds.c ****                 /* Omit UCP characteristic */
 799:Generated_Source\PSoC4/ble_uds.c ****                 locCharValue.charIndex = CYBLE_UDS_LNG;
 681              		.loc 1 799 0
 682 0022 1E22     		movs	r2, #30
 683 0024 01AB     		add	r3, sp, #4
 684 0026 9A70     		strb	r2, [r3, #2]
 685              	.L56:
 800:Generated_Source\PSoC4/ble_uds.c ****             }
 801:Generated_Source\PSoC4/ble_uds.c ****             
 802:Generated_Source\PSoC4/ble_uds.c ****             if(eventParam->attrHandle == cyBle_udss.charInfo[locCharValue.charIndex].charHandle)
 686              		.loc 1 802 0
 687 0028 6188     		ldrh	r1, [r4, #2]
 688 002a 01AB     		add	r3, sp, #4
 689 002c 9B78     		ldrb	r3, [r3, #2]
 690 002e 9A00     		lsls	r2, r3, #2
 691 0030 0E48     		ldr	r0, .L61+4
 692 0032 8218     		adds	r2, r0, r2
 693 0034 5288     		ldrh	r2, [r2, #2]
 694 0036 9142     		cmp	r1, r2
 695 0038 0DD1     		bne	.L57
 803:Generated_Source\PSoC4/ble_uds.c ****             {
 804:Generated_Source\PSoC4/ble_uds.c **** 
 805:Generated_Source\PSoC4/ble_uds.c ****                 CyBle_UdsApplCallback((uint32)CYBLE_EVT_UDSS_READ_CHAR, &locCharValue);
 696              		.loc 1 805 0
 697 003a 01AE     		add	r6, sp, #4
 698 003c 3100     		movs	r1, r6
 699 003e 0C48     		ldr	r0, .L61+8
 700 0040 A847     		blx	r5
 701              	.LVL57:
 806:Generated_Source\PSoC4/ble_uds.c ****                         
 807:Generated_Source\PSoC4/ble_uds.c ****                 if(locCharValue.gattErrorCode == CYBLE_GATT_ERR_USER_DATA_ACCESS_NOT_PERMITTED)
 702              		.loc 1 807 0
 703 0042 337A     		ldrb	r3, [r6, #8]
 704 0044 802B     		cmp	r3, #128
 705 0046 00D1     		bne	.L58
 808:Generated_Source\PSoC4/ble_uds.c **** 	            {
 809:Generated_Source\PSoC4/ble_uds.c ****                     eventParam->gattErrorCode = CYBLE_GATT_ERR_USER_DATA_ACCESS_NOT_PERMITTED;
 706              		.loc 1 809 0
 707 0048 2371     		strb	r3, [r4, #4]
 708              	.L58:
 810:Generated_Source\PSoC4/ble_uds.c ****                 }
 811:Generated_Source\PSoC4/ble_uds.c ****                 
 812:Generated_Source\PSoC4/ble_uds.c ****                 cyBle_eventHandlerFlag &= (uint8)~CYBLE_CALLBACK;
 709              		.loc 1 812 0
 710 004a 0A4A     		ldr	r2, .L61+12
 711 004c 1378     		ldrb	r3, [r2]
 712 004e 0121     		movs	r1, #1
 713 0050 8B43     		bics	r3, r1
ARM GAS  C:\Users\310309~1\AppData\Local\Temp\cckEzWOW.s 			page 28


 714 0052 1370     		strb	r3, [r2]
 813:Generated_Source\PSoC4/ble_uds.c ****                 break;
 715              		.loc 1 813 0
 716 0054 06E0     		b	.L53
 717              	.L57:
 794:Generated_Source\PSoC4/ble_uds.c ****         {
 718              		.loc 1 794 0
 719 0056 0133     		adds	r3, r3, #1
 720 0058 01AA     		add	r2, sp, #4
 721 005a 9370     		strb	r3, [r2, #2]
 722              	.L55:
 793:Generated_Source\PSoC4/ble_uds.c ****             locCharValue.charIndex++)
 723              		.loc 1 793 0 discriminator 1
 724 005c 01AB     		add	r3, sp, #4
 725 005e 9B78     		ldrb	r3, [r3, #2]
 792:Generated_Source\PSoC4/ble_uds.c ****             locCharValue.charIndex < CYBLE_UDS_CHAR_COUNT; 
 726              		.loc 1 792 0 discriminator 1
 727 0060 1E2B     		cmp	r3, #30
 728 0062 DCD9     		bls	.L60
 729              	.L53:
 730              	.LBE8:
 814:Generated_Source\PSoC4/ble_uds.c ****             }
 815:Generated_Source\PSoC4/ble_uds.c ****         }
 816:Generated_Source\PSoC4/ble_uds.c ****     }
 817:Generated_Source\PSoC4/ble_uds.c **** }
 731              		.loc 1 817 0
 732 0064 04B0     		add	sp, sp, #16
 733              		@ sp needed
 734              	.LVL58:
 735 0066 70BD     		pop	{r4, r5, r6, pc}
 736              	.L62:
 737              		.align	2
 738              	.L61:
 739 0068 00000000 		.word	.LANCHOR0
 740 006c 00000000 		.word	.LANCHOR1
 741 0070 07020000 		.word	519
 742 0074 00000000 		.word	cyBle_eventHandlerFlag
 743              		.cfi_endproc
 744              	.LFE10:
 745              		.size	CyBle_UdssReadRequestEventHandler, .-CyBle_UdssReadRequestEventHandler
 746              		.section	.text.CyBle_UdssWriteEventHandler,"ax",%progbits
 747              		.align	2
 748              		.global	CyBle_UdssWriteEventHandler
 749              		.code	16
 750              		.thumb_func
 751              		.type	CyBle_UdssWriteEventHandler, %function
 752              	CyBle_UdssWriteEventHandler:
 753              	.LFB11:
 818:Generated_Source\PSoC4/ble_uds.c **** 
 819:Generated_Source\PSoC4/ble_uds.c **** 
 820:Generated_Source\PSoC4/ble_uds.c **** /******************************************************************************
 821:Generated_Source\PSoC4/ble_uds.c **** * Function Name: CyBle_UdssWriteEventHandler
 822:Generated_Source\PSoC4/ble_uds.c **** ***************************************************************************//**
 823:Generated_Source\PSoC4/ble_uds.c **** * 
 824:Generated_Source\PSoC4/ble_uds.c **** *  Handles the Write Request Event.
 825:Generated_Source\PSoC4/ble_uds.c **** * 
 826:Generated_Source\PSoC4/ble_uds.c **** *  \param eventParam: The pointer to the data structure specified by the event.
ARM GAS  C:\Users\310309~1\AppData\Local\Temp\cckEzWOW.s 			page 29


 827:Generated_Source\PSoC4/ble_uds.c **** * 
 828:Generated_Source\PSoC4/ble_uds.c **** * \return
 829:Generated_Source\PSoC4/ble_uds.c **** *  CYBLE_GATT_ERR_CODE_T - An API result state if the API succeeded
 830:Generated_Source\PSoC4/ble_uds.c **** *  (CYBLE_GATT_ERR_NONE) or failed with error codes:
 831:Generated_Source\PSoC4/ble_uds.c **** *   * CYBLE_GATTS_ERR_PROCEDURE_ALREADY_IN_PROGRESS
 832:Generated_Source\PSoC4/ble_uds.c **** *   * CYBLE_GATTS_ERR_CCCD_IMPROPERLY_CONFIGURED
 833:Generated_Source\PSoC4/ble_uds.c **** * 
 834:Generated_Source\PSoC4/ble_uds.c **** ******************************************************************************/
 835:Generated_Source\PSoC4/ble_uds.c **** CYBLE_GATT_ERR_CODE_T CyBle_UdssWriteEventHandler(CYBLE_GATTS_WRITE_REQ_PARAM_T *eventParam)
 836:Generated_Source\PSoC4/ble_uds.c **** {
 754              		.loc 1 836 0
 755              		.cfi_startproc
 756              		@ args = 0, pretend = 0, frame = 16
 757              		@ frame_needed = 0, uses_anonymous_args = 0
 758              	.LVL59:
 759 0000 30B5     		push	{r4, r5, lr}
 760              		.cfi_def_cfa_offset 12
 761              		.cfi_offset 4, -12
 762              		.cfi_offset 5, -8
 763              		.cfi_offset 14, -4
 764 0002 85B0     		sub	sp, sp, #20
 765              		.cfi_def_cfa_offset 32
 766 0004 0400     		movs	r4, r0
 767              	.LVL60:
 837:Generated_Source\PSoC4/ble_uds.c ****     CYBLE_GATT_ERR_CODE_T gattErr = CYBLE_GATT_ERR_NONE;
 838:Generated_Source\PSoC4/ble_uds.c ****     
 839:Generated_Source\PSoC4/ble_uds.c ****     if(NULL != CyBle_UdsApplCallback)
 768              		.loc 1 839 0
 769 0006 624B     		ldr	r3, .L85
 770 0008 5B68     		ldr	r3, [r3, #4]
 771 000a 002B     		cmp	r3, #0
 772 000c 00D1     		bne	.LCB723
 773 000e BAE0     		b	.L77	@long jump
 774              	.LCB723:
 775              	.LBB9:
 840:Generated_Source\PSoC4/ble_uds.c ****     {
 841:Generated_Source\PSoC4/ble_uds.c **** 	    CYBLE_UDS_CHAR_VALUE_T locCharValue;
 842:Generated_Source\PSoC4/ble_uds.c ****         locCharValue.connHandle = eventParam->connHandle;
 776              		.loc 1 842 0
 777 0010 01AB     		add	r3, sp, #4
 778 0012 0288     		ldrh	r2, [r0]
 779 0014 1A80     		strh	r2, [r3]
 843:Generated_Source\PSoC4/ble_uds.c ****         locCharValue.gattErrorCode = CYBLE_GATT_ERR_NONE;
 780              		.loc 1 843 0
 781 0016 0022     		movs	r2, #0
 782 0018 1A72     		strb	r2, [r3, #8]
 844:Generated_Source\PSoC4/ble_uds.c **** 	
 845:Generated_Source\PSoC4/ble_uds.c **** 	    if((eventParam->handleValPair.attrHandle == cyBle_udss.charInfo[CYBLE_UDS_DCI].descrHandle[CYB
 783              		.loc 1 845 0
 784 001a 8089     		ldrh	r0, [r0, #12]
 785              	.LVL61:
 786 001c 8928     		cmp	r0, #137
 787 001e 01D0     		beq	.L65
 788              		.loc 1 845 0 is_stmt 0 discriminator 1
 789 0020 8E28     		cmp	r0, #142
 790 0022 36D1     		bne	.L66
 791              	.L65:
ARM GAS  C:\Users\310309~1\AppData\Local\Temp\cckEzWOW.s 			page 30


 846:Generated_Source\PSoC4/ble_uds.c ****            (eventParam->handleValPair.attrHandle == cyBle_udss.charInfo[CYBLE_UDS_UCP].descrHandle[
 847:Generated_Source\PSoC4/ble_uds.c **** 	    {
 848:Generated_Source\PSoC4/ble_uds.c ****             locCharValue.value = NULL;
 792              		.loc 1 848 0 is_stmt 1
 793 0024 0023     		movs	r3, #0
 794 0026 0293     		str	r3, [sp, #8]
 849:Generated_Source\PSoC4/ble_uds.c ****             gattErr = CyBle_GattsWriteAttributeValue(&eventParam->handleValPair,
 795              		.loc 1 849 0
 796 0028 201D     		adds	r0, r4, #4
 797 002a 4033     		adds	r3, r3, #64
 798 002c 2200     		movs	r2, r4
 799 002e 0021     		movs	r1, #0
 800 0030 FFF7FEFF 		bl	CyBle_GattsWriteAttributeValue
 801              	.LVL62:
 802 0034 051E     		subs	r5, r0, #0
 803              	.LVL63:
 850:Generated_Source\PSoC4/ble_uds.c ****                          0u, &eventParam->connHandle, CYBLE_GATT_DB_PEER_INITIATED);
 851:Generated_Source\PSoC4/ble_uds.c ****             
 852:Generated_Source\PSoC4/ble_uds.c ****             if(gattErr == CYBLE_GATT_ERR_NONE)
 804              		.loc 1 852 0
 805 0036 1DD1     		bne	.L67
 806              	.LBB10:
 853:Generated_Source\PSoC4/ble_uds.c ****             {
 854:Generated_Source\PSoC4/ble_uds.c ****                 uint32 eventCode;
 855:Generated_Source\PSoC4/ble_uds.c ****                 
 856:Generated_Source\PSoC4/ble_uds.c ****                 if(eventParam->handleValPair.attrHandle == cyBle_udss.charInfo[CYBLE_UDS_DCI].descr
 807              		.loc 1 856 0
 808 0038 A389     		ldrh	r3, [r4, #12]
 809 003a 892B     		cmp	r3, #137
 810 003c 09D1     		bne	.L68
 857:Generated_Source\PSoC4/ble_uds.c ****                 {
 858:Generated_Source\PSoC4/ble_uds.c ****                     locCharValue.charIndex = CYBLE_UDS_DCI;
 811              		.loc 1 858 0
 812 003e 1B22     		movs	r2, #27
 813 0040 01AB     		add	r3, sp, #4
 814 0042 9A70     		strb	r2, [r3, #2]
 859:Generated_Source\PSoC4/ble_uds.c ****                     
 860:Generated_Source\PSoC4/ble_uds.c ****                     if(CYBLE_IS_NOTIFICATION_ENABLED_IN_PTR(eventParam->handleValPair.value.val))
 815              		.loc 1 860 0
 816 0044 6068     		ldr	r0, [r4, #4]
 817              	.LVL64:
 818 0046 FFF7FEFF 		bl	CyBle_Get16ByPtr
 819              	.LVL65:
 820 004a C307     		lsls	r3, r0, #31
 821 004c 0BD5     		bpl	.L78
 861:Generated_Source\PSoC4/ble_uds.c ****                     {
 862:Generated_Source\PSoC4/ble_uds.c ****                         eventCode = (uint32) CYBLE_EVT_UDSS_NOTIFICATION_ENABLED;
 822              		.loc 1 862 0
 823 004e 5148     		ldr	r0, .L85+4
 824 0050 0CE0     		b	.L69
 825              	.LVL66:
 826              	.L68:
 863:Generated_Source\PSoC4/ble_uds.c ****                     }
 864:Generated_Source\PSoC4/ble_uds.c ****                     else
 865:Generated_Source\PSoC4/ble_uds.c ****                     {
 866:Generated_Source\PSoC4/ble_uds.c ****                         eventCode = (uint32) CYBLE_EVT_UDSS_NOTIFICATION_DISABLED;
 867:Generated_Source\PSoC4/ble_uds.c ****                     }
ARM GAS  C:\Users\310309~1\AppData\Local\Temp\cckEzWOW.s 			page 31


 868:Generated_Source\PSoC4/ble_uds.c ****                 }
 869:Generated_Source\PSoC4/ble_uds.c ****                 else
 870:Generated_Source\PSoC4/ble_uds.c ****                 {
 871:Generated_Source\PSoC4/ble_uds.c ****                     locCharValue.charIndex = CYBLE_UDS_UCP;
 827              		.loc 1 871 0
 828 0052 1D22     		movs	r2, #29
 829 0054 01AB     		add	r3, sp, #4
 830 0056 9A70     		strb	r2, [r3, #2]
 872:Generated_Source\PSoC4/ble_uds.c ****                     
 873:Generated_Source\PSoC4/ble_uds.c ****                     if(CYBLE_IS_INDICATION_ENABLED_IN_PTR(eventParam->handleValPair.value.val))
 831              		.loc 1 873 0
 832 0058 6068     		ldr	r0, [r4, #4]
 833              	.LVL67:
 834 005a FFF7FEFF 		bl	CyBle_Get16ByPtr
 835              	.LVL68:
 836 005e 8307     		lsls	r3, r0, #30
 837 0060 03D5     		bpl	.L79
 874:Generated_Source\PSoC4/ble_uds.c ****                     {
 875:Generated_Source\PSoC4/ble_uds.c ****                         eventCode = (uint32) CYBLE_EVT_UDSS_INDICATION_ENABLED;
 838              		.loc 1 875 0
 839 0062 4D48     		ldr	r0, .L85+8
 840 0064 02E0     		b	.L69
 841              	.L78:
 866:Generated_Source\PSoC4/ble_uds.c ****                     }
 842              		.loc 1 866 0
 843 0066 4D48     		ldr	r0, .L85+12
 844 0068 00E0     		b	.L69
 845              	.L79:
 876:Generated_Source\PSoC4/ble_uds.c ****                     }
 877:Generated_Source\PSoC4/ble_uds.c ****                     else
 878:Generated_Source\PSoC4/ble_uds.c ****                     {
 879:Generated_Source\PSoC4/ble_uds.c ****                         eventCode = (uint32) CYBLE_EVT_UDSS_INDICATION_DISABLED;
 846              		.loc 1 879 0
 847 006a 4D48     		ldr	r0, .L85+16
 848              	.L69:
 849              	.LVL69:
 880:Generated_Source\PSoC4/ble_uds.c ****                     }
 881:Generated_Source\PSoC4/ble_uds.c ****                 }
 882:Generated_Source\PSoC4/ble_uds.c ****                 
 883:Generated_Source\PSoC4/ble_uds.c ****                 CyBle_UdsApplCallback(eventCode, &locCharValue);
 850              		.loc 1 883 0
 851 006c 484B     		ldr	r3, .L85
 852 006e 5B68     		ldr	r3, [r3, #4]
 853 0070 01A9     		add	r1, sp, #4
 854 0072 9847     		blx	r3
 855              	.LVL70:
 856              	.L67:
 857              	.LBE10:
 884:Generated_Source\PSoC4/ble_uds.c ****             }
 885:Generated_Source\PSoC4/ble_uds.c **** 
 886:Generated_Source\PSoC4/ble_uds.c ****         #if((CYBLE_GAP_ROLE_PERIPHERAL || CYBLE_GAP_ROLE_CENTRAL) && \
 887:Generated_Source\PSoC4/ble_uds.c ****             (CYBLE_BONDING_REQUIREMENT == CYBLE_BONDING_YES))
 888:Generated_Source\PSoC4/ble_uds.c ****             /* Set flag to store bonding data to flash */
 889:Generated_Source\PSoC4/ble_uds.c ****             if(cyBle_peerBonding == CYBLE_GAP_BONDING)
 858              		.loc 1 889 0
 859 0074 4B4B     		ldr	r3, .L85+20
 860 0076 1B78     		ldrb	r3, [r3]
ARM GAS  C:\Users\310309~1\AppData\Local\Temp\cckEzWOW.s 			page 32


 861 0078 012B     		cmp	r3, #1
 862 007a 04D1     		bne	.L70
 890:Generated_Source\PSoC4/ble_uds.c ****             {
 891:Generated_Source\PSoC4/ble_uds.c ****                 cyBle_pendingFlashWrite |= CYBLE_PENDING_CCCD_FLASH_WRITE_BIT;
 863              		.loc 1 891 0
 864 007c 4A4A     		ldr	r2, .L85+24
 865 007e 1178     		ldrb	r1, [r2]
 866 0080 0223     		movs	r3, #2
 867 0082 0B43     		orrs	r3, r1
 868 0084 1370     		strb	r3, [r2]
 869              	.L70:
 892:Generated_Source\PSoC4/ble_uds.c ****             }
 893:Generated_Source\PSoC4/ble_uds.c ****         #endif /* (CYBLE_BONDING_REQUIREMENT == CYBLE_BONDING_YES) */
 894:Generated_Source\PSoC4/ble_uds.c **** 			    
 895:Generated_Source\PSoC4/ble_uds.c ****             cyBle_eventHandlerFlag &= (uint8)~CYBLE_CALLBACK;
 870              		.loc 1 895 0
 871 0086 494A     		ldr	r2, .L85+28
 872 0088 1378     		ldrb	r3, [r2]
 873 008a 0121     		movs	r1, #1
 874 008c 8B43     		bics	r3, r1
 875 008e 1370     		strb	r3, [r2]
 876 0090 7AE0     		b	.L64
 877              	.LVL71:
 878              	.L66:
 896:Generated_Source\PSoC4/ble_uds.c ****         }
 897:Generated_Source\PSoC4/ble_uds.c **** 	    else
 898:Generated_Source\PSoC4/ble_uds.c ****         {
 899:Generated_Source\PSoC4/ble_uds.c ****             for(locCharValue.charIndex = CYBLE_UDS_FNM; 
 879              		.loc 1 899 0
 880 0092 0022     		movs	r2, #0
 881 0094 01AB     		add	r3, sp, #4
 882 0096 9A70     		strb	r2, [r3, #2]
 883 0098 6FE0     		b	.L72
 884              	.L76:
 900:Generated_Source\PSoC4/ble_uds.c ****                 locCharValue.charIndex < CYBLE_UDS_CHAR_COUNT; 
 901:Generated_Source\PSoC4/ble_uds.c ****                 locCharValue.charIndex++)
 902:Generated_Source\PSoC4/ble_uds.c **** 	        {
 903:Generated_Source\PSoC4/ble_uds.c ****                 if(eventParam->handleValPair.attrHandle == cyBle_udss.charInfo[locCharValue.charInd
 885              		.loc 1 903 0
 886 009a 9300     		lsls	r3, r2, #2
 887 009c 4449     		ldr	r1, .L85+32
 888 009e CB18     		adds	r3, r1, r3
 889 00a0 5B88     		ldrh	r3, [r3, #2]
 890 00a2 9842     		cmp	r0, r3
 891 00a4 66D1     		bne	.L73
 904:Generated_Source\PSoC4/ble_uds.c **** 	            {
 905:Generated_Source\PSoC4/ble_uds.c **** 	                gattErr = CyBle_GattDbCheckPermission(eventParam->handleValPair.attrHandle, 
 892              		.loc 1 905 0
 893 00a6 4222     		movs	r2, #66
 894 00a8 2100     		movs	r1, r4
 895 00aa FFF7FEFF 		bl	CyBle_GattDbCheckPermission
 896              	.LVL72:
 897 00ae 051E     		subs	r5, r0, #0
 898              	.LVL73:
 906:Generated_Source\PSoC4/ble_uds.c ****                                                          &eventParam->connHandle,
 907:Generated_Source\PSoC4/ble_uds.c ****                                                          CYBLE_GATT_DB_WRITE | CYBLE_GATT_DB_PEER_I
 908:Generated_Source\PSoC4/ble_uds.c ****                     
ARM GAS  C:\Users\310309~1\AppData\Local\Temp\cckEzWOW.s 			page 33


 909:Generated_Source\PSoC4/ble_uds.c ****                     if((gattErr == CYBLE_GATT_ERR_NONE) && (locCharValue.charIndex == CYBLE_UDS_UCP
 899              		.loc 1 909 0
 900 00b0 13D1     		bne	.L74
 901              		.loc 1 909 0 is_stmt 0 discriminator 1
 902 00b2 01AB     		add	r3, sp, #4
 903 00b4 9B78     		ldrb	r3, [r3, #2]
 904 00b6 1D2B     		cmp	r3, #29
 905 00b8 0FD1     		bne	.L74
 910:Generated_Source\PSoC4/ble_uds.c ****                     {
 911:Generated_Source\PSoC4/ble_uds.c ****                         if(CYBLE_UDS_IS_PROCEDURE_IN_PROGRESS)
 906              		.loc 1 911 0 is_stmt 1
 907 00ba 3E4B     		ldr	r3, .L85+36
 908 00bc 1B78     		ldrb	r3, [r3]
 909 00be DB07     		lsls	r3, r3, #31
 910 00c0 08D4     		bmi	.L80
 912:Generated_Source\PSoC4/ble_uds.c ****                         {
 913:Generated_Source\PSoC4/ble_uds.c ****                             gattErr = CYBLE_GATT_ERR_PROCEDURE_ALREADY_IN_PROGRESS;
 914:Generated_Source\PSoC4/ble_uds.c ****                         }
 915:Generated_Source\PSoC4/ble_uds.c ****                         else if(!CYBLE_IS_INDICATION_ENABLED(cyBle_udss.charInfo[CYBLE_UDS_UCP].
 911              		.loc 1 915 0
 912 00c2 3D4B     		ldr	r3, .L85+40
 913 00c4 3D4A     		ldr	r2, .L85+44
 914 00c6 D358     		ldr	r3, [r2, r3]
 915 00c8 5868     		ldr	r0, [r3, #4]
 916              	.LVL74:
 917 00ca FFF7FEFF 		bl	CyBle_Get16ByPtr
 918              	.LVL75:
 919 00ce 8307     		lsls	r3, r0, #30
 920 00d0 02D5     		bpl	.L81
 921 00d2 02E0     		b	.L74
 922              	.LVL76:
 923              	.L80:
 913:Generated_Source\PSoC4/ble_uds.c ****                         }
 924              		.loc 1 913 0
 925 00d4 FE25     		movs	r5, #254
 926 00d6 00E0     		b	.L74
 927              	.LVL77:
 928              	.L81:
 916:Generated_Source\PSoC4/ble_uds.c ****                                                                      descrHandle[CYBLE_UDS_CCCD]))
 917:Generated_Source\PSoC4/ble_uds.c ****                         {
 918:Generated_Source\PSoC4/ble_uds.c ****                             gattErr = CYBLE_GATT_ERR_CCCD_IMPROPERLY_CONFIGURED;
 929              		.loc 1 918 0
 930 00d8 FD25     		movs	r5, #253
 931              	.LVL78:
 932              	.L74:
 919:Generated_Source\PSoC4/ble_uds.c ****                         }
 920:Generated_Source\PSoC4/ble_uds.c ****                         else
 921:Generated_Source\PSoC4/ble_uds.c ****                         {
 922:Generated_Source\PSoC4/ble_uds.c ****                         }
 923:Generated_Source\PSoC4/ble_uds.c ****                     }
 924:Generated_Source\PSoC4/ble_uds.c ****                     
 925:Generated_Source\PSoC4/ble_uds.c ****                     if(gattErr == CYBLE_GATT_ERR_NONE)
 933              		.loc 1 925 0
 934 00da 002D     		cmp	r5, #0
 935 00dc 44D1     		bne	.L75
 926:Generated_Source\PSoC4/ble_uds.c ****                     {
 927:Generated_Source\PSoC4/ble_uds.c ****                         locCharValue.value = &eventParam->handleValPair.value;
ARM GAS  C:\Users\310309~1\AppData\Local\Temp\cckEzWOW.s 			page 34


 936              		.loc 1 927 0
 937 00de 231D     		adds	r3, r4, #4
 938 00e0 0293     		str	r3, [sp, #8]
 928:Generated_Source\PSoC4/ble_uds.c ****                         
 929:Generated_Source\PSoC4/ble_uds.c ****                         if(!CYBLE_GATT_DB_ATTR_CHECK_PRPTY(eventParam->handleValPair.attrHandle, CY
 939              		.loc 1 929 0
 940 00e2 A389     		ldrh	r3, [r4, #12]
 941 00e4 013B     		subs	r3, r3, #1
 942 00e6 9900     		lsls	r1, r3, #2
 943 00e8 C918     		adds	r1, r1, r3
 944 00ea 8A00     		lsls	r2, r1, #2
 945 00ec 3349     		ldr	r1, .L85+44
 946 00ee 8A18     		adds	r2, r1, r2
 947 00f0 5268     		ldr	r2, [r2, #4]
 948 00f2 1203     		lsls	r2, r2, #12
 949 00f4 33D5     		bpl	.L82
 930:Generated_Source\PSoC4/ble_uds.c ****                         {
 931:Generated_Source\PSoC4/ble_uds.c ****                             gattErr = CYBLE_GATT_ERR_WRITE_NOT_PERMITTED;
 932:Generated_Source\PSoC4/ble_uds.c ****                         }
 933:Generated_Source\PSoC4/ble_uds.c ****                         else if(eventParam->handleValPair.value.len > CYBLE_GATT_DB_ATTR_GET_ATTR_G
 950              		.loc 1 933 0
 951 00f6 2189     		ldrh	r1, [r4, #8]
 952 00f8 9A00     		lsls	r2, r3, #2
 953 00fa D318     		adds	r3, r2, r3
 954 00fc 9A00     		lsls	r2, r3, #2
 955 00fe 2F4B     		ldr	r3, .L85+44
 956 0100 9A18     		adds	r2, r3, r2
 957 0102 9389     		ldrh	r3, [r2, #12]
 958 0104 9942     		cmp	r1, r3
 959 0106 2CD8     		bhi	.L83
 934:Generated_Source\PSoC4/ble_uds.c ****                         {
 935:Generated_Source\PSoC4/ble_uds.c ****                             gattErr = CYBLE_GATT_ERR_INVALID_ATTRIBUTE_LEN;   
 936:Generated_Source\PSoC4/ble_uds.c ****                         }
 937:Generated_Source\PSoC4/ble_uds.c ****                         else
 938:Generated_Source\PSoC4/ble_uds.c ****                         {
 939:Generated_Source\PSoC4/ble_uds.c ****                             CyBle_UdsApplCallback((uint32)CYBLE_EVT_UDSS_WRITE_CHAR, &locCharValue)
 960              		.loc 1 939 0
 961 0108 01AD     		add	r5, sp, #4
 962              	.LVL79:
 963 010a 214B     		ldr	r3, .L85
 964 010c 5B68     		ldr	r3, [r3, #4]
 965 010e 2900     		movs	r1, r5
 966 0110 8220     		movs	r0, #130
 967 0112 8000     		lsls	r0, r0, #2
 968 0114 9847     		blx	r3
 969              	.LVL80:
 940:Generated_Source\PSoC4/ble_uds.c ****                             
 941:Generated_Source\PSoC4/ble_uds.c ****                             if(locCharValue.gattErrorCode == CYBLE_GATT_ERR_USER_DATA_ACCESS_NOT_PE
 970              		.loc 1 941 0
 971 0116 2B7A     		ldrb	r3, [r5, #8]
 972 0118 802B     		cmp	r3, #128
 973 011a 24D0     		beq	.L84
 942:Generated_Source\PSoC4/ble_uds.c ****             	            {
 943:Generated_Source\PSoC4/ble_uds.c ****                                 gattErr = CYBLE_GATT_ERR_USER_DATA_ACCESS_NOT_PERMITTED;
 944:Generated_Source\PSoC4/ble_uds.c ****                             }
 945:Generated_Source\PSoC4/ble_uds.c ****                             else
 946:Generated_Source\PSoC4/ble_uds.c ****                             {
ARM GAS  C:\Users\310309~1\AppData\Local\Temp\cckEzWOW.s 			page 35


 947:Generated_Source\PSoC4/ble_uds.c ****                                 gattErr = CyBle_GattsWriteAttributeValue(&eventParam->handleValPair
 974              		.loc 1 947 0
 975 011c 201D     		adds	r0, r4, #4
 976 011e 4023     		movs	r3, #64
 977 0120 2200     		movs	r2, r4
 978 0122 0021     		movs	r1, #0
 979 0124 FFF7FEFF 		bl	CyBle_GattsWriteAttributeValue
 980              	.LVL81:
 981 0128 051E     		subs	r5, r0, #0
 982              	.LVL82:
 948:Generated_Source\PSoC4/ble_uds.c ****             	                      0u, &eventParam->connHandle, CYBLE_GATT_DB_PEER_INITIATED);
 949:Generated_Source\PSoC4/ble_uds.c ****                     
 950:Generated_Source\PSoC4/ble_uds.c ****                                 if(gattErr == CYBLE_GATT_ERR_NONE)
 983              		.loc 1 950 0
 984 012a 1DD1     		bne	.L75
 951:Generated_Source\PSoC4/ble_uds.c ****                     	        {
 952:Generated_Source\PSoC4/ble_uds.c ****                                     CYBLE_GATT_DB_ATTR_SET_ATTR_GEN_LEN
 985              		.loc 1 952 0
 986 012c 01AA     		add	r2, sp, #4
 987 012e 9378     		ldrb	r3, [r2, #2]
 988 0130 9B00     		lsls	r3, r3, #2
 989 0132 1F49     		ldr	r1, .L85+32
 990 0134 CB18     		adds	r3, r1, r3
 991 0136 5B88     		ldrh	r3, [r3, #2]
 992 0138 013B     		subs	r3, r3, #1
 993 013a 9900     		lsls	r1, r3, #2
 994 013c CB18     		adds	r3, r1, r3
 995 013e 9900     		lsls	r1, r3, #2
 996 0140 1E4B     		ldr	r3, .L85+44
 997 0142 5918     		adds	r1, r3, r1
 998 0144 0B69     		ldr	r3, [r1, #16]
 999 0146 0299     		ldr	r1, [sp, #8]
 1000 0148 8988     		ldrh	r1, [r1, #4]
 1001 014a 1980     		strh	r1, [r3]
 953:Generated_Source\PSoC4/ble_uds.c ****                                         (cyBle_udss.charInfo[locCharValue.charIndex].charHandle,
 954:Generated_Source\PSoC4/ble_uds.c ****                                             locCharValue.value->len);
 955:Generated_Source\PSoC4/ble_uds.c ****                                     
 956:Generated_Source\PSoC4/ble_uds.c ****                                     if(locCharValue.charIndex == CYBLE_UDS_UCP)
 1002              		.loc 1 956 0
 1003 014c 9378     		ldrb	r3, [r2, #2]
 1004 014e 1D2B     		cmp	r3, #29
 1005 0150 0AD1     		bne	.L75
 957:Generated_Source\PSoC4/ble_uds.c ****                                     {
 958:Generated_Source\PSoC4/ble_uds.c ****                                         cyBle_udsFlag |= CYBLE_UDS_FLAG_PROCESS;
 1006              		.loc 1 958 0
 1007 0152 184A     		ldr	r2, .L85+36
 1008 0154 1178     		ldrb	r1, [r2]
 1009 0156 0123     		movs	r3, #1
 1010 0158 0B43     		orrs	r3, r1
 1011 015a 1370     		strb	r3, [r2]
 1012 015c 04E0     		b	.L75
 1013              	.LVL83:
 1014              	.L82:
 931:Generated_Source\PSoC4/ble_uds.c ****                         }
 1015              		.loc 1 931 0
 1016 015e 0325     		movs	r5, #3
 1017              	.LVL84:
ARM GAS  C:\Users\310309~1\AppData\Local\Temp\cckEzWOW.s 			page 36


 1018 0160 02E0     		b	.L75
 1019              	.LVL85:
 1020              	.L83:
 935:Generated_Source\PSoC4/ble_uds.c ****                         }
 1021              		.loc 1 935 0
 1022 0162 0D25     		movs	r5, #13
 1023              	.LVL86:
 1024 0164 00E0     		b	.L75
 1025              	.L84:
 943:Generated_Source\PSoC4/ble_uds.c ****                             }
 1026              		.loc 1 943 0
 1027 0166 8025     		movs	r5, #128
 1028              	.L75:
 1029              	.LVL87:
 959:Generated_Source\PSoC4/ble_uds.c ****                                     }
 960:Generated_Source\PSoC4/ble_uds.c ****                     	        }
 961:Generated_Source\PSoC4/ble_uds.c ****                             }
 962:Generated_Source\PSoC4/ble_uds.c ****                         }
 963:Generated_Source\PSoC4/ble_uds.c ****                     }
 964:Generated_Source\PSoC4/ble_uds.c ****                     cyBle_eventHandlerFlag &= (uint8)~CYBLE_CALLBACK;
 1030              		.loc 1 964 0
 1031 0168 104A     		ldr	r2, .L85+28
 1032 016a 1378     		ldrb	r3, [r2]
 1033 016c 0121     		movs	r1, #1
 1034 016e 8B43     		bics	r3, r1
 1035 0170 1370     		strb	r3, [r2]
 965:Generated_Source\PSoC4/ble_uds.c ****                     break;
 1036              		.loc 1 965 0
 1037 0172 09E0     		b	.L64
 1038              	.LVL88:
 1039              	.L73:
 901:Generated_Source\PSoC4/ble_uds.c **** 	        {
 1040              		.loc 1 901 0
 1041 0174 0132     		adds	r2, r2, #1
 1042 0176 01AB     		add	r3, sp, #4
 1043 0178 9A70     		strb	r2, [r3, #2]
 1044              	.L72:
 900:Generated_Source\PSoC4/ble_uds.c ****                 locCharValue.charIndex++)
 1045              		.loc 1 900 0 discriminator 1
 1046 017a 01AB     		add	r3, sp, #4
 1047 017c 9A78     		ldrb	r2, [r3, #2]
 899:Generated_Source\PSoC4/ble_uds.c ****                 locCharValue.charIndex < CYBLE_UDS_CHAR_COUNT; 
 1048              		.loc 1 899 0 discriminator 1
 1049 017e 1E2A     		cmp	r2, #30
 1050 0180 8BD9     		bls	.L76
 1051              	.LBE9:
 837:Generated_Source\PSoC4/ble_uds.c ****     
 1052              		.loc 1 837 0
 1053 0182 0025     		movs	r5, #0
 1054 0184 00E0     		b	.L64
 1055              	.LVL89:
 1056              	.L77:
 1057 0186 0025     		movs	r5, #0
 1058              	.LVL90:
 1059              	.L64:
 966:Generated_Source\PSoC4/ble_uds.c **** 				}
 967:Generated_Source\PSoC4/ble_uds.c ****             }
ARM GAS  C:\Users\310309~1\AppData\Local\Temp\cckEzWOW.s 			page 37


 968:Generated_Source\PSoC4/ble_uds.c ****         }
 969:Generated_Source\PSoC4/ble_uds.c ****     }
 970:Generated_Source\PSoC4/ble_uds.c **** 
 971:Generated_Source\PSoC4/ble_uds.c ****     return (gattErr);
 972:Generated_Source\PSoC4/ble_uds.c **** }
 1060              		.loc 1 972 0
 1061 0188 2800     		movs	r0, r5
 1062 018a 05B0     		add	sp, sp, #20
 1063              		@ sp needed
 1064              	.LVL91:
 1065              	.LVL92:
 1066 018c 30BD     		pop	{r4, r5, pc}
 1067              	.L86:
 1068 018e C046     		.align	2
 1069              	.L85:
 1070 0190 00000000 		.word	.LANCHOR0
 1071 0194 05020000 		.word	517
 1072 0198 02020000 		.word	514
 1073 019c 06020000 		.word	518
 1074 01a0 03020000 		.word	515
 1075 01a4 00000000 		.word	cyBle_peerBonding
 1076 01a8 00000000 		.word	cyBle_pendingFlashWrite
 1077 01ac 00000000 		.word	cyBle_eventHandlerFlag
 1078 01b0 00000000 		.word	.LANCHOR1
 1079 01b4 00000000 		.word	cyBle_udsFlag
 1080 01b8 140B0000 		.word	2836
 1081 01bc 00000000 		.word	cyBle_gattDB
 1082              		.cfi_endproc
 1083              	.LFE11:
 1084              		.size	CyBle_UdssWriteEventHandler, .-CyBle_UdssWriteEventHandler
 1085              		.section	.text.CyBle_UdssPrepareWriteRequestEventHandler,"ax",%progbits
 1086              		.align	2
 1087              		.global	CyBle_UdssPrepareWriteRequestEventHandler
 1088              		.code	16
 1089              		.thumb_func
 1090              		.type	CyBle_UdssPrepareWriteRequestEventHandler, %function
 1091              	CyBle_UdssPrepareWriteRequestEventHandler:
 1092              	.LFB12:
 973:Generated_Source\PSoC4/ble_uds.c **** 
 974:Generated_Source\PSoC4/ble_uds.c **** /****************************************************************************** 
 975:Generated_Source\PSoC4/ble_uds.c **** * Function Name: CyBle_UdssPrepareWriteEventHandler
 976:Generated_Source\PSoC4/ble_uds.c **** ***************************************************************************//**
 977:Generated_Source\PSoC4/ble_uds.c **** * 
 978:Generated_Source\PSoC4/ble_uds.c **** *  Handles the Prepare Write Request Event.
 979:Generated_Source\PSoC4/ble_uds.c **** * 
 980:Generated_Source\PSoC4/ble_uds.c **** *  \param eventParam: The pointer to the data that comes with a prepare 
 981:Generated_Source\PSoC4/ble_uds.c **** *                      write request.
 982:Generated_Source\PSoC4/ble_uds.c **** *                                                  
 983:Generated_Source\PSoC4/ble_uds.c **** * 
 984:Generated_Source\PSoC4/ble_uds.c **** ******************************************************************************/
 985:Generated_Source\PSoC4/ble_uds.c **** void CyBle_UdssPrepareWriteRequestEventHandler(CYBLE_GATTS_PREP_WRITE_REQ_PARAM_T *eventParam)
 986:Generated_Source\PSoC4/ble_uds.c **** {
 1093              		.loc 1 986 0
 1094              		.cfi_startproc
 1095              		@ args = 0, pretend = 0, frame = 8
 1096              		@ frame_needed = 0, uses_anonymous_args = 0
 1097              	.LVL93:
ARM GAS  C:\Users\310309~1\AppData\Local\Temp\cckEzWOW.s 			page 38


 1098 0000 10B5     		push	{r4, lr}
 1099              		.cfi_def_cfa_offset 8
 1100              		.cfi_offset 4, -8
 1101              		.cfi_offset 14, -4
 1102 0002 82B0     		sub	sp, sp, #8
 1103              		.cfi_def_cfa_offset 16
 1104 0004 0400     		movs	r4, r0
 987:Generated_Source\PSoC4/ble_uds.c ****     CYBLE_UDS_CHAR_INDEX_T locCharIndex;
 988:Generated_Source\PSoC4/ble_uds.c ****     uint16 locMtu = CYBLE_GATT_MTU;
 1105              		.loc 1 988 0
 1106 0006 6B46     		mov	r3, sp
 1107 0008 981D     		adds	r0, r3, #6
 1108              	.LVL94:
 1109 000a 1723     		movs	r3, #23
 1110 000c 0380     		strh	r3, [r0]
 989:Generated_Source\PSoC4/ble_uds.c ****     (void) CyBle_GattGetMtuSize(&locMtu);
 1111              		.loc 1 989 0
 1112 000e FFF7FEFF 		bl	CyBle_GattGetMtuSize
 1113              	.LVL95:
 990:Generated_Source\PSoC4/ble_uds.c ****     
 991:Generated_Source\PSoC4/ble_uds.c ****     for(locCharIndex = CYBLE_UDS_FNM; locCharIndex <= CYBLE_UDS_EML; locCharIndex++)
 1114              		.loc 1 991 0
 1115 0012 0022     		movs	r2, #0
 1116 0014 25E0     		b	.L88
 1117              	.LVL96:
 1118              	.L92:
 992:Generated_Source\PSoC4/ble_uds.c ****     {
 993:Generated_Source\PSoC4/ble_uds.c ****         if(eventParam->baseAddr[eventParam->currentPrepWriteReqCount - 1u].handleValuePair.attrHand
 1119              		.loc 1 993 0
 1120 0016 237A     		ldrb	r3, [r4, #8]
 1121 0018 1449     		ldr	r1, .L93
 1122 001a 8C46     		mov	ip, r1
 1123 001c 6344     		add	r3, r3, ip
 1124 001e 1B01     		lsls	r3, r3, #4
 1125 0020 6168     		ldr	r1, [r4, #4]
 1126 0022 8C46     		mov	ip, r1
 1127 0024 6344     		add	r3, r3, ip
 1128 0026 1989     		ldrh	r1, [r3, #8]
 994:Generated_Source\PSoC4/ble_uds.c ****                 cyBle_udss.charInfo[locCharIndex].charHandle)
 1129              		.loc 1 994 0
 1130 0028 9300     		lsls	r3, r2, #2
 1131 002a 1148     		ldr	r0, .L93+4
 1132 002c C318     		adds	r3, r0, r3
 1133 002e 5B88     		ldrh	r3, [r3, #2]
 993:Generated_Source\PSoC4/ble_uds.c ****                 cyBle_udss.charInfo[locCharIndex].charHandle)
 1134              		.loc 1 993 0
 1135 0030 9942     		cmp	r1, r3
 1136 0032 14D1     		bne	.L89
 995:Generated_Source\PSoC4/ble_uds.c ****         {
 996:Generated_Source\PSoC4/ble_uds.c ****             if(CYBLE_GATT_DB_ATTR_GET_ATTR_GEN_MAX_LEN(cyBle_udss.charInfo[locCharIndex].charHandle
 1137              		.loc 1 996 0
 1138 0034 013B     		subs	r3, r3, #1
 1139 0036 9A00     		lsls	r2, r3, #2
 1140              	.LVL97:
 1141 0038 D318     		adds	r3, r2, r3
 1142 003a 9A00     		lsls	r2, r3, #2
 1143 003c 0D4B     		ldr	r3, .L93+8
ARM GAS  C:\Users\310309~1\AppData\Local\Temp\cckEzWOW.s 			page 39


 1144 003e 9A18     		adds	r2, r3, r2
 1145 0040 9289     		ldrh	r2, [r2, #12]
 1146 0042 6B46     		mov	r3, sp
 1147 0044 0633     		adds	r3, r3, #6
 1148 0046 1B88     		ldrh	r3, [r3]
 1149 0048 033B     		subs	r3, r3, #3
 1150 004a 9A42     		cmp	r2, r3
 1151 004c 01D8     		bhi	.L90
 997:Generated_Source\PSoC4/ble_uds.c ****             {   
 998:Generated_Source\PSoC4/ble_uds.c ****                 #ifdef ATT_QUEUED_WRITE_SUPPORT
 999:Generated_Source\PSoC4/ble_uds.c ****                     if(eventParam->currentPrepWriteReqCount == CYBLE_GATTS_FIRST_PREP_WRITE_REQ)
1000:Generated_Source\PSoC4/ble_uds.c ****                     {
1001:Generated_Source\PSoC4/ble_uds.c ****                         CyBle_GattsPrepWriteReqSupport(CYBLE_GATTS_PREP_WRITE_SUPPORT);
1002:Generated_Source\PSoC4/ble_uds.c ****                     }
1003:Generated_Source\PSoC4/ble_uds.c ****                 #endif /* ATT_QUEUED_WRITE_SUPPORT */
1004:Generated_Source\PSoC4/ble_uds.c ****             } 
1005:Generated_Source\PSoC4/ble_uds.c ****             else
1006:Generated_Source\PSoC4/ble_uds.c ****             {
1007:Generated_Source\PSoC4/ble_uds.c ****                 eventParam->gattErrorCode = CYBLE_GATT_ERR_ATTRIBUTE_NOT_LONG;
 1152              		.loc 1 1007 0
 1153 004e 0B23     		movs	r3, #11
 1154 0050 6372     		strb	r3, [r4, #9]
 1155              	.L90:
1008:Generated_Source\PSoC4/ble_uds.c ****             }
1009:Generated_Source\PSoC4/ble_uds.c ****             
1010:Generated_Source\PSoC4/ble_uds.c ****             /* Indicate that request was handled */
1011:Generated_Source\PSoC4/ble_uds.c ****             cyBle_eventHandlerFlag &= (uint8)~CYBLE_CALLBACK;
 1156              		.loc 1 1011 0
 1157 0052 094A     		ldr	r2, .L93+12
 1158 0054 1378     		ldrb	r3, [r2]
 1159 0056 0121     		movs	r1, #1
 1160 0058 8B43     		bics	r3, r1
 1161 005a 1370     		strb	r3, [r2]
1012:Generated_Source\PSoC4/ble_uds.c ****             break;
 1162              		.loc 1 1012 0
 1163 005c 03E0     		b	.L87
 1164              	.LVL98:
 1165              	.L89:
 991:Generated_Source\PSoC4/ble_uds.c ****     {
 1166              		.loc 1 991 0 discriminator 2
 1167 005e 0132     		adds	r2, r2, #1
 1168              	.LVL99:
 1169 0060 D2B2     		uxtb	r2, r2
 1170              	.LVL100:
 1171              	.L88:
 991:Generated_Source\PSoC4/ble_uds.c ****     {
 1172              		.loc 1 991 0 is_stmt 0 discriminator 1
 1173 0062 022A     		cmp	r2, #2
 1174 0064 D7D9     		bls	.L92
 1175              	.LVL101:
 1176              	.L87:
1013:Generated_Source\PSoC4/ble_uds.c ****         }
1014:Generated_Source\PSoC4/ble_uds.c ****     }
1015:Generated_Source\PSoC4/ble_uds.c **** }
 1177              		.loc 1 1015 0 is_stmt 1
 1178 0066 02B0     		add	sp, sp, #8
 1179              		@ sp needed
ARM GAS  C:\Users\310309~1\AppData\Local\Temp\cckEzWOW.s 			page 40


 1180              	.LVL102:
 1181 0068 10BD     		pop	{r4, pc}
 1182              	.L94:
 1183 006a C046     		.align	2
 1184              	.L93:
 1185 006c FFFFFF0F 		.word	268435455
 1186 0070 00000000 		.word	.LANCHOR1
 1187 0074 00000000 		.word	cyBle_gattDB
 1188 0078 00000000 		.word	cyBle_eventHandlerFlag
 1189              		.cfi_endproc
 1190              	.LFE12:
 1191              		.size	CyBle_UdssPrepareWriteRequestEventHandler, .-CyBle_UdssPrepareWriteRequestEventHandler
 1192              		.section	.text.CyBle_UdssExecuteWriteRequestEventHandler,"ax",%progbits
 1193              		.align	2
 1194              		.global	CyBle_UdssExecuteWriteRequestEventHandler
 1195              		.code	16
 1196              		.thumb_func
 1197              		.type	CyBle_UdssExecuteWriteRequestEventHandler, %function
 1198              	CyBle_UdssExecuteWriteRequestEventHandler:
 1199              	.LFB13:
1016:Generated_Source\PSoC4/ble_uds.c **** 
1017:Generated_Source\PSoC4/ble_uds.c **** /****************************************************************************** 
1018:Generated_Source\PSoC4/ble_uds.c **** * Function Name: CyBle_UdssExecuteWriteRequestEventHandler
1019:Generated_Source\PSoC4/ble_uds.c **** ***************************************************************************//**
1020:Generated_Source\PSoC4/ble_uds.c **** * 
1021:Generated_Source\PSoC4/ble_uds.c **** *  Handles the Execute Write Request Event.
1022:Generated_Source\PSoC4/ble_uds.c **** * 
1023:Generated_Source\PSoC4/ble_uds.c **** *  \param eventParam: The pointer to the data that came with a write request.
1024:Generated_Source\PSoC4/ble_uds.c **** * 
1025:Generated_Source\PSoC4/ble_uds.c **** ******************************************************************************/
1026:Generated_Source\PSoC4/ble_uds.c **** void CyBle_UdssExecuteWriteRequestEventHandler(CYBLE_GATTS_EXEC_WRITE_REQ_T *eventParam)
1027:Generated_Source\PSoC4/ble_uds.c **** {
 1200              		.loc 1 1027 0
 1201              		.cfi_startproc
 1202              		@ args = 0, pretend = 0, frame = 72
 1203              		@ frame_needed = 0, uses_anonymous_args = 0
 1204              	.LVL103:
 1205 0000 F0B5     		push	{r4, r5, r6, r7, lr}
 1206              		.cfi_def_cfa_offset 20
 1207              		.cfi_offset 4, -20
 1208              		.cfi_offset 5, -16
 1209              		.cfi_offset 6, -12
 1210              		.cfi_offset 7, -8
 1211              		.cfi_offset 14, -4
 1212 0002 4746     		mov	r7, r8
 1213 0004 80B4     		push	{r7}
 1214              		.cfi_def_cfa_offset 24
 1215              		.cfi_offset 8, -24
 1216 0006 92B0     		sub	sp, sp, #72
 1217              		.cfi_def_cfa_offset 96
 1218 0008 0400     		movs	r4, r0
 1219              	.LVL104:
1028:Generated_Source\PSoC4/ble_uds.c ****     uint8 locCount;
1029:Generated_Source\PSoC4/ble_uds.c ****     CYBLE_UDS_CHAR_VALUE_T locCharValue[CYBLE_UDS_LONG_CHAR_COUNT];
1030:Generated_Source\PSoC4/ble_uds.c ****     CYBLE_GATT_VALUE_T locGattValue[CYBLE_UDS_LONG_CHAR_COUNT];
1031:Generated_Source\PSoC4/ble_uds.c ****     CYBLE_UDS_CHAR_INDEX_T locCharIndex;
1032:Generated_Source\PSoC4/ble_uds.c ****     for(locCharIndex = CYBLE_UDS_FNM; locCharIndex <= CYBLE_UDS_EML; locCharIndex++)
ARM GAS  C:\Users\310309~1\AppData\Local\Temp\cckEzWOW.s 			page 41


 1220              		.loc 1 1032 0
 1221 000a 0023     		movs	r3, #0
 1222 000c 07E0     		b	.L96
 1223              	.LVL105:
 1224              	.L97:
1033:Generated_Source\PSoC4/ble_uds.c ****     {
1034:Generated_Source\PSoC4/ble_uds.c ****         locGattValue[locCharIndex].len = 0u;
 1225              		.loc 1 1034 0 discriminator 3
 1226 000e 03AA     		add	r2, sp, #12
 1227 0010 D900     		lsls	r1, r3, #3
 1228 0012 5518     		adds	r5, r2, r1
 1229 0014 0020     		movs	r0, #0
 1230 0016 A880     		strh	r0, [r5, #4]
1035:Generated_Source\PSoC4/ble_uds.c ****         locGattValue[locCharIndex].val = NULL;
 1231              		.loc 1 1035 0 discriminator 3
 1232 0018 8850     		str	r0, [r1, r2]
1032:Generated_Source\PSoC4/ble_uds.c ****     {
 1233              		.loc 1 1032 0 discriminator 3
 1234 001a 0133     		adds	r3, r3, #1
 1235              	.LVL106:
 1236 001c DBB2     		uxtb	r3, r3
 1237              	.LVL107:
 1238              	.L96:
1032:Generated_Source\PSoC4/ble_uds.c ****     {
 1239              		.loc 1 1032 0 is_stmt 0 discriminator 1
 1240 001e 022B     		cmp	r3, #2
 1241 0020 F5D9     		bls	.L97
 1242 0022 0027     		movs	r7, #0
 1243 0024 2DE0     		b	.L98
 1244              	.LVL108:
 1245              	.L101:
1036:Generated_Source\PSoC4/ble_uds.c ****     }
1037:Generated_Source\PSoC4/ble_uds.c ****     
1038:Generated_Source\PSoC4/ble_uds.c ****     for(locCount = 0u; locCount < eventParam->prepWriteReqCount; locCount++)
1039:Generated_Source\PSoC4/ble_uds.c ****     {
1040:Generated_Source\PSoC4/ble_uds.c ****         for(locCharIndex = CYBLE_UDS_FNM; locCharIndex <= CYBLE_UDS_EML; locCharIndex++)
1041:Generated_Source\PSoC4/ble_uds.c ****         {
1042:Generated_Source\PSoC4/ble_uds.c ****             if(eventParam->baseAddr[locCount].handleValuePair.attrHandle ==
 1246              		.loc 1 1042 0 is_stmt 1
 1247 0026 3801     		lsls	r0, r7, #4
 1248 0028 6268     		ldr	r2, [r4, #4]
 1249 002a 1118     		adds	r1, r2, r0
 1250 002c 0E89     		ldrh	r6, [r1, #8]
1043:Generated_Source\PSoC4/ble_uds.c ****                 cyBle_udss.charInfo[locCharIndex].charHandle)
 1251              		.loc 1 1043 0
 1252 002e 0193     		str	r3, [sp, #4]
 1253 0030 9A00     		lsls	r2, r3, #2
 1254 0032 3D4D     		ldr	r5, .L109
 1255 0034 AA18     		adds	r2, r5, r2
 1256 0036 5288     		ldrh	r2, [r2, #2]
1042:Generated_Source\PSoC4/ble_uds.c ****                 cyBle_udss.charInfo[locCharIndex].charHandle)
 1257              		.loc 1 1042 0
 1258 0038 9642     		cmp	r6, r2
 1259 003a 1AD1     		bne	.L99
1044:Generated_Source\PSoC4/ble_uds.c ****             {
1045:Generated_Source\PSoC4/ble_uds.c ****                 locGattValue[locCharIndex].len = eventParam->baseAddr[locCount].offset + 
 1260              		.loc 1 1045 0
ARM GAS  C:\Users\310309~1\AppData\Local\Temp\cckEzWOW.s 			page 42


 1261 003c 8A89     		ldrh	r2, [r1, #12]
 1262 003e 9046     		mov	r8, r2
1046:Generated_Source\PSoC4/ble_uds.c ****                                    eventParam->baseAddr[locCount].handleValuePair.value.len;
 1263              		.loc 1 1046 0
 1264 0040 8A88     		ldrh	r2, [r1, #4]
1045:Generated_Source\PSoC4/ble_uds.c ****                                    eventParam->baseAddr[locCount].handleValuePair.value.len;
 1265              		.loc 1 1045 0
 1266 0042 03A9     		add	r1, sp, #12
 1267 0044 DE00     		lsls	r6, r3, #3
 1268 0046 8D19     		adds	r5, r1, r6
 1269 0048 4244     		add	r2, r2, r8
 1270 004a AA80     		strh	r2, [r5, #4]
1047:Generated_Source\PSoC4/ble_uds.c **** 
1048:Generated_Source\PSoC4/ble_uds.c ****                 if(locGattValue[locCharIndex].val == NULL)
 1271              		.loc 1 1048 0
 1272 004c 7258     		ldr	r2, [r6, r1]
 1273 004e 002A     		cmp	r2, #0
 1274 0050 04D1     		bne	.L100
1049:Generated_Source\PSoC4/ble_uds.c ****                 {
1050:Generated_Source\PSoC4/ble_uds.c ****                     locGattValue[locCharIndex].val = eventParam->baseAddr[locCount].handleValuePair
 1275              		.loc 1 1050 0
 1276 0052 6268     		ldr	r2, [r4, #4]
 1277 0054 1158     		ldr	r1, [r2, r0]
 1278 0056 03AA     		add	r2, sp, #12
 1279 0058 B150     		str	r1, [r6, r2]
 1280 005a 0AE0     		b	.L99
 1281              	.L100:
1051:Generated_Source\PSoC4/ble_uds.c ****                 }
1052:Generated_Source\PSoC4/ble_uds.c ****                 else if(eventParam->baseAddr[locCount].offset == 0u)
 1282              		.loc 1 1052 0
 1283 005c 6268     		ldr	r2, [r4, #4]
 1284 005e 9446     		mov	ip, r2
 1285 0060 6044     		add	r0, r0, ip
 1286 0062 8289     		ldrh	r2, [r0, #12]
 1287 0064 002A     		cmp	r2, #0
 1288 0066 04D1     		bne	.L99
1053:Generated_Source\PSoC4/ble_uds.c ****                 {
1054:Generated_Source\PSoC4/ble_uds.c ****                     /* Case when client wants to rewrite value from beginning */
1055:Generated_Source\PSoC4/ble_uds.c ****                     locGattValue[locCharIndex].val = eventParam->baseAddr[locCount].handleValuePair
 1289              		.loc 1 1055 0
 1290 0068 0168     		ldr	r1, [r0]
 1291 006a 019A     		ldr	r2, [sp, #4]
 1292 006c D500     		lsls	r5, r2, #3
 1293 006e 03AA     		add	r2, sp, #12
 1294 0070 A950     		str	r1, [r5, r2]
 1295              	.L99:
1040:Generated_Source\PSoC4/ble_uds.c ****         {
 1296              		.loc 1 1040 0 discriminator 2
 1297 0072 0133     		adds	r3, r3, #1
 1298              	.LVL109:
 1299 0074 DBB2     		uxtb	r3, r3
 1300              	.LVL110:
 1301 0076 00E0     		b	.L102
 1302              	.LVL111:
 1303              	.L108:
 1304 0078 0023     		movs	r3, #0
 1305              	.L102:
ARM GAS  C:\Users\310309~1\AppData\Local\Temp\cckEzWOW.s 			page 43


 1306              	.LVL112:
1040:Generated_Source\PSoC4/ble_uds.c ****         {
 1307              		.loc 1 1040 0 is_stmt 0 discriminator 1
 1308 007a 022B     		cmp	r3, #2
 1309 007c D3D9     		bls	.L101
1038:Generated_Source\PSoC4/ble_uds.c ****     {
 1310              		.loc 1 1038 0 is_stmt 1 discriminator 2
 1311 007e 0137     		adds	r7, r7, #1
 1312              	.LVL113:
 1313 0080 FFB2     		uxtb	r7, r7
 1314              	.LVL114:
 1315              	.L98:
1038:Generated_Source\PSoC4/ble_uds.c ****     {
 1316              		.loc 1 1038 0 is_stmt 0 discriminator 1
 1317 0082 237A     		ldrb	r3, [r4, #8]
 1318              	.LVL115:
 1319 0084 9F42     		cmp	r7, r3
 1320 0086 F7D3     		bcc	.L108
 1321 0088 0025     		movs	r5, #0
 1322 008a 46E0     		b	.L103
 1323              	.LVL116:
 1324              	.L107:
1056:Generated_Source\PSoC4/ble_uds.c ****                 }
1057:Generated_Source\PSoC4/ble_uds.c ****                 else
1058:Generated_Source\PSoC4/ble_uds.c ****                 {
1059:Generated_Source\PSoC4/ble_uds.c ****                     /* Do nothing */
1060:Generated_Source\PSoC4/ble_uds.c ****                 }
1061:Generated_Source\PSoC4/ble_uds.c ****             }
1062:Generated_Source\PSoC4/ble_uds.c ****         }
1063:Generated_Source\PSoC4/ble_uds.c ****     }
1064:Generated_Source\PSoC4/ble_uds.c ****     
1065:Generated_Source\PSoC4/ble_uds.c ****     for(locCharIndex = CYBLE_UDS_FNM; locCharIndex <= CYBLE_UDS_EML; locCharIndex++)
1066:Generated_Source\PSoC4/ble_uds.c ****     {
1067:Generated_Source\PSoC4/ble_uds.c ****         if((locGattValue[locCharIndex].len != 0u) &&
 1325              		.loc 1 1067 0 is_stmt 1
 1326 008c EB00     		lsls	r3, r5, #3
 1327 008e 03AA     		add	r2, sp, #12
 1328 0090 9446     		mov	ip, r2
 1329 0092 6344     		add	r3, r3, ip
 1330 0094 9A88     		ldrh	r2, [r3, #4]
 1331 0096 002A     		cmp	r2, #0
 1332 0098 3DD0     		beq	.L104
1068:Generated_Source\PSoC4/ble_uds.c ****            (locGattValue[locCharIndex].len <= 
1069:Generated_Source\PSoC4/ble_uds.c ****             CYBLE_GATT_DB_ATTR_GET_ATTR_GEN_MAX_LEN(cyBle_udss.charInfo[locCharIndex].charHandle)))
 1333              		.loc 1 1069 0 discriminator 1
 1334 009a AB00     		lsls	r3, r5, #2
 1335 009c 2249     		ldr	r1, .L109
 1336 009e CB18     		adds	r3, r1, r3
 1337 00a0 5F88     		ldrh	r7, [r3, #2]
 1338 00a2 013F     		subs	r7, r7, #1
 1339 00a4 B900     		lsls	r1, r7, #2
 1340 00a6 C919     		adds	r1, r1, r7
 1341 00a8 8B00     		lsls	r3, r1, #2
 1342 00aa 2049     		ldr	r1, .L109+4
 1343 00ac CB18     		adds	r3, r1, r3
 1344 00ae 9B89     		ldrh	r3, [r3, #12]
1067:Generated_Source\PSoC4/ble_uds.c ****            (locGattValue[locCharIndex].len <= 
ARM GAS  C:\Users\310309~1\AppData\Local\Temp\cckEzWOW.s 			page 44


 1345              		.loc 1 1067 0 discriminator 1
 1346 00b0 9A42     		cmp	r2, r3
 1347 00b2 30D8     		bhi	.L104
1070:Generated_Source\PSoC4/ble_uds.c ****         {
1071:Generated_Source\PSoC4/ble_uds.c ****             /* Check the execWriteFlag before execute or cancel write long operation */
1072:Generated_Source\PSoC4/ble_uds.c ****             if(eventParam->execWriteFlag == CYBLE_GATT_EXECUTE_WRITE_EXEC_FLAG)
 1348              		.loc 1 1072 0
 1349 00b4 637A     		ldrb	r3, [r4, #9]
 1350 00b6 012B     		cmp	r3, #1
 1351 00b8 28D1     		bne	.L105
1073:Generated_Source\PSoC4/ble_uds.c ****             {
1074:Generated_Source\PSoC4/ble_uds.c ****                 locCharValue[locCharIndex].gattErrorCode = CYBLE_GATT_ERR_NONE;
 1352              		.loc 1 1074 0
 1353 00ba 09AA     		add	r2, sp, #36
 1354 00bc 6B00     		lsls	r3, r5, #1
 1355 00be 5819     		adds	r0, r3, r5
 1356 00c0 8100     		lsls	r1, r0, #2
 1357 00c2 8846     		mov	r8, r1
 1358 00c4 9044     		add	r8, r8, r2
 1359 00c6 0021     		movs	r1, #0
 1360 00c8 4046     		mov	r0, r8
 1361 00ca 0172     		strb	r1, [r0, #8]
1075:Generated_Source\PSoC4/ble_uds.c ****                 locCharValue[locCharIndex].connHandle = eventParam->connHandle;
 1362              		.loc 1 1075 0
 1363 00cc 5B19     		adds	r3, r3, r5
 1364 00ce 9900     		lsls	r1, r3, #2
 1365 00d0 2388     		ldrh	r3, [r4]
 1366 00d2 8B52     		strh	r3, [r1, r2]
1076:Generated_Source\PSoC4/ble_uds.c ****                 locCharValue[locCharIndex].charIndex = locCharIndex;
 1367              		.loc 1 1076 0
 1368 00d4 8570     		strb	r5, [r0, #2]
1077:Generated_Source\PSoC4/ble_uds.c ****                 locCharValue[locCharIndex].value = &locGattValue[locCharIndex];
 1369              		.loc 1 1077 0
 1370 00d6 EB00     		lsls	r3, r5, #3
 1371 00d8 6344     		add	r3, r3, ip
 1372 00da 4360     		str	r3, [r0, #4]
1078:Generated_Source\PSoC4/ble_uds.c ****             
1079:Generated_Source\PSoC4/ble_uds.c ****                 CyBle_UdsApplCallback((uint32)CYBLE_EVT_UDSS_WRITE_CHAR, &locCharValue[locCharIndex
 1373              		.loc 1 1079 0
 1374 00dc 144B     		ldr	r3, .L109+8
 1375 00de 5B68     		ldr	r3, [r3, #4]
 1376 00e0 4146     		mov	r1, r8
 1377 00e2 8220     		movs	r0, #130
 1378 00e4 8000     		lsls	r0, r0, #2
 1379 00e6 9847     		blx	r3
 1380              	.LVL117:
1080:Generated_Source\PSoC4/ble_uds.c ****                            
1081:Generated_Source\PSoC4/ble_uds.c ****                 if(locCharValue[locCharIndex].gattErrorCode == CYBLE_GATT_ERR_USER_DATA_ACCESS_NOT_
 1381              		.loc 1 1081 0
 1382 00e8 4346     		mov	r3, r8
 1383 00ea 1B7A     		ldrb	r3, [r3, #8]
 1384 00ec 802B     		cmp	r3, #128
 1385 00ee 01D1     		bne	.L106
1082:Generated_Source\PSoC4/ble_uds.c ****                 {
1083:Generated_Source\PSoC4/ble_uds.c ****                     eventParam->gattErrorCode = CYBLE_GATT_ERR_USER_DATA_ACCESS_NOT_PERMITTED;
 1386              		.loc 1 1083 0
 1387 00f0 2373     		strb	r3, [r4, #12]
ARM GAS  C:\Users\310309~1\AppData\Local\Temp\cckEzWOW.s 			page 45


 1388 00f2 0BE0     		b	.L105
 1389              	.L106:
1084:Generated_Source\PSoC4/ble_uds.c ****                 }
1085:Generated_Source\PSoC4/ble_uds.c ****                 else
1086:Generated_Source\PSoC4/ble_uds.c ****                 {
1087:Generated_Source\PSoC4/ble_uds.c ****                     CYBLE_GATT_DB_ATTR_SET_ATTR_GEN_LEN(cyBle_udss.charInfo[locCharIndex].charHandl
 1390              		.loc 1 1087 0
 1391 00f4 BB00     		lsls	r3, r7, #2
 1392 00f6 DF19     		adds	r7, r3, r7
 1393 00f8 BB00     		lsls	r3, r7, #2
 1394 00fa 0C4A     		ldr	r2, .L109+4
 1395 00fc D318     		adds	r3, r2, r3
 1396 00fe 1B69     		ldr	r3, [r3, #16]
 1397 0100 EE00     		lsls	r6, r5, #3
 1398 0102 03AA     		add	r2, sp, #12
 1399 0104 9446     		mov	ip, r2
 1400 0106 6644     		add	r6, r6, ip
 1401 0108 B288     		ldrh	r2, [r6, #4]
 1402 010a 1A80     		strh	r2, [r3]
 1403              	.L105:
1088:Generated_Source\PSoC4/ble_uds.c ****                                                             locGattValue[locCharIndex].len);    
1089:Generated_Source\PSoC4/ble_uds.c ****                 }
1090:Generated_Source\PSoC4/ble_uds.c ****             }
1091:Generated_Source\PSoC4/ble_uds.c ****             
1092:Generated_Source\PSoC4/ble_uds.c ****             /* Indicate that request was handled */
1093:Generated_Source\PSoC4/ble_uds.c ****             cyBle_eventHandlerFlag &= (uint8)~CYBLE_CALLBACK;
 1404              		.loc 1 1093 0
 1405 010c 094A     		ldr	r2, .L109+12
 1406 010e 1378     		ldrb	r3, [r2]
 1407 0110 0121     		movs	r1, #1
 1408 0112 8B43     		bics	r3, r1
 1409 0114 1370     		strb	r3, [r2]
 1410              	.L104:
1065:Generated_Source\PSoC4/ble_uds.c ****     {
 1411              		.loc 1 1065 0 discriminator 2
 1412 0116 0135     		adds	r5, r5, #1
 1413              	.LVL118:
 1414 0118 EDB2     		uxtb	r5, r5
 1415              	.LVL119:
 1416              	.L103:
1065:Generated_Source\PSoC4/ble_uds.c ****     {
 1417              		.loc 1 1065 0 is_stmt 0 discriminator 1
 1418 011a 022D     		cmp	r5, #2
 1419 011c B6D9     		bls	.L107
1094:Generated_Source\PSoC4/ble_uds.c ****         }
1095:Generated_Source\PSoC4/ble_uds.c ****     }
1096:Generated_Source\PSoC4/ble_uds.c **** }
 1420              		.loc 1 1096 0 is_stmt 1
 1421 011e 12B0     		add	sp, sp, #72
 1422              		@ sp needed
 1423              	.LVL120:
 1424              	.LVL121:
 1425 0120 04BC     		pop	{r2}
 1426 0122 9046     		mov	r8, r2
 1427 0124 F0BD     		pop	{r4, r5, r6, r7, pc}
 1428              	.L110:
 1429 0126 C046     		.align	2
ARM GAS  C:\Users\310309~1\AppData\Local\Temp\cckEzWOW.s 			page 46


 1430              	.L109:
 1431 0128 00000000 		.word	.LANCHOR1
 1432 012c 00000000 		.word	cyBle_gattDB
 1433 0130 00000000 		.word	.LANCHOR0
 1434 0134 00000000 		.word	cyBle_eventHandlerFlag
 1435              		.cfi_endproc
 1436              	.LFE13:
 1437              		.size	CyBle_UdssExecuteWriteRequestEventHandler, .-CyBle_UdssExecuteWriteRequestEventHandler
 1438              		.comm	cyBle_udsFlag,1,1
 1439              		.global	cyBle_udss
 1440              		.section	.rodata
 1441              		.align	2
 1442              		.set	.LANCHOR1,. + 0
 1443              		.type	cyBle_udss, %object
 1444              		.size	cyBle_udss, 126
 1445              	cyBle_udss:
 1446 0000 5000     		.short	80
 1447 0002 5200     		.short	82
 1448 0004 0000     		.short	0
 1449 0006 5400     		.short	84
 1450 0008 0000     		.short	0
 1451 000a 5600     		.short	86
 1452 000c 0000     		.short	0
 1453 000e 5800     		.short	88
 1454 0010 0000     		.short	0
 1455 0012 5A00     		.short	90
 1456 0014 0000     		.short	0
 1457 0016 5C00     		.short	92
 1458 0018 0000     		.short	0
 1459 001a 5E00     		.short	94
 1460 001c 0000     		.short	0
 1461 001e 6000     		.short	96
 1462 0020 0000     		.short	0
 1463 0022 6200     		.short	98
 1464 0024 0000     		.short	0
 1465 0026 6400     		.short	100
 1466 0028 0000     		.short	0
 1467 002a 6600     		.short	102
 1468 002c 0000     		.short	0
 1469 002e 6800     		.short	104
 1470 0030 0000     		.short	0
 1471 0032 6A00     		.short	106
 1472 0034 0000     		.short	0
 1473 0036 6C00     		.short	108
 1474 0038 0000     		.short	0
 1475 003a 6E00     		.short	110
 1476 003c 0000     		.short	0
 1477 003e 7000     		.short	112
 1478 0040 0000     		.short	0
 1479 0042 7200     		.short	114
 1480 0044 0000     		.short	0
 1481 0046 7400     		.short	116
 1482 0048 0000     		.short	0
 1483 004a 7600     		.short	118
 1484 004c 0000     		.short	0
 1485 004e 7800     		.short	120
 1486 0050 0000     		.short	0
ARM GAS  C:\Users\310309~1\AppData\Local\Temp\cckEzWOW.s 			page 47


 1487 0052 7A00     		.short	122
 1488 0054 0000     		.short	0
 1489 0056 7C00     		.short	124
 1490 0058 0000     		.short	0
 1491 005a 7E00     		.short	126
 1492 005c 0000     		.short	0
 1493 005e 8000     		.short	128
 1494 0060 0000     		.short	0
 1495 0062 8200     		.short	130
 1496 0064 0000     		.short	0
 1497 0066 8400     		.short	132
 1498 0068 0000     		.short	0
 1499 006a 8600     		.short	134
 1500 006c 0000     		.short	0
 1501 006e 8800     		.short	136
 1502 0070 8900     		.short	137
 1503 0072 8B00     		.short	139
 1504 0074 0000     		.short	0
 1505 0076 8D00     		.short	141
 1506 0078 8E00     		.short	142
 1507 007a 9000     		.short	144
 1508 007c 0000     		.short	0
 1509              		.bss
 1510              		.align	2
 1511              		.set	.LANCHOR0,. + 0
 1512              		.type	cyBle_udssReqHandle, %object
 1513              		.size	cyBle_udssReqHandle, 2
 1514              	cyBle_udssReqHandle:
 1515 0000 0000     		.space	2
 1516 0002 0000     		.space	2
 1517              		.type	CyBle_UdsApplCallback, %object
 1518              		.size	CyBle_UdsApplCallback, 4
 1519              	CyBle_UdsApplCallback:
 1520 0004 00000000 		.space	4
 1521              		.text
 1522              	.Letext0:
 1523              		.file 2 "Generated_Source\\PSoC4\\cytypes.h"
 1524              		.file 3 "Generated_Source\\PSoC4\\ble_Stack.h"
 1525              		.file 4 "Generated_Source\\PSoC4\\ble_StackGatt.h"
 1526              		.file 5 "Generated_Source\\PSoC4\\ble_StackGattServer.h"
 1527              		.file 6 "Generated_Source\\PSoC4\\ble_StackGattDb.h"
 1528              		.file 7 "Generated_Source\\PSoC4\\ble.h"
 1529              		.file 8 "Generated_Source\\PSoC4\\ble_dis.h"
 1530              		.file 9 "Generated_Source\\PSoC4\\ble_uds.h"
 1531              		.file 10 "Generated_Source\\PSoC4\\ble_eventHandler.h"
 1532              		.file 11 "Generated_Source\\PSoC4\\ble_gatt.h"
 1533              		.section	.debug_info,"",%progbits
 1534              	.Ldebug_info0:
 1535 0000 BE180000 		.4byte	0x18be
 1536 0004 0400     		.2byte	0x4
 1537 0006 00000000 		.4byte	.Ldebug_abbrev0
 1538 000a 04       		.byte	0x4
 1539 000b 01       		.uleb128 0x1
 1540 000c 9A070000 		.4byte	.LASF599
 1541 0010 0C       		.byte	0xc
 1542 0011 05170000 		.4byte	.LASF600
 1543 0015 89010000 		.4byte	.LASF601
ARM GAS  C:\Users\310309~1\AppData\Local\Temp\cckEzWOW.s 			page 48


 1544 0019 00000000 		.4byte	.Ldebug_ranges0+0
 1545 001d 00000000 		.4byte	0
 1546 0021 00000000 		.4byte	.Ldebug_line0
 1547 0025 02       		.uleb128 0x2
 1548 0026 01       		.byte	0x1
 1549 0027 06       		.byte	0x6
 1550 0028 2F100000 		.4byte	.LASF0
 1551 002c 02       		.uleb128 0x2
 1552 002d 01       		.byte	0x1
 1553 002e 08       		.byte	0x8
 1554 002f 54110000 		.4byte	.LASF1
 1555 0033 02       		.uleb128 0x2
 1556 0034 02       		.byte	0x2
 1557 0035 05       		.byte	0x5
 1558 0036 DA380000 		.4byte	.LASF2
 1559 003a 02       		.uleb128 0x2
 1560 003b 02       		.byte	0x2
 1561 003c 07       		.byte	0x7
 1562 003d F9400000 		.4byte	.LASF3
 1563 0041 02       		.uleb128 0x2
 1564 0042 04       		.byte	0x4
 1565 0043 05       		.byte	0x5
 1566 0044 770C0000 		.4byte	.LASF4
 1567 0048 02       		.uleb128 0x2
 1568 0049 04       		.byte	0x4
 1569 004a 07       		.byte	0x7
 1570 004b 1B1F0000 		.4byte	.LASF5
 1571 004f 02       		.uleb128 0x2
 1572 0050 08       		.byte	0x8
 1573 0051 05       		.byte	0x5
 1574 0052 E4230000 		.4byte	.LASF6
 1575 0056 02       		.uleb128 0x2
 1576 0057 08       		.byte	0x8
 1577 0058 07       		.byte	0x7
 1578 0059 7A310000 		.4byte	.LASF7
 1579 005d 03       		.uleb128 0x3
 1580 005e 04       		.byte	0x4
 1581 005f 05       		.byte	0x5
 1582 0060 696E7400 		.ascii	"int\000"
 1583 0064 02       		.uleb128 0x2
 1584 0065 04       		.byte	0x4
 1585 0066 07       		.byte	0x7
 1586 0067 FD280000 		.4byte	.LASF8
 1587 006b 04       		.uleb128 0x4
 1588 006c 69380000 		.4byte	.LASF9
 1589 0070 02       		.byte	0x2
 1590 0071 D201     		.2byte	0x1d2
 1591 0073 2C000000 		.4byte	0x2c
 1592 0077 04       		.uleb128 0x4
 1593 0078 18440000 		.4byte	.LASF10
 1594 007c 02       		.byte	0x2
 1595 007d D301     		.2byte	0x1d3
 1596 007f 3A000000 		.4byte	0x3a
 1597 0083 04       		.uleb128 0x4
 1598 0084 52040000 		.4byte	.LASF11
 1599 0088 02       		.byte	0x2
 1600 0089 D401     		.2byte	0x1d4
ARM GAS  C:\Users\310309~1\AppData\Local\Temp\cckEzWOW.s 			page 49


 1601 008b 48000000 		.4byte	0x48
 1602 008f 02       		.uleb128 0x2
 1603 0090 04       		.byte	0x4
 1604 0091 04       		.byte	0x4
 1605 0092 7C270000 		.4byte	.LASF12
 1606 0096 02       		.uleb128 0x2
 1607 0097 08       		.byte	0x8
 1608 0098 04       		.byte	0x4
 1609 0099 37250000 		.4byte	.LASF13
 1610 009d 02       		.uleb128 0x2
 1611 009e 01       		.byte	0x1
 1612 009f 08       		.byte	0x8
 1613 00a0 2D140000 		.4byte	.LASF14
 1614 00a4 05       		.uleb128 0x5
 1615 00a5 6B000000 		.4byte	0x6b
 1616 00a9 02       		.uleb128 0x2
 1617 00aa 08       		.byte	0x8
 1618 00ab 04       		.byte	0x4
 1619 00ac 4B2E0000 		.4byte	.LASF15
 1620 00b0 02       		.uleb128 0x2
 1621 00b1 04       		.byte	0x4
 1622 00b2 07       		.byte	0x7
 1623 00b3 B4000000 		.4byte	.LASF16
 1624 00b7 06       		.uleb128 0x6
 1625 00b8 04       		.byte	0x4
 1626 00b9 07       		.uleb128 0x7
 1627 00ba 04       		.byte	0x4
 1628 00bb BF000000 		.4byte	0xbf
 1629 00bf 08       		.uleb128 0x8
 1630 00c0 CF000000 		.4byte	0xcf
 1631 00c4 09       		.uleb128 0x9
 1632 00c5 83000000 		.4byte	0x83
 1633 00c9 09       		.uleb128 0x9
 1634 00ca B7000000 		.4byte	0xb7
 1635 00ce 00       		.byte	0
 1636 00cf 0A       		.uleb128 0xa
 1637 00d0 01       		.byte	0x1
 1638 00d1 2C000000 		.4byte	0x2c
 1639 00d5 03       		.byte	0x3
 1640 00d6 4D01     		.2byte	0x14d
 1641 00d8 8D020000 		.4byte	0x28d
 1642 00dc 0B       		.uleb128 0xb
 1643 00dd 26150000 		.4byte	.LASF17
 1644 00e1 00       		.byte	0
 1645 00e2 0B       		.uleb128 0xb
 1646 00e3 400D0000 		.4byte	.LASF18
 1647 00e7 01       		.byte	0x1
 1648 00e8 0B       		.uleb128 0xb
 1649 00e9 BD310000 		.4byte	.LASF19
 1650 00ed 02       		.byte	0x2
 1651 00ee 0B       		.uleb128 0xb
 1652 00ef A5100000 		.4byte	.LASF20
 1653 00f3 03       		.byte	0x3
 1654 00f4 0B       		.uleb128 0xb
 1655 00f5 47420000 		.4byte	.LASF21
 1656 00f9 04       		.byte	0x4
 1657 00fa 0B       		.uleb128 0xb
ARM GAS  C:\Users\310309~1\AppData\Local\Temp\cckEzWOW.s 			page 50


 1658 00fb 573F0000 		.4byte	.LASF22
 1659 00ff 05       		.byte	0x5
 1660 0100 0B       		.uleb128 0xb
 1661 0101 982E0000 		.4byte	.LASF23
 1662 0105 06       		.byte	0x6
 1663 0106 0B       		.uleb128 0xb
 1664 0107 313B0000 		.4byte	.LASF24
 1665 010b 20       		.byte	0x20
 1666 010c 0B       		.uleb128 0xb
 1667 010d 69090000 		.4byte	.LASF25
 1668 0111 21       		.byte	0x21
 1669 0112 0B       		.uleb128 0xb
 1670 0113 BA220000 		.4byte	.LASF26
 1671 0117 22       		.byte	0x22
 1672 0118 0B       		.uleb128 0xb
 1673 0119 B92C0000 		.4byte	.LASF27
 1674 011d 23       		.byte	0x23
 1675 011e 0B       		.uleb128 0xb
 1676 011f 831D0000 		.4byte	.LASF28
 1677 0123 24       		.byte	0x24
 1678 0124 0B       		.uleb128 0xb
 1679 0125 031E0000 		.4byte	.LASF29
 1680 0129 25       		.byte	0x25
 1681 012a 0B       		.uleb128 0xb
 1682 012b 7F370000 		.4byte	.LASF30
 1683 012f 26       		.byte	0x26
 1684 0130 0B       		.uleb128 0xb
 1685 0131 C9030000 		.4byte	.LASF31
 1686 0135 27       		.byte	0x27
 1687 0136 0B       		.uleb128 0xb
 1688 0137 83430000 		.4byte	.LASF32
 1689 013b 28       		.byte	0x28
 1690 013c 0B       		.uleb128 0xb
 1691 013d 6F2F0000 		.4byte	.LASF33
 1692 0141 29       		.byte	0x29
 1693 0142 0B       		.uleb128 0xb
 1694 0143 A3210000 		.4byte	.LASF34
 1695 0147 2A       		.byte	0x2a
 1696 0148 0B       		.uleb128 0xb
 1697 0149 1E2C0000 		.4byte	.LASF35
 1698 014d 2B       		.byte	0x2b
 1699 014e 0B       		.uleb128 0xb
 1700 014f B53F0000 		.4byte	.LASF36
 1701 0153 2C       		.byte	0x2c
 1702 0154 0B       		.uleb128 0xb
 1703 0155 82020000 		.4byte	.LASF37
 1704 0159 2D       		.byte	0x2d
 1705 015a 0B       		.uleb128 0xb
 1706 015b 91380000 		.4byte	.LASF38
 1707 015f 2E       		.byte	0x2e
 1708 0160 0B       		.uleb128 0xb
 1709 0161 CC0A0000 		.4byte	.LASF39
 1710 0165 2F       		.byte	0x2f
 1711 0166 0B       		.uleb128 0xb
 1712 0167 E7130000 		.4byte	.LASF40
 1713 016b 30       		.byte	0x30
 1714 016c 0B       		.uleb128 0xb
ARM GAS  C:\Users\310309~1\AppData\Local\Temp\cckEzWOW.s 			page 51


 1715 016d 82260000 		.4byte	.LASF41
 1716 0171 31       		.byte	0x31
 1717 0172 0B       		.uleb128 0xb
 1718 0173 5B150000 		.4byte	.LASF42
 1719 0177 32       		.byte	0x32
 1720 0178 0B       		.uleb128 0xb
 1721 0179 5A120000 		.4byte	.LASF43
 1722 017d 33       		.byte	0x33
 1723 017e 0B       		.uleb128 0xb
 1724 017f 81120000 		.4byte	.LASF44
 1725 0183 34       		.byte	0x34
 1726 0184 0B       		.uleb128 0xb
 1727 0185 B33C0000 		.4byte	.LASF45
 1728 0189 35       		.byte	0x35
 1729 018a 0B       		.uleb128 0xb
 1730 018b 5E0A0000 		.4byte	.LASF46
 1731 018f 36       		.byte	0x36
 1732 0190 0B       		.uleb128 0xb
 1733 0191 8E300000 		.4byte	.LASF47
 1734 0195 37       		.byte	0x37
 1735 0196 0B       		.uleb128 0xb
 1736 0197 123A0000 		.4byte	.LASF48
 1737 019b 40       		.byte	0x40
 1738 019c 0B       		.uleb128 0xb
 1739 019d 0B040000 		.4byte	.LASF49
 1740 01a1 41       		.byte	0x41
 1741 01a2 0B       		.uleb128 0xb
 1742 01a3 74420000 		.4byte	.LASF50
 1743 01a7 42       		.byte	0x42
 1744 01a8 0B       		.uleb128 0xb
 1745 01a9 D12F0000 		.4byte	.LASF51
 1746 01ad 43       		.byte	0x43
 1747 01ae 0B       		.uleb128 0xb
 1748 01af 62110000 		.4byte	.LASF52
 1749 01b3 44       		.byte	0x44
 1750 01b4 0B       		.uleb128 0xb
 1751 01b5 DA100000 		.4byte	.LASF53
 1752 01b9 45       		.byte	0x45
 1753 01ba 0B       		.uleb128 0xb
 1754 01bb 5E350000 		.4byte	.LASF54
 1755 01bf 46       		.byte	0x46
 1756 01c0 0B       		.uleb128 0xb
 1757 01c1 40350000 		.4byte	.LASF55
 1758 01c5 47       		.byte	0x47
 1759 01c6 0B       		.uleb128 0xb
 1760 01c7 9B130000 		.4byte	.LASF56
 1761 01cb 48       		.byte	0x48
 1762 01cc 0B       		.uleb128 0xb
 1763 01cd 112D0000 		.4byte	.LASF57
 1764 01d1 49       		.byte	0x49
 1765 01d2 0B       		.uleb128 0xb
 1766 01d3 BC150000 		.4byte	.LASF58
 1767 01d7 4A       		.byte	0x4a
 1768 01d8 0B       		.uleb128 0xb
 1769 01d9 A9140000 		.4byte	.LASF59
 1770 01dd 4B       		.byte	0x4b
 1771 01de 0B       		.uleb128 0xb
ARM GAS  C:\Users\310309~1\AppData\Local\Temp\cckEzWOW.s 			page 52


 1772 01df 612C0000 		.4byte	.LASF60
 1773 01e3 4C       		.byte	0x4c
 1774 01e4 0B       		.uleb128 0xb
 1775 01e5 D4360000 		.4byte	.LASF61
 1776 01e9 4D       		.byte	0x4d
 1777 01ea 0B       		.uleb128 0xb
 1778 01eb 120C0000 		.4byte	.LASF62
 1779 01ef 4E       		.byte	0x4e
 1780 01f0 0B       		.uleb128 0xb
 1781 01f1 0A290000 		.4byte	.LASF63
 1782 01f5 4F       		.byte	0x4f
 1783 01f6 0B       		.uleb128 0xb
 1784 01f7 123B0000 		.4byte	.LASF64
 1785 01fb 50       		.byte	0x50
 1786 01fc 0B       		.uleb128 0xb
 1787 01fd 20160000 		.4byte	.LASF65
 1788 0201 51       		.byte	0x51
 1789 0202 0B       		.uleb128 0xb
 1790 0203 48090000 		.4byte	.LASF66
 1791 0207 52       		.byte	0x52
 1792 0208 0B       		.uleb128 0xb
 1793 0209 CD3E0000 		.4byte	.LASF67
 1794 020d 53       		.byte	0x53
 1795 020e 0B       		.uleb128 0xb
 1796 020f C5430000 		.4byte	.LASF68
 1797 0213 54       		.byte	0x54
 1798 0214 0B       		.uleb128 0xb
 1799 0215 40070000 		.4byte	.LASF69
 1800 0219 55       		.byte	0x55
 1801 021a 0B       		.uleb128 0xb
 1802 021b 7E170000 		.4byte	.LASF70
 1803 021f 56       		.byte	0x56
 1804 0220 0B       		.uleb128 0xb
 1805 0221 28280000 		.4byte	.LASF71
 1806 0225 57       		.byte	0x57
 1807 0226 0B       		.uleb128 0xb
 1808 0227 44430000 		.4byte	.LASF72
 1809 022b 58       		.byte	0x58
 1810 022c 0B       		.uleb128 0xb
 1811 022d 38400000 		.4byte	.LASF73
 1812 0231 70       		.byte	0x70
 1813 0232 0B       		.uleb128 0xb
 1814 0233 1A1C0000 		.4byte	.LASF74
 1815 0237 71       		.byte	0x71
 1816 0238 0B       		.uleb128 0xb
 1817 0239 890F0000 		.4byte	.LASF75
 1818 023d 72       		.byte	0x72
 1819 023e 0B       		.uleb128 0xb
 1820 023f F43A0000 		.4byte	.LASF76
 1821 0243 73       		.byte	0x73
 1822 0244 0B       		.uleb128 0xb
 1823 0245 842D0000 		.4byte	.LASF77
 1824 0249 74       		.byte	0x74
 1825 024a 0B       		.uleb128 0xb
 1826 024b 37220000 		.4byte	.LASF78
 1827 024f 75       		.byte	0x75
 1828 0250 0B       		.uleb128 0xb
ARM GAS  C:\Users\310309~1\AppData\Local\Temp\cckEzWOW.s 			page 53


 1829 0251 7A130000 		.4byte	.LASF79
 1830 0255 76       		.byte	0x76
 1831 0256 0B       		.uleb128 0xb
 1832 0257 8B320000 		.4byte	.LASF80
 1833 025b 77       		.byte	0x77
 1834 025c 0B       		.uleb128 0xb
 1835 025d 64070000 		.4byte	.LASF81
 1836 0261 78       		.byte	0x78
 1837 0262 0B       		.uleb128 0xb
 1838 0263 540C0000 		.4byte	.LASF82
 1839 0267 79       		.byte	0x79
 1840 0268 0B       		.uleb128 0xb
 1841 0269 B8420000 		.4byte	.LASF83
 1842 026d 7A       		.byte	0x7a
 1843 026e 0B       		.uleb128 0xb
 1844 026f A8250000 		.4byte	.LASF84
 1845 0273 FA       		.byte	0xfa
 1846 0274 0B       		.uleb128 0xb
 1847 0275 E53D0000 		.4byte	.LASF85
 1848 0279 FB       		.byte	0xfb
 1849 027a 0B       		.uleb128 0xb
 1850 027b 401C0000 		.4byte	.LASF86
 1851 027f FC       		.byte	0xfc
 1852 0280 0B       		.uleb128 0xb
 1853 0281 332E0000 		.4byte	.LASF87
 1854 0285 FD       		.byte	0xfd
 1855 0286 0B       		.uleb128 0xb
 1856 0287 102C0000 		.4byte	.LASF88
 1857 028b FF       		.byte	0xff
 1858 028c 00       		.byte	0
 1859 028d 0A       		.uleb128 0xa
 1860 028e 02       		.byte	0x2
 1861 028f 3A000000 		.4byte	0x3a
 1862 0293 03       		.byte	0x3
 1863 0294 0204     		.2byte	0x402
 1864 0296 66030000 		.4byte	0x366
 1865 029a 0B       		.uleb128 0xb
 1866 029b BE100000 		.4byte	.LASF89
 1867 029f 00       		.byte	0
 1868 02a0 0B       		.uleb128 0xb
 1869 02a1 1F190000 		.4byte	.LASF90
 1870 02a5 01       		.byte	0x1
 1871 02a6 0B       		.uleb128 0xb
 1872 02a7 29420000 		.4byte	.LASF91
 1873 02ab 02       		.byte	0x2
 1874 02ac 0B       		.uleb128 0xb
 1875 02ad 7D1A0000 		.4byte	.LASF92
 1876 02b1 03       		.byte	0x3
 1877 02b2 0B       		.uleb128 0xb
 1878 02b3 891E0000 		.4byte	.LASF93
 1879 02b7 04       		.byte	0x4
 1880 02b8 0B       		.uleb128 0xb
 1881 02b9 EF240000 		.4byte	.LASF94
 1882 02bd 05       		.byte	0x5
 1883 02be 0B       		.uleb128 0xb
 1884 02bf 7F3D0000 		.4byte	.LASF95
 1885 02c3 06       		.byte	0x6
ARM GAS  C:\Users\310309~1\AppData\Local\Temp\cckEzWOW.s 			page 54


 1886 02c4 0B       		.uleb128 0xb
 1887 02c5 9F150000 		.4byte	.LASF96
 1888 02c9 07       		.byte	0x7
 1889 02ca 0B       		.uleb128 0xb
 1890 02cb 21270000 		.4byte	.LASF97
 1891 02cf 08       		.byte	0x8
 1892 02d0 0B       		.uleb128 0xb
 1893 02d1 2E3C0000 		.4byte	.LASF98
 1894 02d5 09       		.byte	0x9
 1895 02d6 0B       		.uleb128 0xb
 1896 02d7 4C440000 		.4byte	.LASF99
 1897 02db 0A       		.byte	0xa
 1898 02dc 0B       		.uleb128 0xb
 1899 02dd ED090000 		.4byte	.LASF100
 1900 02e1 0B       		.byte	0xb
 1901 02e2 0B       		.uleb128 0xb
 1902 02e3 403F0000 		.4byte	.LASF101
 1903 02e7 0C       		.byte	0xc
 1904 02e8 0B       		.uleb128 0xb
 1905 02e9 0C2B0000 		.4byte	.LASF102
 1906 02ed 0D       		.byte	0xd
 1907 02ee 0B       		.uleb128 0xb
 1908 02ef 92200000 		.4byte	.LASF103
 1909 02f3 0E       		.byte	0xe
 1910 02f4 0B       		.uleb128 0xb
 1911 02f5 CA240000 		.4byte	.LASF104
 1912 02f9 0F       		.byte	0xf
 1913 02fa 0B       		.uleb128 0xb
 1914 02fb B5060000 		.4byte	.LASF105
 1915 02ff 10       		.byte	0x10
 1916 0300 0B       		.uleb128 0xb
 1917 0301 F0260000 		.4byte	.LASF106
 1918 0305 11       		.byte	0x11
 1919 0306 0B       		.uleb128 0xb
 1920 0307 530D0000 		.4byte	.LASF107
 1921 030b 12       		.byte	0x12
 1922 030c 0B       		.uleb128 0xb
 1923 030d 07100000 		.4byte	.LASF108
 1924 0311 13       		.byte	0x13
 1925 0312 0B       		.uleb128 0xb
 1926 0313 3E250000 		.4byte	.LASF109
 1927 0317 27       		.byte	0x27
 1928 0318 0B       		.uleb128 0xb
 1929 0319 DD270000 		.4byte	.LASF110
 1930 031d 28       		.byte	0x28
 1931 031e 0B       		.uleb128 0xb
 1932 031f FE060000 		.4byte	.LASF111
 1933 0323 29       		.byte	0x29
 1934 0324 0B       		.uleb128 0xb
 1935 0325 7C390000 		.4byte	.LASF112
 1936 0329 2A       		.byte	0x2a
 1937 032a 0B       		.uleb128 0xb
 1938 032b E61F0000 		.4byte	.LASF113
 1939 032f 2B       		.byte	0x2b
 1940 0330 0B       		.uleb128 0xb
 1941 0331 45330000 		.4byte	.LASF114
 1942 0335 2C       		.byte	0x2c
ARM GAS  C:\Users\310309~1\AppData\Local\Temp\cckEzWOW.s 			page 55


 1943 0336 0B       		.uleb128 0xb
 1944 0337 EA180000 		.4byte	.LASF115
 1945 033b FE       		.byte	0xfe
 1946 033c 0B       		.uleb128 0xb
 1947 033d E71B0000 		.4byte	.LASF116
 1948 0341 FF       		.byte	0xff
 1949 0342 0C       		.uleb128 0xc
 1950 0343 F82C0000 		.4byte	.LASF117
 1951 0347 0001     		.2byte	0x100
 1952 0349 0C       		.uleb128 0xc
 1953 034a DF2C0000 		.4byte	.LASF118
 1954 034e 0101     		.2byte	0x101
 1955 0350 0C       		.uleb128 0xc
 1956 0351 8B0E0000 		.4byte	.LASF119
 1957 0355 0201     		.2byte	0x102
 1958 0357 0C       		.uleb128 0xc
 1959 0358 32320000 		.4byte	.LASF120
 1960 035c 0301     		.2byte	0x103
 1961 035e 0C       		.uleb128 0xc
 1962 035f 481E0000 		.4byte	.LASF121
 1963 0363 0401     		.2byte	0x104
 1964 0365 00       		.byte	0
 1965 0366 04       		.uleb128 0x4
 1966 0367 043E0000 		.4byte	.LASF122
 1967 036b 03       		.byte	0x3
 1968 036c 7104     		.2byte	0x471
 1969 036e 8D020000 		.4byte	0x28d
 1970 0372 07       		.uleb128 0x7
 1971 0373 04       		.byte	0x4
 1972 0374 6B000000 		.4byte	0x6b
 1973 0378 0D       		.uleb128 0xd
 1974 0379 01       		.byte	0x1
 1975 037a 2C000000 		.4byte	0x2c
 1976 037e 04       		.byte	0x4
 1977 037f A5       		.byte	0xa5
 1978 0380 6F040000 		.4byte	0x46f
 1979 0384 0B       		.uleb128 0xb
 1980 0385 AA320000 		.4byte	.LASF123
 1981 0389 00       		.byte	0
 1982 038a 0B       		.uleb128 0xb
 1983 038b 9F310000 		.4byte	.LASF124
 1984 038f 01       		.byte	0x1
 1985 0390 0B       		.uleb128 0xb
 1986 0391 48060000 		.4byte	.LASF125
 1987 0395 02       		.byte	0x2
 1988 0396 0B       		.uleb128 0xb
 1989 0397 B2400000 		.4byte	.LASF126
 1990 039b 03       		.byte	0x3
 1991 039c 0B       		.uleb128 0xb
 1992 039d 700E0000 		.4byte	.LASF127
 1993 03a1 04       		.byte	0x4
 1994 03a2 0B       		.uleb128 0xb
 1995 03a3 36290000 		.4byte	.LASF128
 1996 03a7 05       		.byte	0x5
 1997 03a8 0B       		.uleb128 0xb
 1998 03a9 ED390000 		.4byte	.LASF129
 1999 03ad 06       		.byte	0x6
ARM GAS  C:\Users\310309~1\AppData\Local\Temp\cckEzWOW.s 			page 56


 2000 03ae 0B       		.uleb128 0xb
 2001 03af 442D0000 		.4byte	.LASF130
 2002 03b3 07       		.byte	0x7
 2003 03b4 0B       		.uleb128 0xb
 2004 03b5 75280000 		.4byte	.LASF131
 2005 03b9 08       		.byte	0x8
 2006 03ba 0B       		.uleb128 0xb
 2007 03bb 80240000 		.4byte	.LASF132
 2008 03bf 09       		.byte	0x9
 2009 03c0 0B       		.uleb128 0xb
 2010 03c1 7D2B0000 		.4byte	.LASF133
 2011 03c5 0A       		.byte	0xa
 2012 03c6 0B       		.uleb128 0xb
 2013 03c7 BF160000 		.4byte	.LASF134
 2014 03cb 0B       		.byte	0xb
 2015 03cc 0B       		.uleb128 0xb
 2016 03cd C6250000 		.4byte	.LASF135
 2017 03d1 0C       		.byte	0xc
 2018 03d2 0B       		.uleb128 0xb
 2019 03d3 CA0F0000 		.4byte	.LASF136
 2020 03d7 0D       		.byte	0xd
 2021 03d8 0B       		.uleb128 0xb
 2022 03d9 3D150000 		.4byte	.LASF137
 2023 03dd 0E       		.byte	0xe
 2024 03de 0B       		.uleb128 0xb
 2025 03df 0C410000 		.4byte	.LASF138
 2026 03e3 0F       		.byte	0xf
 2027 03e4 0B       		.uleb128 0xb
 2028 03e5 8F060000 		.4byte	.LASF139
 2029 03e9 10       		.byte	0x10
 2030 03ea 0B       		.uleb128 0xb
 2031 03eb 6A060000 		.4byte	.LASF140
 2032 03ef 11       		.byte	0x11
 2033 03f0 0B       		.uleb128 0xb
 2034 03f1 70080000 		.4byte	.LASF141
 2035 03f5 80       		.byte	0x80
 2036 03f6 0B       		.uleb128 0xb
 2037 03f7 65160000 		.4byte	.LASF142
 2038 03fb 80       		.byte	0x80
 2039 03fc 0B       		.uleb128 0xb
 2040 03fd 2F1D0000 		.4byte	.LASF143
 2041 0401 80       		.byte	0x80
 2042 0402 0B       		.uleb128 0xb
 2043 0403 99390000 		.4byte	.LASF144
 2044 0407 80       		.byte	0x80
 2045 0408 0B       		.uleb128 0xb
 2046 0409 8E330000 		.4byte	.LASF145
 2047 040d 80       		.byte	0x80
 2048 040e 0B       		.uleb128 0xb
 2049 040f 542A0000 		.4byte	.LASF146
 2050 0413 80       		.byte	0x80
 2051 0414 0B       		.uleb128 0xb
 2052 0415 D21E0000 		.4byte	.LASF147
 2053 0419 80       		.byte	0x80
 2054 041a 0B       		.uleb128 0xb
 2055 041b 17320000 		.4byte	.LASF148
 2056 041f 80       		.byte	0x80
ARM GAS  C:\Users\310309~1\AppData\Local\Temp\cckEzWOW.s 			page 57


 2057 0420 0B       		.uleb128 0xb
 2058 0421 8B1B0000 		.4byte	.LASF149
 2059 0425 81       		.byte	0x81
 2060 0426 0B       		.uleb128 0xb
 2061 0427 EC350000 		.4byte	.LASF150
 2062 042b 81       		.byte	0x81
 2063 042c 0B       		.uleb128 0xb
 2064 042d 76000000 		.4byte	.LASF151
 2065 0431 81       		.byte	0x81
 2066 0432 0B       		.uleb128 0xb
 2067 0433 E10D0000 		.4byte	.LASF152
 2068 0437 81       		.byte	0x81
 2069 0438 0B       		.uleb128 0xb
 2070 0439 0A0B0000 		.4byte	.LASF153
 2071 043d 82       		.byte	0x82
 2072 043e 0B       		.uleb128 0xb
 2073 043f 0E3D0000 		.4byte	.LASF154
 2074 0443 A0       		.byte	0xa0
 2075 0444 0B       		.uleb128 0xb
 2076 0445 E2200000 		.4byte	.LASF155
 2077 0449 A0       		.byte	0xa0
 2078 044a 0B       		.uleb128 0xb
 2079 044b 3E0B0000 		.4byte	.LASF156
 2080 044f A1       		.byte	0xa1
 2081 0450 0B       		.uleb128 0xb
 2082 0451 FA3B0000 		.4byte	.LASF157
 2083 0455 A2       		.byte	0xa2
 2084 0456 0B       		.uleb128 0xb
 2085 0457 DF170000 		.4byte	.LASF158
 2086 045b A3       		.byte	0xa3
 2087 045c 0B       		.uleb128 0xb
 2088 045d 5F1E0000 		.4byte	.LASF159
 2089 0461 FD       		.byte	0xfd
 2090 0462 0B       		.uleb128 0xb
 2091 0463 31260000 		.4byte	.LASF160
 2092 0467 FE       		.byte	0xfe
 2093 0468 0B       		.uleb128 0xb
 2094 0469 FD2D0000 		.4byte	.LASF161
 2095 046d FF       		.byte	0xff
 2096 046e 00       		.byte	0
 2097 046f 04       		.uleb128 0x4
 2098 0470 E43B0000 		.4byte	.LASF162
 2099 0474 04       		.byte	0x4
 2100 0475 5F01     		.2byte	0x15f
 2101 0477 78030000 		.4byte	0x378
 2102 047b 04       		.uleb128 0x4
 2103 047c 4C320000 		.4byte	.LASF163
 2104 0480 04       		.byte	0x4
 2105 0481 8901     		.2byte	0x189
 2106 0483 77000000 		.4byte	0x77
 2107 0487 0E       		.uleb128 0xe
 2108 0488 02       		.byte	0x2
 2109 0489 04       		.byte	0x4
 2110 048a 9301     		.2byte	0x193
 2111 048c AB040000 		.4byte	0x4ab
 2112 0490 0F       		.uleb128 0xf
 2113 0491 010B0000 		.4byte	.LASF164
ARM GAS  C:\Users\310309~1\AppData\Local\Temp\cckEzWOW.s 			page 58


 2114 0495 04       		.byte	0x4
 2115 0496 9A01     		.2byte	0x19a
 2116 0498 6B000000 		.4byte	0x6b
 2117 049c 00       		.byte	0
 2118 049d 0F       		.uleb128 0xf
 2119 049e 23420000 		.4byte	.LASF165
 2120 04a2 04       		.byte	0x4
 2121 04a3 A001     		.2byte	0x1a0
 2122 04a5 6B000000 		.4byte	0x6b
 2123 04a9 01       		.byte	0x1
 2124 04aa 00       		.byte	0
 2125 04ab 04       		.uleb128 0x4
 2126 04ac B6090000 		.4byte	.LASF166
 2127 04b0 04       		.byte	0x4
 2128 04b1 A201     		.2byte	0x1a2
 2129 04b3 87040000 		.4byte	0x487
 2130 04b7 0E       		.uleb128 0xe
 2131 04b8 08       		.byte	0x8
 2132 04b9 04       		.byte	0x4
 2133 04ba BE01     		.2byte	0x1be
 2134 04bc E8040000 		.4byte	0x4e8
 2135 04c0 10       		.uleb128 0x10
 2136 04c1 76616C00 		.ascii	"val\000"
 2137 04c5 04       		.byte	0x4
 2138 04c6 C101     		.2byte	0x1c1
 2139 04c8 72030000 		.4byte	0x372
 2140 04cc 00       		.byte	0
 2141 04cd 10       		.uleb128 0x10
 2142 04ce 6C656E00 		.ascii	"len\000"
 2143 04d2 04       		.byte	0x4
 2144 04d3 C401     		.2byte	0x1c4
 2145 04d5 77000000 		.4byte	0x77
 2146 04d9 04       		.byte	0x4
 2147 04da 0F       		.uleb128 0xf
 2148 04db B4410000 		.4byte	.LASF167
 2149 04df 04       		.byte	0x4
 2150 04e0 CB01     		.2byte	0x1cb
 2151 04e2 77000000 		.4byte	0x77
 2152 04e6 06       		.byte	0x6
 2153 04e7 00       		.byte	0
 2154 04e8 04       		.uleb128 0x4
 2155 04e9 87070000 		.4byte	.LASF168
 2156 04ed 04       		.byte	0x4
 2157 04ee CD01     		.2byte	0x1cd
 2158 04f0 B7040000 		.4byte	0x4b7
 2159 04f4 0E       		.uleb128 0xe
 2160 04f5 0C       		.byte	0xc
 2161 04f6 04       		.byte	0x4
 2162 04f7 D001     		.2byte	0x1d0
 2163 04f9 18050000 		.4byte	0x518
 2164 04fd 0F       		.uleb128 0xf
 2165 04fe BE320000 		.4byte	.LASF169
 2166 0502 04       		.byte	0x4
 2167 0503 D301     		.2byte	0x1d3
 2168 0505 E8040000 		.4byte	0x4e8
 2169 0509 00       		.byte	0
 2170 050a 0F       		.uleb128 0xf
ARM GAS  C:\Users\310309~1\AppData\Local\Temp\cckEzWOW.s 			page 59


 2171 050b AA280000 		.4byte	.LASF170
 2172 050f 04       		.byte	0x4
 2173 0510 D601     		.2byte	0x1d6
 2174 0512 7B040000 		.4byte	0x47b
 2175 0516 08       		.byte	0x8
 2176 0517 00       		.byte	0
 2177 0518 04       		.uleb128 0x4
 2178 0519 F90E0000 		.4byte	.LASF171
 2179 051d 04       		.byte	0x4
 2180 051e D801     		.2byte	0x1d8
 2181 0520 F4040000 		.4byte	0x4f4
 2182 0524 0E       		.uleb128 0xe
 2183 0525 10       		.byte	0x10
 2184 0526 04       		.byte	0x4
 2185 0527 F101     		.2byte	0x1f1
 2186 0529 48050000 		.4byte	0x548
 2187 052d 0F       		.uleb128 0xf
 2188 052e AA360000 		.4byte	.LASF172
 2189 0532 04       		.byte	0x4
 2190 0533 F401     		.2byte	0x1f4
 2191 0535 18050000 		.4byte	0x518
 2192 0539 00       		.byte	0
 2193 053a 0F       		.uleb128 0xf
 2194 053b A02B0000 		.4byte	.LASF173
 2195 053f 04       		.byte	0x4
 2196 0540 F701     		.2byte	0x1f7
 2197 0542 77000000 		.4byte	0x77
 2198 0546 0C       		.byte	0xc
 2199 0547 00       		.byte	0
 2200 0548 04       		.uleb128 0x4
 2201 0549 562B0000 		.4byte	.LASF174
 2202 054d 04       		.byte	0x4
 2203 054e F901     		.2byte	0x1f9
 2204 0550 24050000 		.4byte	0x524
 2205 0554 11       		.uleb128 0x11
 2206 0555 DF000000 		.4byte	.LASF175
 2207 0559 05       		.byte	0x5
 2208 055a 34       		.byte	0x34
 2209 055b 18050000 		.4byte	0x518
 2210 055f 11       		.uleb128 0x11
 2211 0560 EA1A0000 		.4byte	.LASF176
 2212 0564 05       		.byte	0x5
 2213 0565 37       		.byte	0x37
 2214 0566 18050000 		.4byte	0x518
 2215 056a 12       		.uleb128 0x12
 2216 056b 0C       		.byte	0xc
 2217 056c 05       		.byte	0x5
 2218 056d 4E       		.byte	0x4e
 2219 056e A3050000 		.4byte	0x5a3
 2220 0572 13       		.uleb128 0x13
 2221 0573 65340000 		.4byte	.LASF177
 2222 0577 05       		.byte	0x5
 2223 0578 51       		.byte	0x51
 2224 0579 AB040000 		.4byte	0x4ab
 2225 057d 00       		.byte	0
 2226 057e 13       		.uleb128 0x13
 2227 057f 2D230000 		.4byte	.LASF178
ARM GAS  C:\Users\310309~1\AppData\Local\Temp\cckEzWOW.s 			page 60


 2228 0583 05       		.byte	0x5
 2229 0584 5C       		.byte	0x5c
 2230 0585 A3050000 		.4byte	0x5a3
 2231 0589 04       		.byte	0x4
 2232 058a 13       		.uleb128 0x13
 2233 058b A23D0000 		.4byte	.LASF179
 2234 058f 05       		.byte	0x5
 2235 0590 61       		.byte	0x61
 2236 0591 6B000000 		.4byte	0x6b
 2237 0595 08       		.byte	0x8
 2238 0596 13       		.uleb128 0x13
 2239 0597 DE220000 		.4byte	.LASF180
 2240 059b 05       		.byte	0x5
 2241 059c 64       		.byte	0x64
 2242 059d 6B000000 		.4byte	0x6b
 2243 05a1 09       		.byte	0x9
 2244 05a2 00       		.byte	0
 2245 05a3 07       		.uleb128 0x7
 2246 05a4 04       		.byte	0x4
 2247 05a5 48050000 		.4byte	0x548
 2248 05a9 11       		.uleb128 0x11
 2249 05aa 2F030000 		.4byte	.LASF181
 2250 05ae 05       		.byte	0x5
 2251 05af 66       		.byte	0x66
 2252 05b0 6A050000 		.4byte	0x56a
 2253 05b4 12       		.uleb128 0x12
 2254 05b5 10       		.byte	0x10
 2255 05b6 05       		.byte	0x5
 2256 05b7 69       		.byte	0x69
 2257 05b8 05060000 		.4byte	0x605
 2258 05bc 13       		.uleb128 0x13
 2259 05bd 65340000 		.4byte	.LASF177
 2260 05c1 05       		.byte	0x5
 2261 05c2 6C       		.byte	0x6c
 2262 05c3 AB040000 		.4byte	0x4ab
 2263 05c7 00       		.byte	0
 2264 05c8 13       		.uleb128 0x13
 2265 05c9 2D230000 		.4byte	.LASF178
 2266 05cd 05       		.byte	0x5
 2267 05ce 77       		.byte	0x77
 2268 05cf A3050000 		.4byte	0x5a3
 2269 05d3 04       		.byte	0x4
 2270 05d4 13       		.uleb128 0x13
 2271 05d5 A0190000 		.4byte	.LASF182
 2272 05d9 05       		.byte	0x5
 2273 05da 7C       		.byte	0x7c
 2274 05db 6B000000 		.4byte	0x6b
 2275 05df 08       		.byte	0x8
 2276 05e0 13       		.uleb128 0x13
 2277 05e1 300B0000 		.4byte	.LASF183
 2278 05e5 05       		.byte	0x5
 2279 05e6 7F       		.byte	0x7f
 2280 05e7 6B000000 		.4byte	0x6b
 2281 05eb 09       		.byte	0x9
 2282 05ec 13       		.uleb128 0x13
 2283 05ed AA280000 		.4byte	.LASF170
 2284 05f1 05       		.byte	0x5
ARM GAS  C:\Users\310309~1\AppData\Local\Temp\cckEzWOW.s 			page 61


 2285 05f2 82       		.byte	0x82
 2286 05f3 7B040000 		.4byte	0x47b
 2287 05f7 0A       		.byte	0xa
 2288 05f8 13       		.uleb128 0x13
 2289 05f9 DE220000 		.4byte	.LASF180
 2290 05fd 05       		.byte	0x5
 2291 05fe 85       		.byte	0x85
 2292 05ff 6B000000 		.4byte	0x6b
 2293 0603 0C       		.byte	0xc
 2294 0604 00       		.byte	0
 2295 0605 11       		.uleb128 0x11
 2296 0606 7D340000 		.4byte	.LASF184
 2297 060a 05       		.byte	0x5
 2298 060b 87       		.byte	0x87
 2299 060c B4050000 		.4byte	0x5b4
 2300 0610 12       		.uleb128 0x12
 2301 0611 10       		.byte	0x10
 2302 0612 05       		.byte	0x5
 2303 0613 8A       		.byte	0x8a
 2304 0614 31060000 		.4byte	0x631
 2305 0618 13       		.uleb128 0x13
 2306 0619 65340000 		.4byte	.LASF177
 2307 061d 05       		.byte	0x5
 2308 061e 8D       		.byte	0x8d
 2309 061f AB040000 		.4byte	0x4ab
 2310 0623 00       		.byte	0
 2311 0624 13       		.uleb128 0x13
 2312 0625 F2380000 		.4byte	.LASF185
 2313 0629 05       		.byte	0x5
 2314 062a 90       		.byte	0x90
 2315 062b 18050000 		.4byte	0x518
 2316 062f 04       		.byte	0x4
 2317 0630 00       		.byte	0
 2318 0631 11       		.uleb128 0x11
 2319 0632 DF280000 		.4byte	.LASF186
 2320 0636 05       		.byte	0x5
 2321 0637 92       		.byte	0x92
 2322 0638 10060000 		.4byte	0x610
 2323 063c 12       		.uleb128 0x12
 2324 063d 06       		.byte	0x6
 2325 063e 05       		.byte	0x5
 2326 063f A2       		.byte	0xa2
 2327 0640 69060000 		.4byte	0x669
 2328 0644 13       		.uleb128 0x13
 2329 0645 65340000 		.4byte	.LASF177
 2330 0649 05       		.byte	0x5
 2331 064a A5       		.byte	0xa5
 2332 064b AB040000 		.4byte	0x4ab
 2333 064f 00       		.byte	0
 2334 0650 13       		.uleb128 0x13
 2335 0651 AA280000 		.4byte	.LASF170
 2336 0655 05       		.byte	0x5
 2337 0656 A8       		.byte	0xa8
 2338 0657 7B040000 		.4byte	0x47b
 2339 065b 02       		.byte	0x2
 2340 065c 13       		.uleb128 0x13
 2341 065d DE220000 		.4byte	.LASF180
ARM GAS  C:\Users\310309~1\AppData\Local\Temp\cckEzWOW.s 			page 62


 2342 0661 05       		.byte	0x5
 2343 0662 AE       		.byte	0xae
 2344 0663 6F040000 		.4byte	0x46f
 2345 0667 04       		.byte	0x4
 2346 0668 00       		.byte	0
 2347 0669 11       		.uleb128 0x11
 2348 066a EC220000 		.4byte	.LASF187
 2349 066e 05       		.byte	0x5
 2350 066f B0       		.byte	0xb0
 2351 0670 3C060000 		.4byte	0x63c
 2352 0674 12       		.uleb128 0x12
 2353 0675 08       		.byte	0x8
 2354 0676 06       		.byte	0x6
 2355 0677 C8       		.byte	0xc8
 2356 0678 95060000 		.4byte	0x695
 2357 067c 13       		.uleb128 0x13
 2358 067d 70340000 		.4byte	.LASF188
 2359 0681 06       		.byte	0x6
 2360 0682 CB       		.byte	0xcb
 2361 0683 77000000 		.4byte	0x77
 2362 0687 00       		.byte	0
 2363 0688 13       		.uleb128 0x13
 2364 0689 FD370000 		.4byte	.LASF189
 2365 068d 06       		.byte	0x6
 2366 068e D0       		.byte	0xd0
 2367 068f B7000000 		.4byte	0xb7
 2368 0693 04       		.byte	0x4
 2369 0694 00       		.byte	0
 2370 0695 11       		.uleb128 0x11
 2371 0696 A22D0000 		.4byte	.LASF190
 2372 069a 06       		.byte	0x6
 2373 069b D2       		.byte	0xd2
 2374 069c 74060000 		.4byte	0x674
 2375 06a0 12       		.uleb128 0x12
 2376 06a1 08       		.byte	0x8
 2377 06a2 06       		.byte	0x6
 2378 06a3 D5       		.byte	0xd5
 2379 06a4 C1060000 		.4byte	0x6c1
 2380 06a8 13       		.uleb128 0x13
 2381 06a9 32140000 		.4byte	.LASF191
 2382 06ad 06       		.byte	0x6
 2383 06ae D8       		.byte	0xd8
 2384 06af 77000000 		.4byte	0x77
 2385 06b3 00       		.byte	0
 2386 06b4 13       		.uleb128 0x13
 2387 06b5 1A390000 		.4byte	.LASF192
 2388 06b9 06       		.byte	0x6
 2389 06ba DD       		.byte	0xdd
 2390 06bb C1060000 		.4byte	0x6c1
 2391 06bf 04       		.byte	0x4
 2392 06c0 00       		.byte	0
 2393 06c1 07       		.uleb128 0x7
 2394 06c2 04       		.byte	0x4
 2395 06c3 95060000 		.4byte	0x695
 2396 06c7 11       		.uleb128 0x11
 2397 06c8 60370000 		.4byte	.LASF193
 2398 06cc 06       		.byte	0x6
ARM GAS  C:\Users\310309~1\AppData\Local\Temp\cckEzWOW.s 			page 63


 2399 06cd DF       		.byte	0xdf
 2400 06ce A0060000 		.4byte	0x6a0
 2401 06d2 14       		.uleb128 0x14
 2402 06d3 08       		.byte	0x8
 2403 06d4 06       		.byte	0x6
 2404 06d5 E2       		.byte	0xe2
 2405 06d6 F1060000 		.4byte	0x6f1
 2406 06da 15       		.uleb128 0x15
 2407 06db 2B390000 		.4byte	.LASF194
 2408 06df 06       		.byte	0x6
 2409 06e0 E9       		.byte	0xe9
 2410 06e1 C7060000 		.4byte	0x6c7
 2411 06e5 15       		.uleb128 0x15
 2412 06e6 D5200000 		.4byte	.LASF195
 2413 06ea 06       		.byte	0x6
 2414 06eb EC       		.byte	0xec
 2415 06ec 77000000 		.4byte	0x77
 2416 06f0 00       		.byte	0
 2417 06f1 11       		.uleb128 0x11
 2418 06f2 2B370000 		.4byte	.LASF196
 2419 06f6 06       		.byte	0x6
 2420 06f7 EE       		.byte	0xee
 2421 06f8 D2060000 		.4byte	0x6d2
 2422 06fc 12       		.uleb128 0x12
 2423 06fd 14       		.byte	0x14
 2424 06fe 06       		.byte	0x6
 2425 06ff F1       		.byte	0xf1
 2426 0700 44070000 		.4byte	0x744
 2427 0704 13       		.uleb128 0x13
 2428 0705 99120000 		.4byte	.LASF197
 2429 0709 06       		.byte	0x6
 2430 070a F4       		.byte	0xf4
 2431 070b 77000000 		.4byte	0x77
 2432 070f 00       		.byte	0
 2433 0710 13       		.uleb128 0x13
 2434 0711 180F0000 		.4byte	.LASF198
 2435 0715 06       		.byte	0x6
 2436 0716 FA       		.byte	0xfa
 2437 0717 77000000 		.4byte	0x77
 2438 071b 02       		.byte	0x2
 2439 071c 0F       		.uleb128 0xf
 2440 071d 4B080000 		.4byte	.LASF199
 2441 0721 06       		.byte	0x6
 2442 0722 0501     		.2byte	0x105
 2443 0724 83000000 		.4byte	0x83
 2444 0728 04       		.byte	0x4
 2445 0729 0F       		.uleb128 0xf
 2446 072a 29290000 		.4byte	.LASF200
 2447 072e 06       		.byte	0x6
 2448 072f 0801     		.2byte	0x108
 2449 0731 77000000 		.4byte	0x77
 2450 0735 08       		.byte	0x8
 2451 0736 0F       		.uleb128 0xf
 2452 0737 04330000 		.4byte	.LASF201
 2453 073b 06       		.byte	0x6
 2454 073c 1101     		.2byte	0x111
 2455 073e F1060000 		.4byte	0x6f1
ARM GAS  C:\Users\310309~1\AppData\Local\Temp\cckEzWOW.s 			page 64


 2456 0742 0C       		.byte	0xc
 2457 0743 00       		.byte	0
 2458 0744 04       		.uleb128 0x4
 2459 0745 3D180000 		.4byte	.LASF202
 2460 0749 06       		.byte	0x6
 2461 074a 1201     		.2byte	0x112
 2462 074c FC060000 		.4byte	0x6fc
 2463 0750 04       		.uleb128 0x4
 2464 0751 05090000 		.4byte	.LASF203
 2465 0755 07       		.byte	0x7
 2466 0756 0502     		.2byte	0x205
 2467 0758 B9000000 		.4byte	0xb9
 2468 075c 0D       		.uleb128 0xd
 2469 075d 01       		.byte	0x1
 2470 075e 2C000000 		.4byte	0x2c
 2471 0762 08       		.byte	0x8
 2472 0763 22       		.byte	0x22
 2473 0764 A5070000 		.4byte	0x7a5
 2474 0768 0B       		.uleb128 0xb
 2475 0769 09310000 		.4byte	.LASF204
 2476 076d 00       		.byte	0
 2477 076e 0B       		.uleb128 0xb
 2478 076f 01180000 		.4byte	.LASF205
 2479 0773 01       		.byte	0x1
 2480 0774 0B       		.uleb128 0xb
 2481 0775 8B210000 		.4byte	.LASF206
 2482 0779 02       		.byte	0x2
 2483 077a 0B       		.uleb128 0xb
 2484 077b 760D0000 		.4byte	.LASF207
 2485 077f 03       		.byte	0x3
 2486 0780 0B       		.uleb128 0xb
 2487 0781 31090000 		.4byte	.LASF208
 2488 0785 04       		.byte	0x4
 2489 0786 0B       		.uleb128 0xb
 2490 0787 49170000 		.4byte	.LASF209
 2491 078b 05       		.byte	0x5
 2492 078c 0B       		.uleb128 0xb
 2493 078d 98180000 		.4byte	.LASF210
 2494 0791 06       		.byte	0x6
 2495 0792 0B       		.uleb128 0xb
 2496 0793 CC290000 		.4byte	.LASF211
 2497 0797 07       		.byte	0x7
 2498 0798 0B       		.uleb128 0xb
 2499 0799 2A240000 		.4byte	.LASF212
 2500 079d 08       		.byte	0x8
 2501 079e 0B       		.uleb128 0xb
 2502 079f 91000000 		.4byte	.LASF213
 2503 07a3 09       		.byte	0x9
 2504 07a4 00       		.byte	0
 2505 07a5 07       		.uleb128 0x7
 2506 07a6 04       		.byte	0x4
 2507 07a7 E8040000 		.4byte	0x4e8
 2508 07ab 0D       		.uleb128 0xd
 2509 07ac 01       		.byte	0x1
 2510 07ad 2C000000 		.4byte	0x2c
 2511 07b1 09       		.byte	0x9
 2512 07b2 25       		.byte	0x25
ARM GAS  C:\Users\310309~1\AppData\Local\Temp\cckEzWOW.s 			page 65


 2513 07b3 78080000 		.4byte	0x878
 2514 07b7 0B       		.uleb128 0xb
 2515 07b8 5E0F0000 		.4byte	.LASF214
 2516 07bc 00       		.byte	0
 2517 07bd 0B       		.uleb128 0xb
 2518 07be 3A1E0000 		.4byte	.LASF215
 2519 07c2 01       		.byte	0x1
 2520 07c3 0B       		.uleb128 0xb
 2521 07c4 91310000 		.4byte	.LASF216
 2522 07c8 02       		.byte	0x2
 2523 07c9 0B       		.uleb128 0xb
 2524 07ca D9410000 		.4byte	.LASF217
 2525 07ce 03       		.byte	0x3
 2526 07cf 0B       		.uleb128 0xb
 2527 07d0 E4380000 		.4byte	.LASF218
 2528 07d4 04       		.byte	0x4
 2529 07d5 0B       		.uleb128 0xb
 2530 07d6 211D0000 		.4byte	.LASF219
 2531 07da 05       		.byte	0x5
 2532 07db 0B       		.uleb128 0xb
 2533 07dc 5D1D0000 		.4byte	.LASF220
 2534 07e0 06       		.byte	0x6
 2535 07e1 0B       		.uleb128 0xb
 2536 07e2 B61B0000 		.4byte	.LASF221
 2537 07e6 07       		.byte	0x7
 2538 07e7 0B       		.uleb128 0xb
 2539 07e8 84200000 		.4byte	.LASF222
 2540 07ec 08       		.byte	0x8
 2541 07ed 0B       		.uleb128 0xb
 2542 07ee 80330000 		.4byte	.LASF223
 2543 07f2 09       		.byte	0x9
 2544 07f3 0B       		.uleb128 0xb
 2545 07f4 651F0000 		.4byte	.LASF224
 2546 07f8 0A       		.byte	0xa
 2547 07f9 0B       		.uleb128 0xb
 2548 07fa EA330000 		.4byte	.LASF225
 2549 07fe 0B       		.byte	0xb
 2550 07ff 0B       		.uleb128 0xb
 2551 0800 B13E0000 		.4byte	.LASF226
 2552 0804 0C       		.byte	0xc
 2553 0805 0B       		.uleb128 0xb
 2554 0806 200F0000 		.4byte	.LASF227
 2555 080a 0D       		.byte	0xd
 2556 080b 0B       		.uleb128 0xb
 2557 080c A6000000 		.4byte	.LASF228
 2558 0810 0E       		.byte	0xe
 2559 0811 0B       		.uleb128 0xb
 2560 0812 E6430000 		.4byte	.LASF229
 2561 0816 0F       		.byte	0xf
 2562 0817 0B       		.uleb128 0xb
 2563 0818 E2120000 		.4byte	.LASF230
 2564 081c 10       		.byte	0x10
 2565 081d 0B       		.uleb128 0xb
 2566 081e A4110000 		.4byte	.LASF231
 2567 0822 11       		.byte	0x11
 2568 0823 0B       		.uleb128 0xb
 2569 0824 EF370000 		.4byte	.LASF232
ARM GAS  C:\Users\310309~1\AppData\Local\Temp\cckEzWOW.s 			page 66


 2570 0828 12       		.byte	0x12
 2571 0829 0B       		.uleb128 0xb
 2572 082a 16380000 		.4byte	.LASF233
 2573 082e 13       		.byte	0x13
 2574 082f 0B       		.uleb128 0xb
 2575 0830 653E0000 		.4byte	.LASF234
 2576 0834 14       		.byte	0x14
 2577 0835 0B       		.uleb128 0xb
 2578 0836 BF3E0000 		.4byte	.LASF235
 2579 083a 15       		.byte	0x15
 2580 083b 0B       		.uleb128 0xb
 2581 083c C70E0000 		.4byte	.LASF236
 2582 0840 16       		.byte	0x16
 2583 0841 0B       		.uleb128 0xb
 2584 0842 2E0F0000 		.4byte	.LASF237
 2585 0846 17       		.byte	0x17
 2586 0847 0B       		.uleb128 0xb
 2587 0848 100D0000 		.4byte	.LASF238
 2588 084c 18       		.byte	0x18
 2589 084d 0B       		.uleb128 0xb
 2590 084e D9340000 		.4byte	.LASF239
 2591 0852 19       		.byte	0x19
 2592 0853 0B       		.uleb128 0xb
 2593 0854 D1280000 		.4byte	.LASF240
 2594 0858 1A       		.byte	0x1a
 2595 0859 0B       		.uleb128 0xb
 2596 085a 2E200000 		.4byte	.LASF241
 2597 085e 1B       		.byte	0x1b
 2598 085f 0B       		.uleb128 0xb
 2599 0860 07050000 		.4byte	.LASF242
 2600 0864 1C       		.byte	0x1c
 2601 0865 0B       		.uleb128 0xb
 2602 0866 203C0000 		.4byte	.LASF243
 2603 086a 1D       		.byte	0x1d
 2604 086b 0B       		.uleb128 0xb
 2605 086c A72A0000 		.4byte	.LASF244
 2606 0870 1E       		.byte	0x1e
 2607 0871 0B       		.uleb128 0xb
 2608 0872 19200000 		.4byte	.LASF245
 2609 0876 1F       		.byte	0x1f
 2610 0877 00       		.byte	0
 2611 0878 11       		.uleb128 0x11
 2612 0879 21400000 		.4byte	.LASF246
 2613 087d 09       		.byte	0x9
 2614 087e 46       		.byte	0x46
 2615 087f AB070000 		.4byte	0x7ab
 2616 0883 0D       		.uleb128 0xd
 2617 0884 01       		.byte	0x1
 2618 0885 2C000000 		.4byte	0x2c
 2619 0889 09       		.byte	0x9
 2620 088a 4A       		.byte	0x4a
 2621 088b 9C080000 		.4byte	0x89c
 2622 088f 0B       		.uleb128 0xb
 2623 0890 653C0000 		.4byte	.LASF247
 2624 0894 00       		.byte	0
 2625 0895 0B       		.uleb128 0xb
 2626 0896 CC120000 		.4byte	.LASF248
ARM GAS  C:\Users\310309~1\AppData\Local\Temp\cckEzWOW.s 			page 67


 2627 089a 01       		.byte	0x1
 2628 089b 00       		.byte	0
 2629 089c 11       		.uleb128 0x11
 2630 089d 6B1D0000 		.4byte	.LASF249
 2631 08a1 09       		.byte	0x9
 2632 08a2 4D       		.byte	0x4d
 2633 08a3 83080000 		.4byte	0x883
 2634 08a7 12       		.uleb128 0x12
 2635 08a8 04       		.byte	0x4
 2636 08a9 09       		.byte	0x9
 2637 08aa 52       		.byte	0x52
 2638 08ab C8080000 		.4byte	0x8c8
 2639 08af 13       		.uleb128 0x13
 2640 08b0 0B380000 		.4byte	.LASF250
 2641 08b4 09       		.byte	0x9
 2642 08b5 54       		.byte	0x54
 2643 08b6 7B040000 		.4byte	0x47b
 2644 08ba 00       		.byte	0
 2645 08bb 13       		.uleb128 0x13
 2646 08bc F50A0000 		.4byte	.LASF251
 2647 08c0 09       		.byte	0x9
 2648 08c1 55       		.byte	0x55
 2649 08c2 C8080000 		.4byte	0x8c8
 2650 08c6 02       		.byte	0x2
 2651 08c7 00       		.byte	0
 2652 08c8 16       		.uleb128 0x16
 2653 08c9 7B040000 		.4byte	0x47b
 2654 08cd D8080000 		.4byte	0x8d8
 2655 08d1 17       		.uleb128 0x17
 2656 08d2 B0000000 		.4byte	0xb0
 2657 08d6 00       		.byte	0
 2658 08d7 00       		.byte	0
 2659 08d8 11       		.uleb128 0x11
 2660 08d9 D72A0000 		.4byte	.LASF252
 2661 08dd 09       		.byte	0x9
 2662 08de 56       		.byte	0x56
 2663 08df A7080000 		.4byte	0x8a7
 2664 08e3 12       		.uleb128 0x12
 2665 08e4 7E       		.byte	0x7e
 2666 08e5 09       		.byte	0x9
 2667 08e6 59       		.byte	0x59
 2668 08e7 04090000 		.4byte	0x904
 2669 08eb 13       		.uleb128 0x13
 2670 08ec 3E0E0000 		.4byte	.LASF253
 2671 08f0 09       		.byte	0x9
 2672 08f1 5C       		.byte	0x5c
 2673 08f2 7B040000 		.4byte	0x47b
 2674 08f6 00       		.byte	0
 2675 08f7 13       		.uleb128 0x13
 2676 08f8 763D0000 		.4byte	.LASF254
 2677 08fc 09       		.byte	0x9
 2678 08fd 5F       		.byte	0x5f
 2679 08fe 04090000 		.4byte	0x904
 2680 0902 02       		.byte	0x2
 2681 0903 00       		.byte	0
 2682 0904 16       		.uleb128 0x16
 2683 0905 D8080000 		.4byte	0x8d8
ARM GAS  C:\Users\310309~1\AppData\Local\Temp\cckEzWOW.s 			page 68


 2684 0909 14090000 		.4byte	0x914
 2685 090d 17       		.uleb128 0x17
 2686 090e B0000000 		.4byte	0xb0
 2687 0912 1E       		.byte	0x1e
 2688 0913 00       		.byte	0
 2689 0914 11       		.uleb128 0x11
 2690 0915 0A320000 		.4byte	.LASF255
 2691 0919 09       		.byte	0x9
 2692 091a 60       		.byte	0x60
 2693 091b E3080000 		.4byte	0x8e3
 2694 091f 12       		.uleb128 0x12
 2695 0920 0C       		.byte	0xc
 2696 0921 09       		.byte	0x9
 2697 0922 7D       		.byte	0x7d
 2698 0923 58090000 		.4byte	0x958
 2699 0927 13       		.uleb128 0x13
 2700 0928 65340000 		.4byte	.LASF177
 2701 092c 09       		.byte	0x9
 2702 092d 7F       		.byte	0x7f
 2703 092e AB040000 		.4byte	0x4ab
 2704 0932 00       		.byte	0
 2705 0933 13       		.uleb128 0x13
 2706 0934 7F010000 		.4byte	.LASF256
 2707 0938 09       		.byte	0x9
 2708 0939 80       		.byte	0x80
 2709 093a 78080000 		.4byte	0x878
 2710 093e 02       		.byte	0x2
 2711 093f 13       		.uleb128 0x13
 2712 0940 BE320000 		.4byte	.LASF169
 2713 0944 09       		.byte	0x9
 2714 0945 81       		.byte	0x81
 2715 0946 A5070000 		.4byte	0x7a5
 2716 094a 04       		.byte	0x4
 2717 094b 13       		.uleb128 0x13
 2718 094c DE220000 		.4byte	.LASF180
 2719 0950 09       		.byte	0x9
 2720 0951 82       		.byte	0x82
 2721 0952 6F040000 		.4byte	0x46f
 2722 0956 08       		.byte	0x8
 2723 0957 00       		.byte	0
 2724 0958 11       		.uleb128 0x11
 2725 0959 0F150000 		.4byte	.LASF257
 2726 095d 09       		.byte	0x9
 2727 095e 83       		.byte	0x83
 2728 095f 1F090000 		.4byte	0x91f
 2729 0963 0D       		.uleb128 0xd
 2730 0964 02       		.byte	0x2
 2731 0965 3A000000 		.4byte	0x3a
 2732 0969 0A       		.byte	0xa
 2733 096a B1       		.byte	0xb1
 2734 096b 6C110000 		.4byte	0x116c
 2735 096f 0C       		.uleb128 0xc
 2736 0970 E92A0000 		.4byte	.LASF258
 2737 0974 0001     		.2byte	0x100
 2738 0976 0C       		.uleb128 0xc
 2739 0977 DC420000 		.4byte	.LASF259
 2740 097b 0101     		.2byte	0x101
ARM GAS  C:\Users\310309~1\AppData\Local\Temp\cckEzWOW.s 			page 69


 2741 097d 0C       		.uleb128 0xc
 2742 097e 1E0D0000 		.4byte	.LASF260
 2743 0982 0201     		.2byte	0x102
 2744 0984 0C       		.uleb128 0xc
 2745 0985 92420000 		.4byte	.LASF261
 2746 0989 0301     		.2byte	0x103
 2747 098b 0C       		.uleb128 0xc
 2748 098c 57310000 		.4byte	.LASF262
 2749 0990 0401     		.2byte	0x104
 2750 0992 0C       		.uleb128 0xc
 2751 0993 D5400000 		.4byte	.LASF263
 2752 0997 0501     		.2byte	0x105
 2753 0999 0C       		.uleb128 0xc
 2754 099a B1120000 		.4byte	.LASF264
 2755 099e 0601     		.2byte	0x106
 2756 09a0 0C       		.uleb128 0xc
 2757 09a1 923A0000 		.4byte	.LASF265
 2758 09a5 0701     		.2byte	0x107
 2759 09a7 0C       		.uleb128 0xc
 2760 09a8 8C400000 		.4byte	.LASF266
 2761 09ac 0801     		.2byte	0x108
 2762 09ae 0C       		.uleb128 0xc
 2763 09af 1A070000 		.4byte	.LASF267
 2764 09b3 0901     		.2byte	0x109
 2765 09b5 0C       		.uleb128 0xc
 2766 09b6 59040000 		.4byte	.LASF268
 2767 09ba 0A01     		.2byte	0x10a
 2768 09bc 0C       		.uleb128 0xc
 2769 09bd C9330000 		.4byte	.LASF269
 2770 09c1 0B01     		.2byte	0x10b
 2771 09c3 0C       		.uleb128 0xc
 2772 09c4 3B240000 		.4byte	.LASF270
 2773 09c8 0C01     		.2byte	0x10c
 2774 09ca 0C       		.uleb128 0xc
 2775 09cb AF2F0000 		.4byte	.LASF271
 2776 09cf 0D01     		.2byte	0x10d
 2777 09d1 0C       		.uleb128 0xc
 2778 09d2 5A050000 		.4byte	.LASF272
 2779 09d6 0E01     		.2byte	0x10e
 2780 09d8 0C       		.uleb128 0xc
 2781 09d9 5C140000 		.4byte	.LASF273
 2782 09dd 0F01     		.2byte	0x10f
 2783 09df 0C       		.uleb128 0xc
 2784 09e0 8E090000 		.4byte	.LASF274
 2785 09e4 1001     		.2byte	0x110
 2786 09e6 0C       		.uleb128 0xc
 2787 09e7 733E0000 		.4byte	.LASF275
 2788 09eb 1101     		.2byte	0x111
 2789 09ed 0C       		.uleb128 0xc
 2790 09ee A50F0000 		.4byte	.LASF276
 2791 09f2 1201     		.2byte	0x112
 2792 09f4 0C       		.uleb128 0xc
 2793 09f5 13450000 		.4byte	.LASF277
 2794 09f9 1301     		.2byte	0x113
 2795 09fb 0C       		.uleb128 0xc
 2796 09fc 68320000 		.4byte	.LASF278
 2797 0a00 1401     		.2byte	0x114
ARM GAS  C:\Users\310309~1\AppData\Local\Temp\cckEzWOW.s 			page 70


 2798 0a02 0C       		.uleb128 0xc
 2799 0a03 D50E0000 		.4byte	.LASF279
 2800 0a07 1501     		.2byte	0x115
 2801 0a09 0C       		.uleb128 0xc
 2802 0a0a 45300000 		.4byte	.LASF280
 2803 0a0e 1601     		.2byte	0x116
 2804 0a10 0C       		.uleb128 0xc
 2805 0a11 AE330000 		.4byte	.LASF281
 2806 0a15 1701     		.2byte	0x117
 2807 0a17 0C       		.uleb128 0xc
 2808 0a18 973C0000 		.4byte	.LASF282
 2809 0a1c 1801     		.2byte	0x118
 2810 0a1e 0C       		.uleb128 0xc
 2811 0a1f AB020000 		.4byte	.LASF283
 2812 0a23 1901     		.2byte	0x119
 2813 0a25 0C       		.uleb128 0xc
 2814 0a26 F4140000 		.4byte	.LASF284
 2815 0a2a 1A01     		.2byte	0x11a
 2816 0a2c 0C       		.uleb128 0xc
 2817 0a2d B12E0000 		.4byte	.LASF285
 2818 0a31 1B01     		.2byte	0x11b
 2819 0a33 0C       		.uleb128 0xc
 2820 0a34 3A390000 		.4byte	.LASF286
 2821 0a38 1C01     		.2byte	0x11c
 2822 0a3a 0C       		.uleb128 0xc
 2823 0a3b D91C0000 		.4byte	.LASF287
 2824 0a3f 1D01     		.2byte	0x11d
 2825 0a41 0C       		.uleb128 0xc
 2826 0a42 822A0000 		.4byte	.LASF288
 2827 0a46 1E01     		.2byte	0x11e
 2828 0a48 0C       		.uleb128 0xc
 2829 0a49 C8140000 		.4byte	.LASF289
 2830 0a4d 1F01     		.2byte	0x11f
 2831 0a4f 0C       		.uleb128 0xc
 2832 0a50 C2130000 		.4byte	.LASF290
 2833 0a54 2001     		.2byte	0x120
 2834 0a56 0C       		.uleb128 0xc
 2835 0a57 3F340000 		.4byte	.LASF291
 2836 0a5b 2101     		.2byte	0x121
 2837 0a5d 0C       		.uleb128 0xc
 2838 0a5e BE410000 		.4byte	.LASF292
 2839 0a62 2201     		.2byte	0x122
 2840 0a64 0C       		.uleb128 0xc
 2841 0a65 14260000 		.4byte	.LASF293
 2842 0a69 2301     		.2byte	0x123
 2843 0a6b 0C       		.uleb128 0xc
 2844 0a6c 1F440000 		.4byte	.LASF294
 2845 0a70 2401     		.2byte	0x124
 2846 0a72 0C       		.uleb128 0xc
 2847 0a73 51280000 		.4byte	.LASF295
 2848 0a77 2501     		.2byte	0x125
 2849 0a79 0C       		.uleb128 0xc
 2850 0a7a 57190000 		.4byte	.LASF296
 2851 0a7e 2601     		.2byte	0x126
 2852 0a80 0C       		.uleb128 0xc
 2853 0a81 4F3A0000 		.4byte	.LASF297
 2854 0a85 2701     		.2byte	0x127
ARM GAS  C:\Users\310309~1\AppData\Local\Temp\cckEzWOW.s 			page 71


 2855 0a87 0C       		.uleb128 0xc
 2856 0a88 3D2C0000 		.4byte	.LASF298
 2857 0a8c 2801     		.2byte	0x128
 2858 0a8e 0C       		.uleb128 0xc
 2859 0a8f 8B440000 		.4byte	.LASF299
 2860 0a93 2901     		.2byte	0x129
 2861 0a95 0C       		.uleb128 0xc
 2862 0a96 DA3A0000 		.4byte	.LASF300
 2863 0a9a 2A01     		.2byte	0x12a
 2864 0a9c 0C       		.uleb128 0xc
 2865 0a9d 67430000 		.4byte	.LASF301
 2866 0aa1 2B01     		.2byte	0x12b
 2867 0aa3 0C       		.uleb128 0xc
 2868 0aa4 62200000 		.4byte	.LASF302
 2869 0aa8 2C01     		.2byte	0x12c
 2870 0aaa 0C       		.uleb128 0xc
 2871 0aab 33410000 		.4byte	.LASF303
 2872 0aaf 2D01     		.2byte	0x12d
 2873 0ab1 0C       		.uleb128 0xc
 2874 0ab2 25060000 		.4byte	.LASF304
 2875 0ab6 2E01     		.2byte	0x12e
 2876 0ab8 0C       		.uleb128 0xc
 2877 0ab9 C3300000 		.4byte	.LASF305
 2878 0abd 2F01     		.2byte	0x12f
 2879 0abf 0C       		.uleb128 0xc
 2880 0ac0 06210000 		.4byte	.LASF306
 2881 0ac4 3001     		.2byte	0x130
 2882 0ac6 0C       		.uleb128 0xc
 2883 0ac7 8F410000 		.4byte	.LASF307
 2884 0acb 3101     		.2byte	0x131
 2885 0acd 0C       		.uleb128 0xc
 2886 0ace 532F0000 		.4byte	.LASF308
 2887 0ad2 3201     		.2byte	0x132
 2888 0ad4 0C       		.uleb128 0xc
 2889 0ad5 D03C0000 		.4byte	.LASF309
 2890 0ad9 3301     		.2byte	0x133
 2891 0adb 0C       		.uleb128 0xc
 2892 0adc 82100000 		.4byte	.LASF310
 2893 0ae0 3401     		.2byte	0x134
 2894 0ae2 0C       		.uleb128 0xc
 2895 0ae3 6E3A0000 		.4byte	.LASF311
 2896 0ae7 3501     		.2byte	0x135
 2897 0ae9 0C       		.uleb128 0xc
 2898 0aea 691B0000 		.4byte	.LASF312
 2899 0aee 3601     		.2byte	0x136
 2900 0af0 0C       		.uleb128 0xc
 2901 0af1 8D0D0000 		.4byte	.LASF313
 2902 0af5 3701     		.2byte	0x137
 2903 0af7 0C       		.uleb128 0xc
 2904 0af8 C9040000 		.4byte	.LASF314
 2905 0afc 3801     		.2byte	0x138
 2906 0afe 0C       		.uleb128 0xc
 2907 0aff ED040000 		.4byte	.LASF315
 2908 0b03 3901     		.2byte	0x139
 2909 0b05 0C       		.uleb128 0xc
 2910 0b06 BD000000 		.4byte	.LASF316
 2911 0b0a 3A01     		.2byte	0x13a
ARM GAS  C:\Users\310309~1\AppData\Local\Temp\cckEzWOW.s 			page 72


 2912 0b0c 0C       		.uleb128 0xc
 2913 0b0d 3B100000 		.4byte	.LASF317
 2914 0b11 3B01     		.2byte	0x13b
 2915 0b13 0C       		.uleb128 0xc
 2916 0b14 FE420000 		.4byte	.LASF318
 2917 0b18 3C01     		.2byte	0x13c
 2918 0b1a 0C       		.uleb128 0xc
 2919 0b1b C7080000 		.4byte	.LASF319
 2920 0b1f 3D01     		.2byte	0x13d
 2921 0b21 0C       		.uleb128 0xc
 2922 0b22 A9290000 		.4byte	.LASF320
 2923 0b26 3E01     		.2byte	0x13e
 2924 0b28 0C       		.uleb128 0xc
 2925 0b29 A7370000 		.4byte	.LASF321
 2926 0b2d 3F01     		.2byte	0x13f
 2927 0b2f 0C       		.uleb128 0xc
 2928 0b30 74180000 		.4byte	.LASF322
 2929 0b34 4001     		.2byte	0x140
 2930 0b36 0C       		.uleb128 0xc
 2931 0b37 312B0000 		.4byte	.LASF323
 2932 0b3b 4101     		.2byte	0x141
 2933 0b3d 0C       		.uleb128 0xc
 2934 0b3e 131B0000 		.4byte	.LASF324
 2935 0b42 4201     		.2byte	0x142
 2936 0b44 0C       		.uleb128 0xc
 2937 0b45 E9080000 		.4byte	.LASF325
 2938 0b49 4301     		.2byte	0x143
 2939 0b4b 0C       		.uleb128 0xc
 2940 0b4c A7030000 		.4byte	.LASF326
 2941 0b50 4401     		.2byte	0x144
 2942 0b52 0C       		.uleb128 0xc
 2943 0b53 620B0000 		.4byte	.LASF327
 2944 0b57 4501     		.2byte	0x145
 2945 0b59 0C       		.uleb128 0xc
 2946 0b5a E0320000 		.4byte	.LASF328
 2947 0b5e 4601     		.2byte	0x146
 2948 0b60 0C       		.uleb128 0xc
 2949 0b61 00390000 		.4byte	.LASF329
 2950 0b65 4701     		.2byte	0x147
 2951 0b67 0C       		.uleb128 0xc
 2952 0b68 7F0A0000 		.4byte	.LASF330
 2953 0b6c 4801     		.2byte	0x148
 2954 0b6e 0C       		.uleb128 0xc
 2955 0b6f 61290000 		.4byte	.LASF331
 2956 0b73 4901     		.2byte	0x149
 2957 0b75 0C       		.uleb128 0xc
 2958 0b76 C23D0000 		.4byte	.LASF332
 2959 0b7a 4A01     		.2byte	0x14a
 2960 0b7c 0C       		.uleb128 0xc
 2961 0b7d 14250000 		.4byte	.LASF333
 2962 0b81 4B01     		.2byte	0x14b
 2963 0b83 0C       		.uleb128 0xc
 2964 0b84 173E0000 		.4byte	.LASF334
 2965 0b88 4C01     		.2byte	0x14c
 2966 0b8a 0C       		.uleb128 0xc
 2967 0b8b 1A340000 		.4byte	.LASF335
 2968 0b8f 4D01     		.2byte	0x14d
ARM GAS  C:\Users\310309~1\AppData\Local\Temp\cckEzWOW.s 			page 73


 2969 0b91 0C       		.uleb128 0xc
 2970 0b92 572E0000 		.4byte	.LASF336
 2971 0b96 4E01     		.2byte	0x14e
 2972 0b98 0C       		.uleb128 0xc
 2973 0b99 5E400000 		.4byte	.LASF337
 2974 0b9d 4F01     		.2byte	0x14f
 2975 0b9f 0C       		.uleb128 0xc
 2976 0ba0 963E0000 		.4byte	.LASF338
 2977 0ba4 5001     		.2byte	0x150
 2978 0ba6 0C       		.uleb128 0xc
 2979 0ba7 FE000000 		.4byte	.LASF339
 2980 0bab 5101     		.2byte	0x151
 2981 0bad 0C       		.uleb128 0xc
 2982 0bae D0390000 		.4byte	.LASF340
 2983 0bb2 5201     		.2byte	0x152
 2984 0bb4 0C       		.uleb128 0xc
 2985 0bb5 CC210000 		.4byte	.LASF341
 2986 0bb9 5301     		.2byte	0x153
 2987 0bbb 0C       		.uleb128 0xc
 2988 0bbc 24380000 		.4byte	.LASF342
 2989 0bc0 5401     		.2byte	0x154
 2990 0bc2 0C       		.uleb128 0xc
 2991 0bc3 A5350000 		.4byte	.LASF343
 2992 0bc7 5501     		.2byte	0x155
 2993 0bc9 0C       		.uleb128 0xc
 2994 0bca 52030000 		.4byte	.LASF344
 2995 0bce 5601     		.2byte	0x156
 2996 0bd0 0C       		.uleb128 0xc
 2997 0bd1 B5340000 		.4byte	.LASF345
 2998 0bd5 5701     		.2byte	0x157
 2999 0bd7 0C       		.uleb128 0xc
 3000 0bd8 D3110000 		.4byte	.LASF346
 3001 0bdc 5801     		.2byte	0x158
 3002 0bde 0C       		.uleb128 0xc
 3003 0bdf CC0B0000 		.4byte	.LASF347
 3004 0be3 5901     		.2byte	0x159
 3005 0be5 0C       		.uleb128 0xc
 3006 0be6 A90B0000 		.4byte	.LASF348
 3007 0bea 5A01     		.2byte	0x15a
 3008 0bec 0C       		.uleb128 0xc
 3009 0bed 80110000 		.4byte	.LASF349
 3010 0bf1 5B01     		.2byte	0x15b
 3011 0bf3 0C       		.uleb128 0xc
 3012 0bf4 0C230000 		.4byte	.LASF350
 3013 0bf8 5C01     		.2byte	0x15c
 3014 0bfa 0C       		.uleb128 0xc
 3015 0bfb 01420000 		.4byte	.LASF351
 3016 0bff 5D01     		.2byte	0x15d
 3017 0c01 0C       		.uleb128 0xc
 3018 0c02 A0170000 		.4byte	.LASF352
 3019 0c06 5E01     		.2byte	0x15e
 3020 0c08 0C       		.uleb128 0xc
 3021 0c09 C4320000 		.4byte	.LASF353
 3022 0c0d 5F01     		.2byte	0x15f
 3023 0c0f 0C       		.uleb128 0xc
 3024 0c10 2A2D0000 		.4byte	.LASF354
 3025 0c14 6001     		.2byte	0x160
ARM GAS  C:\Users\310309~1\AppData\Local\Temp\cckEzWOW.s 			page 74


 3026 0c16 0C       		.uleb128 0xc
 3027 0c17 EA020000 		.4byte	.LASF355
 3028 0c1b 6101     		.2byte	0x161
 3029 0c1d 0C       		.uleb128 0xc
 3030 0c1e 68210000 		.4byte	.LASF356
 3031 0c22 6201     		.2byte	0x162
 3032 0c24 0C       		.uleb128 0xc
 3033 0c25 19010000 		.4byte	.LASF357
 3034 0c29 6301     		.2byte	0x163
 3035 0c2b 0C       		.uleb128 0xc
 3036 0c2c 300C0000 		.4byte	.LASF358
 3037 0c30 6401     		.2byte	0x164
 3038 0c32 0C       		.uleb128 0xc
 3039 0c33 EE3E0000 		.4byte	.LASF359
 3040 0c37 6501     		.2byte	0x165
 3041 0c39 0C       		.uleb128 0xc
 3042 0c3a C51A0000 		.4byte	.LASF360
 3043 0c3e 6601     		.2byte	0x166
 3044 0c40 0C       		.uleb128 0xc
 3045 0c41 D6190000 		.4byte	.LASF361
 3046 0c45 6701     		.2byte	0x167
 3047 0c47 0C       		.uleb128 0xc
 3048 0c48 28080000 		.4byte	.LASF362
 3049 0c4c 6801     		.2byte	0x168
 3050 0c4e 0C       		.uleb128 0xc
 3051 0c4f A50C0000 		.4byte	.LASF363
 3052 0c53 6901     		.2byte	0x169
 3053 0c55 0C       		.uleb128 0xc
 3054 0c56 C8260000 		.4byte	.LASF364
 3055 0c5a 6A01     		.2byte	0x16a
 3056 0c5c 0C       		.uleb128 0xc
 3057 0c5d 58220000 		.4byte	.LASF365
 3058 0c61 6B01     		.2byte	0x16b
 3059 0c63 0C       		.uleb128 0xc
 3060 0c64 0D0A0000 		.4byte	.LASF366
 3061 0c68 6C01     		.2byte	0x16c
 3062 0c6a 0C       		.uleb128 0xc
 3063 0c6b 16090000 		.4byte	.LASF367
 3064 0c6f 6D01     		.2byte	0x16d
 3065 0c71 0C       		.uleb128 0xc
 3066 0c72 0C030000 		.4byte	.LASF368
 3067 0c76 6E01     		.2byte	0x16e
 3068 0c78 0C       		.uleb128 0xc
 3069 0c79 13220000 		.4byte	.LASF369
 3070 0c7d 6F01     		.2byte	0x16f
 3071 0c7f 0C       		.uleb128 0xc
 3072 0c80 F4430000 		.4byte	.LASF370
 3073 0c84 7001     		.2byte	0x170
 3074 0c86 0C       		.uleb128 0xc
 3075 0c87 771C0000 		.4byte	.LASF371
 3076 0c8b 7101     		.2byte	0x171
 3077 0c8d 0C       		.uleb128 0xc
 3078 0c8e FC190000 		.4byte	.LASF372
 3079 0c92 7201     		.2byte	0x172
 3080 0c94 0C       		.uleb128 0xc
 3081 0c95 84290000 		.4byte	.LASF373
 3082 0c99 7301     		.2byte	0x173
ARM GAS  C:\Users\310309~1\AppData\Local\Temp\cckEzWOW.s 			page 75


 3083 0c9b 0C       		.uleb128 0xc
 3084 0c9c 783B0000 		.4byte	.LASF374
 3085 0ca0 7401     		.2byte	0x174
 3086 0ca2 0C       		.uleb128 0xc
 3087 0ca3 29330000 		.4byte	.LASF375
 3088 0ca7 7501     		.2byte	0x175
 3089 0ca9 0C       		.uleb128 0xc
 3090 0caa 38050000 		.4byte	.LASF376
 3091 0cae 7601     		.2byte	0x176
 3092 0cb0 0C       		.uleb128 0xc
 3093 0cb1 CF310000 		.4byte	.LASF377
 3094 0cb5 7701     		.2byte	0x177
 3095 0cb7 0C       		.uleb128 0xc
 3096 0cb8 E1160000 		.4byte	.LASF378
 3097 0cbc 7801     		.2byte	0x178
 3098 0cbe 0C       		.uleb128 0xc
 3099 0cbf 2A210000 		.4byte	.LASF379
 3100 0cc3 7901     		.2byte	0x179
 3101 0cc5 0C       		.uleb128 0xc
 3102 0cc6 622D0000 		.4byte	.LASF380
 3103 0cca 7A01     		.2byte	0x17a
 3104 0ccc 0C       		.uleb128 0xc
 3105 0ccd EE360000 		.4byte	.LASF381
 3106 0cd1 7B01     		.2byte	0x17b
 3107 0cd3 0C       		.uleb128 0xc
 3108 0cd4 18180000 		.4byte	.LASF382
 3109 0cd8 7C01     		.2byte	0x17c
 3110 0cda 0C       		.uleb128 0xc
 3111 0cdb 5A270000 		.4byte	.LASF383
 3112 0cdf 7D01     		.2byte	0x17d
 3113 0ce1 0C       		.uleb128 0xc
 3114 0ce2 60250000 		.4byte	.LASF384
 3115 0ce6 7E01     		.2byte	0x17e
 3116 0ce8 0C       		.uleb128 0xc
 3117 0ce9 0A2A0000 		.4byte	.LASF385
 3118 0ced 7F01     		.2byte	0x17f
 3119 0cef 0C       		.uleb128 0xc
 3120 0cf0 BA360000 		.4byte	.LASF386
 3121 0cf4 8001     		.2byte	0x180
 3122 0cf6 0C       		.uleb128 0xc
 3123 0cf7 3F270000 		.4byte	.LASF387
 3124 0cfb 8101     		.2byte	0x181
 3125 0cfd 0C       		.uleb128 0xc
 3126 0cfe C1270000 		.4byte	.LASF388
 3127 0d02 8201     		.2byte	0x182
 3128 0d04 0C       		.uleb128 0xc
 3129 0d05 3D190000 		.4byte	.LASF389
 3130 0d09 8301     		.2byte	0x183
 3131 0d0b 0C       		.uleb128 0xc
 3132 0d0c 3C0F0000 		.4byte	.LASF390
 3133 0d10 8401     		.2byte	0x184
 3134 0d12 0C       		.uleb128 0xc
 3135 0d13 2C3A0000 		.4byte	.LASF391
 3136 0d17 8501     		.2byte	0x185
 3137 0d19 0C       		.uleb128 0xc
 3138 0d1a E01D0000 		.4byte	.LASF392
 3139 0d1e 8601     		.2byte	0x186
ARM GAS  C:\Users\310309~1\AppData\Local\Temp\cckEzWOW.s 			page 76


 3140 0d20 0C       		.uleb128 0xc
 3141 0d21 BD0D0000 		.4byte	.LASF393
 3142 0d25 8701     		.2byte	0x187
 3143 0d27 0C       		.uleb128 0xc
 3144 0d28 B83A0000 		.4byte	.LASF394
 3145 0d2c 8801     		.2byte	0x188
 3146 0d2e 0C       		.uleb128 0xc
 3147 0d2f 5D330000 		.4byte	.LASF395
 3148 0d33 8901     		.2byte	0x189
 3149 0d35 0C       		.uleb128 0xc
 3150 0d36 25310000 		.4byte	.LASF396
 3151 0d3a 8A01     		.2byte	0x18a
 3152 0d3c 0C       		.uleb128 0xc
 3153 0d3d 5C240000 		.4byte	.LASF397
 3154 0d41 8B01     		.2byte	0x18b
 3155 0d43 0C       		.uleb128 0xc
 3156 0d44 77030000 		.4byte	.LASF398
 3157 0d48 8C01     		.2byte	0x18c
 3158 0d4a 0C       		.uleb128 0xc
 3159 0d4b 192E0000 		.4byte	.LASF399
 3160 0d4f 8D01     		.2byte	0x18d
 3161 0d51 0C       		.uleb128 0xc
 3162 0d52 E7410000 		.4byte	.LASF400
 3163 0d56 8E01     		.2byte	0x18e
 3164 0d58 0C       		.uleb128 0xc
 3165 0d59 F23C0000 		.4byte	.LASF401
 3166 0d5d 8F01     		.2byte	0x18f
 3167 0d5f 0C       		.uleb128 0xc
 3168 0d60 5A230000 		.4byte	.LASF402
 3169 0d64 9001     		.2byte	0x190
 3170 0d66 0C       		.uleb128 0xc
 3171 0d67 2F040000 		.4byte	.LASF403
 3172 0d6b 9101     		.2byte	0x191
 3173 0d6d 0C       		.uleb128 0xc
 3174 0d6e 7C150000 		.4byte	.LASF404
 3175 0d72 9201     		.2byte	0x192
 3176 0d74 0C       		.uleb128 0xc
 3177 0d75 5E020000 		.4byte	.LASF405
 3178 0d79 9301     		.2byte	0x193
 3179 0d7b 0C       		.uleb128 0xc
 3180 0d7c CA440000 		.4byte	.LASF406
 3181 0d80 9401     		.2byte	0x194
 3182 0d82 0C       		.uleb128 0xc
 3183 0d83 02280000 		.4byte	.LASF407
 3184 0d87 9501     		.2byte	0x195
 3185 0d89 0C       		.uleb128 0xc
 3186 0d8a A5430000 		.4byte	.LASF408
 3187 0d8e 9601     		.2byte	0x196
 3188 0d90 0C       		.uleb128 0xc
 3189 0d91 9F270000 		.4byte	.LASF409
 3190 0d95 9701     		.2byte	0x197
 3191 0d97 0C       		.uleb128 0xc
 3192 0d98 EF0F0000 		.4byte	.LASF410
 3193 0d9c 9801     		.2byte	0x198
 3194 0d9e 0C       		.uleb128 0xc
 3195 0d9f 1D1E0000 		.4byte	.LASF411
 3196 0da3 9901     		.2byte	0x199
ARM GAS  C:\Users\310309~1\AppData\Local\Temp\cckEzWOW.s 			page 77


 3197 0da5 0C       		.uleb128 0xc
 3198 0da6 471B0000 		.4byte	.LASF412
 3199 0daa 9A01     		.2byte	0x19a
 3200 0dac 0C       		.uleb128 0xc
 3201 0dad 6C0F0000 		.4byte	.LASF413
 3202 0db1 9B01     		.2byte	0x19b
 3203 0db3 0C       		.uleb128 0xc
 3204 0db4 C9350000 		.4byte	.LASF414
 3205 0db8 9C01     		.2byte	0x19c
 3206 0dba 0C       		.uleb128 0xc
 3207 0dbb F71E0000 		.4byte	.LASF415
 3208 0dbf 9D01     		.2byte	0x19d
 3209 0dc1 0C       		.uleb128 0xc
 3210 0dc2 0D2F0000 		.4byte	.LASF416
 3211 0dc6 9E01     		.2byte	0x19e
 3212 0dc8 0C       		.uleb128 0xc
 3213 0dc9 DC050000 		.4byte	.LASF417
 3214 0dcd 9F01     		.2byte	0x19f
 3215 0dcf 0C       		.uleb128 0xc
 3216 0dd0 F0120000 		.4byte	.LASF418
 3217 0dd4 A001     		.2byte	0x1a0
 3218 0dd6 0C       		.uleb128 0xc
 3219 0dd7 EF2F0000 		.4byte	.LASF419
 3220 0ddb A101     		.2byte	0x1a1
 3221 0ddd 0C       		.uleb128 0xc
 3222 0dde 2D1B0000 		.4byte	.LASF420
 3223 0de2 A201     		.2byte	0x1a2
 3224 0de4 0C       		.uleb128 0xc
 3225 0de5 C83B0000 		.4byte	.LASF421
 3226 0de9 A301     		.2byte	0x1a3
 3227 0deb 0C       		.uleb128 0xc
 3228 0dec A8240000 		.4byte	.LASF422
 3229 0df0 A401     		.2byte	0x1a4
 3230 0df2 0C       		.uleb128 0xc
 3231 0df3 553B0000 		.4byte	.LASF423
 3232 0df7 A501     		.2byte	0x1a5
 3233 0df9 0C       		.uleb128 0xc
 3234 0dfa AC180000 		.4byte	.LASF424
 3235 0dfe A601     		.2byte	0x1a6
 3236 0e00 0C       		.uleb128 0xc
 3237 0e01 ED2B0000 		.4byte	.LASF425
 3238 0e05 A701     		.2byte	0x1a7
 3239 0e07 0C       		.uleb128 0xc
 3240 0e08 BA170000 		.4byte	.LASF426
 3241 0e0c A801     		.2byte	0x1a8
 3242 0e0e 0C       		.uleb128 0xc
 3243 0e0f FD1C0000 		.4byte	.LASF427
 3244 0e13 A901     		.2byte	0x1a9
 3245 0e15 0C       		.uleb128 0xc
 3246 0e16 5E450000 		.4byte	.LASF428
 3247 0e1a AA01     		.2byte	0x1aa
 3248 0e1c 0C       		.uleb128 0xc
 3249 0e1d 7C2E0000 		.4byte	.LASF429
 3250 0e21 AB01     		.2byte	0x1ab
 3251 0e23 0C       		.uleb128 0xc
 3252 0e24 312F0000 		.4byte	.LASF430
 3253 0e28 AC01     		.2byte	0x1ac
ARM GAS  C:\Users\310309~1\AppData\Local\Temp\cckEzWOW.s 			page 78


 3254 0e2a 0C       		.uleb128 0xc
 3255 0e2b CA090000 		.4byte	.LASF431
 3256 0e2f AD01     		.2byte	0x1ad
 3257 0e31 0C       		.uleb128 0xc
 3258 0e32 A21A0000 		.4byte	.LASF432
 3259 0e36 AE01     		.2byte	0x1ae
 3260 0e38 0C       		.uleb128 0xc
 3261 0e39 6C360000 		.4byte	.LASF433
 3262 0e3d AF01     		.2byte	0x1af
 3263 0e3f 0C       		.uleb128 0xc
 3264 0e40 4C0E0000 		.4byte	.LASF434
 3265 0e44 B001     		.2byte	0x1b0
 3266 0e46 0C       		.uleb128 0xc
 3267 0e47 51000000 		.4byte	.LASF435
 3268 0e4b B101     		.2byte	0x1b1
 3269 0e4d 0C       		.uleb128 0xc
 3270 0e4e 433C0000 		.4byte	.LASF436
 3271 0e52 B201     		.2byte	0x1b2
 3272 0e54 0C       		.uleb128 0xc
 3273 0e55 DA150000 		.4byte	.LASF437
 3274 0e59 B301     		.2byte	0x1b3
 3275 0e5b 0C       		.uleb128 0xc
 3276 0e5c EF440000 		.4byte	.LASF438
 3277 0e60 B401     		.2byte	0x1b4
 3278 0e62 0C       		.uleb128 0xc
 3279 0e63 BB200000 		.4byte	.LASF439
 3280 0e67 B501     		.2byte	0x1b5
 3281 0e69 0C       		.uleb128 0xc
 3282 0e6a C8230000 		.4byte	.LASF440
 3283 0e6e B601     		.2byte	0x1b6
 3284 0e70 0C       		.uleb128 0xc
 3285 0e71 B0440000 		.4byte	.LASF441
 3286 0e75 B701     		.2byte	0x1b7
 3287 0e77 0C       		.uleb128 0xc
 3288 0e78 6F380000 		.4byte	.LASF442
 3289 0e7c B801     		.2byte	0x1b8
 3290 0e7e 0C       		.uleb128 0xc
 3291 0e7f A72B0000 		.4byte	.LASF443
 3292 0e83 B901     		.2byte	0x1b9
 3293 0e85 0C       		.uleb128 0xc
 3294 0e86 C02D0000 		.4byte	.LASF444
 3295 0e8a BA01     		.2byte	0x1ba
 3296 0e8c 0C       		.uleb128 0xc
 3297 0e8d 913F0000 		.4byte	.LASF445
 3298 0e91 BB01     		.2byte	0x1bb
 3299 0e93 0C       		.uleb128 0xc
 3300 0e94 731F0000 		.4byte	.LASF446
 3301 0e98 BC01     		.2byte	0x1bc
 3302 0e9a 0C       		.uleb128 0xc
 3303 0e9b 440A0000 		.4byte	.LASF447
 3304 0e9f BD01     		.2byte	0x1bd
 3305 0ea1 0C       		.uleb128 0xc
 3306 0ea2 58130000 		.4byte	.LASF448
 3307 0ea6 BE01     		.2byte	0x1be
 3308 0ea8 0C       		.uleb128 0xc
 3309 0ea9 A10A0000 		.4byte	.LASF449
 3310 0ead BF01     		.2byte	0x1bf
ARM GAS  C:\Users\310309~1\AppData\Local\Temp\cckEzWOW.s 			page 79


 3311 0eaf 0C       		.uleb128 0xc
 3312 0eb0 1B0E0000 		.4byte	.LASF450
 3313 0eb4 C001     		.2byte	0x1c0
 3314 0eb6 0C       		.uleb128 0xc
 3315 0eb7 421F0000 		.4byte	.LASF451
 3316 0ebb C101     		.2byte	0x1c1
 3317 0ebd 0C       		.uleb128 0xc
 3318 0ebe 36230000 		.4byte	.LASF452
 3319 0ec2 C201     		.2byte	0x1c2
 3320 0ec4 0C       		.uleb128 0xc
 3321 0ec5 733F0000 		.4byte	.LASF453
 3322 0ec9 C301     		.2byte	0x1c3
 3323 0ecb 0C       		.uleb128 0xc
 3324 0ecc 9F1D0000 		.4byte	.LASF454
 3325 0ed0 C401     		.2byte	0x1c4
 3326 0ed2 0C       		.uleb128 0xc
 3327 0ed3 5F1A0000 		.4byte	.LASF455
 3328 0ed7 C501     		.2byte	0x1c5
 3329 0ed9 0C       		.uleb128 0xc
 3330 0eda A6260000 		.4byte	.LASF456
 3331 0ede C601     		.2byte	0x1c6
 3332 0ee0 0C       		.uleb128 0xc
 3333 0ee1 E8030000 		.4byte	.LASF457
 3334 0ee5 C701     		.2byte	0x1c7
 3335 0ee7 0C       		.uleb128 0xc
 3336 0ee8 F8330000 		.4byte	.LASF458
 3337 0eec C801     		.2byte	0x1c8
 3338 0eee 0C       		.uleb128 0xc
 3339 0eef 15050000 		.4byte	.LASF459
 3340 0ef3 C901     		.2byte	0x1c9
 3341 0ef5 0C       		.uleb128 0xc
 3342 0ef6 6A300000 		.4byte	.LASF460
 3343 0efa CA01     		.2byte	0x1ca
 3344 0efc 0C       		.uleb128 0xc
 3345 0efd EE0B0000 		.4byte	.LASF461
 3346 0f01 CB01     		.2byte	0x1cb
 3347 0f03 0C       		.uleb128 0xc
 3348 0f04 800C0000 		.4byte	.LASF462
 3349 0f08 CC01     		.2byte	0x1cc
 3350 0f0a 0C       		.uleb128 0xc
 3351 0f0b 90360000 		.4byte	.LASF463
 3352 0f0f CD01     		.2byte	0x1cd
 3353 0f11 0C       		.uleb128 0xc
 3354 0f12 56080000 		.4byte	.LASF464
 3355 0f16 CE01     		.2byte	0x1ce
 3356 0f18 0C       		.uleb128 0xc
 3357 0f19 0D330000 		.4byte	.LASF465
 3358 0f1d CF01     		.2byte	0x1cf
 3359 0f1f 0C       		.uleb128 0xc
 3360 0f20 E7300000 		.4byte	.LASF466
 3361 0f24 D001     		.2byte	0x1d0
 3362 0f26 0C       		.uleb128 0xc
 3363 0f27 F71B0000 		.4byte	.LASF467
 3364 0f2b D101     		.2byte	0x1d1
 3365 0f2d 0C       		.uleb128 0xc
 3366 0f2e 56410000 		.4byte	.LASF468
 3367 0f32 D201     		.2byte	0x1d2
ARM GAS  C:\Users\310309~1\AppData\Local\Temp\cckEzWOW.s 			page 80


 3368 0f34 0C       		.uleb128 0xc
 3369 0f35 5E260000 		.4byte	.LASF469
 3370 0f39 D301     		.2byte	0x1d3
 3371 0f3b 0C       		.uleb128 0xc
 3372 0f3c 8C2F0000 		.4byte	.LASF470
 3373 0f40 D401     		.2byte	0x1d4
 3374 0f42 0C       		.uleb128 0xc
 3375 0f43 A41F0000 		.4byte	.LASF471
 3376 0f47 D501     		.2byte	0x1d5
 3377 0f49 0C       		.uleb128 0xc
 3378 0f4a 7F350000 		.4byte	.LASF472
 3379 0f4e D601     		.2byte	0x1d6
 3380 0f50 0C       		.uleb128 0xc
 3381 0f51 4D210000 		.4byte	.LASF473
 3382 0f55 D701     		.2byte	0x1d7
 3383 0f57 0C       		.uleb128 0xc
 3384 0f58 C91F0000 		.4byte	.LASF474
 3385 0f5c D801     		.2byte	0x1d8
 3386 0f5e 0C       		.uleb128 0xc
 3387 0f5f A4080000 		.4byte	.LASF475
 3388 0f63 D901     		.2byte	0x1d9
 3389 0f65 0C       		.uleb128 0xc
 3390 0f66 BC1D0000 		.4byte	.LASF476
 3391 0f6a DA01     		.2byte	0x1da
 3392 0f6c 0C       		.uleb128 0xc
 3393 0f6d B5380000 		.4byte	.LASF477
 3394 0f71 DB01     		.2byte	0x1db
 3395 0f73 0C       		.uleb128 0xc
 3396 0f74 9A340000 		.4byte	.LASF478
 3397 0f78 DC01     		.2byte	0x1dc
 3398 0f7a 0C       		.uleb128 0xc
 3399 0f7b 84140000 		.4byte	.LASF479
 3400 0f7f DD01     		.2byte	0x1dd
 3401 0f81 0C       		.uleb128 0xc
 3402 0f82 3C200000 		.4byte	.LASF480
 3403 0f86 DE01     		.2byte	0x1de
 3404 0f88 0C       		.uleb128 0xc
 3405 0f89 312A0000 		.4byte	.LASF481
 3406 0f8d DF01     		.2byte	0x1df
 3407 0f8f 0C       		.uleb128 0xc
 3408 0f90 73220000 		.4byte	.LASF482
 3409 0f94 E001     		.2byte	0x1e0
 3410 0f96 0C       		.uleb128 0xc
 3411 0f97 A1230000 		.4byte	.LASF483
 3412 0f9b E101     		.2byte	0x1e1
 3413 0f9d 0C       		.uleb128 0xc
 3414 0f9e 34000000 		.4byte	.LASF484
 3415 0fa2 E201     		.2byte	0x1e2
 3416 0fa4 0C       		.uleb128 0xc
 3417 0fa5 9D050000 		.4byte	.LASF485
 3418 0fa9 E301     		.2byte	0x1e3
 3419 0fab 0C       		.uleb128 0xc
 3420 0fac B61C0000 		.4byte	.LASF486
 3421 0fb0 E401     		.2byte	0x1e4
 3422 0fb2 0C       		.uleb128 0xc
 3423 0fb3 850B0000 		.4byte	.LASF487
 3424 0fb7 E501     		.2byte	0x1e5
ARM GAS  C:\Users\310309~1\AppData\Local\Temp\cckEzWOW.s 			page 81


 3425 0fb9 0C       		.uleb128 0xc
 3426 0fba 3C010000 		.4byte	.LASF488
 3427 0fbe E601     		.2byte	0x1e6
 3428 0fc0 0C       		.uleb128 0xc
 3429 0fc1 7C230000 		.4byte	.LASF489
 3430 0fc5 E701     		.2byte	0x1e7
 3431 0fc7 0C       		.uleb128 0xc
 3432 0fc8 66440000 		.4byte	.LASF490
 3433 0fcc E801     		.2byte	0x1e8
 3434 0fce 0C       		.uleb128 0xc
 3435 0fcf AC1E0000 		.4byte	.LASF491
 3436 0fd3 E901     		.2byte	0x1e9
 3437 0fd5 0C       		.uleb128 0xc
 3438 0fd6 31110000 		.4byte	.LASF492
 3439 0fda EA01     		.2byte	0x1ea
 3440 0fdc 0C       		.uleb128 0xc
 3441 0fdd 201A0000 		.4byte	.LASF493
 3442 0fe1 EB01     		.2byte	0x1eb
 3443 0fe3 0C       		.uleb128 0xc
 3444 0fe4 E52E0000 		.4byte	.LASF494
 3445 0fe8 EC01     		.2byte	0x1ec
 3446 0fea 0C       		.uleb128 0xc
 3447 0feb 82050000 		.4byte	.LASF495
 3448 0fef ED01     		.2byte	0x1ed
 3449 0ff1 0C       		.uleb128 0xc
 3450 0ff2 43370000 		.4byte	.LASF496
 3451 0ff6 EE01     		.2byte	0x1ee
 3452 0ff8 0C       		.uleb128 0xc
 3453 0ff9 F8110000 		.4byte	.LASF497
 3454 0ffd EF01     		.2byte	0x1ef
 3455 0fff 0C       		.uleb128 0xc
 3456 1000 97220000 		.4byte	.LASF498
 3457 1004 F001     		.2byte	0x1f0
 3458 1006 0C       		.uleb128 0xc
 3459 1007 7C190000 		.4byte	.LASF499
 3460 100b F101     		.2byte	0x1f1
 3461 100d 0C       		.uleb128 0xc
 3462 100e 123F0000 		.4byte	.LASF500
 3463 1012 F201     		.2byte	0x1f2
 3464 1014 0C       		.uleb128 0xc
 3465 1015 A4040000 		.4byte	.LASF501
 3466 1019 F301     		.2byte	0x1f3
 3467 101b 0C       		.uleb128 0xc
 3468 101c 60010000 		.4byte	.LASF502
 3469 1020 F401     		.2byte	0x1f4
 3470 1022 0C       		.uleb128 0xc
 3471 1023 FD150000 		.4byte	.LASF503
 3472 1027 F501     		.2byte	0x1f5
 3473 1029 0C       		.uleb128 0xc
 3474 102a 33130000 		.4byte	.LASF504
 3475 102e F601     		.2byte	0x1f6
 3476 1030 0C       		.uleb128 0xc
 3477 1031 E4290000 		.4byte	.LASF505
 3478 1035 F701     		.2byte	0x1f7
 3479 1037 0C       		.uleb128 0xc
 3480 1038 373D0000 		.4byte	.LASF506
 3481 103c F801     		.2byte	0x1f8
ARM GAS  C:\Users\310309~1\AppData\Local\Temp\cckEzWOW.s 			page 82


 3482 103e 0C       		.uleb128 0xc
 3483 103f 82270000 		.4byte	.LASF507
 3484 1043 F901     		.2byte	0x1f9
 3485 1045 0C       		.uleb128 0xc
 3486 1046 48360000 		.4byte	.LASF508
 3487 104a FA01     		.2byte	0x1fa
 3488 104c 0C       		.uleb128 0xc
 3489 104d 08140000 		.4byte	.LASF509
 3490 1051 FB01     		.2byte	0x1fb
 3491 1053 0C       		.uleb128 0xc
 3492 1054 01060000 		.4byte	.LASF510
 3493 1058 FC01     		.2byte	0x1fc
 3494 105a 0C       		.uleb128 0xc
 3495 105b 23360000 		.4byte	.LASF511
 3496 105f FD01     		.2byte	0x1fd
 3497 1061 0C       		.uleb128 0xc
 3498 1062 40140000 		.4byte	.LASF512
 3499 1066 FE01     		.2byte	0x1fe
 3500 1068 0C       		.uleb128 0xc
 3501 1069 08240000 		.4byte	.LASF513
 3502 106d FF01     		.2byte	0x1ff
 3503 106f 0C       		.uleb128 0xc
 3504 1070 E7340000 		.4byte	.LASF514
 3505 1074 0002     		.2byte	0x200
 3506 1076 0C       		.uleb128 0xc
 3507 1077 B2190000 		.4byte	.LASF515
 3508 107b 0102     		.2byte	0x201
 3509 107d 0C       		.uleb128 0xc
 3510 107e 923B0000 		.4byte	.LASF516
 3511 1082 0202     		.2byte	0x202
 3512 1084 0C       		.uleb128 0xc
 3513 1085 26170000 		.4byte	.LASF517
 3514 1089 0302     		.2byte	0x203
 3515 108b 0C       		.uleb128 0xc
 3516 108c EC0C0000 		.4byte	.LASF518
 3517 1090 0402     		.2byte	0x204
 3518 1092 0C       		.uleb128 0xc
 3519 1093 21300000 		.4byte	.LASF519
 3520 1097 0502     		.2byte	0x205
 3521 1099 0C       		.uleb128 0xc
 3522 109a 521C0000 		.4byte	.LASF520
 3523 109e 0602     		.2byte	0x206
 3524 10a0 0C       		.uleb128 0xc
 3525 10a1 AE0E0000 		.4byte	.LASF521
 3526 10a5 0702     		.2byte	0x207
 3527 10a7 0C       		.uleb128 0xc
 3528 10a8 9C1C0000 		.4byte	.LASF522
 3529 10ac 0802     		.2byte	0x208
 3530 10ae 0C       		.uleb128 0xc
 3531 10af 2A0A0000 		.4byte	.LASF523
 3532 10b3 0902     		.2byte	0x209
 3533 10b5 0C       		.uleb128 0xc
 3534 10b6 B5280000 		.4byte	.LASF524
 3535 10ba 0A02     		.2byte	0x20a
 3536 10bc 0C       		.uleb128 0xc
 3537 10bd 12000000 		.4byte	.LASF525
 3538 10c1 0B02     		.2byte	0x20b
ARM GAS  C:\Users\310309~1\AppData\Local\Temp\cckEzWOW.s 			page 83


 3539 10c3 0C       		.uleb128 0xc
 3540 10c4 7B2C0000 		.4byte	.LASF526
 3541 10c8 0C02     		.2byte	0x20c
 3542 10ca 0C       		.uleb128 0xc
 3543 10cb 743C0000 		.4byte	.LASF527
 3544 10cf 0D02     		.2byte	0x20d
 3545 10d1 0C       		.uleb128 0xc
 3546 10d2 B8050000 		.4byte	.LASF528
 3547 10d6 0E02     		.2byte	0x20e
 3548 10d8 0C       		.uleb128 0xc
 3549 10d9 22350000 		.4byte	.LASF529
 3550 10dd 0F02     		.2byte	0x20f
 3551 10df 0C       		.uleb128 0xc
 3552 10e0 EF250000 		.4byte	.LASF530
 3553 10e4 1002     		.2byte	0x210
 3554 10e6 0C       		.uleb128 0xc
 3555 10e7 4E180000 		.4byte	.LASF531
 3556 10eb 1102     		.2byte	0x211
 3557 10ed 0C       		.uleb128 0xc
 3558 10ee D93F0000 		.4byte	.LASF532
 3559 10f2 1202     		.2byte	0x212
 3560 10f4 0C       		.uleb128 0xc
 3561 10f5 36120000 		.4byte	.LASF533
 3562 10f9 1302     		.2byte	0x213
 3563 10fb 0C       		.uleb128 0xc
 3564 10fc 39450000 		.4byte	.LASF534
 3565 1100 1402     		.2byte	0x214
 3566 1102 0C       		.uleb128 0xc
 3567 1103 441A0000 		.4byte	.LASF535
 3568 1107 1502     		.2byte	0x215
 3569 1109 0C       		.uleb128 0xc
 3570 110a 41020000 		.4byte	.LASF536
 3571 110e 1602     		.2byte	0x216
 3572 1110 0C       		.uleb128 0xc
 3573 1111 9E2C0000 		.4byte	.LASF537
 3574 1115 1702     		.2byte	0x217
 3575 1117 0C       		.uleb128 0xc
 3576 1118 80040000 		.4byte	.LASF538
 3577 111c 1802     		.2byte	0x218
 3578 111e 0C       		.uleb128 0xc
 3579 111f C41B0000 		.4byte	.LASF539
 3580 1123 1902     		.2byte	0x219
 3581 1125 0C       		.uleb128 0xc
 3582 1126 CB370000 		.4byte	.LASF540
 3583 112a 1A02     		.2byte	0x21a
 3584 112c 0C       		.uleb128 0xc
 3585 112d FC3F0000 		.4byte	.LASF541
 3586 1131 1B02     		.2byte	0x21b
 3587 1133 0C       		.uleb128 0xc
 3588 1134 C8020000 		.4byte	.LASF542
 3589 1138 1C02     		.2byte	0x21c
 3590 113a 0C       		.uleb128 0xc
 3591 113b CA2B0000 		.4byte	.LASF543
 3592 113f 1D02     		.2byte	0x21d
 3593 1141 0C       		.uleb128 0xc
 3594 1142 9B160000 		.4byte	.LASF544
 3595 1146 1E02     		.2byte	0x21e
ARM GAS  C:\Users\310309~1\AppData\Local\Temp\cckEzWOW.s 			page 84


 3596 1148 0C       		.uleb128 0xc
 3597 1149 D0180000 		.4byte	.LASF545
 3598 114d 1F02     		.2byte	0x21f
 3599 114f 0C       		.uleb128 0xc
 3600 1150 22430000 		.4byte	.LASF546
 3601 1154 2002     		.2byte	0x220
 3602 1156 0C       		.uleb128 0xc
 3603 1157 13120000 		.4byte	.LASF547
 3604 115b 2102     		.2byte	0x221
 3605 115d 0C       		.uleb128 0xc
 3606 115e 5E100000 		.4byte	.LASF548
 3607 1162 2202     		.2byte	0x222
 3608 1164 0C       		.uleb128 0xc
 3609 1165 E32D0000 		.4byte	.LASF549
 3610 1169 00E0     		.2byte	0xe000
 3611 116b 00       		.byte	0
 3612 116c 0A       		.uleb128 0xa
 3613 116d 01       		.byte	0x1
 3614 116e 2C000000 		.4byte	0x2c
 3615 1172 0A       		.byte	0xa
 3616 1173 5008     		.2byte	0x850
 3617 1175 98110000 		.4byte	0x1198
 3618 1179 0B       		.uleb128 0xb
 3619 117a 1D110000 		.4byte	.LASF550
 3620 117e 00       		.byte	0
 3621 117f 0B       		.uleb128 0xb
 3622 1180 FA210000 		.4byte	.LASF551
 3623 1184 01       		.byte	0x1
 3624 1185 0B       		.uleb128 0xb
 3625 1186 79410000 		.4byte	.LASF552
 3626 118a 02       		.byte	0x2
 3627 118b 0B       		.uleb128 0xb
 3628 118c F2310000 		.4byte	.LASF553
 3629 1190 03       		.byte	0x3
 3630 1191 0B       		.uleb128 0xb
 3631 1192 12370000 		.4byte	.LASF554
 3632 1196 04       		.byte	0x4
 3633 1197 00       		.byte	0
 3634 1198 04       		.uleb128 0x4
 3635 1199 49310000 		.4byte	.LASF555
 3636 119d 0A       		.byte	0xa
 3637 119e 5E08     		.2byte	0x85e
 3638 11a0 6C110000 		.4byte	0x116c
 3639 11a4 18       		.uleb128 0x18
 3640 11a5 80090000 		.4byte	.LASF602
 3641 11a9 01       		.byte	0x1
 3642 11aa 7201     		.2byte	0x172
 3643 11ac 00000000 		.4byte	.LFB2
 3644 11b0 14000000 		.4byte	.LFE2-.LFB2
 3645 11b4 01       		.uleb128 0x1
 3646 11b5 9C       		.byte	0x9c
 3647 11b6 19       		.uleb128 0x19
 3648 11b7 5E390000 		.4byte	.LASF569
 3649 11bb 01       		.byte	0x1
 3650 11bc 9801     		.2byte	0x198
 3651 11be 00000000 		.4byte	.LFB3
 3652 11c2 0C000000 		.4byte	.LFE3-.LFB3
ARM GAS  C:\Users\310309~1\AppData\Local\Temp\cckEzWOW.s 			page 85


 3653 11c6 01       		.uleb128 0x1
 3654 11c7 9C       		.byte	0x9c
 3655 11c8 DB110000 		.4byte	0x11db
 3656 11cc 1A       		.uleb128 0x1a
 3657 11cd B00D0000 		.4byte	.LASF556
 3658 11d1 01       		.byte	0x1
 3659 11d2 9801     		.2byte	0x198
 3660 11d4 50070000 		.4byte	0x750
 3661 11d8 01       		.uleb128 0x1
 3662 11d9 50       		.byte	0x50
 3663 11da 00       		.byte	0
 3664 11db 1B       		.uleb128 0x1b
 3665 11dc B2110000 		.4byte	.LASF561
 3666 11e0 01       		.byte	0x1
 3667 11e1 B301     		.2byte	0x1b3
 3668 11e3 66030000 		.4byte	0x366
 3669 11e7 00000000 		.4byte	.LFB4
 3670 11eb 40000000 		.4byte	.LFE4-.LFB4
 3671 11ef 01       		.uleb128 0x1
 3672 11f0 9C       		.byte	0x9c
 3673 11f1 6E120000 		.4byte	0x126e
 3674 11f5 1C       		.uleb128 0x1c
 3675 11f6 7F010000 		.4byte	.LASF256
 3676 11fa 01       		.byte	0x1
 3677 11fb B301     		.2byte	0x1b3
 3678 11fd 78080000 		.4byte	0x878
 3679 1201 00000000 		.4byte	.LLST0
 3680 1205 1C       		.uleb128 0x1c
 3681 1206 26040000 		.4byte	.LASF557
 3682 120a 01       		.byte	0x1
 3683 120b B301     		.2byte	0x1b3
 3684 120d 6B000000 		.4byte	0x6b
 3685 1211 3A000000 		.4byte	.LLST1
 3686 1215 1C       		.uleb128 0x1c
 3687 1216 091B0000 		.4byte	.LASF558
 3688 121a 01       		.byte	0x1
 3689 121b B301     		.2byte	0x1b3
 3690 121d 72030000 		.4byte	0x372
 3691 1221 74000000 		.4byte	.LLST2
 3692 1225 1D       		.uleb128 0x1d
 3693 1226 0D360000 		.4byte	.LASF559
 3694 122a 01       		.byte	0x1
 3695 122b B501     		.2byte	0x1b5
 3696 122d 66030000 		.4byte	0x366
 3697 1231 BA000000 		.4byte	.LLST3
 3698 1235 1E       		.uleb128 0x1e
 3699 1236 14000000 		.4byte	.LBB2
 3700 123a 1E000000 		.4byte	.LBE2-.LBB2
 3701 123e 1F       		.uleb128 0x1f
 3702 123f 911F0000 		.4byte	.LASF560
 3703 1243 01       		.byte	0x1
 3704 1244 C201     		.2byte	0x1c2
 3705 1246 18050000 		.4byte	0x518
 3706 124a 02       		.uleb128 0x2
 3707 124b 91       		.byte	0x91
 3708 124c 6C       		.sleb128 -20
 3709 124d 20       		.uleb128 0x20
ARM GAS  C:\Users\310309~1\AppData\Local\Temp\cckEzWOW.s 			page 86


 3710 124e 26000000 		.4byte	.LVL5
 3711 1252 65180000 		.4byte	0x1865
 3712 1256 21       		.uleb128 0x21
 3713 1257 01       		.uleb128 0x1
 3714 1258 50       		.byte	0x50
 3715 1259 02       		.uleb128 0x2
 3716 125a 91       		.byte	0x91
 3717 125b 6C       		.sleb128 -20
 3718 125c 21       		.uleb128 0x21
 3719 125d 01       		.uleb128 0x1
 3720 125e 51       		.byte	0x51
 3721 125f 01       		.uleb128 0x1
 3722 1260 30       		.byte	0x30
 3723 1261 21       		.uleb128 0x21
 3724 1262 01       		.uleb128 0x1
 3725 1263 52       		.byte	0x52
 3726 1264 01       		.uleb128 0x1
 3727 1265 30       		.byte	0x30
 3728 1266 21       		.uleb128 0x21
 3729 1267 01       		.uleb128 0x1
 3730 1268 53       		.byte	0x53
 3731 1269 01       		.uleb128 0x1
 3732 126a 30       		.byte	0x30
 3733 126b 00       		.byte	0
 3734 126c 00       		.byte	0
 3735 126d 00       		.byte	0
 3736 126e 1B       		.uleb128 0x1b
 3737 126f 48380000 		.4byte	.LASF562
 3738 1273 01       		.byte	0x1
 3739 1274 EA01     		.2byte	0x1ea
 3740 1276 66030000 		.4byte	0x366
 3741 127a 00000000 		.4byte	.LFB5
 3742 127e 40000000 		.4byte	.LFE5-.LFB5
 3743 1282 01       		.uleb128 0x1
 3744 1283 9C       		.byte	0x9c
 3745 1284 FC120000 		.4byte	0x12fc
 3746 1288 1C       		.uleb128 0x1c
 3747 1289 7F010000 		.4byte	.LASF256
 3748 128d 01       		.byte	0x1
 3749 128e EA01     		.2byte	0x1ea
 3750 1290 78080000 		.4byte	0x878
 3751 1294 D9000000 		.4byte	.LLST4
 3752 1298 1C       		.uleb128 0x1c
 3753 1299 26040000 		.4byte	.LASF557
 3754 129d 01       		.byte	0x1
 3755 129e EA01     		.2byte	0x1ea
 3756 12a0 6B000000 		.4byte	0x6b
 3757 12a4 13010000 		.4byte	.LLST5
 3758 12a8 1C       		.uleb128 0x1c
 3759 12a9 091B0000 		.4byte	.LASF558
 3760 12ad 01       		.byte	0x1
 3761 12ae EA01     		.2byte	0x1ea
 3762 12b0 72030000 		.4byte	0x372
 3763 12b4 4D010000 		.4byte	.LLST6
 3764 12b8 1D       		.uleb128 0x1d
 3765 12b9 0D360000 		.4byte	.LASF559
 3766 12bd 01       		.byte	0x1
ARM GAS  C:\Users\310309~1\AppData\Local\Temp\cckEzWOW.s 			page 87


 3767 12be EC01     		.2byte	0x1ec
 3768 12c0 66030000 		.4byte	0x366
 3769 12c4 93010000 		.4byte	.LLST7
 3770 12c8 1E       		.uleb128 0x1e
 3771 12c9 14000000 		.4byte	.LBB3
 3772 12cd 1C000000 		.4byte	.LBE3-.LBB3
 3773 12d1 1F       		.uleb128 0x1f
 3774 12d2 911F0000 		.4byte	.LASF560
 3775 12d6 01       		.byte	0x1
 3776 12d7 F901     		.2byte	0x1f9
 3777 12d9 18050000 		.4byte	0x518
 3778 12dd 02       		.uleb128 0x2
 3779 12de 91       		.byte	0x91
 3780 12df 6C       		.sleb128 -20
 3781 12e0 20       		.uleb128 0x20
 3782 12e1 24000000 		.4byte	.LVL14
 3783 12e5 71180000 		.4byte	0x1871
 3784 12e9 21       		.uleb128 0x21
 3785 12ea 01       		.uleb128 0x1
 3786 12eb 50       		.byte	0x50
 3787 12ec 02       		.uleb128 0x2
 3788 12ed 91       		.byte	0x91
 3789 12ee 6C       		.sleb128 -20
 3790 12ef 21       		.uleb128 0x21
 3791 12f0 01       		.uleb128 0x1
 3792 12f1 51       		.byte	0x51
 3793 12f2 01       		.uleb128 0x1
 3794 12f3 30       		.byte	0x30
 3795 12f4 21       		.uleb128 0x21
 3796 12f5 01       		.uleb128 0x1
 3797 12f6 52       		.byte	0x52
 3798 12f7 01       		.uleb128 0x1
 3799 12f8 30       		.byte	0x30
 3800 12f9 00       		.byte	0
 3801 12fa 00       		.byte	0
 3802 12fb 00       		.byte	0
 3803 12fc 1B       		.uleb128 0x1b
 3804 12fd 3F160000 		.4byte	.LASF563
 3805 1301 01       		.byte	0x1
 3806 1302 2202     		.2byte	0x222
 3807 1304 66030000 		.4byte	0x366
 3808 1308 00000000 		.4byte	.LFB6
 3809 130c 50000000 		.4byte	.LFE6-.LFB6
 3810 1310 01       		.uleb128 0x1
 3811 1311 9C       		.byte	0x9c
 3812 1312 9A130000 		.4byte	0x139a
 3813 1316 1C       		.uleb128 0x1c
 3814 1317 7F010000 		.4byte	.LASF256
 3815 131b 01       		.byte	0x1
 3816 131c 2202     		.2byte	0x222
 3817 131e 78080000 		.4byte	0x878
 3818 1322 B2010000 		.4byte	.LLST8
 3819 1326 1C       		.uleb128 0x1c
 3820 1327 9F280000 		.4byte	.LASF564
 3821 132b 01       		.byte	0x1
 3822 132c 2302     		.2byte	0x223
 3823 132e 9C080000 		.4byte	0x89c
ARM GAS  C:\Users\310309~1\AppData\Local\Temp\cckEzWOW.s 			page 88


 3824 1332 1E020000 		.4byte	.LLST9
 3825 1336 1C       		.uleb128 0x1c
 3826 1337 26040000 		.4byte	.LASF557
 3827 133b 01       		.byte	0x1
 3828 133c 2402     		.2byte	0x224
 3829 133e 6B000000 		.4byte	0x6b
 3830 1342 58020000 		.4byte	.LLST10
 3831 1346 1C       		.uleb128 0x1c
 3832 1347 091B0000 		.4byte	.LASF558
 3833 134b 01       		.byte	0x1
 3834 134c 2402     		.2byte	0x224
 3835 134e 72030000 		.4byte	0x372
 3836 1352 92020000 		.4byte	.LLST11
 3837 1356 1D       		.uleb128 0x1d
 3838 1357 0D360000 		.4byte	.LASF559
 3839 135b 01       		.byte	0x1
 3840 135c 2602     		.2byte	0x226
 3841 135e 66030000 		.4byte	0x366
 3842 1362 CC020000 		.4byte	.LLST12
 3843 1366 1E       		.uleb128 0x1e
 3844 1367 18000000 		.4byte	.LBB4
 3845 136b 26000000 		.4byte	.LBE4-.LBB4
 3846 136f 1F       		.uleb128 0x1f
 3847 1370 911F0000 		.4byte	.LASF560
 3848 1374 01       		.byte	0x1
 3849 1375 3302     		.2byte	0x233
 3850 1377 18050000 		.4byte	0x518
 3851 137b 02       		.uleb128 0x2
 3852 137c 91       		.byte	0x91
 3853 137d 64       		.sleb128 -28
 3854 137e 20       		.uleb128 0x20
 3855 137f 32000000 		.4byte	.LVL23
 3856 1383 71180000 		.4byte	0x1871
 3857 1387 21       		.uleb128 0x21
 3858 1388 01       		.uleb128 0x1
 3859 1389 50       		.byte	0x50
 3860 138a 02       		.uleb128 0x2
 3861 138b 91       		.byte	0x91
 3862 138c 64       		.sleb128 -28
 3863 138d 21       		.uleb128 0x21
 3864 138e 01       		.uleb128 0x1
 3865 138f 51       		.byte	0x51
 3866 1390 01       		.uleb128 0x1
 3867 1391 30       		.byte	0x30
 3868 1392 21       		.uleb128 0x21
 3869 1393 01       		.uleb128 0x1
 3870 1394 52       		.byte	0x52
 3871 1395 01       		.uleb128 0x1
 3872 1396 30       		.byte	0x30
 3873 1397 00       		.byte	0
 3874 1398 00       		.byte	0
 3875 1399 00       		.byte	0
 3876 139a 1B       		.uleb128 0x1b
 3877 139b E3060000 		.4byte	.LASF565
 3878 139f 01       		.byte	0x1
 3879 13a0 6802     		.2byte	0x268
 3880 13a2 66030000 		.4byte	0x366
ARM GAS  C:\Users\310309~1\AppData\Local\Temp\cckEzWOW.s 			page 89


 3881 13a6 00000000 		.4byte	.LFB7
 3882 13aa 78000000 		.4byte	.LFE7-.LFB7
 3883 13ae 01       		.uleb128 0x1
 3884 13af 9C       		.byte	0x9c
 3885 13b0 3A140000 		.4byte	0x143a
 3886 13b4 1A       		.uleb128 0x1a
 3887 13b5 65340000 		.4byte	.LASF177
 3888 13b9 01       		.byte	0x1
 3889 13ba 6802     		.2byte	0x268
 3890 13bc AB040000 		.4byte	0x4ab
 3891 13c0 02       		.uleb128 0x2
 3892 13c1 91       		.byte	0x91
 3893 13c2 5C       		.sleb128 -36
 3894 13c3 1C       		.uleb128 0x1c
 3895 13c4 7F010000 		.4byte	.LASF256
 3896 13c8 01       		.byte	0x1
 3897 13c9 6902     		.2byte	0x269
 3898 13cb 78080000 		.4byte	0x878
 3899 13cf EB020000 		.4byte	.LLST13
 3900 13d3 1C       		.uleb128 0x1c
 3901 13d4 26040000 		.4byte	.LASF557
 3902 13d8 01       		.byte	0x1
 3903 13d9 6902     		.2byte	0x269
 3904 13db 6B000000 		.4byte	0x6b
 3905 13df 25030000 		.4byte	.LLST14
 3906 13e3 1C       		.uleb128 0x1c
 3907 13e4 091B0000 		.4byte	.LASF558
 3908 13e8 01       		.byte	0x1
 3909 13e9 6902     		.2byte	0x269
 3910 13eb 72030000 		.4byte	0x372
 3911 13ef 5F030000 		.4byte	.LLST15
 3912 13f3 1D       		.uleb128 0x1d
 3913 13f4 0D360000 		.4byte	.LASF559
 3914 13f8 01       		.byte	0x1
 3915 13f9 6B02     		.2byte	0x26b
 3916 13fb 66030000 		.4byte	0x366
 3917 13ff 8B030000 		.4byte	.LLST16
 3918 1403 22       		.uleb128 0x22
 3919 1404 3E000000 		.4byte	.LBB5
 3920 1408 18000000 		.4byte	.LBE5-.LBB5
 3921 140c 30140000 		.4byte	0x1430
 3922 1410 1F       		.uleb128 0x1f
 3923 1411 993D0000 		.4byte	.LASF566
 3924 1415 01       		.byte	0x1
 3925 1416 8002     		.2byte	0x280
 3926 1418 54050000 		.4byte	0x554
 3927 141c 02       		.uleb128 0x2
 3928 141d 91       		.byte	0x91
 3929 141e 64       		.sleb128 -28
 3930 141f 20       		.uleb128 0x20
 3931 1420 54000000 		.4byte	.LVL35
 3932 1424 7D180000 		.4byte	0x187d
 3933 1428 21       		.uleb128 0x21
 3934 1429 01       		.uleb128 0x1
 3935 142a 51       		.byte	0x51
 3936 142b 02       		.uleb128 0x2
 3937 142c 91       		.byte	0x91
ARM GAS  C:\Users\310309~1\AppData\Local\Temp\cckEzWOW.s 			page 90


 3938 142d 64       		.sleb128 -28
 3939 142e 00       		.byte	0
 3940 142f 00       		.byte	0
 3941 1430 23       		.uleb128 0x23
 3942 1431 3A000000 		.4byte	.LVL34
 3943 1435 88180000 		.4byte	0x1888
 3944 1439 00       		.byte	0
 3945 143a 1B       		.uleb128 0x1b
 3946 143b 06190000 		.4byte	.LASF567
 3947 143f 01       		.byte	0x1
 3948 1440 BB02     		.2byte	0x2bb
 3949 1442 66030000 		.4byte	0x366
 3950 1446 00000000 		.4byte	.LFB8
 3951 144a 88000000 		.4byte	.LFE8-.LFB8
 3952 144e 01       		.uleb128 0x1
 3953 144f 9C       		.byte	0x9c
 3954 1450 DA140000 		.4byte	0x14da
 3955 1454 1A       		.uleb128 0x1a
 3956 1455 65340000 		.4byte	.LASF177
 3957 1459 01       		.byte	0x1
 3958 145a BB02     		.2byte	0x2bb
 3959 145c AB040000 		.4byte	0x4ab
 3960 1460 02       		.uleb128 0x2
 3961 1461 91       		.byte	0x91
 3962 1462 5C       		.sleb128 -36
 3963 1463 1C       		.uleb128 0x1c
 3964 1464 7F010000 		.4byte	.LASF256
 3965 1468 01       		.byte	0x1
 3966 1469 BC02     		.2byte	0x2bc
 3967 146b 78080000 		.4byte	0x878
 3968 146f A9030000 		.4byte	.LLST17
 3969 1473 1C       		.uleb128 0x1c
 3970 1474 26040000 		.4byte	.LASF557
 3971 1478 01       		.byte	0x1
 3972 1479 BC02     		.2byte	0x2bc
 3973 147b 6B000000 		.4byte	0x6b
 3974 147f E3030000 		.4byte	.LLST18
 3975 1483 1C       		.uleb128 0x1c
 3976 1484 091B0000 		.4byte	.LASF558
 3977 1488 01       		.byte	0x1
 3978 1489 BC02     		.2byte	0x2bc
 3979 148b 72030000 		.4byte	0x372
 3980 148f 1D040000 		.4byte	.LLST19
 3981 1493 1D       		.uleb128 0x1d
 3982 1494 0D360000 		.4byte	.LASF559
 3983 1498 01       		.byte	0x1
 3984 1499 BE02     		.2byte	0x2be
 3985 149b 66030000 		.4byte	0x366
 3986 149f 49040000 		.4byte	.LLST20
 3987 14a3 22       		.uleb128 0x22
 3988 14a4 3E000000 		.4byte	.LBB6
 3989 14a8 24000000 		.4byte	.LBE6-.LBB6
 3990 14ac D0140000 		.4byte	0x14d0
 3991 14b0 1F       		.uleb128 0x1f
 3992 14b1 9F250000 		.4byte	.LASF568
 3993 14b5 01       		.byte	0x1
 3994 14b6 D302     		.2byte	0x2d3
ARM GAS  C:\Users\310309~1\AppData\Local\Temp\cckEzWOW.s 			page 91


 3995 14b8 5F050000 		.4byte	0x55f
 3996 14bc 02       		.uleb128 0x2
 3997 14bd 91       		.byte	0x91
 3998 14be 64       		.sleb128 -28
 3999 14bf 20       		.uleb128 0x20
 4000 14c0 54000000 		.4byte	.LVL45
 4001 14c4 94180000 		.4byte	0x1894
 4002 14c8 21       		.uleb128 0x21
 4003 14c9 01       		.uleb128 0x1
 4004 14ca 51       		.byte	0x51
 4005 14cb 02       		.uleb128 0x2
 4006 14cc 91       		.byte	0x91
 4007 14cd 64       		.sleb128 -28
 4008 14ce 00       		.byte	0
 4009 14cf 00       		.byte	0
 4010 14d0 23       		.uleb128 0x23
 4011 14d1 3A000000 		.4byte	.LVL44
 4012 14d5 88180000 		.4byte	0x1888
 4013 14d9 00       		.byte	0
 4014 14da 19       		.uleb128 0x19
 4015 14db C90C0000 		.4byte	.LASF570
 4016 14df 01       		.byte	0x1
 4017 14e0 F102     		.2byte	0x2f1
 4018 14e2 00000000 		.4byte	.LFB9
 4019 14e6 54000000 		.4byte	.LFE9-.LFB9
 4020 14ea 01       		.uleb128 0x1
 4021 14eb 9C       		.byte	0x9c
 4022 14ec 50150000 		.4byte	0x1550
 4023 14f0 1C       		.uleb128 0x1c
 4024 14f1 9C030000 		.4byte	.LASF571
 4025 14f5 01       		.byte	0x1
 4026 14f6 F102     		.2byte	0x2f1
 4027 14f8 50150000 		.4byte	0x1550
 4028 14fc 67040000 		.4byte	.LLST21
 4029 1500 1E       		.uleb128 0x1e
 4030 1501 12000000 		.4byte	.LBB7
 4031 1505 32000000 		.4byte	.LBE7-.LBB7
 4032 1509 1F       		.uleb128 0x1f
 4033 150a 14300000 		.4byte	.LASF572
 4034 150e 01       		.byte	0x1
 4035 150f F602     		.2byte	0x2f6
 4036 1511 58090000 		.4byte	0x958
 4037 1515 02       		.uleb128 0x2
 4038 1516 91       		.byte	0x91
 4039 1517 5C       		.sleb128 -36
 4040 1518 24       		.uleb128 0x24
 4041 1519 2E000000 		.4byte	.LVL53
 4042 151d A0180000 		.4byte	0x18a0
 4043 1521 38150000 		.4byte	0x1538
 4044 1525 21       		.uleb128 0x21
 4045 1526 01       		.uleb128 0x1
 4046 1527 50       		.byte	0x50
 4047 1528 02       		.uleb128 0x2
 4048 1529 75       		.byte	0x75
 4049 152a 00       		.sleb128 0
 4050 152b 21       		.uleb128 0x21
 4051 152c 01       		.uleb128 0x1
ARM GAS  C:\Users\310309~1\AppData\Local\Temp\cckEzWOW.s 			page 92


 4052 152d 51       		.byte	0x51
 4053 152e 03       		.uleb128 0x3
 4054 152f F3       		.byte	0xf3
 4055 1530 01       		.uleb128 0x1
 4056 1531 50       		.byte	0x50
 4057 1532 21       		.uleb128 0x21
 4058 1533 01       		.uleb128 0x1
 4059 1534 52       		.byte	0x52
 4060 1535 01       		.uleb128 0x1
 4061 1536 32       		.byte	0x32
 4062 1537 00       		.byte	0
 4063 1538 25       		.uleb128 0x25
 4064 1539 44000000 		.4byte	.LVL54
 4065 153d 02       		.uleb128 0x2
 4066 153e 74       		.byte	0x74
 4067 153f 00       		.sleb128 0
 4068 1540 21       		.uleb128 0x21
 4069 1541 01       		.uleb128 0x1
 4070 1542 50       		.byte	0x50
 4071 1543 03       		.uleb128 0x3
 4072 1544 0A       		.byte	0xa
 4073 1545 0402     		.2byte	0x204
 4074 1547 21       		.uleb128 0x21
 4075 1548 01       		.uleb128 0x1
 4076 1549 51       		.byte	0x51
 4077 154a 02       		.uleb128 0x2
 4078 154b 75       		.byte	0x75
 4079 154c 00       		.sleb128 0
 4080 154d 00       		.byte	0
 4081 154e 00       		.byte	0
 4082 154f 00       		.byte	0
 4083 1550 07       		.uleb128 0x7
 4084 1551 04       		.byte	0x4
 4085 1552 56150000 		.4byte	0x1556
 4086 1556 26       		.uleb128 0x26
 4087 1557 AB040000 		.4byte	0x4ab
 4088 155b 19       		.uleb128 0x19
 4089 155c B52A0000 		.4byte	.LASF573
 4090 1560 01       		.byte	0x1
 4091 1561 0F03     		.2byte	0x30f
 4092 1563 00000000 		.4byte	.LFB10
 4093 1567 78000000 		.4byte	.LFE10-.LFB10
 4094 156b 01       		.uleb128 0x1
 4095 156c 9C       		.byte	0x9c
 4096 156d AE150000 		.4byte	0x15ae
 4097 1571 1C       		.uleb128 0x1c
 4098 1572 9C030000 		.4byte	.LASF571
 4099 1576 01       		.byte	0x1
 4100 1577 0F03     		.2byte	0x30f
 4101 1579 AE150000 		.4byte	0x15ae
 4102 157d 93040000 		.4byte	.LLST22
 4103 1581 1E       		.uleb128 0x1e
 4104 1582 0E000000 		.4byte	.LBB8
 4105 1586 56000000 		.4byte	.LBE8-.LBB8
 4106 158a 1F       		.uleb128 0x1f
 4107 158b CD100000 		.4byte	.LASF574
 4108 158f 01       		.byte	0x1
ARM GAS  C:\Users\310309~1\AppData\Local\Temp\cckEzWOW.s 			page 93


 4109 1590 1303     		.2byte	0x313
 4110 1592 58090000 		.4byte	0x958
 4111 1596 02       		.uleb128 0x2
 4112 1597 91       		.byte	0x91
 4113 1598 64       		.sleb128 -28
 4114 1599 27       		.uleb128 0x27
 4115 159a 42000000 		.4byte	.LVL57
 4116 159e 21       		.uleb128 0x21
 4117 159f 01       		.uleb128 0x1
 4118 15a0 50       		.byte	0x50
 4119 15a1 03       		.uleb128 0x3
 4120 15a2 0A       		.byte	0xa
 4121 15a3 0702     		.2byte	0x207
 4122 15a5 21       		.uleb128 0x21
 4123 15a6 01       		.uleb128 0x1
 4124 15a7 51       		.byte	0x51
 4125 15a8 02       		.uleb128 0x2
 4126 15a9 76       		.byte	0x76
 4127 15aa 00       		.sleb128 0
 4128 15ab 00       		.byte	0
 4129 15ac 00       		.byte	0
 4130 15ad 00       		.byte	0
 4131 15ae 07       		.uleb128 0x7
 4132 15af 04       		.byte	0x4
 4133 15b0 69060000 		.4byte	0x669
 4134 15b4 1B       		.uleb128 0x1b
 4135 15b5 01110000 		.4byte	.LASF575
 4136 15b9 01       		.byte	0x1
 4137 15ba 4303     		.2byte	0x343
 4138 15bc 6F040000 		.4byte	0x46f
 4139 15c0 00000000 		.4byte	.LFB11
 4140 15c4 C0010000 		.4byte	.LFE11-.LFB11
 4141 15c8 01       		.uleb128 0x1
 4142 15c9 9C       		.byte	0x9c
 4143 15ca C4160000 		.4byte	0x16c4
 4144 15ce 1C       		.uleb128 0x1c
 4145 15cf 9C030000 		.4byte	.LASF571
 4146 15d3 01       		.byte	0x1
 4147 15d4 4303     		.2byte	0x343
 4148 15d6 C4160000 		.4byte	0x16c4
 4149 15da BF040000 		.4byte	.LLST23
 4150 15de 1D       		.uleb128 0x1d
 4151 15df 84400000 		.4byte	.LASF576
 4152 15e3 01       		.byte	0x1
 4153 15e4 4503     		.2byte	0x345
 4154 15e6 6F040000 		.4byte	0x46f
 4155 15ea 01050000 		.4byte	.LLST24
 4156 15ee 1E       		.uleb128 0x1e
 4157 15ef 10000000 		.4byte	.LBB9
 4158 15f3 72010000 		.4byte	.LBE9-.LBB9
 4159 15f7 1F       		.uleb128 0x1f
 4160 15f8 CD100000 		.4byte	.LASF574
 4161 15fc 01       		.byte	0x1
 4162 15fd 4903     		.2byte	0x349
 4163 15ff 58090000 		.4byte	0x958
 4164 1603 02       		.uleb128 0x2
 4165 1604 91       		.byte	0x91
ARM GAS  C:\Users\310309~1\AppData\Local\Temp\cckEzWOW.s 			page 94


 4166 1605 64       		.sleb128 -28
 4167 1606 22       		.uleb128 0x22
 4168 1607 38000000 		.4byte	.LBB10
 4169 160b 3C000000 		.4byte	.LBE10-.LBB10
 4170 160f 42160000 		.4byte	0x1642
 4171 1613 1D       		.uleb128 0x1d
 4172 1614 363F0000 		.4byte	.LASF577
 4173 1618 01       		.byte	0x1
 4174 1619 5603     		.2byte	0x356
 4175 161b 83000000 		.4byte	0x83
 4176 161f BC050000 		.4byte	.LLST25
 4177 1623 23       		.uleb128 0x23
 4178 1624 4A000000 		.4byte	.LVL65
 4179 1628 88180000 		.4byte	0x1888
 4180 162c 23       		.uleb128 0x23
 4181 162d 5E000000 		.4byte	.LVL68
 4182 1631 88180000 		.4byte	0x1888
 4183 1635 27       		.uleb128 0x27
 4184 1636 74000000 		.4byte	.LVL70
 4185 163a 21       		.uleb128 0x21
 4186 163b 01       		.uleb128 0x1
 4187 163c 51       		.byte	0x51
 4188 163d 02       		.uleb128 0x2
 4189 163e 91       		.byte	0x91
 4190 163f 64       		.sleb128 -28
 4191 1640 00       		.byte	0
 4192 1641 00       		.byte	0
 4193 1642 24       		.uleb128 0x24
 4194 1643 34000000 		.4byte	.LVL62
 4195 1647 65180000 		.4byte	0x1865
 4196 164b 67160000 		.4byte	0x1667
 4197 164f 21       		.uleb128 0x21
 4198 1650 01       		.uleb128 0x1
 4199 1651 50       		.byte	0x50
 4200 1652 02       		.uleb128 0x2
 4201 1653 74       		.byte	0x74
 4202 1654 04       		.sleb128 4
 4203 1655 21       		.uleb128 0x21
 4204 1656 01       		.uleb128 0x1
 4205 1657 51       		.byte	0x51
 4206 1658 01       		.uleb128 0x1
 4207 1659 30       		.byte	0x30
 4208 165a 21       		.uleb128 0x21
 4209 165b 01       		.uleb128 0x1
 4210 165c 52       		.byte	0x52
 4211 165d 02       		.uleb128 0x2
 4212 165e 74       		.byte	0x74
 4213 165f 00       		.sleb128 0
 4214 1660 21       		.uleb128 0x21
 4215 1661 01       		.uleb128 0x1
 4216 1662 53       		.byte	0x53
 4217 1663 02       		.uleb128 0x2
 4218 1664 08       		.byte	0x8
 4219 1665 40       		.byte	0x40
 4220 1666 00       		.byte	0
 4221 1667 24       		.uleb128 0x24
 4222 1668 AE000000 		.4byte	.LVL72
ARM GAS  C:\Users\310309~1\AppData\Local\Temp\cckEzWOW.s 			page 95


 4223 166c A9180000 		.4byte	0x18a9
 4224 1670 81160000 		.4byte	0x1681
 4225 1674 21       		.uleb128 0x21
 4226 1675 01       		.uleb128 0x1
 4227 1676 51       		.byte	0x51
 4228 1677 02       		.uleb128 0x2
 4229 1678 74       		.byte	0x74
 4230 1679 00       		.sleb128 0
 4231 167a 21       		.uleb128 0x21
 4232 167b 01       		.uleb128 0x1
 4233 167c 52       		.byte	0x52
 4234 167d 02       		.uleb128 0x2
 4235 167e 08       		.byte	0x8
 4236 167f 42       		.byte	0x42
 4237 1680 00       		.byte	0
 4238 1681 23       		.uleb128 0x23
 4239 1682 CE000000 		.4byte	.LVL75
 4240 1686 88180000 		.4byte	0x1888
 4241 168a 28       		.uleb128 0x28
 4242 168b 16010000 		.4byte	.LVL80
 4243 168f A1160000 		.4byte	0x16a1
 4244 1693 21       		.uleb128 0x21
 4245 1694 01       		.uleb128 0x1
 4246 1695 50       		.byte	0x50
 4247 1696 03       		.uleb128 0x3
 4248 1697 0A       		.byte	0xa
 4249 1698 0802     		.2byte	0x208
 4250 169a 21       		.uleb128 0x21
 4251 169b 01       		.uleb128 0x1
 4252 169c 51       		.byte	0x51
 4253 169d 02       		.uleb128 0x2
 4254 169e 75       		.byte	0x75
 4255 169f 00       		.sleb128 0
 4256 16a0 00       		.byte	0
 4257 16a1 20       		.uleb128 0x20
 4258 16a2 28010000 		.4byte	.LVL81
 4259 16a6 65180000 		.4byte	0x1865
 4260 16aa 21       		.uleb128 0x21
 4261 16ab 01       		.uleb128 0x1
 4262 16ac 50       		.byte	0x50
 4263 16ad 02       		.uleb128 0x2
 4264 16ae 74       		.byte	0x74
 4265 16af 04       		.sleb128 4
 4266 16b0 21       		.uleb128 0x21
 4267 16b1 01       		.uleb128 0x1
 4268 16b2 51       		.byte	0x51
 4269 16b3 01       		.uleb128 0x1
 4270 16b4 30       		.byte	0x30
 4271 16b5 21       		.uleb128 0x21
 4272 16b6 01       		.uleb128 0x1
 4273 16b7 52       		.byte	0x52
 4274 16b8 02       		.uleb128 0x2
 4275 16b9 74       		.byte	0x74
 4276 16ba 00       		.sleb128 0
 4277 16bb 21       		.uleb128 0x21
 4278 16bc 01       		.uleb128 0x1
 4279 16bd 53       		.byte	0x53
ARM GAS  C:\Users\310309~1\AppData\Local\Temp\cckEzWOW.s 			page 96


 4280 16be 02       		.uleb128 0x2
 4281 16bf 08       		.byte	0x8
 4282 16c0 40       		.byte	0x40
 4283 16c1 00       		.byte	0
 4284 16c2 00       		.byte	0
 4285 16c3 00       		.byte	0
 4286 16c4 07       		.uleb128 0x7
 4287 16c5 04       		.byte	0x4
 4288 16c6 31060000 		.4byte	0x631
 4289 16ca 19       		.uleb128 0x19
 4290 16cb 17020000 		.4byte	.LASF578
 4291 16cf 01       		.byte	0x1
 4292 16d0 D903     		.2byte	0x3d9
 4293 16d2 00000000 		.4byte	.LFB12
 4294 16d6 7C000000 		.4byte	.LFE12-.LFB12
 4295 16da 01       		.uleb128 0x1
 4296 16db 9C       		.byte	0x9c
 4297 16dc 20170000 		.4byte	0x1720
 4298 16e0 1C       		.uleb128 0x1c
 4299 16e1 9C030000 		.4byte	.LASF571
 4300 16e5 01       		.byte	0x1
 4301 16e6 D903     		.2byte	0x3d9
 4302 16e8 20170000 		.4byte	0x1720
 4303 16ec CF050000 		.4byte	.LLST26
 4304 16f0 1D       		.uleb128 0x1d
 4305 16f1 14300000 		.4byte	.LASF572
 4306 16f5 01       		.byte	0x1
 4307 16f6 DB03     		.2byte	0x3db
 4308 16f8 78080000 		.4byte	0x878
 4309 16fc FB050000 		.4byte	.LLST27
 4310 1700 1F       		.uleb128 0x1f
 4311 1701 BB3D0000 		.4byte	.LASF579
 4312 1705 01       		.byte	0x1
 4313 1706 DC03     		.2byte	0x3dc
 4314 1708 77000000 		.4byte	0x77
 4315 170c 02       		.uleb128 0x2
 4316 170d 91       		.byte	0x91
 4317 170e 76       		.sleb128 -10
 4318 170f 20       		.uleb128 0x20
 4319 1710 12000000 		.4byte	.LVL95
 4320 1714 B5180000 		.4byte	0x18b5
 4321 1718 21       		.uleb128 0x21
 4322 1719 01       		.uleb128 0x1
 4323 171a 50       		.byte	0x50
 4324 171b 02       		.uleb128 0x2
 4325 171c 7D       		.byte	0x7d
 4326 171d 06       		.sleb128 6
 4327 171e 00       		.byte	0
 4328 171f 00       		.byte	0
 4329 1720 07       		.uleb128 0x7
 4330 1721 04       		.byte	0x4
 4331 1722 A9050000 		.4byte	0x5a9
 4332 1726 19       		.uleb128 0x19
 4333 1727 3B3E0000 		.4byte	.LASF580
 4334 172b 01       		.byte	0x1
 4335 172c 0204     		.2byte	0x402
 4336 172e 00000000 		.4byte	.LFB13
ARM GAS  C:\Users\310309~1\AppData\Local\Temp\cckEzWOW.s 			page 97


 4337 1732 38010000 		.4byte	.LFE13-.LFB13
 4338 1736 01       		.uleb128 0x1
 4339 1737 9C       		.byte	0x9c
 4340 1738 9F170000 		.4byte	0x179f
 4341 173c 1C       		.uleb128 0x1c
 4342 173d 9C030000 		.4byte	.LASF571
 4343 1741 01       		.byte	0x1
 4344 1742 0204     		.2byte	0x402
 4345 1744 9F170000 		.4byte	0x179f
 4346 1748 30060000 		.4byte	.LLST28
 4347 174c 1D       		.uleb128 0x1d
 4348 174d 43440000 		.4byte	.LASF581
 4349 1751 01       		.byte	0x1
 4350 1752 0404     		.2byte	0x404
 4351 1754 6B000000 		.4byte	0x6b
 4352 1758 5C060000 		.4byte	.LLST29
 4353 175c 1F       		.uleb128 0x1f
 4354 175d CD100000 		.4byte	.LASF574
 4355 1761 01       		.byte	0x1
 4356 1762 0504     		.2byte	0x405
 4357 1764 A5170000 		.4byte	0x17a5
 4358 1768 02       		.uleb128 0x2
 4359 1769 91       		.byte	0x91
 4360 176a 44       		.sleb128 -60
 4361 176b 1F       		.uleb128 0x1f
 4362 176c E7140000 		.4byte	.LASF582
 4363 1770 01       		.byte	0x1
 4364 1771 0604     		.2byte	0x406
 4365 1773 B5170000 		.4byte	0x17b5
 4366 1777 03       		.uleb128 0x3
 4367 1778 91       		.byte	0x91
 4368 1779 AC7F     		.sleb128 -84
 4369 177b 1D       		.uleb128 0x1d
 4370 177c 14300000 		.4byte	.LASF572
 4371 1780 01       		.byte	0x1
 4372 1781 0704     		.2byte	0x407
 4373 1783 78080000 		.4byte	0x878
 4374 1787 7A060000 		.4byte	.LLST30
 4375 178b 27       		.uleb128 0x27
 4376 178c E8000000 		.4byte	.LVL117
 4377 1790 21       		.uleb128 0x21
 4378 1791 01       		.uleb128 0x1
 4379 1792 50       		.byte	0x50
 4380 1793 03       		.uleb128 0x3
 4381 1794 0A       		.byte	0xa
 4382 1795 0802     		.2byte	0x208
 4383 1797 21       		.uleb128 0x21
 4384 1798 01       		.uleb128 0x1
 4385 1799 51       		.byte	0x51
 4386 179a 02       		.uleb128 0x2
 4387 179b 78       		.byte	0x78
 4388 179c 00       		.sleb128 0
 4389 179d 00       		.byte	0
 4390 179e 00       		.byte	0
 4391 179f 07       		.uleb128 0x7
 4392 17a0 04       		.byte	0x4
 4393 17a1 05060000 		.4byte	0x605
ARM GAS  C:\Users\310309~1\AppData\Local\Temp\cckEzWOW.s 			page 98


 4394 17a5 16       		.uleb128 0x16
 4395 17a6 58090000 		.4byte	0x958
 4396 17aa B5170000 		.4byte	0x17b5
 4397 17ae 17       		.uleb128 0x17
 4398 17af B0000000 		.4byte	0xb0
 4399 17b3 02       		.byte	0x2
 4400 17b4 00       		.byte	0
 4401 17b5 16       		.uleb128 0x16
 4402 17b6 E8040000 		.4byte	0x4e8
 4403 17ba C5170000 		.4byte	0x17c5
 4404 17be 17       		.uleb128 0x17
 4405 17bf B0000000 		.4byte	0xb0
 4406 17c3 02       		.byte	0x2
 4407 17c4 00       		.byte	0
 4408 17c5 29       		.uleb128 0x29
 4409 17c6 050E0000 		.4byte	.LASF583
 4410 17ca 01       		.byte	0x1
 4411 17cb 14       		.byte	0x14
 4412 17cc 50070000 		.4byte	0x750
 4413 17d0 05       		.uleb128 0x5
 4414 17d1 03       		.byte	0x3
 4415 17d2 04000000 		.4byte	CyBle_UdsApplCallback
 4416 17d6 1F       		.uleb128 0x1f
 4417 17d7 B43B0000 		.4byte	.LASF584
 4418 17db 01       		.byte	0x1
 4419 17dc 5701     		.2byte	0x157
 4420 17de 7B040000 		.4byte	0x47b
 4421 17e2 05       		.uleb128 0x5
 4422 17e3 03       		.byte	0x3
 4423 17e4 00000000 		.4byte	cyBle_udssReqHandle
 4424 17e8 2A       		.uleb128 0x2a
 4425 17e9 5F3D0000 		.4byte	.LASF585
 4426 17ed 07       		.byte	0x7
 4427 17ee A502     		.2byte	0x2a5
 4428 17f0 A4000000 		.4byte	0xa4
 4429 17f4 2A       		.uleb128 0x2a
 4430 17f5 0A350000 		.4byte	.LASF586
 4431 17f9 07       		.byte	0x7
 4432 17fa C402     		.2byte	0x2c4
 4433 17fc 6B000000 		.4byte	0x6b
 4434 1800 2A       		.uleb128 0x2a
 4435 1801 00000000 		.4byte	.LASF587
 4436 1805 07       		.byte	0x7
 4437 1806 CA02     		.2byte	0x2ca
 4438 1808 6B000000 		.4byte	0x6b
 4439 180c 16       		.uleb128 0x16
 4440 180d 1C180000 		.4byte	0x181c
 4441 1811 1C180000 		.4byte	0x181c
 4442 1815 17       		.uleb128 0x17
 4443 1816 B0000000 		.4byte	0xb0
 4444 181a 8F       		.byte	0x8f
 4445 181b 00       		.byte	0
 4446 181c 26       		.uleb128 0x26
 4447 181d 44070000 		.4byte	0x744
 4448 1821 2B       		.uleb128 0x2b
 4449 1822 14270000 		.4byte	.LASF588
 4450 1826 0B       		.byte	0xb
ARM GAS  C:\Users\310309~1\AppData\Local\Temp\cckEzWOW.s 			page 99


 4451 1827 EC       		.byte	0xec
 4452 1828 2C180000 		.4byte	0x182c
 4453 182c 26       		.uleb128 0x26
 4454 182d 0C180000 		.4byte	0x180c
 4455 1831 2C       		.uleb128 0x2c
 4456 1832 EF210000 		.4byte	.LASF589
 4457 1836 01       		.byte	0x1
 4458 1837 18       		.byte	0x18
 4459 1838 42180000 		.4byte	0x1842
 4460 183c 05       		.uleb128 0x5
 4461 183d 03       		.byte	0x3
 4462 183e 00000000 		.4byte	cyBle_udss
 4463 1842 26       		.uleb128 0x26
 4464 1843 14090000 		.4byte	0x914
 4465 1847 2D       		.uleb128 0x2d
 4466 1848 A3120000 		.4byte	.LASF590
 4467 184c 01       		.byte	0x1
 4468 184d 5501     		.2byte	0x155
 4469 184f 6B000000 		.4byte	0x6b
 4470 1853 05       		.uleb128 0x5
 4471 1854 03       		.byte	0x3
 4472 1855 00000000 		.4byte	cyBle_udsFlag
 4473 1859 2A       		.uleb128 0x2a
 4474 185a 17360000 		.4byte	.LASF591
 4475 185e 0A       		.byte	0xa
 4476 185f A90A     		.2byte	0xaa9
 4477 1861 98110000 		.4byte	0x1198
 4478 1865 2E       		.uleb128 0x2e
 4479 1866 14130000 		.4byte	.LASF592
 4480 186a 14130000 		.4byte	.LASF592
 4481 186e 06       		.byte	0x6
 4482 186f 7E01     		.2byte	0x17e
 4483 1871 2E       		.uleb128 0x2e
 4484 1872 60170000 		.4byte	.LASF593
 4485 1876 60170000 		.4byte	.LASF593
 4486 187a 06       		.byte	0x6
 4487 187b AF01     		.2byte	0x1af
 4488 187d 2F       		.uleb128 0x2f
 4489 187e 5C420000 		.4byte	.LASF594
 4490 1882 5C420000 		.4byte	.LASF594
 4491 1886 05       		.byte	0x5
 4492 1887 F2       		.byte	0xf2
 4493 1888 2E       		.uleb128 0x2e
 4494 1889 D42E0000 		.4byte	.LASF595
 4495 188d D42E0000 		.4byte	.LASF595
 4496 1891 07       		.byte	0x7
 4497 1892 6402     		.2byte	0x264
 4498 1894 2E       		.uleb128 0x2e
 4499 1895 F2230000 		.4byte	.LASF596
 4500 1899 F2230000 		.4byte	.LASF596
 4501 189d 05       		.byte	0x5
 4502 189e 1A01     		.2byte	0x11a
 4503 18a0 30       		.uleb128 0x30
 4504 18a1 0D250000 		.4byte	.LASF603
 4505 18a5 0D250000 		.4byte	.LASF603
 4506 18a9 2E       		.uleb128 0x2e
 4507 18aa 83250000 		.4byte	.LASF597
ARM GAS  C:\Users\310309~1\AppData\Local\Temp\cckEzWOW.s 			page 100


 4508 18ae 83250000 		.4byte	.LASF597
 4509 18b2 06       		.byte	0x6
 4510 18b3 1402     		.2byte	0x214
 4511 18b5 2E       		.uleb128 0x2e
 4512 18b6 2D1F0000 		.4byte	.LASF598
 4513 18ba 2D1F0000 		.4byte	.LASF598
 4514 18be 04       		.byte	0x4
 4515 18bf 2F02     		.2byte	0x22f
 4516 18c1 00       		.byte	0
 4517              		.section	.debug_abbrev,"",%progbits
 4518              	.Ldebug_abbrev0:
 4519 0000 01       		.uleb128 0x1
 4520 0001 11       		.uleb128 0x11
 4521 0002 01       		.byte	0x1
 4522 0003 25       		.uleb128 0x25
 4523 0004 0E       		.uleb128 0xe
 4524 0005 13       		.uleb128 0x13
 4525 0006 0B       		.uleb128 0xb
 4526 0007 03       		.uleb128 0x3
 4527 0008 0E       		.uleb128 0xe
 4528 0009 1B       		.uleb128 0x1b
 4529 000a 0E       		.uleb128 0xe
 4530 000b 55       		.uleb128 0x55
 4531 000c 17       		.uleb128 0x17
 4532 000d 11       		.uleb128 0x11
 4533 000e 01       		.uleb128 0x1
 4534 000f 10       		.uleb128 0x10
 4535 0010 17       		.uleb128 0x17
 4536 0011 00       		.byte	0
 4537 0012 00       		.byte	0
 4538 0013 02       		.uleb128 0x2
 4539 0014 24       		.uleb128 0x24
 4540 0015 00       		.byte	0
 4541 0016 0B       		.uleb128 0xb
 4542 0017 0B       		.uleb128 0xb
 4543 0018 3E       		.uleb128 0x3e
 4544 0019 0B       		.uleb128 0xb
 4545 001a 03       		.uleb128 0x3
 4546 001b 0E       		.uleb128 0xe
 4547 001c 00       		.byte	0
 4548 001d 00       		.byte	0
 4549 001e 03       		.uleb128 0x3
 4550 001f 24       		.uleb128 0x24
 4551 0020 00       		.byte	0
 4552 0021 0B       		.uleb128 0xb
 4553 0022 0B       		.uleb128 0xb
 4554 0023 3E       		.uleb128 0x3e
 4555 0024 0B       		.uleb128 0xb
 4556 0025 03       		.uleb128 0x3
 4557 0026 08       		.uleb128 0x8
 4558 0027 00       		.byte	0
 4559 0028 00       		.byte	0
 4560 0029 04       		.uleb128 0x4
 4561 002a 16       		.uleb128 0x16
 4562 002b 00       		.byte	0
 4563 002c 03       		.uleb128 0x3
 4564 002d 0E       		.uleb128 0xe
ARM GAS  C:\Users\310309~1\AppData\Local\Temp\cckEzWOW.s 			page 101


 4565 002e 3A       		.uleb128 0x3a
 4566 002f 0B       		.uleb128 0xb
 4567 0030 3B       		.uleb128 0x3b
 4568 0031 05       		.uleb128 0x5
 4569 0032 49       		.uleb128 0x49
 4570 0033 13       		.uleb128 0x13
 4571 0034 00       		.byte	0
 4572 0035 00       		.byte	0
 4573 0036 05       		.uleb128 0x5
 4574 0037 35       		.uleb128 0x35
 4575 0038 00       		.byte	0
 4576 0039 49       		.uleb128 0x49
 4577 003a 13       		.uleb128 0x13
 4578 003b 00       		.byte	0
 4579 003c 00       		.byte	0
 4580 003d 06       		.uleb128 0x6
 4581 003e 0F       		.uleb128 0xf
 4582 003f 00       		.byte	0
 4583 0040 0B       		.uleb128 0xb
 4584 0041 0B       		.uleb128 0xb
 4585 0042 00       		.byte	0
 4586 0043 00       		.byte	0
 4587 0044 07       		.uleb128 0x7
 4588 0045 0F       		.uleb128 0xf
 4589 0046 00       		.byte	0
 4590 0047 0B       		.uleb128 0xb
 4591 0048 0B       		.uleb128 0xb
 4592 0049 49       		.uleb128 0x49
 4593 004a 13       		.uleb128 0x13
 4594 004b 00       		.byte	0
 4595 004c 00       		.byte	0
 4596 004d 08       		.uleb128 0x8
 4597 004e 15       		.uleb128 0x15
 4598 004f 01       		.byte	0x1
 4599 0050 27       		.uleb128 0x27
 4600 0051 19       		.uleb128 0x19
 4601 0052 01       		.uleb128 0x1
 4602 0053 13       		.uleb128 0x13
 4603 0054 00       		.byte	0
 4604 0055 00       		.byte	0
 4605 0056 09       		.uleb128 0x9
 4606 0057 05       		.uleb128 0x5
 4607 0058 00       		.byte	0
 4608 0059 49       		.uleb128 0x49
 4609 005a 13       		.uleb128 0x13
 4610 005b 00       		.byte	0
 4611 005c 00       		.byte	0
 4612 005d 0A       		.uleb128 0xa
 4613 005e 04       		.uleb128 0x4
 4614 005f 01       		.byte	0x1
 4615 0060 0B       		.uleb128 0xb
 4616 0061 0B       		.uleb128 0xb
 4617 0062 49       		.uleb128 0x49
 4618 0063 13       		.uleb128 0x13
 4619 0064 3A       		.uleb128 0x3a
 4620 0065 0B       		.uleb128 0xb
 4621 0066 3B       		.uleb128 0x3b
ARM GAS  C:\Users\310309~1\AppData\Local\Temp\cckEzWOW.s 			page 102


 4622 0067 05       		.uleb128 0x5
 4623 0068 01       		.uleb128 0x1
 4624 0069 13       		.uleb128 0x13
 4625 006a 00       		.byte	0
 4626 006b 00       		.byte	0
 4627 006c 0B       		.uleb128 0xb
 4628 006d 28       		.uleb128 0x28
 4629 006e 00       		.byte	0
 4630 006f 03       		.uleb128 0x3
 4631 0070 0E       		.uleb128 0xe
 4632 0071 1C       		.uleb128 0x1c
 4633 0072 0B       		.uleb128 0xb
 4634 0073 00       		.byte	0
 4635 0074 00       		.byte	0
 4636 0075 0C       		.uleb128 0xc
 4637 0076 28       		.uleb128 0x28
 4638 0077 00       		.byte	0
 4639 0078 03       		.uleb128 0x3
 4640 0079 0E       		.uleb128 0xe
 4641 007a 1C       		.uleb128 0x1c
 4642 007b 05       		.uleb128 0x5
 4643 007c 00       		.byte	0
 4644 007d 00       		.byte	0
 4645 007e 0D       		.uleb128 0xd
 4646 007f 04       		.uleb128 0x4
 4647 0080 01       		.byte	0x1
 4648 0081 0B       		.uleb128 0xb
 4649 0082 0B       		.uleb128 0xb
 4650 0083 49       		.uleb128 0x49
 4651 0084 13       		.uleb128 0x13
 4652 0085 3A       		.uleb128 0x3a
 4653 0086 0B       		.uleb128 0xb
 4654 0087 3B       		.uleb128 0x3b
 4655 0088 0B       		.uleb128 0xb
 4656 0089 01       		.uleb128 0x1
 4657 008a 13       		.uleb128 0x13
 4658 008b 00       		.byte	0
 4659 008c 00       		.byte	0
 4660 008d 0E       		.uleb128 0xe
 4661 008e 13       		.uleb128 0x13
 4662 008f 01       		.byte	0x1
 4663 0090 0B       		.uleb128 0xb
 4664 0091 0B       		.uleb128 0xb
 4665 0092 3A       		.uleb128 0x3a
 4666 0093 0B       		.uleb128 0xb
 4667 0094 3B       		.uleb128 0x3b
 4668 0095 05       		.uleb128 0x5
 4669 0096 01       		.uleb128 0x1
 4670 0097 13       		.uleb128 0x13
 4671 0098 00       		.byte	0
 4672 0099 00       		.byte	0
 4673 009a 0F       		.uleb128 0xf
 4674 009b 0D       		.uleb128 0xd
 4675 009c 00       		.byte	0
 4676 009d 03       		.uleb128 0x3
 4677 009e 0E       		.uleb128 0xe
 4678 009f 3A       		.uleb128 0x3a
ARM GAS  C:\Users\310309~1\AppData\Local\Temp\cckEzWOW.s 			page 103


 4679 00a0 0B       		.uleb128 0xb
 4680 00a1 3B       		.uleb128 0x3b
 4681 00a2 05       		.uleb128 0x5
 4682 00a3 49       		.uleb128 0x49
 4683 00a4 13       		.uleb128 0x13
 4684 00a5 38       		.uleb128 0x38
 4685 00a6 0B       		.uleb128 0xb
 4686 00a7 00       		.byte	0
 4687 00a8 00       		.byte	0
 4688 00a9 10       		.uleb128 0x10
 4689 00aa 0D       		.uleb128 0xd
 4690 00ab 00       		.byte	0
 4691 00ac 03       		.uleb128 0x3
 4692 00ad 08       		.uleb128 0x8
 4693 00ae 3A       		.uleb128 0x3a
 4694 00af 0B       		.uleb128 0xb
 4695 00b0 3B       		.uleb128 0x3b
 4696 00b1 05       		.uleb128 0x5
 4697 00b2 49       		.uleb128 0x49
 4698 00b3 13       		.uleb128 0x13
 4699 00b4 38       		.uleb128 0x38
 4700 00b5 0B       		.uleb128 0xb
 4701 00b6 00       		.byte	0
 4702 00b7 00       		.byte	0
 4703 00b8 11       		.uleb128 0x11
 4704 00b9 16       		.uleb128 0x16
 4705 00ba 00       		.byte	0
 4706 00bb 03       		.uleb128 0x3
 4707 00bc 0E       		.uleb128 0xe
 4708 00bd 3A       		.uleb128 0x3a
 4709 00be 0B       		.uleb128 0xb
 4710 00bf 3B       		.uleb128 0x3b
 4711 00c0 0B       		.uleb128 0xb
 4712 00c1 49       		.uleb128 0x49
 4713 00c2 13       		.uleb128 0x13
 4714 00c3 00       		.byte	0
 4715 00c4 00       		.byte	0
 4716 00c5 12       		.uleb128 0x12
 4717 00c6 13       		.uleb128 0x13
 4718 00c7 01       		.byte	0x1
 4719 00c8 0B       		.uleb128 0xb
 4720 00c9 0B       		.uleb128 0xb
 4721 00ca 3A       		.uleb128 0x3a
 4722 00cb 0B       		.uleb128 0xb
 4723 00cc 3B       		.uleb128 0x3b
 4724 00cd 0B       		.uleb128 0xb
 4725 00ce 01       		.uleb128 0x1
 4726 00cf 13       		.uleb128 0x13
 4727 00d0 00       		.byte	0
 4728 00d1 00       		.byte	0
 4729 00d2 13       		.uleb128 0x13
 4730 00d3 0D       		.uleb128 0xd
 4731 00d4 00       		.byte	0
 4732 00d5 03       		.uleb128 0x3
 4733 00d6 0E       		.uleb128 0xe
 4734 00d7 3A       		.uleb128 0x3a
 4735 00d8 0B       		.uleb128 0xb
ARM GAS  C:\Users\310309~1\AppData\Local\Temp\cckEzWOW.s 			page 104


 4736 00d9 3B       		.uleb128 0x3b
 4737 00da 0B       		.uleb128 0xb
 4738 00db 49       		.uleb128 0x49
 4739 00dc 13       		.uleb128 0x13
 4740 00dd 38       		.uleb128 0x38
 4741 00de 0B       		.uleb128 0xb
 4742 00df 00       		.byte	0
 4743 00e0 00       		.byte	0
 4744 00e1 14       		.uleb128 0x14
 4745 00e2 17       		.uleb128 0x17
 4746 00e3 01       		.byte	0x1
 4747 00e4 0B       		.uleb128 0xb
 4748 00e5 0B       		.uleb128 0xb
 4749 00e6 3A       		.uleb128 0x3a
 4750 00e7 0B       		.uleb128 0xb
 4751 00e8 3B       		.uleb128 0x3b
 4752 00e9 0B       		.uleb128 0xb
 4753 00ea 01       		.uleb128 0x1
 4754 00eb 13       		.uleb128 0x13
 4755 00ec 00       		.byte	0
 4756 00ed 00       		.byte	0
 4757 00ee 15       		.uleb128 0x15
 4758 00ef 0D       		.uleb128 0xd
 4759 00f0 00       		.byte	0
 4760 00f1 03       		.uleb128 0x3
 4761 00f2 0E       		.uleb128 0xe
 4762 00f3 3A       		.uleb128 0x3a
 4763 00f4 0B       		.uleb128 0xb
 4764 00f5 3B       		.uleb128 0x3b
 4765 00f6 0B       		.uleb128 0xb
 4766 00f7 49       		.uleb128 0x49
 4767 00f8 13       		.uleb128 0x13
 4768 00f9 00       		.byte	0
 4769 00fa 00       		.byte	0
 4770 00fb 16       		.uleb128 0x16
 4771 00fc 01       		.uleb128 0x1
 4772 00fd 01       		.byte	0x1
 4773 00fe 49       		.uleb128 0x49
 4774 00ff 13       		.uleb128 0x13
 4775 0100 01       		.uleb128 0x1
 4776 0101 13       		.uleb128 0x13
 4777 0102 00       		.byte	0
 4778 0103 00       		.byte	0
 4779 0104 17       		.uleb128 0x17
 4780 0105 21       		.uleb128 0x21
 4781 0106 00       		.byte	0
 4782 0107 49       		.uleb128 0x49
 4783 0108 13       		.uleb128 0x13
 4784 0109 2F       		.uleb128 0x2f
 4785 010a 0B       		.uleb128 0xb
 4786 010b 00       		.byte	0
 4787 010c 00       		.byte	0
 4788 010d 18       		.uleb128 0x18
 4789 010e 2E       		.uleb128 0x2e
 4790 010f 00       		.byte	0
 4791 0110 3F       		.uleb128 0x3f
 4792 0111 19       		.uleb128 0x19
ARM GAS  C:\Users\310309~1\AppData\Local\Temp\cckEzWOW.s 			page 105


 4793 0112 03       		.uleb128 0x3
 4794 0113 0E       		.uleb128 0xe
 4795 0114 3A       		.uleb128 0x3a
 4796 0115 0B       		.uleb128 0xb
 4797 0116 3B       		.uleb128 0x3b
 4798 0117 05       		.uleb128 0x5
 4799 0118 27       		.uleb128 0x27
 4800 0119 19       		.uleb128 0x19
 4801 011a 11       		.uleb128 0x11
 4802 011b 01       		.uleb128 0x1
 4803 011c 12       		.uleb128 0x12
 4804 011d 06       		.uleb128 0x6
 4805 011e 40       		.uleb128 0x40
 4806 011f 18       		.uleb128 0x18
 4807 0120 9742     		.uleb128 0x2117
 4808 0122 19       		.uleb128 0x19
 4809 0123 00       		.byte	0
 4810 0124 00       		.byte	0
 4811 0125 19       		.uleb128 0x19
 4812 0126 2E       		.uleb128 0x2e
 4813 0127 01       		.byte	0x1
 4814 0128 3F       		.uleb128 0x3f
 4815 0129 19       		.uleb128 0x19
 4816 012a 03       		.uleb128 0x3
 4817 012b 0E       		.uleb128 0xe
 4818 012c 3A       		.uleb128 0x3a
 4819 012d 0B       		.uleb128 0xb
 4820 012e 3B       		.uleb128 0x3b
 4821 012f 05       		.uleb128 0x5
 4822 0130 27       		.uleb128 0x27
 4823 0131 19       		.uleb128 0x19
 4824 0132 11       		.uleb128 0x11
 4825 0133 01       		.uleb128 0x1
 4826 0134 12       		.uleb128 0x12
 4827 0135 06       		.uleb128 0x6
 4828 0136 40       		.uleb128 0x40
 4829 0137 18       		.uleb128 0x18
 4830 0138 9742     		.uleb128 0x2117
 4831 013a 19       		.uleb128 0x19
 4832 013b 01       		.uleb128 0x1
 4833 013c 13       		.uleb128 0x13
 4834 013d 00       		.byte	0
 4835 013e 00       		.byte	0
 4836 013f 1A       		.uleb128 0x1a
 4837 0140 05       		.uleb128 0x5
 4838 0141 00       		.byte	0
 4839 0142 03       		.uleb128 0x3
 4840 0143 0E       		.uleb128 0xe
 4841 0144 3A       		.uleb128 0x3a
 4842 0145 0B       		.uleb128 0xb
 4843 0146 3B       		.uleb128 0x3b
 4844 0147 05       		.uleb128 0x5
 4845 0148 49       		.uleb128 0x49
 4846 0149 13       		.uleb128 0x13
 4847 014a 02       		.uleb128 0x2
 4848 014b 18       		.uleb128 0x18
 4849 014c 00       		.byte	0
ARM GAS  C:\Users\310309~1\AppData\Local\Temp\cckEzWOW.s 			page 106


 4850 014d 00       		.byte	0
 4851 014e 1B       		.uleb128 0x1b
 4852 014f 2E       		.uleb128 0x2e
 4853 0150 01       		.byte	0x1
 4854 0151 3F       		.uleb128 0x3f
 4855 0152 19       		.uleb128 0x19
 4856 0153 03       		.uleb128 0x3
 4857 0154 0E       		.uleb128 0xe
 4858 0155 3A       		.uleb128 0x3a
 4859 0156 0B       		.uleb128 0xb
 4860 0157 3B       		.uleb128 0x3b
 4861 0158 05       		.uleb128 0x5
 4862 0159 27       		.uleb128 0x27
 4863 015a 19       		.uleb128 0x19
 4864 015b 49       		.uleb128 0x49
 4865 015c 13       		.uleb128 0x13
 4866 015d 11       		.uleb128 0x11
 4867 015e 01       		.uleb128 0x1
 4868 015f 12       		.uleb128 0x12
 4869 0160 06       		.uleb128 0x6
 4870 0161 40       		.uleb128 0x40
 4871 0162 18       		.uleb128 0x18
 4872 0163 9742     		.uleb128 0x2117
 4873 0165 19       		.uleb128 0x19
 4874 0166 01       		.uleb128 0x1
 4875 0167 13       		.uleb128 0x13
 4876 0168 00       		.byte	0
 4877 0169 00       		.byte	0
 4878 016a 1C       		.uleb128 0x1c
 4879 016b 05       		.uleb128 0x5
 4880 016c 00       		.byte	0
 4881 016d 03       		.uleb128 0x3
 4882 016e 0E       		.uleb128 0xe
 4883 016f 3A       		.uleb128 0x3a
 4884 0170 0B       		.uleb128 0xb
 4885 0171 3B       		.uleb128 0x3b
 4886 0172 05       		.uleb128 0x5
 4887 0173 49       		.uleb128 0x49
 4888 0174 13       		.uleb128 0x13
 4889 0175 02       		.uleb128 0x2
 4890 0176 17       		.uleb128 0x17
 4891 0177 00       		.byte	0
 4892 0178 00       		.byte	0
 4893 0179 1D       		.uleb128 0x1d
 4894 017a 34       		.uleb128 0x34
 4895 017b 00       		.byte	0
 4896 017c 03       		.uleb128 0x3
 4897 017d 0E       		.uleb128 0xe
 4898 017e 3A       		.uleb128 0x3a
 4899 017f 0B       		.uleb128 0xb
 4900 0180 3B       		.uleb128 0x3b
 4901 0181 05       		.uleb128 0x5
 4902 0182 49       		.uleb128 0x49
 4903 0183 13       		.uleb128 0x13
 4904 0184 02       		.uleb128 0x2
 4905 0185 17       		.uleb128 0x17
 4906 0186 00       		.byte	0
ARM GAS  C:\Users\310309~1\AppData\Local\Temp\cckEzWOW.s 			page 107


 4907 0187 00       		.byte	0
 4908 0188 1E       		.uleb128 0x1e
 4909 0189 0B       		.uleb128 0xb
 4910 018a 01       		.byte	0x1
 4911 018b 11       		.uleb128 0x11
 4912 018c 01       		.uleb128 0x1
 4913 018d 12       		.uleb128 0x12
 4914 018e 06       		.uleb128 0x6
 4915 018f 00       		.byte	0
 4916 0190 00       		.byte	0
 4917 0191 1F       		.uleb128 0x1f
 4918 0192 34       		.uleb128 0x34
 4919 0193 00       		.byte	0
 4920 0194 03       		.uleb128 0x3
 4921 0195 0E       		.uleb128 0xe
 4922 0196 3A       		.uleb128 0x3a
 4923 0197 0B       		.uleb128 0xb
 4924 0198 3B       		.uleb128 0x3b
 4925 0199 05       		.uleb128 0x5
 4926 019a 49       		.uleb128 0x49
 4927 019b 13       		.uleb128 0x13
 4928 019c 02       		.uleb128 0x2
 4929 019d 18       		.uleb128 0x18
 4930 019e 00       		.byte	0
 4931 019f 00       		.byte	0
 4932 01a0 20       		.uleb128 0x20
 4933 01a1 898201   		.uleb128 0x4109
 4934 01a4 01       		.byte	0x1
 4935 01a5 11       		.uleb128 0x11
 4936 01a6 01       		.uleb128 0x1
 4937 01a7 31       		.uleb128 0x31
 4938 01a8 13       		.uleb128 0x13
 4939 01a9 00       		.byte	0
 4940 01aa 00       		.byte	0
 4941 01ab 21       		.uleb128 0x21
 4942 01ac 8A8201   		.uleb128 0x410a
 4943 01af 00       		.byte	0
 4944 01b0 02       		.uleb128 0x2
 4945 01b1 18       		.uleb128 0x18
 4946 01b2 9142     		.uleb128 0x2111
 4947 01b4 18       		.uleb128 0x18
 4948 01b5 00       		.byte	0
 4949 01b6 00       		.byte	0
 4950 01b7 22       		.uleb128 0x22
 4951 01b8 0B       		.uleb128 0xb
 4952 01b9 01       		.byte	0x1
 4953 01ba 11       		.uleb128 0x11
 4954 01bb 01       		.uleb128 0x1
 4955 01bc 12       		.uleb128 0x12
 4956 01bd 06       		.uleb128 0x6
 4957 01be 01       		.uleb128 0x1
 4958 01bf 13       		.uleb128 0x13
 4959 01c0 00       		.byte	0
 4960 01c1 00       		.byte	0
 4961 01c2 23       		.uleb128 0x23
 4962 01c3 898201   		.uleb128 0x4109
 4963 01c6 00       		.byte	0
ARM GAS  C:\Users\310309~1\AppData\Local\Temp\cckEzWOW.s 			page 108


 4964 01c7 11       		.uleb128 0x11
 4965 01c8 01       		.uleb128 0x1
 4966 01c9 31       		.uleb128 0x31
 4967 01ca 13       		.uleb128 0x13
 4968 01cb 00       		.byte	0
 4969 01cc 00       		.byte	0
 4970 01cd 24       		.uleb128 0x24
 4971 01ce 898201   		.uleb128 0x4109
 4972 01d1 01       		.byte	0x1
 4973 01d2 11       		.uleb128 0x11
 4974 01d3 01       		.uleb128 0x1
 4975 01d4 31       		.uleb128 0x31
 4976 01d5 13       		.uleb128 0x13
 4977 01d6 01       		.uleb128 0x1
 4978 01d7 13       		.uleb128 0x13
 4979 01d8 00       		.byte	0
 4980 01d9 00       		.byte	0
 4981 01da 25       		.uleb128 0x25
 4982 01db 898201   		.uleb128 0x4109
 4983 01de 01       		.byte	0x1
 4984 01df 11       		.uleb128 0x11
 4985 01e0 01       		.uleb128 0x1
 4986 01e1 9342     		.uleb128 0x2113
 4987 01e3 18       		.uleb128 0x18
 4988 01e4 00       		.byte	0
 4989 01e5 00       		.byte	0
 4990 01e6 26       		.uleb128 0x26
 4991 01e7 26       		.uleb128 0x26
 4992 01e8 00       		.byte	0
 4993 01e9 49       		.uleb128 0x49
 4994 01ea 13       		.uleb128 0x13
 4995 01eb 00       		.byte	0
 4996 01ec 00       		.byte	0
 4997 01ed 27       		.uleb128 0x27
 4998 01ee 898201   		.uleb128 0x4109
 4999 01f1 01       		.byte	0x1
 5000 01f2 11       		.uleb128 0x11
 5001 01f3 01       		.uleb128 0x1
 5002 01f4 00       		.byte	0
 5003 01f5 00       		.byte	0
 5004 01f6 28       		.uleb128 0x28
 5005 01f7 898201   		.uleb128 0x4109
 5006 01fa 01       		.byte	0x1
 5007 01fb 11       		.uleb128 0x11
 5008 01fc 01       		.uleb128 0x1
 5009 01fd 01       		.uleb128 0x1
 5010 01fe 13       		.uleb128 0x13
 5011 01ff 00       		.byte	0
 5012 0200 00       		.byte	0
 5013 0201 29       		.uleb128 0x29
 5014 0202 34       		.uleb128 0x34
 5015 0203 00       		.byte	0
 5016 0204 03       		.uleb128 0x3
 5017 0205 0E       		.uleb128 0xe
 5018 0206 3A       		.uleb128 0x3a
 5019 0207 0B       		.uleb128 0xb
 5020 0208 3B       		.uleb128 0x3b
ARM GAS  C:\Users\310309~1\AppData\Local\Temp\cckEzWOW.s 			page 109


 5021 0209 0B       		.uleb128 0xb
 5022 020a 49       		.uleb128 0x49
 5023 020b 13       		.uleb128 0x13
 5024 020c 02       		.uleb128 0x2
 5025 020d 18       		.uleb128 0x18
 5026 020e 00       		.byte	0
 5027 020f 00       		.byte	0
 5028 0210 2A       		.uleb128 0x2a
 5029 0211 34       		.uleb128 0x34
 5030 0212 00       		.byte	0
 5031 0213 03       		.uleb128 0x3
 5032 0214 0E       		.uleb128 0xe
 5033 0215 3A       		.uleb128 0x3a
 5034 0216 0B       		.uleb128 0xb
 5035 0217 3B       		.uleb128 0x3b
 5036 0218 05       		.uleb128 0x5
 5037 0219 49       		.uleb128 0x49
 5038 021a 13       		.uleb128 0x13
 5039 021b 3F       		.uleb128 0x3f
 5040 021c 19       		.uleb128 0x19
 5041 021d 3C       		.uleb128 0x3c
 5042 021e 19       		.uleb128 0x19
 5043 021f 00       		.byte	0
 5044 0220 00       		.byte	0
 5045 0221 2B       		.uleb128 0x2b
 5046 0222 34       		.uleb128 0x34
 5047 0223 00       		.byte	0
 5048 0224 03       		.uleb128 0x3
 5049 0225 0E       		.uleb128 0xe
 5050 0226 3A       		.uleb128 0x3a
 5051 0227 0B       		.uleb128 0xb
 5052 0228 3B       		.uleb128 0x3b
 5053 0229 0B       		.uleb128 0xb
 5054 022a 49       		.uleb128 0x49
 5055 022b 13       		.uleb128 0x13
 5056 022c 3F       		.uleb128 0x3f
 5057 022d 19       		.uleb128 0x19
 5058 022e 3C       		.uleb128 0x3c
 5059 022f 19       		.uleb128 0x19
 5060 0230 00       		.byte	0
 5061 0231 00       		.byte	0
 5062 0232 2C       		.uleb128 0x2c
 5063 0233 34       		.uleb128 0x34
 5064 0234 00       		.byte	0
 5065 0235 03       		.uleb128 0x3
 5066 0236 0E       		.uleb128 0xe
 5067 0237 3A       		.uleb128 0x3a
 5068 0238 0B       		.uleb128 0xb
 5069 0239 3B       		.uleb128 0x3b
 5070 023a 0B       		.uleb128 0xb
 5071 023b 49       		.uleb128 0x49
 5072 023c 13       		.uleb128 0x13
 5073 023d 3F       		.uleb128 0x3f
 5074 023e 19       		.uleb128 0x19
 5075 023f 02       		.uleb128 0x2
 5076 0240 18       		.uleb128 0x18
 5077 0241 00       		.byte	0
ARM GAS  C:\Users\310309~1\AppData\Local\Temp\cckEzWOW.s 			page 110


 5078 0242 00       		.byte	0
 5079 0243 2D       		.uleb128 0x2d
 5080 0244 34       		.uleb128 0x34
 5081 0245 00       		.byte	0
 5082 0246 03       		.uleb128 0x3
 5083 0247 0E       		.uleb128 0xe
 5084 0248 3A       		.uleb128 0x3a
 5085 0249 0B       		.uleb128 0xb
 5086 024a 3B       		.uleb128 0x3b
 5087 024b 05       		.uleb128 0x5
 5088 024c 49       		.uleb128 0x49
 5089 024d 13       		.uleb128 0x13
 5090 024e 3F       		.uleb128 0x3f
 5091 024f 19       		.uleb128 0x19
 5092 0250 02       		.uleb128 0x2
 5093 0251 18       		.uleb128 0x18
 5094 0252 00       		.byte	0
 5095 0253 00       		.byte	0
 5096 0254 2E       		.uleb128 0x2e
 5097 0255 2E       		.uleb128 0x2e
 5098 0256 00       		.byte	0
 5099 0257 3F       		.uleb128 0x3f
 5100 0258 19       		.uleb128 0x19
 5101 0259 3C       		.uleb128 0x3c
 5102 025a 19       		.uleb128 0x19
 5103 025b 6E       		.uleb128 0x6e
 5104 025c 0E       		.uleb128 0xe
 5105 025d 03       		.uleb128 0x3
 5106 025e 0E       		.uleb128 0xe
 5107 025f 3A       		.uleb128 0x3a
 5108 0260 0B       		.uleb128 0xb
 5109 0261 3B       		.uleb128 0x3b
 5110 0262 05       		.uleb128 0x5
 5111 0263 00       		.byte	0
 5112 0264 00       		.byte	0
 5113 0265 2F       		.uleb128 0x2f
 5114 0266 2E       		.uleb128 0x2e
 5115 0267 00       		.byte	0
 5116 0268 3F       		.uleb128 0x3f
 5117 0269 19       		.uleb128 0x19
 5118 026a 3C       		.uleb128 0x3c
 5119 026b 19       		.uleb128 0x19
 5120 026c 6E       		.uleb128 0x6e
 5121 026d 0E       		.uleb128 0xe
 5122 026e 03       		.uleb128 0x3
 5123 026f 0E       		.uleb128 0xe
 5124 0270 3A       		.uleb128 0x3a
 5125 0271 0B       		.uleb128 0xb
 5126 0272 3B       		.uleb128 0x3b
 5127 0273 0B       		.uleb128 0xb
 5128 0274 00       		.byte	0
 5129 0275 00       		.byte	0
 5130 0276 30       		.uleb128 0x30
 5131 0277 2E       		.uleb128 0x2e
 5132 0278 00       		.byte	0
 5133 0279 3F       		.uleb128 0x3f
 5134 027a 19       		.uleb128 0x19
ARM GAS  C:\Users\310309~1\AppData\Local\Temp\cckEzWOW.s 			page 111


 5135 027b 3C       		.uleb128 0x3c
 5136 027c 19       		.uleb128 0x19
 5137 027d 6E       		.uleb128 0x6e
 5138 027e 0E       		.uleb128 0xe
 5139 027f 03       		.uleb128 0x3
 5140 0280 0E       		.uleb128 0xe
 5141 0281 00       		.byte	0
 5142 0282 00       		.byte	0
 5143 0283 00       		.byte	0
 5144              		.section	.debug_loc,"",%progbits
 5145              	.Ldebug_loc0:
 5146              	.LLST0:
 5147 0000 00000000 		.4byte	.LVL1
 5148 0004 0A000000 		.4byte	.LVL2
 5149 0008 0100     		.2byte	0x1
 5150 000a 50       		.byte	0x50
 5151 000b 0A000000 		.4byte	.LVL2
 5152 000f 32000000 		.4byte	.LVL7
 5153 0013 0400     		.2byte	0x4
 5154 0015 F3       		.byte	0xf3
 5155 0016 01       		.uleb128 0x1
 5156 0017 50       		.byte	0x50
 5157 0018 9F       		.byte	0x9f
 5158 0019 32000000 		.4byte	.LVL7
 5159 001d 34000000 		.4byte	.LVL8
 5160 0021 0100     		.2byte	0x1
 5161 0023 50       		.byte	0x50
 5162 0024 34000000 		.4byte	.LVL8
 5163 0028 40000000 		.4byte	.LFE4
 5164 002c 0400     		.2byte	0x4
 5165 002e F3       		.byte	0xf3
 5166 002f 01       		.uleb128 0x1
 5167 0030 50       		.byte	0x50
 5168 0031 9F       		.byte	0x9f
 5169 0032 00000000 		.4byte	0
 5170 0036 00000000 		.4byte	0
 5171              	.LLST1:
 5172 003a 00000000 		.4byte	.LVL1
 5173 003e 22000000 		.4byte	.LVL4
 5174 0042 0100     		.2byte	0x1
 5175 0044 51       		.byte	0x51
 5176 0045 22000000 		.4byte	.LVL4
 5177 0049 32000000 		.4byte	.LVL7
 5178 004d 0400     		.2byte	0x4
 5179 004f F3       		.byte	0xf3
 5180 0050 01       		.uleb128 0x1
 5181 0051 51       		.byte	0x51
 5182 0052 9F       		.byte	0x9f
 5183 0053 32000000 		.4byte	.LVL7
 5184 0057 38000000 		.4byte	.LVL9
 5185 005b 0100     		.2byte	0x1
 5186 005d 51       		.byte	0x51
 5187 005e 38000000 		.4byte	.LVL9
 5188 0062 40000000 		.4byte	.LFE4
 5189 0066 0400     		.2byte	0x4
 5190 0068 F3       		.byte	0xf3
 5191 0069 01       		.uleb128 0x1
ARM GAS  C:\Users\310309~1\AppData\Local\Temp\cckEzWOW.s 			page 112


 5192 006a 51       		.byte	0x51
 5193 006b 9F       		.byte	0x9f
 5194 006c 00000000 		.4byte	0
 5195 0070 00000000 		.4byte	0
 5196              	.LLST2:
 5197 0074 00000000 		.4byte	.LVL1
 5198 0078 20000000 		.4byte	.LVL3
 5199 007c 0100     		.2byte	0x1
 5200 007e 52       		.byte	0x52
 5201 007f 20000000 		.4byte	.LVL3
 5202 0083 25000000 		.4byte	.LVL5-1
 5203 0087 0200     		.2byte	0x2
 5204 0089 70       		.byte	0x70
 5205 008a 00       		.sleb128 0
 5206 008b 25000000 		.4byte	.LVL5-1
 5207 008f 32000000 		.4byte	.LVL7
 5208 0093 0400     		.2byte	0x4
 5209 0095 F3       		.byte	0xf3
 5210 0096 01       		.uleb128 0x1
 5211 0097 52       		.byte	0x52
 5212 0098 9F       		.byte	0x9f
 5213 0099 32000000 		.4byte	.LVL7
 5214 009d 38000000 		.4byte	.LVL9
 5215 00a1 0100     		.2byte	0x1
 5216 00a3 52       		.byte	0x52
 5217 00a4 38000000 		.4byte	.LVL9
 5218 00a8 40000000 		.4byte	.LFE4
 5219 00ac 0400     		.2byte	0x4
 5220 00ae F3       		.byte	0xf3
 5221 00af 01       		.uleb128 0x1
 5222 00b0 52       		.byte	0x52
 5223 00b1 9F       		.byte	0x9f
 5224 00b2 00000000 		.4byte	0
 5225 00b6 00000000 		.4byte	0
 5226              	.LLST3:
 5227 00ba 30000000 		.4byte	.LVL6
 5228 00be 32000000 		.4byte	.LVL7
 5229 00c2 0200     		.2byte	0x2
 5230 00c4 30       		.byte	0x30
 5231 00c5 9F       		.byte	0x9f
 5232 00c6 38000000 		.4byte	.LVL9
 5233 00ca 40000000 		.4byte	.LFE4
 5234 00ce 0100     		.2byte	0x1
 5235 00d0 50       		.byte	0x50
 5236 00d1 00000000 		.4byte	0
 5237 00d5 00000000 		.4byte	0
 5238              	.LLST4:
 5239 00d9 00000000 		.4byte	.LVL10
 5240 00dd 0A000000 		.4byte	.LVL11
 5241 00e1 0100     		.2byte	0x1
 5242 00e3 50       		.byte	0x50
 5243 00e4 0A000000 		.4byte	.LVL11
 5244 00e8 30000000 		.4byte	.LVL16
 5245 00ec 0400     		.2byte	0x4
 5246 00ee F3       		.byte	0xf3
 5247 00ef 01       		.uleb128 0x1
 5248 00f0 50       		.byte	0x50
ARM GAS  C:\Users\310309~1\AppData\Local\Temp\cckEzWOW.s 			page 113


 5249 00f1 9F       		.byte	0x9f
 5250 00f2 30000000 		.4byte	.LVL16
 5251 00f6 32000000 		.4byte	.LVL17
 5252 00fa 0100     		.2byte	0x1
 5253 00fc 50       		.byte	0x50
 5254 00fd 32000000 		.4byte	.LVL17
 5255 0101 40000000 		.4byte	.LFE5
 5256 0105 0400     		.2byte	0x4
 5257 0107 F3       		.byte	0xf3
 5258 0108 01       		.uleb128 0x1
 5259 0109 50       		.byte	0x50
 5260 010a 9F       		.byte	0x9f
 5261 010b 00000000 		.4byte	0
 5262 010f 00000000 		.4byte	0
 5263              	.LLST5:
 5264 0113 00000000 		.4byte	.LVL10
 5265 0117 20000000 		.4byte	.LVL13
 5266 011b 0100     		.2byte	0x1
 5267 011d 51       		.byte	0x51
 5268 011e 20000000 		.4byte	.LVL13
 5269 0122 30000000 		.4byte	.LVL16
 5270 0126 0400     		.2byte	0x4
 5271 0128 F3       		.byte	0xf3
 5272 0129 01       		.uleb128 0x1
 5273 012a 51       		.byte	0x51
 5274 012b 9F       		.byte	0x9f
 5275 012c 30000000 		.4byte	.LVL16
 5276 0130 36000000 		.4byte	.LVL18
 5277 0134 0100     		.2byte	0x1
 5278 0136 51       		.byte	0x51
 5279 0137 36000000 		.4byte	.LVL18
 5280 013b 40000000 		.4byte	.LFE5
 5281 013f 0400     		.2byte	0x4
 5282 0141 F3       		.byte	0xf3
 5283 0142 01       		.uleb128 0x1
 5284 0143 51       		.byte	0x51
 5285 0144 9F       		.byte	0x9f
 5286 0145 00000000 		.4byte	0
 5287 0149 00000000 		.4byte	0
 5288              	.LLST6:
 5289 014d 00000000 		.4byte	.LVL10
 5290 0151 1E000000 		.4byte	.LVL12
 5291 0155 0100     		.2byte	0x1
 5292 0157 52       		.byte	0x52
 5293 0158 1E000000 		.4byte	.LVL12
 5294 015c 23000000 		.4byte	.LVL14-1
 5295 0160 0200     		.2byte	0x2
 5296 0162 70       		.byte	0x70
 5297 0163 00       		.sleb128 0
 5298 0164 23000000 		.4byte	.LVL14-1
 5299 0168 30000000 		.4byte	.LVL16
 5300 016c 0400     		.2byte	0x4
 5301 016e F3       		.byte	0xf3
 5302 016f 01       		.uleb128 0x1
 5303 0170 52       		.byte	0x52
 5304 0171 9F       		.byte	0x9f
 5305 0172 30000000 		.4byte	.LVL16
ARM GAS  C:\Users\310309~1\AppData\Local\Temp\cckEzWOW.s 			page 114


 5306 0176 36000000 		.4byte	.LVL18
 5307 017a 0100     		.2byte	0x1
 5308 017c 52       		.byte	0x52
 5309 017d 36000000 		.4byte	.LVL18
 5310 0181 40000000 		.4byte	.LFE5
 5311 0185 0400     		.2byte	0x4
 5312 0187 F3       		.byte	0xf3
 5313 0188 01       		.uleb128 0x1
 5314 0189 52       		.byte	0x52
 5315 018a 9F       		.byte	0x9f
 5316 018b 00000000 		.4byte	0
 5317 018f 00000000 		.4byte	0
 5318              	.LLST7:
 5319 0193 2E000000 		.4byte	.LVL15
 5320 0197 30000000 		.4byte	.LVL16
 5321 019b 0200     		.2byte	0x2
 5322 019d 30       		.byte	0x30
 5323 019e 9F       		.byte	0x9f
 5324 019f 36000000 		.4byte	.LVL18
 5325 01a3 40000000 		.4byte	.LFE5
 5326 01a7 0100     		.2byte	0x1
 5327 01a9 50       		.byte	0x50
 5328 01aa 00000000 		.4byte	0
 5329 01ae 00000000 		.4byte	0
 5330              	.LLST8:
 5331 01b2 00000000 		.4byte	.LVL19
 5332 01b6 1A000000 		.4byte	.LVL20
 5333 01ba 0100     		.2byte	0x1
 5334 01bc 50       		.byte	0x50
 5335 01bd 1A000000 		.4byte	.LVL20
 5336 01c1 3E000000 		.4byte	.LVL25
 5337 01c5 0400     		.2byte	0x4
 5338 01c7 F3       		.byte	0xf3
 5339 01c8 01       		.uleb128 0x1
 5340 01c9 50       		.byte	0x50
 5341 01ca 9F       		.byte	0x9f
 5342 01cb 3E000000 		.4byte	.LVL25
 5343 01cf 40000000 		.4byte	.LVL26
 5344 01d3 0100     		.2byte	0x1
 5345 01d5 50       		.byte	0x50
 5346 01d6 40000000 		.4byte	.LVL26
 5347 01da 42000000 		.4byte	.LVL27
 5348 01de 0400     		.2byte	0x4
 5349 01e0 F3       		.byte	0xf3
 5350 01e1 01       		.uleb128 0x1
 5351 01e2 50       		.byte	0x50
 5352 01e3 9F       		.byte	0x9f
 5353 01e4 42000000 		.4byte	.LVL27
 5354 01e8 44000000 		.4byte	.LVL28
 5355 01ec 0100     		.2byte	0x1
 5356 01ee 50       		.byte	0x50
 5357 01ef 44000000 		.4byte	.LVL28
 5358 01f3 46000000 		.4byte	.LVL29
 5359 01f7 0400     		.2byte	0x4
 5360 01f9 F3       		.byte	0xf3
 5361 01fa 01       		.uleb128 0x1
 5362 01fb 50       		.byte	0x50
ARM GAS  C:\Users\310309~1\AppData\Local\Temp\cckEzWOW.s 			page 115


 5363 01fc 9F       		.byte	0x9f
 5364 01fd 46000000 		.4byte	.LVL29
 5365 0201 48000000 		.4byte	.LVL30
 5366 0205 0100     		.2byte	0x1
 5367 0207 50       		.byte	0x50
 5368 0208 48000000 		.4byte	.LVL30
 5369 020c 50000000 		.4byte	.LFE6
 5370 0210 0400     		.2byte	0x4
 5371 0212 F3       		.byte	0xf3
 5372 0213 01       		.uleb128 0x1
 5373 0214 50       		.byte	0x50
 5374 0215 9F       		.byte	0x9f
 5375 0216 00000000 		.4byte	0
 5376 021a 00000000 		.4byte	0
 5377              	.LLST9:
 5378 021e 00000000 		.4byte	.LVL19
 5379 0222 22000000 		.4byte	.LVL21
 5380 0226 0100     		.2byte	0x1
 5381 0228 51       		.byte	0x51
 5382 0229 22000000 		.4byte	.LVL21
 5383 022d 3E000000 		.4byte	.LVL25
 5384 0231 0400     		.2byte	0x4
 5385 0233 F3       		.byte	0xf3
 5386 0234 01       		.uleb128 0x1
 5387 0235 51       		.byte	0x51
 5388 0236 9F       		.byte	0x9f
 5389 0237 3E000000 		.4byte	.LVL25
 5390 023b 48000000 		.4byte	.LVL30
 5391 023f 0100     		.2byte	0x1
 5392 0241 51       		.byte	0x51
 5393 0242 48000000 		.4byte	.LVL30
 5394 0246 50000000 		.4byte	.LFE6
 5395 024a 0400     		.2byte	0x4
 5396 024c F3       		.byte	0xf3
 5397 024d 01       		.uleb128 0x1
 5398 024e 51       		.byte	0x51
 5399 024f 9F       		.byte	0x9f
 5400 0250 00000000 		.4byte	0
 5401 0254 00000000 		.4byte	0
 5402              	.LLST10:
 5403 0258 00000000 		.4byte	.LVL19
 5404 025c 2C000000 		.4byte	.LVL22
 5405 0260 0100     		.2byte	0x1
 5406 0262 52       		.byte	0x52
 5407 0263 2C000000 		.4byte	.LVL22
 5408 0267 3E000000 		.4byte	.LVL25
 5409 026b 0400     		.2byte	0x4
 5410 026d F3       		.byte	0xf3
 5411 026e 01       		.uleb128 0x1
 5412 026f 52       		.byte	0x52
 5413 0270 9F       		.byte	0x9f
 5414 0271 3E000000 		.4byte	.LVL25
 5415 0275 48000000 		.4byte	.LVL30
 5416 0279 0100     		.2byte	0x1
 5417 027b 52       		.byte	0x52
 5418 027c 48000000 		.4byte	.LVL30
 5419 0280 50000000 		.4byte	.LFE6
ARM GAS  C:\Users\310309~1\AppData\Local\Temp\cckEzWOW.s 			page 116


 5420 0284 0400     		.2byte	0x4
 5421 0286 F3       		.byte	0xf3
 5422 0287 01       		.uleb128 0x1
 5423 0288 52       		.byte	0x52
 5424 0289 9F       		.byte	0x9f
 5425 028a 00000000 		.4byte	0
 5426 028e 00000000 		.4byte	0
 5427              	.LLST11:
 5428 0292 00000000 		.4byte	.LVL19
 5429 0296 31000000 		.4byte	.LVL23-1
 5430 029a 0100     		.2byte	0x1
 5431 029c 53       		.byte	0x53
 5432 029d 31000000 		.4byte	.LVL23-1
 5433 02a1 3E000000 		.4byte	.LVL25
 5434 02a5 0400     		.2byte	0x4
 5435 02a7 F3       		.byte	0xf3
 5436 02a8 01       		.uleb128 0x1
 5437 02a9 53       		.byte	0x53
 5438 02aa 9F       		.byte	0x9f
 5439 02ab 3E000000 		.4byte	.LVL25
 5440 02af 48000000 		.4byte	.LVL30
 5441 02b3 0100     		.2byte	0x1
 5442 02b5 53       		.byte	0x53
 5443 02b6 48000000 		.4byte	.LVL30
 5444 02ba 50000000 		.4byte	.LFE6
 5445 02be 0400     		.2byte	0x4
 5446 02c0 F3       		.byte	0xf3
 5447 02c1 01       		.uleb128 0x1
 5448 02c2 53       		.byte	0x53
 5449 02c3 9F       		.byte	0x9f
 5450 02c4 00000000 		.4byte	0
 5451 02c8 00000000 		.4byte	0
 5452              	.LLST12:
 5453 02cc 3C000000 		.4byte	.LVL24
 5454 02d0 3E000000 		.4byte	.LVL25
 5455 02d4 0200     		.2byte	0x2
 5456 02d6 30       		.byte	0x30
 5457 02d7 9F       		.byte	0x9f
 5458 02d8 48000000 		.4byte	.LVL30
 5459 02dc 50000000 		.4byte	.LFE6
 5460 02e0 0100     		.2byte	0x1
 5461 02e2 50       		.byte	0x50
 5462 02e3 00000000 		.4byte	0
 5463 02e7 00000000 		.4byte	0
 5464              	.LLST13:
 5465 02eb 00000000 		.4byte	.LVL31
 5466 02ef 39000000 		.4byte	.LVL34-1
 5467 02f3 0100     		.2byte	0x1
 5468 02f5 51       		.byte	0x51
 5469 02f6 39000000 		.4byte	.LVL34-1
 5470 02fa 56000000 		.4byte	.LVL36
 5471 02fe 0400     		.2byte	0x4
 5472 0300 F3       		.byte	0xf3
 5473 0301 01       		.uleb128 0x1
 5474 0302 51       		.byte	0x51
 5475 0303 9F       		.byte	0x9f
 5476 0304 56000000 		.4byte	.LVL36
ARM GAS  C:\Users\310309~1\AppData\Local\Temp\cckEzWOW.s 			page 117


 5477 0308 64000000 		.4byte	.LVL38
 5478 030c 0100     		.2byte	0x1
 5479 030e 51       		.byte	0x51
 5480 030f 64000000 		.4byte	.LVL38
 5481 0313 78000000 		.4byte	.LFE7
 5482 0317 0400     		.2byte	0x4
 5483 0319 F3       		.byte	0xf3
 5484 031a 01       		.uleb128 0x1
 5485 031b 51       		.byte	0x51
 5486 031c 9F       		.byte	0x9f
 5487 031d 00000000 		.4byte	0
 5488 0321 00000000 		.4byte	0
 5489              	.LLST14:
 5490 0325 00000000 		.4byte	.LVL31
 5491 0329 1E000000 		.4byte	.LVL33
 5492 032d 0100     		.2byte	0x1
 5493 032f 52       		.byte	0x52
 5494 0330 1E000000 		.4byte	.LVL33
 5495 0334 56000000 		.4byte	.LVL36
 5496 0338 0400     		.2byte	0x4
 5497 033a F3       		.byte	0xf3
 5498 033b 01       		.uleb128 0x1
 5499 033c 52       		.byte	0x52
 5500 033d 9F       		.byte	0x9f
 5501 033e 56000000 		.4byte	.LVL36
 5502 0342 60000000 		.4byte	.LVL37
 5503 0346 0100     		.2byte	0x1
 5504 0348 52       		.byte	0x52
 5505 0349 60000000 		.4byte	.LVL37
 5506 034d 78000000 		.4byte	.LFE7
 5507 0351 0400     		.2byte	0x4
 5508 0353 F3       		.byte	0xf3
 5509 0354 01       		.uleb128 0x1
 5510 0355 52       		.byte	0x52
 5511 0356 9F       		.byte	0x9f
 5512 0357 00000000 		.4byte	0
 5513 035b 00000000 		.4byte	0
 5514              	.LLST15:
 5515 035f 00000000 		.4byte	.LVL31
 5516 0363 10000000 		.4byte	.LVL32
 5517 0367 0100     		.2byte	0x1
 5518 0369 53       		.byte	0x53
 5519 036a 10000000 		.4byte	.LVL32
 5520 036e 6A000000 		.4byte	.LVL40
 5521 0372 0100     		.2byte	0x1
 5522 0374 56       		.byte	0x56
 5523 0375 6A000000 		.4byte	.LVL40
 5524 0379 78000000 		.4byte	.LFE7
 5525 037d 0400     		.2byte	0x4
 5526 037f F3       		.byte	0xf3
 5527 0380 01       		.uleb128 0x1
 5528 0381 53       		.byte	0x53
 5529 0382 9F       		.byte	0x9f
 5530 0383 00000000 		.4byte	0
 5531 0387 00000000 		.4byte	0
 5532              	.LLST16:
 5533 038b 54000000 		.4byte	.LVL35
ARM GAS  C:\Users\310309~1\AppData\Local\Temp\cckEzWOW.s 			page 118


 5534 038f 56000000 		.4byte	.LVL36
 5535 0393 0100     		.2byte	0x1
 5536 0395 50       		.byte	0x50
 5537 0396 68000000 		.4byte	.LVL39
 5538 039a 78000000 		.4byte	.LFE7
 5539 039e 0100     		.2byte	0x1
 5540 03a0 50       		.byte	0x50
 5541 03a1 00000000 		.4byte	0
 5542 03a5 00000000 		.4byte	0
 5543              	.LLST17:
 5544 03a9 00000000 		.4byte	.LVL41
 5545 03ad 39000000 		.4byte	.LVL44-1
 5546 03b1 0100     		.2byte	0x1
 5547 03b3 51       		.byte	0x51
 5548 03b4 39000000 		.4byte	.LVL44-1
 5549 03b8 62000000 		.4byte	.LVL46
 5550 03bc 0400     		.2byte	0x4
 5551 03be F3       		.byte	0xf3
 5552 03bf 01       		.uleb128 0x1
 5553 03c0 51       		.byte	0x51
 5554 03c1 9F       		.byte	0x9f
 5555 03c2 62000000 		.4byte	.LVL46
 5556 03c6 70000000 		.4byte	.LVL48
 5557 03ca 0100     		.2byte	0x1
 5558 03cc 51       		.byte	0x51
 5559 03cd 70000000 		.4byte	.LVL48
 5560 03d1 88000000 		.4byte	.LFE8
 5561 03d5 0400     		.2byte	0x4
 5562 03d7 F3       		.byte	0xf3
 5563 03d8 01       		.uleb128 0x1
 5564 03d9 51       		.byte	0x51
 5565 03da 9F       		.byte	0x9f
 5566 03db 00000000 		.4byte	0
 5567 03df 00000000 		.4byte	0
 5568              	.LLST18:
 5569 03e3 00000000 		.4byte	.LVL41
 5570 03e7 1E000000 		.4byte	.LVL43
 5571 03eb 0100     		.2byte	0x1
 5572 03ed 52       		.byte	0x52
 5573 03ee 1E000000 		.4byte	.LVL43
 5574 03f2 62000000 		.4byte	.LVL46
 5575 03f6 0400     		.2byte	0x4
 5576 03f8 F3       		.byte	0xf3
 5577 03f9 01       		.uleb128 0x1
 5578 03fa 52       		.byte	0x52
 5579 03fb 9F       		.byte	0x9f
 5580 03fc 62000000 		.4byte	.LVL46
 5581 0400 6C000000 		.4byte	.LVL47
 5582 0404 0100     		.2byte	0x1
 5583 0406 52       		.byte	0x52
 5584 0407 6C000000 		.4byte	.LVL47
 5585 040b 88000000 		.4byte	.LFE8
 5586 040f 0400     		.2byte	0x4
 5587 0411 F3       		.byte	0xf3
 5588 0412 01       		.uleb128 0x1
 5589 0413 52       		.byte	0x52
 5590 0414 9F       		.byte	0x9f
ARM GAS  C:\Users\310309~1\AppData\Local\Temp\cckEzWOW.s 			page 119


 5591 0415 00000000 		.4byte	0
 5592 0419 00000000 		.4byte	0
 5593              	.LLST19:
 5594 041d 00000000 		.4byte	.LVL41
 5595 0421 10000000 		.4byte	.LVL42
 5596 0425 0100     		.2byte	0x1
 5597 0427 53       		.byte	0x53
 5598 0428 10000000 		.4byte	.LVL42
 5599 042c 76000000 		.4byte	.LVL50
 5600 0430 0100     		.2byte	0x1
 5601 0432 56       		.byte	0x56
 5602 0433 76000000 		.4byte	.LVL50
 5603 0437 88000000 		.4byte	.LFE8
 5604 043b 0400     		.2byte	0x4
 5605 043d F3       		.byte	0xf3
 5606 043e 01       		.uleb128 0x1
 5607 043f 53       		.byte	0x53
 5608 0440 9F       		.byte	0x9f
 5609 0441 00000000 		.4byte	0
 5610 0445 00000000 		.4byte	0
 5611              	.LLST20:
 5612 0449 54000000 		.4byte	.LVL45
 5613 044d 62000000 		.4byte	.LVL46
 5614 0451 0100     		.2byte	0x1
 5615 0453 50       		.byte	0x50
 5616 0454 74000000 		.4byte	.LVL49
 5617 0458 88000000 		.4byte	.LFE8
 5618 045c 0100     		.2byte	0x1
 5619 045e 50       		.byte	0x50
 5620 045f 00000000 		.4byte	0
 5621 0463 00000000 		.4byte	0
 5622              	.LLST21:
 5623 0467 00000000 		.4byte	.LVL51
 5624 046b 2A000000 		.4byte	.LVL52
 5625 046f 0100     		.2byte	0x1
 5626 0471 50       		.byte	0x50
 5627 0472 2A000000 		.4byte	.LVL52
 5628 0476 2D000000 		.4byte	.LVL53-1
 5629 047a 0100     		.2byte	0x1
 5630 047c 51       		.byte	0x51
 5631 047d 2D000000 		.4byte	.LVL53-1
 5632 0481 54000000 		.4byte	.LFE9
 5633 0485 0400     		.2byte	0x4
 5634 0487 F3       		.byte	0xf3
 5635 0488 01       		.uleb128 0x1
 5636 0489 50       		.byte	0x50
 5637 048a 9F       		.byte	0x9f
 5638 048b 00000000 		.4byte	0
 5639 048f 00000000 		.4byte	0
 5640              	.LLST22:
 5641 0493 00000000 		.4byte	.LVL55
 5642 0497 1E000000 		.4byte	.LVL56
 5643 049b 0100     		.2byte	0x1
 5644 049d 50       		.byte	0x50
 5645 049e 1E000000 		.4byte	.LVL56
 5646 04a2 66000000 		.4byte	.LVL58
 5647 04a6 0100     		.2byte	0x1
ARM GAS  C:\Users\310309~1\AppData\Local\Temp\cckEzWOW.s 			page 120


 5648 04a8 54       		.byte	0x54
 5649 04a9 66000000 		.4byte	.LVL58
 5650 04ad 78000000 		.4byte	.LFE10
 5651 04b1 0400     		.2byte	0x4
 5652 04b3 F3       		.byte	0xf3
 5653 04b4 01       		.uleb128 0x1
 5654 04b5 50       		.byte	0x50
 5655 04b6 9F       		.byte	0x9f
 5656 04b7 00000000 		.4byte	0
 5657 04bb 00000000 		.4byte	0
 5658              	.LLST23:
 5659 04bf 00000000 		.4byte	.LVL59
 5660 04c3 1C000000 		.4byte	.LVL61
 5661 04c7 0100     		.2byte	0x1
 5662 04c9 50       		.byte	0x50
 5663 04ca 1C000000 		.4byte	.LVL61
 5664 04ce 86010000 		.4byte	.LVL89
 5665 04d2 0100     		.2byte	0x1
 5666 04d4 54       		.byte	0x54
 5667 04d5 86010000 		.4byte	.LVL89
 5668 04d9 88010000 		.4byte	.LVL90
 5669 04dd 0100     		.2byte	0x1
 5670 04df 50       		.byte	0x50
 5671 04e0 88010000 		.4byte	.LVL90
 5672 04e4 8C010000 		.4byte	.LVL91
 5673 04e8 0100     		.2byte	0x1
 5674 04ea 54       		.byte	0x54
 5675 04eb 8C010000 		.4byte	.LVL91
 5676 04ef C0010000 		.4byte	.LFE11
 5677 04f3 0400     		.2byte	0x4
 5678 04f5 F3       		.byte	0xf3
 5679 04f6 01       		.uleb128 0x1
 5680 04f7 50       		.byte	0x50
 5681 04f8 9F       		.byte	0x9f
 5682 04f9 00000000 		.4byte	0
 5683 04fd 00000000 		.4byte	0
 5684              	.LLST24:
 5685 0501 06000000 		.4byte	.LVL60
 5686 0505 36000000 		.4byte	.LVL63
 5687 0509 0200     		.2byte	0x2
 5688 050b 30       		.byte	0x30
 5689 050c 9F       		.byte	0x9f
 5690 050d 36000000 		.4byte	.LVL63
 5691 0511 46000000 		.4byte	.LVL64
 5692 0515 0100     		.2byte	0x1
 5693 0517 50       		.byte	0x50
 5694 0518 46000000 		.4byte	.LVL64
 5695 051c 52000000 		.4byte	.LVL66
 5696 0520 0100     		.2byte	0x1
 5697 0522 55       		.byte	0x55
 5698 0523 52000000 		.4byte	.LVL66
 5699 0527 5A000000 		.4byte	.LVL67
 5700 052b 0100     		.2byte	0x1
 5701 052d 50       		.byte	0x50
 5702 052e 5A000000 		.4byte	.LVL67
 5703 0532 92000000 		.4byte	.LVL71
 5704 0536 0100     		.2byte	0x1
ARM GAS  C:\Users\310309~1\AppData\Local\Temp\cckEzWOW.s 			page 121


 5705 0538 55       		.byte	0x55
 5706 0539 92000000 		.4byte	.LVL71
 5707 053d B0000000 		.4byte	.LVL73
 5708 0541 0200     		.2byte	0x2
 5709 0543 30       		.byte	0x30
 5710 0544 9F       		.byte	0x9f
 5711 0545 B0000000 		.4byte	.LVL73
 5712 0549 CA000000 		.4byte	.LVL74
 5713 054d 0100     		.2byte	0x1
 5714 054f 50       		.byte	0x50
 5715 0550 CA000000 		.4byte	.LVL74
 5716 0554 D4000000 		.4byte	.LVL76
 5717 0558 0100     		.2byte	0x1
 5718 055a 55       		.byte	0x55
 5719 055b D4000000 		.4byte	.LVL76
 5720 055f D8000000 		.4byte	.LVL77
 5721 0563 0100     		.2byte	0x1
 5722 0565 50       		.byte	0x50
 5723 0566 D8000000 		.4byte	.LVL77
 5724 056a 0A010000 		.4byte	.LVL79
 5725 056e 0100     		.2byte	0x1
 5726 0570 55       		.byte	0x55
 5727 0571 2A010000 		.4byte	.LVL82
 5728 0575 5E010000 		.4byte	.LVL83
 5729 0579 0100     		.2byte	0x1
 5730 057b 50       		.byte	0x50
 5731 057c 5E010000 		.4byte	.LVL83
 5732 0580 60010000 		.4byte	.LVL84
 5733 0584 0100     		.2byte	0x1
 5734 0586 55       		.byte	0x55
 5735 0587 62010000 		.4byte	.LVL85
 5736 058b 64010000 		.4byte	.LVL86
 5737 058f 0100     		.2byte	0x1
 5738 0591 55       		.byte	0x55
 5739 0592 68010000 		.4byte	.LVL87
 5740 0596 74010000 		.4byte	.LVL88
 5741 059a 0100     		.2byte	0x1
 5742 059c 55       		.byte	0x55
 5743 059d 74010000 		.4byte	.LVL88
 5744 05a1 88010000 		.4byte	.LVL90
 5745 05a5 0200     		.2byte	0x2
 5746 05a7 30       		.byte	0x30
 5747 05a8 9F       		.byte	0x9f
 5748 05a9 88010000 		.4byte	.LVL90
 5749 05ad 8C010000 		.4byte	.LVL92
 5750 05b1 0100     		.2byte	0x1
 5751 05b3 55       		.byte	0x55
 5752 05b4 00000000 		.4byte	0
 5753 05b8 00000000 		.4byte	0
 5754              	.LLST25:
 5755 05bc 6C000000 		.4byte	.LVL69
 5756 05c0 73000000 		.4byte	.LVL70-1
 5757 05c4 0100     		.2byte	0x1
 5758 05c6 50       		.byte	0x50
 5759 05c7 00000000 		.4byte	0
 5760 05cb 00000000 		.4byte	0
 5761              	.LLST26:
ARM GAS  C:\Users\310309~1\AppData\Local\Temp\cckEzWOW.s 			page 122


 5762 05cf 00000000 		.4byte	.LVL93
 5763 05d3 0A000000 		.4byte	.LVL94
 5764 05d7 0100     		.2byte	0x1
 5765 05d9 50       		.byte	0x50
 5766 05da 0A000000 		.4byte	.LVL94
 5767 05de 68000000 		.4byte	.LVL102
 5768 05e2 0100     		.2byte	0x1
 5769 05e4 54       		.byte	0x54
 5770 05e5 68000000 		.4byte	.LVL102
 5771 05e9 7C000000 		.4byte	.LFE12
 5772 05ed 0400     		.2byte	0x4
 5773 05ef F3       		.byte	0xf3
 5774 05f0 01       		.uleb128 0x1
 5775 05f1 50       		.byte	0x50
 5776 05f2 9F       		.byte	0x9f
 5777 05f3 00000000 		.4byte	0
 5778 05f7 00000000 		.4byte	0
 5779              	.LLST27:
 5780 05fb 12000000 		.4byte	.LVL95
 5781 05ff 16000000 		.4byte	.LVL96
 5782 0603 0200     		.2byte	0x2
 5783 0605 30       		.byte	0x30
 5784 0606 9F       		.byte	0x9f
 5785 0607 16000000 		.4byte	.LVL96
 5786 060b 38000000 		.4byte	.LVL97
 5787 060f 0100     		.2byte	0x1
 5788 0611 52       		.byte	0x52
 5789 0612 5E000000 		.4byte	.LVL98
 5790 0616 60000000 		.4byte	.LVL99
 5791 061a 0100     		.2byte	0x1
 5792 061c 52       		.byte	0x52
 5793 061d 62000000 		.4byte	.LVL100
 5794 0621 66000000 		.4byte	.LVL101
 5795 0625 0100     		.2byte	0x1
 5796 0627 52       		.byte	0x52
 5797 0628 00000000 		.4byte	0
 5798 062c 00000000 		.4byte	0
 5799              	.LLST28:
 5800 0630 00000000 		.4byte	.LVL103
 5801 0634 0E000000 		.4byte	.LVL105
 5802 0638 0100     		.2byte	0x1
 5803 063a 50       		.byte	0x50
 5804 063b 0E000000 		.4byte	.LVL105
 5805 063f 20010000 		.4byte	.LVL120
 5806 0643 0100     		.2byte	0x1
 5807 0645 54       		.byte	0x54
 5808 0646 20010000 		.4byte	.LVL120
 5809 064a 38010000 		.4byte	.LFE13
 5810 064e 0400     		.2byte	0x4
 5811 0650 F3       		.byte	0xf3
 5812 0651 01       		.uleb128 0x1
 5813 0652 50       		.byte	0x50
 5814 0653 9F       		.byte	0x9f
 5815 0654 00000000 		.4byte	0
 5816 0658 00000000 		.4byte	0
 5817              	.LLST29:
 5818 065c 26000000 		.4byte	.LVL108
ARM GAS  C:\Users\310309~1\AppData\Local\Temp\cckEzWOW.s 			page 123


 5819 0660 80000000 		.4byte	.LVL113
 5820 0664 0100     		.2byte	0x1
 5821 0666 57       		.byte	0x57
 5822 0667 82000000 		.4byte	.LVL114
 5823 066b 8C000000 		.4byte	.LVL116
 5824 066f 0100     		.2byte	0x1
 5825 0671 57       		.byte	0x57
 5826 0672 00000000 		.4byte	0
 5827 0676 00000000 		.4byte	0
 5828              	.LLST30:
 5829 067a 0A000000 		.4byte	.LVL104
 5830 067e 0E000000 		.4byte	.LVL105
 5831 0682 0200     		.2byte	0x2
 5832 0684 30       		.byte	0x30
 5833 0685 9F       		.byte	0x9f
 5834 0686 0E000000 		.4byte	.LVL105
 5835 068a 1C000000 		.4byte	.LVL106
 5836 068e 0100     		.2byte	0x1
 5837 0690 53       		.byte	0x53
 5838 0691 1E000000 		.4byte	.LVL107
 5839 0695 74000000 		.4byte	.LVL109
 5840 0699 0100     		.2byte	0x1
 5841 069b 53       		.byte	0x53
 5842 069c 76000000 		.4byte	.LVL110
 5843 06a0 78000000 		.4byte	.LVL111
 5844 06a4 0100     		.2byte	0x1
 5845 06a6 53       		.byte	0x53
 5846 06a7 7A000000 		.4byte	.LVL112
 5847 06ab 84000000 		.4byte	.LVL115
 5848 06af 0100     		.2byte	0x1
 5849 06b1 53       		.byte	0x53
 5850 06b2 8C000000 		.4byte	.LVL116
 5851 06b6 18010000 		.4byte	.LVL118
 5852 06ba 0100     		.2byte	0x1
 5853 06bc 55       		.byte	0x55
 5854 06bd 1A010000 		.4byte	.LVL119
 5855 06c1 20010000 		.4byte	.LVL121
 5856 06c5 0100     		.2byte	0x1
 5857 06c7 55       		.byte	0x55
 5858 06c8 00000000 		.4byte	0
 5859 06cc 00000000 		.4byte	0
 5860              		.section	.debug_aranges,"",%progbits
 5861 0000 74000000 		.4byte	0x74
 5862 0004 0200     		.2byte	0x2
 5863 0006 00000000 		.4byte	.Ldebug_info0
 5864 000a 04       		.byte	0x4
 5865 000b 00       		.byte	0
 5866 000c 0000     		.2byte	0
 5867 000e 0000     		.2byte	0
 5868 0010 00000000 		.4byte	.LFB2
 5869 0014 14000000 		.4byte	.LFE2-.LFB2
 5870 0018 00000000 		.4byte	.LFB3
 5871 001c 0C000000 		.4byte	.LFE3-.LFB3
 5872 0020 00000000 		.4byte	.LFB4
 5873 0024 40000000 		.4byte	.LFE4-.LFB4
 5874 0028 00000000 		.4byte	.LFB5
 5875 002c 40000000 		.4byte	.LFE5-.LFB5
ARM GAS  C:\Users\310309~1\AppData\Local\Temp\cckEzWOW.s 			page 124


 5876 0030 00000000 		.4byte	.LFB6
 5877 0034 50000000 		.4byte	.LFE6-.LFB6
 5878 0038 00000000 		.4byte	.LFB7
 5879 003c 78000000 		.4byte	.LFE7-.LFB7
 5880 0040 00000000 		.4byte	.LFB8
 5881 0044 88000000 		.4byte	.LFE8-.LFB8
 5882 0048 00000000 		.4byte	.LFB9
 5883 004c 54000000 		.4byte	.LFE9-.LFB9
 5884 0050 00000000 		.4byte	.LFB10
 5885 0054 78000000 		.4byte	.LFE10-.LFB10
 5886 0058 00000000 		.4byte	.LFB11
 5887 005c C0010000 		.4byte	.LFE11-.LFB11
 5888 0060 00000000 		.4byte	.LFB12
 5889 0064 7C000000 		.4byte	.LFE12-.LFB12
 5890 0068 00000000 		.4byte	.LFB13
 5891 006c 38010000 		.4byte	.LFE13-.LFB13
 5892 0070 00000000 		.4byte	0
 5893 0074 00000000 		.4byte	0
 5894              		.section	.debug_ranges,"",%progbits
 5895              	.Ldebug_ranges0:
 5896 0000 00000000 		.4byte	.LFB2
 5897 0004 14000000 		.4byte	.LFE2
 5898 0008 00000000 		.4byte	.LFB3
 5899 000c 0C000000 		.4byte	.LFE3
 5900 0010 00000000 		.4byte	.LFB4
 5901 0014 40000000 		.4byte	.LFE4
 5902 0018 00000000 		.4byte	.LFB5
 5903 001c 40000000 		.4byte	.LFE5
 5904 0020 00000000 		.4byte	.LFB6
 5905 0024 50000000 		.4byte	.LFE6
 5906 0028 00000000 		.4byte	.LFB7
 5907 002c 78000000 		.4byte	.LFE7
 5908 0030 00000000 		.4byte	.LFB8
 5909 0034 88000000 		.4byte	.LFE8
 5910 0038 00000000 		.4byte	.LFB9
 5911 003c 54000000 		.4byte	.LFE9
 5912 0040 00000000 		.4byte	.LFB10
 5913 0044 78000000 		.4byte	.LFE10
 5914 0048 00000000 		.4byte	.LFB11
 5915 004c C0010000 		.4byte	.LFE11
 5916 0050 00000000 		.4byte	.LFB12
 5917 0054 7C000000 		.4byte	.LFE12
 5918 0058 00000000 		.4byte	.LFB13
 5919 005c 38010000 		.4byte	.LFE13
 5920 0060 00000000 		.4byte	0
 5921 0064 00000000 		.4byte	0
 5922              		.section	.debug_line,"",%progbits
 5923              	.Ldebug_line0:
 5924 0000 0B030000 		.section	.debug_str,"MS",%progbits,1
 5924      0200DB00 
 5924      00000201 
 5924      FB0E0D00 
 5924      01010101 
 5925              	.LASF587:
 5926 0000 6379426C 		.ascii	"cyBle_peerBonding\000"
 5926      655F7065 
 5926      6572426F 
ARM GAS  C:\Users\310309~1\AppData\Local\Temp\cckEzWOW.s 			page 125


 5926      6E64696E 
 5926      6700
 5927              	.LASF525:
 5928 0012 4359424C 		.ascii	"CYBLE_EVT_UDSC_READ_CHAR_RESPONSE\000"
 5928      455F4556 
 5928      545F5544 
 5928      53435F52 
 5928      4541445F 
 5929              	.LASF484:
 5930 0034 4359424C 		.ascii	"CYBLE_EVT_PLXSC_NOTIFICATION\000"
 5930      455F4556 
 5930      545F504C 
 5930      5853435F 
 5930      4E4F5449 
 5931              	.LASF435:
 5932 0051 4359424C 		.ascii	"CYBLE_EVT_HTSS_NOTIFICATION_DISABLED\000"
 5932      455F4556 
 5932      545F4854 
 5932      53535F4E 
 5932      4F544946 
 5933              	.LASF151:
 5934 0076 4359424C 		.ascii	"CYBLE_GATT_ERR_INVALID_CRC\000"
 5934      455F4741 
 5934      54545F45 
 5934      52525F49 
 5934      4E56414C 
 5935              	.LASF213:
 5936 0091 4359424C 		.ascii	"CYBLE_DIS_CHAR_COUNT\000"
 5936      455F4449 
 5936      535F4348 
 5936      41525F43 
 5936      4F554E54 
 5937              	.LASF228:
 5938 00a6 4359424C 		.ascii	"CYBLE_UDS_STP\000"
 5938      455F5544 
 5938      535F5354 
 5938      5000
 5939              	.LASF16:
 5940 00b4 73697A65 		.ascii	"sizetype\000"
 5940      74797065 
 5940      00
 5941              	.LASF316:
 5942 00bd 4359424C 		.ascii	"CYBLE_EVT_BCSC_READ_CHAR_RESPONSE\000"
 5942      455F4556 
 5942      545F4243 
 5942      53435F52 
 5942      4541445F 
 5943              	.LASF175:
 5944 00df 4359424C 		.ascii	"CYBLE_GATTS_HANDLE_VALUE_NTF_T\000"
 5944      455F4741 
 5944      5454535F 
 5944      48414E44 
 5944      4C455F56 
 5945              	.LASF339:
 5946 00fe 4359424C 		.ascii	"CYBLE_EVT_CGMSC_INDICATION\000"
 5946      455F4556 
 5946      545F4347 
ARM GAS  C:\Users\310309~1\AppData\Local\Temp\cckEzWOW.s 			page 126


 5946      4D53435F 
 5946      494E4449 
 5947              	.LASF357:
 5948 0119 4359424C 		.ascii	"CYBLE_EVT_CPSC_READ_DESCR_RESPONSE\000"
 5948      455F4556 
 5948      545F4350 
 5948      53435F52 
 5948      4541445F 
 5949              	.LASF488:
 5950 013c 4359424C 		.ascii	"CYBLE_EVT_PLXSC_READ_DESCR_RESPONSE\000"
 5950      455F4556 
 5950      545F504C 
 5950      5853435F 
 5950      52454144 
 5951              	.LASF502:
 5952 0160 4359424C 		.ascii	"CYBLE_EVT_RTUSS_WRITE_CHAR_CMD\000"
 5952      455F4556 
 5952      545F5254 
 5952      5553535F 
 5952      57524954 
 5953              	.LASF256:
 5954 017f 63686172 		.ascii	"charIndex\000"
 5954      496E6465 
 5954      7800
 5955              	.LASF601:
 5956 0189 433A5C55 		.ascii	"C:\\Users\\310309623\\Desktop\\OneDrive - Philips\\"
 5956      73657273 
 5956      5C333130 
 5956      33303936 
 5956      32335C44 
 5957 01b7 41667374 		.ascii	"Afstudeerstage\\Afstuderen\\Stage\\Project\\Service"
 5957      75646565 
 5957      72737461 
 5957      67655C41 
 5957      66737475 
 5958 01e6 5C506869 		.ascii	"\\Philips\\Physical Activity Monitor Service.cydsn\000"
 5958      6C697073 
 5958      5C506879 
 5958      73696361 
 5958      6C204163 
 5959              	.LASF578:
 5960 0217 4379426C 		.ascii	"CyBle_UdssPrepareWriteRequestEventHandler\000"
 5960      655F5564 
 5960      73735072 
 5960      65706172 
 5960      65577269 
 5961              	.LASF536:
 5962 0241 4359424C 		.ascii	"CYBLE_EVT_WPTSC_NOTIFICATION\000"
 5962      455F4556 
 5962      545F5750 
 5962      5453435F 
 5962      4E4F5449 
 5963              	.LASF405:
 5964 025e 4359424C 		.ascii	"CYBLE_EVT_GLSC_WRITE_DESCR_RESPONSE\000"
 5964      455F4556 
 5964      545F474C 
 5964      53435F57 
ARM GAS  C:\Users\310309~1\AppData\Local\Temp\cckEzWOW.s 			page 127


 5964      52495445 
 5965              	.LASF37:
 5966 0282 4359424C 		.ascii	"CYBLE_EVT_GAP_NUMERIC_COMPARISON_REQUEST\000"
 5966      455F4556 
 5966      545F4741 
 5966      505F4E55 
 5966      4D455249 
 5967              	.LASF283:
 5968 02ab 4359424C 		.ascii	"CYBLE_EVT_AIOSC_NOTIFICATION\000"
 5968      455F4556 
 5968      545F4149 
 5968      4F53435F 
 5968      4E4F5449 
 5969              	.LASF542:
 5970 02c8 4359424C 		.ascii	"CYBLE_EVT_WSSS_INDICATION_ENABLED\000"
 5970      455F4556 
 5970      545F5753 
 5970      53535F49 
 5970      4E444943 
 5971              	.LASF355:
 5972 02ea 4359424C 		.ascii	"CYBLE_EVT_CPSC_READ_CHAR_RESPONSE\000"
 5972      455F4556 
 5972      545F4350 
 5972      53435F52 
 5972      4541445F 
 5973              	.LASF368:
 5974 030c 4359424C 		.ascii	"CYBLE_EVT_CSCSC_READ_CHAR_RESPONSE\000"
 5974      455F4556 
 5974      545F4353 
 5974      4353435F 
 5974      52454144 
 5975              	.LASF181:
 5976 032f 4359424C 		.ascii	"CYBLE_GATTS_PREP_WRITE_REQ_PARAM_T\000"
 5976      455F4741 
 5976      5454535F 
 5976      50524550 
 5976      5F575249 
 5977              	.LASF344:
 5978 0352 4359424C 		.ascii	"CYBLE_EVT_CGMSC_WRITE_DESCR_RESPONSE\000"
 5978      455F4556 
 5978      545F4347 
 5978      4D53435F 
 5978      57524954 
 5979              	.LASF398:
 5980 0377 4359424C 		.ascii	"CYBLE_EVT_GLSS_NOTIFICATION_DISABLED\000"
 5980      455F4556 
 5980      545F474C 
 5980      53535F4E 
 5980      4F544946 
 5981              	.LASF571:
 5982 039c 6576656E 		.ascii	"eventParam\000"
 5982      74506172 
 5982      616D00
 5983              	.LASF326:
 5984 03a7 4359424C 		.ascii	"CYBLE_EVT_BLSC_READ_CHAR_RESPONSE\000"
 5984      455F4556 
 5984      545F424C 
ARM GAS  C:\Users\310309~1\AppData\Local\Temp\cckEzWOW.s 			page 128


 5984      53435F52 
 5984      4541445F 
 5985              	.LASF31:
 5986 03c9 4359424C 		.ascii	"CYBLE_EVT_GAP_DEVICE_CONNECTED\000"
 5986      455F4556 
 5986      545F4741 
 5986      505F4445 
 5986      56494345 
 5987              	.LASF457:
 5988 03e8 4359424C 		.ascii	"CYBLE_EVT_LLSC_WRITE_CHAR_RESPONSE\000"
 5988      455F4556 
 5988      545F4C4C 
 5988      53435F57 
 5988      52495445 
 5989              	.LASF49:
 5990 040b 4359424C 		.ascii	"CYBLE_EVT_GATT_CONNECT_IND\000"
 5990      455F4556 
 5990      545F4741 
 5990      54545F43 
 5990      4F4E4E45 
 5991              	.LASF557:
 5992 0426 61747472 		.ascii	"attrSize\000"
 5992      53697A65 
 5992      00
 5993              	.LASF403:
 5994 042f 4359424C 		.ascii	"CYBLE_EVT_GLSC_WRITE_CHAR_RESPONSE\000"
 5994      455F4556 
 5994      545F474C 
 5994      53435F57 
 5994      52495445 
 5995              	.LASF11:
 5996 0452 75696E74 		.ascii	"uint32\000"
 5996      333200
 5997              	.LASF268:
 5998 0459 4359424C 		.ascii	"CYBLE_EVT_GATTC_DESCR_DISCOVERY_FAILED\000"
 5998      455F4556 
 5998      545F4741 
 5998      5454435F 
 5998      44455343 
 5999              	.LASF538:
 6000 0480 4359424C 		.ascii	"CYBLE_EVT_WPTSC_WRITE_CHAR_RESPONSE\000"
 6000      455F4556 
 6000      545F5750 
 6000      5453435F 
 6000      57524954 
 6001              	.LASF501:
 6002 04a4 4359424C 		.ascii	"CYBLE_EVT_RSCSC_WRITE_DESCR_RESPONSE\000"
 6002      455F4556 
 6002      545F5253 
 6002      4353435F 
 6002      57524954 
 6003              	.LASF314:
 6004 04c9 4359424C 		.ascii	"CYBLE_EVT_BCSS_INDICATION_CONFIRMED\000"
 6004      455F4556 
 6004      545F4243 
 6004      53535F49 
 6004      4E444943 
ARM GAS  C:\Users\310309~1\AppData\Local\Temp\cckEzWOW.s 			page 129


 6005              	.LASF315:
 6006 04ed 4359424C 		.ascii	"CYBLE_EVT_BCSC_INDICATION\000"
 6006      455F4556 
 6006      545F4243 
 6006      53435F49 
 6006      4E444943 
 6007              	.LASF242:
 6008 0507 4359424C 		.ascii	"CYBLE_UDS_UIX\000"
 6008      455F5544 
 6008      535F5549 
 6008      5800
 6009              	.LASF459:
 6010 0515 4359424C 		.ascii	"CYBLE_EVT_LNSS_INDICATION_DISABLED\000"
 6010      455F4556 
 6010      545F4C4E 
 6010      53535F49 
 6010      4E444943 
 6011              	.LASF376:
 6012 0538 4359424C 		.ascii	"CYBLE_EVT_CTSC_READ_CHAR_RESPONSE\000"
 6012      455F4556 
 6012      545F4354 
 6012      53435F52 
 6012      4541445F 
 6013              	.LASF272:
 6014 055a 4359424C 		.ascii	"CYBLE_EVT_GATTC_SRVC_DISCOVERY_COMPLETE\000"
 6014      455F4556 
 6014      545F4741 
 6014      5454435F 
 6014      53525643 
 6015              	.LASF495:
 6016 0582 4359424C 		.ascii	"CYBLE_EVT_RSCSS_CHAR_WRITE\000"
 6016      455F4556 
 6016      545F5253 
 6016      4353535F 
 6016      43484152 
 6017              	.LASF485:
 6018 059d 4359424C 		.ascii	"CYBLE_EVT_PLXSC_INDICATION\000"
 6018      455F4556 
 6018      545F504C 
 6018      5853435F 
 6018      494E4449 
 6019              	.LASF528:
 6020 05b8 4359424C 		.ascii	"CYBLE_EVT_UDSC_WRITE_DESCR_RESPONSE\000"
 6020      455F4556 
 6020      545F5544 
 6020      53435F57 
 6020      52495445 
 6021              	.LASF417:
 6022 05dc 4359424C 		.ascii	"CYBLE_EVT_HIDSC_WRITE_DESCR_RESPONSE\000"
 6022      455F4556 
 6022      545F4849 
 6022      4453435F 
 6022      57524954 
 6023              	.LASF510:
 6024 0601 4359424C 		.ascii	"CYBLE_EVT_TPSS_NOTIFICATION_ENABLED\000"
 6024      455F4556 
 6024      545F5450 
ARM GAS  C:\Users\310309~1\AppData\Local\Temp\cckEzWOW.s 			page 130


 6024      53535F4E 
 6024      4F544946 
 6025              	.LASF304:
 6026 0625 4359424C 		.ascii	"CYBLE_EVT_ANSC_READ_DESCR_RESPONSE\000"
 6026      455F4556 
 6026      545F414E 
 6026      53435F52 
 6026      4541445F 
 6027              	.LASF125:
 6028 0648 4359424C 		.ascii	"CYBLE_GATT_ERR_READ_NOT_PERMITTED\000"
 6028      455F4741 
 6028      54545F45 
 6028      52525F52 
 6028      4541445F 
 6029              	.LASF140:
 6030 066a 4359424C 		.ascii	"CYBLE_GATT_ERR_INSUFFICIENT_RESOURCE\000"
 6030      455F4741 
 6030      54545F45 
 6030      52525F49 
 6030      4E535546 
 6031              	.LASF139:
 6032 068f 4359424C 		.ascii	"CYBLE_GATT_ERR_UNSUPPORTED_GROUP_TYPE\000"
 6032      455F4741 
 6032      54545F45 
 6032      52525F55 
 6032      4E535550 
 6033              	.LASF105:
 6034 06b5 4359424C 		.ascii	"CYBLE_ERROR_L2CAP_CONNECTION_ENTITY_NOT_FOUND\000"
 6034      455F4552 
 6034      524F525F 
 6034      4C324341 
 6034      505F434F 
 6035              	.LASF565:
 6036 06e3 4379426C 		.ascii	"CyBle_UdssSendNotification\000"
 6036      655F5564 
 6036      73735365 
 6036      6E644E6F 
 6036      74696669 
 6037              	.LASF111:
 6038 06fe 4359424C 		.ascii	"CYBLE_ERROR_MIC_AUTH_FAILED\000"
 6038      455F4552 
 6038      524F525F 
 6038      4D49435F 
 6038      41555448 
 6039              	.LASF267:
 6040 071a 4359424C 		.ascii	"CYBLE_EVT_GATTC_CHAR_DISCOVERY_FAILED\000"
 6040      455F4556 
 6040      545F4741 
 6040      5454435F 
 6040      43484152 
 6041              	.LASF69:
 6042 0740 4359424C 		.ascii	"CYBLE_EVT_GATTS_DATA_SIGNED_CMD_REQ\000"
 6042      455F4556 
 6042      545F4741 
 6042      5454535F 
 6042      44415441 
 6043              	.LASF81:
ARM GAS  C:\Users\310309~1\AppData\Local\Temp\cckEzWOW.s 			page 131


 6044 0764 4359424C 		.ascii	"CYBLE_EVT_L2CAP_CBFC_RX_CREDIT_IND\000"
 6044      455F4556 
 6044      545F4C32 
 6044      4341505F 
 6044      43424643 
 6045              	.LASF168:
 6046 0787 4359424C 		.ascii	"CYBLE_GATT_VALUE_T\000"
 6046      455F4741 
 6046      54545F56 
 6046      414C5545 
 6046      5F5400
 6047              	.LASF599:
 6048 079a 474E5520 		.ascii	"GNU C11 5.4.1 20160609 (release) [ARM/embedded-5-br"
 6048      43313120 
 6048      352E342E 
 6048      31203230 
 6048      31363036 
 6049 07cd 616E6368 		.ascii	"anch revision 237715] -mcpu=cortex-m0 -mthumb -g -O"
 6049      20726576 
 6049      6973696F 
 6049      6E203233 
 6049      37373135 
 6050 0800 67202D66 		.ascii	"g -ffunction-sections -ffat-lto-objects\000"
 6050      66756E63 
 6050      74696F6E 
 6050      2D736563 
 6050      74696F6E 
 6051              	.LASF362:
 6052 0828 4359424C 		.ascii	"CYBLE_EVT_CSCSS_INDICATION_ENABLED\000"
 6052      455F4556 
 6052      545F4353 
 6052      4353535F 
 6052      494E4449 
 6053              	.LASF199:
 6054 084b 7065726D 		.ascii	"permission\000"
 6054      69737369 
 6054      6F6E00
 6055              	.LASF464:
 6056 0856 4359424C 		.ascii	"CYBLE_EVT_LNSC_INDICATION\000"
 6056      455F4556 
 6056      545F4C4E 
 6056      53435F49 
 6056      4E444943 
 6057              	.LASF141:
 6058 0870 4359424C 		.ascii	"CYBLE_GATT_ERR_TRIGGER_CODITION_VALUE_NOT_SUPPORTED"
 6058      455F4741 
 6058      54545F45 
 6058      52525F54 
 6058      52494747 
 6059 08a3 00       		.ascii	"\000"
 6060              	.LASF475:
 6061 08a4 4359424C 		.ascii	"CYBLE_EVT_PASSC_READ_CHAR_RESPONSE\000"
 6061      455F4556 
 6061      545F5041 
 6061      5353435F 
 6061      52454144 
 6062              	.LASF319:
ARM GAS  C:\Users\310309~1\AppData\Local\Temp\cckEzWOW.s 			page 132


 6063 08c7 4359424C 		.ascii	"CYBLE_EVT_BLSS_INDICATION_ENABLED\000"
 6063      455F4556 
 6063      545F424C 
 6063      53535F49 
 6063      4E444943 
 6064              	.LASF325:
 6065 08e9 4359424C 		.ascii	"CYBLE_EVT_BLSC_NOTIFICATION\000"
 6065      455F4556 
 6065      545F424C 
 6065      53435F4E 
 6065      4F544946 
 6066              	.LASF203:
 6067 0905 4359424C 		.ascii	"CYBLE_CALLBACK_T\000"
 6067      455F4341 
 6067      4C4C4241 
 6067      434B5F54 
 6067      00
 6068              	.LASF367:
 6069 0916 4359424C 		.ascii	"CYBLE_EVT_CSCSC_INDICATION\000"
 6069      455F4556 
 6069      545F4353 
 6069      4353435F 
 6069      494E4449 
 6070              	.LASF208:
 6071 0931 4359424C 		.ascii	"CYBLE_DIS_FIRMWARE_REV\000"
 6071      455F4449 
 6071      535F4649 
 6071      524D5741 
 6071      52455F52 
 6072              	.LASF66:
 6073 0948 4359424C 		.ascii	"CYBLE_EVT_GATTC_HANDLE_VALUE_NTF\000"
 6073      455F4556 
 6073      545F4741 
 6073      5454435F 
 6073      48414E44 
 6074              	.LASF25:
 6075 0969 4359424C 		.ascii	"CYBLE_EVT_GAP_AUTH_REQ\000"
 6075      455F4556 
 6075      545F4741 
 6075      505F4155 
 6075      54485F52 
 6076              	.LASF602:
 6077 0980 4379426C 		.ascii	"CyBle_UdsInit\000"
 6077      655F5564 
 6077      73496E69 
 6077      7400
 6078              	.LASF274:
 6079 098e 4359424C 		.ascii	"CYBLE_EVT_GATTC_CHAR_DISCOVERY_COMPLETE\000"
 6079      455F4556 
 6079      545F4741 
 6079      5454435F 
 6079      43484152 
 6080              	.LASF166:
 6081 09b6 4359424C 		.ascii	"CYBLE_CONN_HANDLE_T\000"
 6081      455F434F 
 6081      4E4E5F48 
 6081      414E444C 
ARM GAS  C:\Users\310309~1\AppData\Local\Temp\cckEzWOW.s 			page 133


 6081      455F5400 
 6082              	.LASF431:
 6083 09ca 4359424C 		.ascii	"CYBLE_EVT_HRSC_WRITE_CHAR_RESPONSE\000"
 6083      455F4556 
 6083      545F4852 
 6083      53435F57 
 6083      52495445 
 6084              	.LASF100:
 6085 09ed 4359424C 		.ascii	"CYBLE_ERROR_BT_ON_NOT_COMPLETED\000"
 6085      455F4552 
 6085      524F525F 
 6085      42545F4F 
 6085      4E5F4E4F 
 6086              	.LASF366:
 6087 0a0d 4359424C 		.ascii	"CYBLE_EVT_CSCSC_NOTIFICATION\000"
 6087      455F4556 
 6087      545F4353 
 6087      4353435F 
 6087      4E4F5449 
 6088              	.LASF523:
 6089 0a2a 4359424C 		.ascii	"CYBLE_EVT_UDSC_INDICATION\000"
 6089      455F4556 
 6089      545F5544 
 6089      53435F49 
 6089      4E444943 
 6090              	.LASF447:
 6091 0a44 4359424C 		.ascii	"CYBLE_EVT_IPSS_WRITE_CHAR\000"
 6091      455F4556 
 6091      545F4950 
 6091      53535F57 
 6091      52495445 
 6092              	.LASF46:
 6093 0a5e 4359424C 		.ascii	"CYBLE_EVT_GAP_AUTH_REQ_REPLY_ERR\000"
 6093      455F4556 
 6093      545F4741 
 6093      505F4155 
 6093      54485F52 
 6094              	.LASF330:
 6095 0a7f 4359424C 		.ascii	"CYBLE_EVT_BMSC_READ_CHAR_RESPONSE\000"
 6095      455F4556 
 6095      545F424D 
 6095      53435F52 
 6095      4541445F 
 6096              	.LASF449:
 6097 0aa1 4359424C 		.ascii	"CYBLE_EVT_IPSC_READ_MULTIPLE_CHAR_RESPONSE\000"
 6097      455F4556 
 6097      545F4950 
 6097      53435F52 
 6097      4541445F 
 6098              	.LASF39:
 6099 0acc 4359424C 		.ascii	"CYBLE_EVT_GAP_OOB_GENERATED_NOTIFICATION\000"
 6099      455F4556 
 6099      545F4741 
 6099      505F4F4F 
 6099      425F4745 
 6100              	.LASF251:
 6101 0af5 64657363 		.ascii	"descrHandle\000"
ARM GAS  C:\Users\310309~1\AppData\Local\Temp\cckEzWOW.s 			page 134


 6101      7248616E 
 6101      646C6500 
 6102              	.LASF164:
 6103 0b01 62644861 		.ascii	"bdHandle\000"
 6103      6E646C65 
 6103      00
 6104              	.LASF153:
 6105 0b0a 4359424C 		.ascii	"CYBLE_GATTS_ERR_NETWORK_NOT_AVAILABLE\000"
 6105      455F4741 
 6105      5454535F 
 6105      4552525F 
 6105      4E455457 
 6106              	.LASF183:
 6107 0b30 65786563 		.ascii	"execWriteFlag\000"
 6107      57726974 
 6107      65466C61 
 6107      6700
 6108              	.LASF156:
 6109 0b3e 4359424C 		.ascii	"CYBLE_GATT_ERR_ANCS_INVALID_COMMAND\000"
 6109      455F4741 
 6109      54545F45 
 6109      52525F41 
 6109      4E43535F 
 6110              	.LASF327:
 6111 0b62 4359424C 		.ascii	"CYBLE_EVT_BLSC_READ_DESCR_RESPONSE\000"
 6111      455F4556 
 6111      545F424C 
 6111      53435F52 
 6111      4541445F 
 6112              	.LASF487:
 6113 0b85 4359424C 		.ascii	"CYBLE_EVT_PLXSC_WRITE_CHAR_RESPONSE\000"
 6113      455F4556 
 6113      545F504C 
 6113      5853435F 
 6113      57524954 
 6114              	.LASF348:
 6115 0ba9 4359424C 		.ascii	"CYBLE_EVT_CPSS_INDICATION_DISABLED\000"
 6115      455F4556 
 6115      545F4350 
 6115      53535F49 
 6115      4E444943 
 6116              	.LASF347:
 6117 0bcc 4359424C 		.ascii	"CYBLE_EVT_CPSS_INDICATION_ENABLED\000"
 6117      455F4556 
 6117      545F4350 
 6117      53535F49 
 6117      4E444943 
 6118              	.LASF461:
 6119 0bee 4359424C 		.ascii	"CYBLE_EVT_LNSS_NOTIFICATION_ENABLED\000"
 6119      455F4556 
 6119      545F4C4E 
 6119      53535F4E 
 6119      4F544946 
 6120              	.LASF62:
 6121 0c12 4359424C 		.ascii	"CYBLE_EVT_GATTS_WRITE_CMD_REQ\000"
 6121      455F4556 
 6121      545F4741 
ARM GAS  C:\Users\310309~1\AppData\Local\Temp\cckEzWOW.s 			page 135


 6121      5454535F 
 6121      57524954 
 6122              	.LASF358:
 6123 0c30 4359424C 		.ascii	"CYBLE_EVT_CPSC_WRITE_DESCR_RESPONSE\000"
 6123      455F4556 
 6123      545F4350 
 6123      53435F57 
 6123      52495445 
 6124              	.LASF82:
 6125 0c54 4359424C 		.ascii	"CYBLE_EVT_L2CAP_CBFC_TX_CREDIT_IND\000"
 6125      455F4556 
 6125      545F4C32 
 6125      4341505F 
 6125      43424643 
 6126              	.LASF4:
 6127 0c77 6C6F6E67 		.ascii	"long int\000"
 6127      20696E74 
 6127      00
 6128              	.LASF462:
 6129 0c80 4359424C 		.ascii	"CYBLE_EVT_LNSS_NOTIFICATION_DISABLED\000"
 6129      455F4556 
 6129      545F4C4E 
 6129      53535F4E 
 6129      4F544946 
 6130              	.LASF363:
 6131 0ca5 4359424C 		.ascii	"CYBLE_EVT_CSCSS_INDICATION_DISABLED\000"
 6131      455F4556 
 6131      545F4353 
 6131      4353535F 
 6131      494E4449 
 6132              	.LASF570:
 6133 0cc9 4379426C 		.ascii	"CyBle_UdssConfirmationEventHandler\000"
 6133      655F5564 
 6133      7373436F 
 6133      6E666972 
 6133      6D617469 
 6134              	.LASF518:
 6135 0cec 4359424C 		.ascii	"CYBLE_EVT_UDSS_INDICATION_CONFIRMED\000"
 6135      455F4556 
 6135      545F5544 
 6135      53535F49 
 6135      4E444943 
 6136              	.LASF238:
 6137 0d10 4359424C 		.ascii	"CYBLE_UDS_5ZL\000"
 6137      455F5544 
 6137      535F355A 
 6137      4C00
 6138              	.LASF260:
 6139 0d1e 4359424C 		.ascii	"CYBLE_LONG_TERM_KEY_REQUEST_REPLY\000"
 6139      455F4C4F 
 6139      4E475F54 
 6139      45524D5F 
 6139      4B45595F 
 6140              	.LASF18:
 6141 0d40 4359424C 		.ascii	"CYBLE_EVT_STACK_ON\000"
 6141      455F4556 
 6141      545F5354 
ARM GAS  C:\Users\310309~1\AppData\Local\Temp\cckEzWOW.s 			page 136


 6141      41434B5F 
 6141      4F4E00
 6142              	.LASF107:
 6143 0d53 4359424C 		.ascii	"CYBLE_ERROR_L2CAP_PSM_NOT_IN_RANGE\000"
 6143      455F4552 
 6143      524F525F 
 6143      4C324341 
 6143      505F5053 
 6144              	.LASF207:
 6145 0d76 4359424C 		.ascii	"CYBLE_DIS_HARDWARE_REV\000"
 6145      455F4449 
 6145      535F4841 
 6145      52445741 
 6145      52455F52 
 6146              	.LASF313:
 6147 0d8d 4359424C 		.ascii	"CYBLE_EVT_BCSS_INDICATION_DISABLED\000"
 6147      455F4556 
 6147      545F4243 
 6147      53535F49 
 6147      4E444943 
 6148              	.LASF556:
 6149 0db0 63616C6C 		.ascii	"callbackFunc\000"
 6149      6261636B 
 6149      46756E63 
 6149      00
 6150              	.LASF393:
 6151 0dbd 4359424C 		.ascii	"CYBLE_EVT_ESSC_WRITE_DESCR_RESPONSE\000"
 6151      455F4556 
 6151      545F4553 
 6151      53435F57 
 6151      52495445 
 6152              	.LASF152:
 6153 0de1 4359424C 		.ascii	"CYBLE_GATTS_ERR_HPS_INVALID_REQUEST\000"
 6153      455F4741 
 6153      5454535F 
 6153      4552525F 
 6153      4850535F 
 6154              	.LASF583:
 6155 0e05 4379426C 		.ascii	"CyBle_UdsApplCallback\000"
 6155      655F5564 
 6155      73417070 
 6155      6C43616C 
 6155      6C626163 
 6156              	.LASF450:
 6157 0e1b 4359424C 		.ascii	"CYBLE_EVT_IPSC_WRITE_CHAR_RESPONSE\000"
 6157      455F4556 
 6157      545F4950 
 6157      53435F57 
 6157      52495445 
 6158              	.LASF253:
 6159 0e3e 73657276 		.ascii	"serviceHandle\000"
 6159      69636548 
 6159      616E646C 
 6159      6500
 6160              	.LASF434:
 6161 0e4c 4359424C 		.ascii	"CYBLE_EVT_HTSS_NOTIFICATION_ENABLED\000"
 6161      455F4556 
ARM GAS  C:\Users\310309~1\AppData\Local\Temp\cckEzWOW.s 			page 137


 6161      545F4854 
 6161      53535F4E 
 6161      4F544946 
 6162              	.LASF127:
 6163 0e70 4359424C 		.ascii	"CYBLE_GATT_ERR_INVALID_PDU\000"
 6163      455F4741 
 6163      54545F45 
 6163      52525F49 
 6163      4E56414C 
 6164              	.LASF119:
 6165 0e8b 4359424C 		.ascii	"CYBLE_ERROR_CHAR_IS_NOT_DISCOVERED\000"
 6165      455F4552 
 6165      524F525F 
 6165      43484152 
 6165      5F49535F 
 6166              	.LASF521:
 6167 0eae 4359424C 		.ascii	"CYBLE_EVT_UDSS_READ_CHAR\000"
 6167      455F4556 
 6167      545F5544 
 6167      53535F52 
 6167      4541445F 
 6168              	.LASF236:
 6169 0ec7 4359424C 		.ascii	"CYBLE_UDS_ANL\000"
 6169      455F5544 
 6169      535F414E 
 6169      4C00
 6170              	.LASF279:
 6171 0ed5 4359424C 		.ascii	"CYBLE_EVT_AIOSS_INDICATION_DISABLED\000"
 6171      455F4556 
 6171      545F4149 
 6171      4F53535F 
 6171      494E4449 
 6172              	.LASF171:
 6173 0ef9 4359424C 		.ascii	"CYBLE_GATT_HANDLE_VALUE_PAIR_T\000"
 6173      455F4741 
 6173      54545F48 
 6173      414E444C 
 6173      455F5641 
 6174              	.LASF198:
 6175 0f18 61747454 		.ascii	"attType\000"
 6175      79706500 
 6176              	.LASF227:
 6177 0f20 4359424C 		.ascii	"CYBLE_UDS_ANT\000"
 6177      455F5544 
 6177      535F414E 
 6177      5400
 6178              	.LASF237:
 6179 0f2e 4359424C 		.ascii	"CYBLE_UDS_ANU\000"
 6179      455F5544 
 6179      535F414E 
 6179      5500
 6180              	.LASF390:
 6181 0f3c 4359424C 		.ascii	"CYBLE_EVT_ESSC_READ_CHAR_RESPONSE\000"
 6181      455F4556 
 6181      545F4553 
 6181      53435F52 
 6181      4541445F 
ARM GAS  C:\Users\310309~1\AppData\Local\Temp\cckEzWOW.s 			page 138


 6182              	.LASF214:
 6183 0f5e 4359424C 		.ascii	"CYBLE_UDS_FNM\000"
 6183      455F5544 
 6183      535F464E 
 6183      4D00
 6184              	.LASF413:
 6185 0f6c 4359424C 		.ascii	"CYBLE_EVT_HIDSC_NOTIFICATION\000"
 6185      455F4556 
 6185      545F4849 
 6185      4453435F 
 6185      4E4F5449 
 6186              	.LASF75:
 6187 0f89 4359424C 		.ascii	"CYBLE_EVT_L2CAP_COMMAND_REJ\000"
 6187      455F4556 
 6187      545F4C32 
 6187      4341505F 
 6187      434F4D4D 
 6188              	.LASF276:
 6189 0fa5 4359424C 		.ascii	"CYBLE_EVT_AIOSS_NOTIFICATION_ENABLED\000"
 6189      455F4556 
 6189      545F4149 
 6189      4F53535F 
 6189      4E4F5449 
 6190              	.LASF136:
 6191 0fca 4359424C 		.ascii	"CYBLE_GATT_ERR_INVALID_ATTRIBUTE_LEN\000"
 6191      455F4741 
 6191      54545F45 
 6191      52525F49 
 6191      4E56414C 
 6192              	.LASF410:
 6193 0fef 4359424C 		.ascii	"CYBLE_EVT_HIDSS_SUSPEND\000"
 6193      455F4556 
 6193      545F4849 
 6193      4453535F 
 6193      53555350 
 6194              	.LASF108:
 6195 1007 4359424C 		.ascii	"CYBLE_ERROR_GATT_DB_INVALID_ATTR_HANDLE\000"
 6195      455F4552 
 6195      524F525F 
 6195      47415454 
 6195      5F44425F 
 6196              	.LASF0:
 6197 102f 7369676E 		.ascii	"signed char\000"
 6197      65642063 
 6197      68617200 
 6198              	.LASF317:
 6199 103b 4359424C 		.ascii	"CYBLE_EVT_BCSC_READ_DESCR_RESPONSE\000"
 6199      455F4556 
 6199      545F4243 
 6199      53435F52 
 6199      4541445F 
 6200              	.LASF548:
 6201 105e 4359424C 		.ascii	"CYBLE_EVT_WSSC_WRITE_DESCR_RESPONSE\000"
 6201      455F4556 
 6201      545F5753 
 6201      53435F57 
 6201      52495445 
ARM GAS  C:\Users\310309~1\AppData\Local\Temp\cckEzWOW.s 			page 139


 6202              	.LASF310:
 6203 1082 4359424C 		.ascii	"CYBLE_EVT_BASC_READ_DESCR_RESPONSE\000"
 6203      455F4556 
 6203      545F4241 
 6203      53435F52 
 6203      4541445F 
 6204              	.LASF20:
 6205 10a5 4359424C 		.ascii	"CYBLE_EVT_HARDWARE_ERROR\000"
 6205      455F4556 
 6205      545F4841 
 6205      52445741 
 6205      52455F45 
 6206              	.LASF89:
 6207 10be 4359424C 		.ascii	"CYBLE_ERROR_OK\000"
 6207      455F4552 
 6207      524F525F 
 6207      4F4B00
 6208              	.LASF574:
 6209 10cd 6C6F6343 		.ascii	"locCharValue\000"
 6209      68617256 
 6209      616C7565 
 6209      00
 6210              	.LASF53:
 6211 10da 4359424C 		.ascii	"CYBLE_EVT_GATTC_READ_BY_GROUP_TYPE_RSP\000"
 6211      455F4556 
 6211      545F4741 
 6211      5454435F 
 6211      52454144 
 6212              	.LASF575:
 6213 1101 4379426C 		.ascii	"CyBle_UdssWriteEventHandler\000"
 6213      655F5564 
 6213      73735772 
 6213      69746545 
 6213      76656E74 
 6214              	.LASF550:
 6215 111d 4359424C 		.ascii	"CYBLE_STATE_STOPPED\000"
 6215      455F5354 
 6215      4154455F 
 6215      53544F50 
 6215      50454400 
 6216              	.LASF492:
 6217 1131 4359424C 		.ascii	"CYBLE_EVT_RSCSS_INDICATION_ENABLED\000"
 6217      455F4556 
 6217      545F5253 
 6217      4353535F 
 6217      494E4449 
 6218              	.LASF1:
 6219 1154 756E7369 		.ascii	"unsigned char\000"
 6219      676E6564 
 6219      20636861 
 6219      7200
 6220              	.LASF52:
 6221 1162 4359424C 		.ascii	"CYBLE_EVT_GATTC_XCHNG_MTU_RSP\000"
 6221      455F4556 
 6221      545F4741 
 6221      5454435F 
 6221      5843484E 
ARM GAS  C:\Users\310309~1\AppData\Local\Temp\cckEzWOW.s 			page 140


 6222              	.LASF349:
 6223 1180 4359424C 		.ascii	"CYBLE_EVT_CPSS_INDICATION_CONFIRMED\000"
 6223      455F4556 
 6223      545F4350 
 6223      53535F49 
 6223      4E444943 
 6224              	.LASF231:
 6225 11a4 4359424C 		.ascii	"CYBLE_UDS_HCC\000"
 6225      455F5544 
 6225      535F4843 
 6225      4300
 6226              	.LASF561:
 6227 11b2 4379426C 		.ascii	"CyBle_UdssSetCharacteristicValue\000"
 6227      655F5564 
 6227      73735365 
 6227      74436861 
 6227      72616374 
 6228              	.LASF346:
 6229 11d3 4359424C 		.ascii	"CYBLE_EVT_CPSS_NOTIFICATION_DISABLED\000"
 6229      455F4556 
 6229      545F4350 
 6229      53535F4E 
 6229      4F544946 
 6230              	.LASF497:
 6231 11f8 4359424C 		.ascii	"CYBLE_EVT_RSCSC_INDICATION\000"
 6231      455F4556 
 6231      545F5253 
 6231      4353435F 
 6231      494E4449 
 6232              	.LASF547:
 6233 1213 4359424C 		.ascii	"CYBLE_EVT_WSSC_READ_DESCR_RESPONSE\000"
 6233      455F4556 
 6233      545F5753 
 6233      53435F52 
 6233      4541445F 
 6234              	.LASF533:
 6235 1236 4359424C 		.ascii	"CYBLE_EVT_WPTSS_INDICATION_DISABLED\000"
 6235      455F4556 
 6235      545F5750 
 6235      5453535F 
 6235      494E4449 
 6236              	.LASF43:
 6237 125a 4359424C 		.ascii	"CYBLE_EVT_GAP_SMP_NEGOTIATED_AUTH_INFO\000"
 6237      455F4556 
 6237      545F4741 
 6237      505F534D 
 6237      505F4E45 
 6238              	.LASF44:
 6239 1281 4359424C 		.ascii	"CYBLE_EVT_GAP_CONN_ESTB\000"
 6239      455F4556 
 6239      545F4741 
 6239      505F434F 
 6239      4E4E5F45 
 6240              	.LASF197:
 6241 1299 61747448 		.ascii	"attHandle\000"
 6241      616E646C 
 6241      6500
ARM GAS  C:\Users\310309~1\AppData\Local\Temp\cckEzWOW.s 			page 141


 6242              	.LASF590:
 6243 12a3 6379426C 		.ascii	"cyBle_udsFlag\000"
 6243      655F7564 
 6243      73466C61 
 6243      6700
 6244              	.LASF264:
 6245 12b1 4359424C 		.ascii	"CYBLE_EVT_GATTC_INDICATION\000"
 6245      455F4556 
 6245      545F4741 
 6245      5454435F 
 6245      494E4449 
 6246              	.LASF248:
 6247 12cc 4359424C 		.ascii	"CYBLE_UDS_DESCR_COUNT\000"
 6247      455F5544 
 6247      535F4445 
 6247      5343525F 
 6247      434F554E 
 6248              	.LASF230:
 6249 12e2 4359424C 		.ascii	"CYBLE_UDS_WCC\000"
 6249      455F5544 
 6249      535F5743 
 6249      4300
 6250              	.LASF418:
 6251 12f0 4359424C 		.ascii	"CYBLE_EVT_HPSS_NOTIFICATION_ENABLED\000"
 6251      455F4556 
 6251      545F4850 
 6251      53535F4E 
 6251      4F544946 
 6252              	.LASF592:
 6253 1314 4379426C 		.ascii	"CyBle_GattsWriteAttributeValue\000"
 6253      655F4761 
 6253      74747357 
 6253      72697465 
 6253      41747472 
 6254              	.LASF504:
 6255 1333 4359424C 		.ascii	"CYBLE_EVT_SCPSS_NOTIFICATION_ENABLED\000"
 6255      455F4556 
 6255      545F5343 
 6255      5053535F 
 6255      4E4F5449 
 6256              	.LASF448:
 6257 1358 4359424C 		.ascii	"CYBLE_EVT_IPSC_READ_CHAR_RESPONSE\000"
 6257      455F4556 
 6257      545F4950 
 6257      53435F52 
 6257      4541445F 
 6258              	.LASF79:
 6259 137a 4359424C 		.ascii	"CYBLE_EVT_L2CAP_CBFC_DISCONN_CNF\000"
 6259      455F4556 
 6259      545F4C32 
 6259      4341505F 
 6259      43424643 
 6260              	.LASF56:
 6261 139b 4359424C 		.ascii	"CYBLE_EVT_GATTC_FIND_BY_TYPE_VALUE_RSP\000"
 6261      455F4556 
 6261      545F4741 
 6261      5454435F 
ARM GAS  C:\Users\310309~1\AppData\Local\Temp\cckEzWOW.s 			page 142


 6261      46494E44 
 6262              	.LASF290:
 6263 13c2 4359424C 		.ascii	"CYBLE_EVT_ANCSS_NOTIFICATION_ENABLED\000"
 6263      455F4556 
 6263      545F414E 
 6263      4353535F 
 6263      4E4F5449 
 6264              	.LASF40:
 6265 13e7 4359424C 		.ascii	"CYBLE_EVT_GAP_DATA_LENGTH_CHANGE\000"
 6265      455F4556 
 6265      545F4741 
 6265      505F4441 
 6265      54415F4C 
 6266              	.LASF509:
 6267 1408 4359424C 		.ascii	"CYBLE_EVT_SCPSC_WRITE_DESCR_RESPONSE\000"
 6267      455F4556 
 6267      545F5343 
 6267      5053435F 
 6267      57524954 
 6268              	.LASF14:
 6269 142d 63686172 		.ascii	"char\000"
 6269      00
 6270              	.LASF191:
 6271 1432 6D617841 		.ascii	"maxAttrLength\000"
 6271      7474724C 
 6271      656E6774 
 6271      6800
 6272              	.LASF512:
 6273 1440 4359424C 		.ascii	"CYBLE_EVT_TPSC_NOTIFICATION\000"
 6273      455F4556 
 6273      545F5450 
 6273      53435F4E 
 6273      4F544946 
 6274              	.LASF273:
 6275 145c 4359424C 		.ascii	"CYBLE_EVT_GATTC_INCL_DISCOVERY_COMPLETE\000"
 6275      455F4556 
 6275      545F4741 
 6275      5454435F 
 6275      494E434C 
 6276              	.LASF479:
 6277 1484 4359424C 		.ascii	"CYBLE_EVT_PLXSS_NOTIFICATION_ENABLED\000"
 6277      455F4556 
 6277      545F504C 
 6277      5853535F 
 6277      4E4F5449 
 6278              	.LASF59:
 6279 14a9 4359424C 		.ascii	"CYBLE_EVT_GATTC_READ_MULTI_RSP\000"
 6279      455F4556 
 6279      545F4741 
 6279      5454435F 
 6279      52454144 
 6280              	.LASF289:
 6281 14c8 4359424C 		.ascii	"CYBLE_EVT_AIOSC_ERROR_RESPONSE\000"
 6281      455F4556 
 6281      545F4149 
 6281      4F53435F 
 6281      4552524F 
ARM GAS  C:\Users\310309~1\AppData\Local\Temp\cckEzWOW.s 			page 143


 6282              	.LASF582:
 6283 14e7 6C6F6347 		.ascii	"locGattValue\000"
 6283      61747456 
 6283      616C7565 
 6283      00
 6284              	.LASF284:
 6285 14f4 4359424C 		.ascii	"CYBLE_EVT_AIOSC_INDICATION\000"
 6285      455F4556 
 6285      545F4149 
 6285      4F53435F 
 6285      494E4449 
 6286              	.LASF257:
 6287 150f 4359424C 		.ascii	"CYBLE_UDS_CHAR_VALUE_T\000"
 6287      455F5544 
 6287      535F4348 
 6287      41525F56 
 6287      414C5545 
 6288              	.LASF17:
 6289 1526 4359424C 		.ascii	"CYBLE_EVT_HOST_INVALID\000"
 6289      455F4556 
 6289      545F484F 
 6289      53545F49 
 6289      4E56414C 
 6290              	.LASF137:
 6291 153d 4359424C 		.ascii	"CYBLE_GATT_ERR_UNLIKELY_ERROR\000"
 6291      455F4741 
 6291      54545F45 
 6291      52525F55 
 6291      4E4C494B 
 6292              	.LASF42:
 6293 155b 4359424C 		.ascii	"CYBLE_EVT_GAPC_DIRECT_ADV_REPORT\000"
 6293      455F4556 
 6293      545F4741 
 6293      50435F44 
 6293      49524543 
 6294              	.LASF404:
 6295 157c 4359424C 		.ascii	"CYBLE_EVT_GLSC_READ_DESCR_RESPONSE\000"
 6295      455F4556 
 6295      545F474C 
 6295      53435F52 
 6295      4541445F 
 6296              	.LASF96:
 6297 159f 4359424C 		.ascii	"CYBLE_ERROR_NO_DEVICE_ENTITY\000"
 6297      455F4552 
 6297      524F525F 
 6297      4E4F5F44 
 6297      45564943 
 6298              	.LASF58:
 6299 15bc 4359424C 		.ascii	"CYBLE_EVT_GATTC_READ_BLOB_RSP\000"
 6299      455F4556 
 6299      545F4741 
 6299      5454435F 
 6299      52454144 
 6300              	.LASF437:
 6301 15da 4359424C 		.ascii	"CYBLE_EVT_HTSS_INDICATION_DISABLED\000"
 6301      455F4556 
 6301      545F4854 
ARM GAS  C:\Users\310309~1\AppData\Local\Temp\cckEzWOW.s 			page 144


 6301      53535F49 
 6301      4E444943 
 6302              	.LASF503:
 6303 15fd 4359424C 		.ascii	"CYBLE_EVT_RTUSC_READ_CHAR_RESPONSE\000"
 6303      455F4556 
 6303      545F5254 
 6303      5553435F 
 6303      52454144 
 6304              	.LASF65:
 6305 1620 4359424C 		.ascii	"CYBLE_EVT_GATTC_EXEC_WRITE_RSP\000"
 6305      455F4556 
 6305      545F4741 
 6305      5454435F 
 6305      45584543 
 6306              	.LASF563:
 6307 163f 4379426C 		.ascii	"CyBle_UdssGetCharacteristicDescriptor\000"
 6307      655F5564 
 6307      73734765 
 6307      74436861 
 6307      72616374 
 6308              	.LASF142:
 6309 1665 4359424C 		.ascii	"CYBLE_GATT_ERR_HEART_RATE_CONTROL_POINT_NOT_SUPPORT"
 6309      455F4741 
 6309      54545F45 
 6309      52525F48 
 6309      45415254 
 6310 1698 454400   		.ascii	"ED\000"
 6311              	.LASF544:
 6312 169b 4359424C 		.ascii	"CYBLE_EVT_WSSS_INDICATION_CONFIRMED\000"
 6312      455F4556 
 6312      545F5753 
 6312      53535F49 
 6312      4E444943 
 6313              	.LASF134:
 6314 16bf 4359424C 		.ascii	"CYBLE_GATT_ERR_ATTRIBUTE_NOT_LONG\000"
 6314      455F4741 
 6314      54545F45 
 6314      52525F41 
 6314      54545249 
 6315              	.LASF378:
 6316 16e1 4359424C 		.ascii	"CYBLE_EVT_CTSC_WRITE_DESCR_RESPONSE\000"
 6316      455F4556 
 6316      545F4354 
 6316      53435F57 
 6316      52495445 
 6317              	.LASF600:
 6318 1705 47656E65 		.ascii	"Generated_Source\\PSoC4\\ble_uds.c\000"
 6318      72617465 
 6318      645F536F 
 6318      75726365 
 6318      5C50536F 
 6319              	.LASF517:
 6320 1726 4359424C 		.ascii	"CYBLE_EVT_UDSS_INDICATION_DISABLED\000"
 6320      455F4556 
 6320      545F5544 
 6320      53535F49 
 6320      4E444943 
ARM GAS  C:\Users\310309~1\AppData\Local\Temp\cckEzWOW.s 			page 145


 6321              	.LASF209:
 6322 1749 4359424C 		.ascii	"CYBLE_DIS_SOFTWARE_REV\000"
 6322      455F4449 
 6322      535F534F 
 6322      46545741 
 6322      52455F52 
 6323              	.LASF593:
 6324 1760 4379426C 		.ascii	"CyBle_GattsReadAttributeValue\000"
 6324      655F4761 
 6324      74747352 
 6324      65616441 
 6324      74747269 
 6325              	.LASF70:
 6326 177e 4359424C 		.ascii	"CYBLE_EVT_GATTC_STOP_CMD_COMPLETE\000"
 6326      455F4556 
 6326      545F4741 
 6326      5454435F 
 6326      53544F50 
 6327              	.LASF352:
 6328 17a0 4359424C 		.ascii	"CYBLE_EVT_CPSS_CHAR_WRITE\000"
 6328      455F4556 
 6328      545F4350 
 6328      53535F43 
 6328      4841525F 
 6329              	.LASF426:
 6330 17ba 4359424C 		.ascii	"CYBLE_EVT_HRSS_ENERGY_EXPENDED_RESET\000"
 6330      455F4556 
 6330      545F4852 
 6330      53535F45 
 6330      4E455247 
 6331              	.LASF158:
 6332 17df 4359424C 		.ascii	"CYBLE_GATT_ERR_ANCS_ACTION_FAILED\000"
 6332      455F4741 
 6332      54545F45 
 6332      52525F41 
 6332      4E43535F 
 6333              	.LASF205:
 6334 1801 4359424C 		.ascii	"CYBLE_DIS_MODEL_NUMBER\000"
 6334      455F4449 
 6334      535F4D4F 
 6334      44454C5F 
 6334      4E554D42 
 6335              	.LASF382:
 6336 1818 4359424C 		.ascii	"CYBLE_EVT_ESSS_NOTIFICATION_DISABLED\000"
 6336      455F4556 
 6336      545F4553 
 6336      53535F4E 
 6336      4F544946 
 6337              	.LASF202:
 6338 183d 4359424C 		.ascii	"CYBLE_GATTS_DB_T\000"
 6338      455F4741 
 6338      5454535F 
 6338      44425F54 
 6338      00
 6339              	.LASF531:
 6340 184e 4359424C 		.ascii	"CYBLE_EVT_WPTSS_NOTIFICATION_DISABLED\000"
 6340      455F4556 
ARM GAS  C:\Users\310309~1\AppData\Local\Temp\cckEzWOW.s 			page 146


 6340      545F5750 
 6340      5453535F 
 6340      4E4F5449 
 6341              	.LASF322:
 6342 1874 4359424C 		.ascii	"CYBLE_EVT_BLSS_NOTIFICATION_ENABLED\000"
 6342      455F4556 
 6342      545F424C 
 6342      53535F4E 
 6342      4F544946 
 6343              	.LASF210:
 6344 1898 4359424C 		.ascii	"CYBLE_DIS_SYSTEM_ID\000"
 6344      455F4449 
 6344      535F5359 
 6344      5354454D 
 6344      5F494400 
 6345              	.LASF424:
 6346 18ac 4359424C 		.ascii	"CYBLE_EVT_HPSC_WRITE_DESCR_RESPONSE\000"
 6346      455F4556 
 6346      545F4850 
 6346      53435F57 
 6346      52495445 
 6347              	.LASF545:
 6348 18d0 4359424C 		.ascii	"CYBLE_EVT_WSSC_INDICATION\000"
 6348      455F4556 
 6348      545F5753 
 6348      53435F49 
 6348      4E444943 
 6349              	.LASF115:
 6350 18ea 4359424C 		.ascii	"CYBLE_ERROR_CONTROLLER_BUSY\000"
 6350      455F4552 
 6350      524F525F 
 6350      434F4E54 
 6350      524F4C4C 
 6351              	.LASF567:
 6352 1906 4379426C 		.ascii	"CyBle_UdssSendIndication\000"
 6352      655F5564 
 6352      73735365 
 6352      6E64496E 
 6352      64696361 
 6353              	.LASF90:
 6354 191f 4359424C 		.ascii	"CYBLE_ERROR_INVALID_PARAMETER\000"
 6354      455F4552 
 6354      524F525F 
 6354      494E5641 
 6354      4C49445F 
 6355              	.LASF389:
 6356 193d 4359424C 		.ascii	"CYBLE_EVT_ESSC_INDICATION\000"
 6356      455F4556 
 6356      545F4553 
 6356      53435F49 
 6356      4E444943 
 6357              	.LASF296:
 6358 1957 4359424C 		.ascii	"CYBLE_EVT_ANCSC_WRITE_DESCR_RESPONSE\000"
 6358      455F4556 
 6358      545F414E 
 6358      4353435F 
 6358      57524954 
ARM GAS  C:\Users\310309~1\AppData\Local\Temp\cckEzWOW.s 			page 147


 6359              	.LASF499:
 6360 197c 4359424C 		.ascii	"CYBLE_EVT_RSCSC_WRITE_CHAR_RESPONSE\000"
 6360      455F4556 
 6360      545F5253 
 6360      4353435F 
 6360      57524954 
 6361              	.LASF182:
 6362 19a0 70726570 		.ascii	"prepWriteReqCount\000"
 6362      57726974 
 6362      65526571 
 6362      436F756E 
 6362      7400
 6363              	.LASF515:
 6364 19b2 4359424C 		.ascii	"CYBLE_EVT_TPSC_WRITE_DESCR_RESPONSE\000"
 6364      455F4556 
 6364      545F5450 
 6364      53435F57 
 6364      52495445 
 6365              	.LASF361:
 6366 19d6 4359424C 		.ascii	"CYBLE_EVT_CSCSS_NOTIFICATION_DISABLED\000"
 6366      455F4556 
 6366      545F4353 
 6366      4353535F 
 6366      4E4F5449 
 6367              	.LASF372:
 6368 19fc 4359424C 		.ascii	"CYBLE_EVT_CTSS_NOTIFICATION_ENABLED\000"
 6368      455F4556 
 6368      545F4354 
 6368      53535F4E 
 6368      4F544946 
 6369              	.LASF493:
 6370 1a20 4359424C 		.ascii	"CYBLE_EVT_RSCSS_INDICATION_DISABLED\000"
 6370      455F4556 
 6370      545F5253 
 6370      4353535F 
 6370      494E4449 
 6371              	.LASF535:
 6372 1a44 4359424C 		.ascii	"CYBLE_EVT_WPTSS_WRITE_CHAR\000"
 6372      455F4556 
 6372      545F5750 
 6372      5453535F 
 6372      57524954 
 6373              	.LASF455:
 6374 1a5f 4359424C 		.ascii	"CYBLE_EVT_LLSS_WRITE_CHAR_REQ\000"
 6374      455F4556 
 6374      545F4C4C 
 6374      53535F57 
 6374      52495445 
 6375              	.LASF92:
 6376 1a7d 4359424C 		.ascii	"CYBLE_ERROR_MEMORY_ALLOCATION_FAILED\000"
 6376      455F4552 
 6376      524F525F 
 6376      4D454D4F 
 6376      52595F41 
 6377              	.LASF432:
 6378 1aa2 4359424C 		.ascii	"CYBLE_EVT_HRSC_READ_DESCR_RESPONSE\000"
 6378      455F4556 
ARM GAS  C:\Users\310309~1\AppData\Local\Temp\cckEzWOW.s 			page 148


 6378      545F4852 
 6378      53435F52 
 6378      4541445F 
 6379              	.LASF360:
 6380 1ac5 4359424C 		.ascii	"CYBLE_EVT_CSCSS_NOTIFICATION_ENABLED\000"
 6380      455F4556 
 6380      545F4353 
 6380      4353535F 
 6380      4E4F5449 
 6381              	.LASF176:
 6382 1aea 4359424C 		.ascii	"CYBLE_GATTS_HANDLE_VALUE_IND_T\000"
 6382      455F4741 
 6382      5454535F 
 6382      48414E44 
 6382      4C455F56 
 6383              	.LASF558:
 6384 1b09 61747472 		.ascii	"attrValue\000"
 6384      56616C75 
 6384      6500
 6385              	.LASF324:
 6386 1b13 4359424C 		.ascii	"CYBLE_EVT_BLSC_INDICATION\000"
 6386      455F4556 
 6386      545F424C 
 6386      53435F49 
 6386      4E444943 
 6387              	.LASF420:
 6388 1b2d 4359424C 		.ascii	"CYBLE_EVT_HPSS_CHAR_WRITE\000"
 6388      455F4556 
 6388      545F4850 
 6388      53535F43 
 6388      4841525F 
 6389              	.LASF412:
 6390 1b47 4359424C 		.ascii	"CYBLE_EVT_HIDSS_REPORT_CHAR_WRITE\000"
 6390      455F4556 
 6390      545F4849 
 6390      4453535F 
 6390      5245504F 
 6391              	.LASF312:
 6392 1b69 4359424C 		.ascii	"CYBLE_EVT_BCSS_INDICATION_ENABLED\000"
 6392      455F4556 
 6392      545F4243 
 6392      53535F49 
 6392      4E444943 
 6393              	.LASF149:
 6394 1b8b 4359424C 		.ascii	"CYBLE_GATTS_ERR_CCCD_IMPROPERLY_CONFIGURED\000"
 6394      455F4741 
 6394      5454535F 
 6394      4552525F 
 6394      43434344 
 6395              	.LASF221:
 6396 1bb6 4359424C 		.ascii	"CYBLE_UDS_HGT\000"
 6396      455F5544 
 6396      535F4847 
 6396      5400
 6397              	.LASF539:
 6398 1bc4 4359424C 		.ascii	"CYBLE_EVT_WPTSC_READ_CHAR_RESPONSE\000"
 6398      455F4556 
ARM GAS  C:\Users\310309~1\AppData\Local\Temp\cckEzWOW.s 			page 149


 6398      545F5750 
 6398      5453435F 
 6398      52454144 
 6399              	.LASF116:
 6400 1be7 4359424C 		.ascii	"CYBLE_ERROR_MAX\000"
 6400      455F4552 
 6400      524F525F 
 6400      4D415800 
 6401              	.LASF467:
 6402 1bf7 4359424C 		.ascii	"CYBLE_EVT_LNSC_WRITE_CHAR_RESPONSE\000"
 6402      455F4556 
 6402      545F4C4E 
 6402      53435F57 
 6402      52495445 
 6403              	.LASF74:
 6404 1c1a 4359424C 		.ascii	"CYBLE_EVT_L2CAP_CONN_PARAM_UPDATE_RSP\000"
 6404      455F4556 
 6404      545F4C32 
 6404      4341505F 
 6404      434F4E4E 
 6405              	.LASF86:
 6406 1c40 4359424C 		.ascii	"CYBLE_EVT_HCI_PKT\000"
 6406      455F4556 
 6406      545F4843 
 6406      495F504B 
 6406      5400
 6407              	.LASF520:
 6408 1c52 4359424C 		.ascii	"CYBLE_EVT_UDSS_NOTIFICATION_DISABLED\000"
 6408      455F4556 
 6408      545F5544 
 6408      53535F4E 
 6408      4F544946 
 6409              	.LASF371:
 6410 1c77 4359424C 		.ascii	"CYBLE_EVT_CSCSC_WRITE_DESCR_RESPONSE\000"
 6410      455F4556 
 6410      545F4353 
 6410      4353435F 
 6410      57524954 
 6411              	.LASF522:
 6412 1c9c 4359424C 		.ascii	"CYBLE_EVT_UDSS_WRITE_CHAR\000"
 6412      455F4556 
 6412      545F5544 
 6412      53535F57 
 6412      52495445 
 6413              	.LASF486:
 6414 1cb6 4359424C 		.ascii	"CYBLE_EVT_PLXSC_READ_CHAR_RESPONSE\000"
 6414      455F4556 
 6414      545F504C 
 6414      5853435F 
 6414      52454144 
 6415              	.LASF287:
 6416 1cd9 4359424C 		.ascii	"CYBLE_EVT_AIOSC_READ_DESCR_RESPONSE\000"
 6416      455F4556 
 6416      545F4149 
 6416      4F53435F 
 6416      52454144 
 6417              	.LASF427:
ARM GAS  C:\Users\310309~1\AppData\Local\Temp\cckEzWOW.s 			page 150


 6418 1cfd 4359424C 		.ascii	"CYBLE_EVT_HRSS_NOTIFICATION_ENABLED\000"
 6418      455F4556 
 6418      545F4852 
 6418      53535F4E 
 6418      4F544946 
 6419              	.LASF219:
 6420 1d21 4359424C 		.ascii	"CYBLE_UDS_GND\000"
 6420      455F5544 
 6420      535F474E 
 6420      4400
 6421              	.LASF143:
 6422 1d2f 4359424C 		.ascii	"CYBLE_GATT_ERR_USER_DATA_ACCESS_NOT_PERMITTED\000"
 6422      455F4741 
 6422      54545F45 
 6422      52525F55 
 6422      5345525F 
 6423              	.LASF220:
 6424 1d5d 4359424C 		.ascii	"CYBLE_UDS_WGT\000"
 6424      455F5544 
 6424      535F5747 
 6424      5400
 6425              	.LASF249:
 6426 1d6b 4359424C 		.ascii	"CYBLE_UDS_DESCR_INDEX_T\000"
 6426      455F5544 
 6426      535F4445 
 6426      5343525F 
 6426      494E4445 
 6427              	.LASF28:
 6428 1d83 4359424C 		.ascii	"CYBLE_EVT_GAP_AUTH_COMPLETE\000"
 6428      455F4556 
 6428      545F4741 
 6428      505F4155 
 6428      54485F43 
 6429              	.LASF454:
 6430 1d9f 4359424C 		.ascii	"CYBLE_EVT_IPSC_READ_BLOB_RSP\000"
 6430      455F4556 
 6430      545F4950 
 6430      53435F52 
 6430      4541445F 
 6431              	.LASF476:
 6432 1dbc 4359424C 		.ascii	"CYBLE_EVT_PASSC_READ_DESCR_RESPONSE\000"
 6432      455F4556 
 6432      545F5041 
 6432      5353435F 
 6432      52454144 
 6433              	.LASF392:
 6434 1de0 4359424C 		.ascii	"CYBLE_EVT_ESSC_READ_DESCR_RESPONSE\000"
 6434      455F4556 
 6434      545F4553 
 6434      53435F52 
 6434      4541445F 
 6435              	.LASF29:
 6436 1e03 4359424C 		.ascii	"CYBLE_EVT_GAP_AUTH_FAILED\000"
 6436      455F4556 
 6436      545F4741 
 6436      505F4155 
 6436      54485F46 
ARM GAS  C:\Users\310309~1\AppData\Local\Temp\cckEzWOW.s 			page 151


 6437              	.LASF411:
 6438 1e1d 4359424C 		.ascii	"CYBLE_EVT_HIDSS_EXIT_SUSPEND\000"
 6438      455F4556 
 6438      545F4849 
 6438      4453535F 
 6438      45584954 
 6439              	.LASF215:
 6440 1e3a 4359424C 		.ascii	"CYBLE_UDS_LNM\000"
 6440      455F5544 
 6440      535F4C4E 
 6440      4D00
 6441              	.LASF121:
 6442 1e48 4359424C 		.ascii	"CYBLE_ERROR_STACK_BUSY\000"
 6442      455F4552 
 6442      524F525F 
 6442      53544143 
 6442      4B5F4255 
 6443              	.LASF159:
 6444 1e5f 4359424C 		.ascii	"CYBLE_GATT_ERR_CCCD_IMPROPERLY_CONFIGURED\000"
 6444      455F4741 
 6444      54545F45 
 6444      52525F43 
 6444      4343445F 
 6445              	.LASF93:
 6446 1e89 4359424C 		.ascii	"CYBLE_ERROR_INSUFFICIENT_RESOURCES\000"
 6446      455F4552 
 6446      524F525F 
 6446      494E5355 
 6446      46464943 
 6447              	.LASF491:
 6448 1eac 4359424C 		.ascii	"CYBLE_EVT_RSCSS_NOTIFICATION_DISABLED\000"
 6448      455F4556 
 6448      545F5253 
 6448      4353535F 
 6448      4E4F5449 
 6449              	.LASF147:
 6450 1ed2 4359424C 		.ascii	"CYBLE_GATT_ERR_OP_CODE_NOT_SUPPORTED\000"
 6450      455F4741 
 6450      54545F45 
 6450      52525F4F 
 6450      505F434F 
 6451              	.LASF415:
 6452 1ef7 4359424C 		.ascii	"CYBLE_EVT_HIDSC_WRITE_CHAR_RESPONSE\000"
 6452      455F4556 
 6452      545F4849 
 6452      4453435F 
 6452      57524954 
 6453              	.LASF5:
 6454 1f1b 6C6F6E67 		.ascii	"long unsigned int\000"
 6454      20756E73 
 6454      69676E65 
 6454      6420696E 
 6454      7400
 6455              	.LASF598:
 6456 1f2d 4379426C 		.ascii	"CyBle_GattGetMtuSize\000"
 6456      655F4761 
 6456      74744765 
ARM GAS  C:\Users\310309~1\AppData\Local\Temp\cckEzWOW.s 			page 152


 6456      744D7475 
 6456      53697A65 
 6457              	.LASF451:
 6458 1f42 4359424C 		.ascii	"CYBLE_EVT_IPSC_READ_DESCR_RESPONSE\000"
 6458      455F4556 
 6458      545F4950 
 6458      53435F52 
 6458      4541445F 
 6459              	.LASF224:
 6460 1f65 4359424C 		.ascii	"CYBLE_UDS_RHR\000"
 6460      455F5544 
 6460      535F5248 
 6460      5200
 6461              	.LASF446:
 6462 1f73 4359424C 		.ascii	"CYBLE_EVT_IASS_WRITE_CHAR_CMD\000"
 6462      455F4556 
 6462      545F4941 
 6462      53535F57 
 6462      52495445 
 6463              	.LASF560:
 6464 1f91 6C6F6348 		.ascii	"locHandleValuePair\000"
 6464      616E646C 
 6464      6556616C 
 6464      75655061 
 6464      697200
 6465              	.LASF471:
 6466 1fa4 4359424C 		.ascii	"CYBLE_EVT_PASSS_NOTIFICATION_ENABLED\000"
 6466      455F4556 
 6466      545F5041 
 6466      5353535F 
 6466      4E4F5449 
 6467              	.LASF474:
 6468 1fc9 4359424C 		.ascii	"CYBLE_EVT_PASSC_NOTIFICATION\000"
 6468      455F4556 
 6468      545F5041 
 6468      5353435F 
 6468      4E4F5449 
 6469              	.LASF113:
 6470 1fe6 4359424C 		.ascii	"CYBLE_ERROR_UNSUPPORTED_FEATURE_OR_PARAMETER_VALUE\000"
 6470      455F4552 
 6470      524F525F 
 6470      554E5355 
 6470      50504F52 
 6471              	.LASF245:
 6472 2019 4359424C 		.ascii	"CYBLE_UDS_CHAR_COUNT\000"
 6472      455F5544 
 6472      535F4348 
 6472      41525F43 
 6472      4F554E54 
 6473              	.LASF241:
 6474 202e 4359424C 		.ascii	"CYBLE_UDS_DCI\000"
 6474      455F5544 
 6474      535F4443 
 6474      4900
 6475              	.LASF480:
 6476 203c 4359424C 		.ascii	"CYBLE_EVT_PLXSS_NOTIFICATION_DISABLED\000"
 6476      455F4556 
ARM GAS  C:\Users\310309~1\AppData\Local\Temp\cckEzWOW.s 			page 153


 6476      545F504C 
 6476      5853535F 
 6476      4E4F5449 
 6477              	.LASF302:
 6478 2062 4359424C 		.ascii	"CYBLE_EVT_ANSC_READ_CHAR_RESPONSE\000"
 6478      455F4556 
 6478      545F414E 
 6478      53435F52 
 6478      4541445F 
 6479              	.LASF222:
 6480 2084 4359424C 		.ascii	"CYBLE_UDS_VO2\000"
 6480      455F5544 
 6480      535F564F 
 6480      3200
 6481              	.LASF103:
 6482 2092 4359424C 		.ascii	"CYBLE_ERROR_L2CAP_PSM_ALREADY_REGISTERED\000"
 6482      455F4552 
 6482      524F525F 
 6482      4C324341 
 6482      505F5053 
 6483              	.LASF439:
 6484 20bb 4359424C 		.ascii	"CYBLE_EVT_HTSS_CHAR_WRITE\000"
 6484      455F4556 
 6484      545F4854 
 6484      53535F43 
 6484      4841525F 
 6485              	.LASF195:
 6486 20d5 61747456 		.ascii	"attValueUuid\000"
 6486      616C7565 
 6486      55756964 
 6486      00
 6487              	.LASF155:
 6488 20e2 4359424C 		.ascii	"CYBLE_GATT_ERR_ANCS_UNKNOWN_COMMAND\000"
 6488      455F4741 
 6488      54545F45 
 6488      52525F41 
 6488      4E43535F 
 6489              	.LASF306:
 6490 2106 4359424C 		.ascii	"CYBLE_EVT_BASS_NOTIFICATION_ENABLED\000"
 6490      455F4556 
 6490      545F4241 
 6490      53535F4E 
 6490      4F544946 
 6491              	.LASF379:
 6492 212a 4359424C 		.ascii	"CYBLE_EVT_CTSC_WRITE_CHAR_RESPONSE\000"
 6492      455F4556 
 6492      545F4354 
 6492      53435F57 
 6492      52495445 
 6493              	.LASF473:
 6494 214d 4359424C 		.ascii	"CYBLE_EVT_PASSS_WRITE_CHAR\000"
 6494      455F4556 
 6494      545F5041 
 6494      5353535F 
 6494      57524954 
 6495              	.LASF356:
 6496 2168 4359424C 		.ascii	"CYBLE_EVT_CPSC_WRITE_CHAR_RESPONSE\000"
ARM GAS  C:\Users\310309~1\AppData\Local\Temp\cckEzWOW.s 			page 154


 6496      455F4556 
 6496      545F4350 
 6496      53435F57 
 6496      52495445 
 6497              	.LASF206:
 6498 218b 4359424C 		.ascii	"CYBLE_DIS_SERIAL_NUMBER\000"
 6498      455F4449 
 6498      535F5345 
 6498      5249414C 
 6498      5F4E554D 
 6499              	.LASF34:
 6500 21a3 4359424C 		.ascii	"CYBLE_EVT_GAP_CONNECTION_UPDATE_COMPLETE\000"
 6500      455F4556 
 6500      545F4741 
 6500      505F434F 
 6500      4E4E4543 
 6501              	.LASF341:
 6502 21cc 4359424C 		.ascii	"CYBLE_EVT_CGMSC_READ_CHAR_RESPONSE\000"
 6502      455F4556 
 6502      545F4347 
 6502      4D53435F 
 6502      52454144 
 6503              	.LASF589:
 6504 21ef 6379426C 		.ascii	"cyBle_udss\000"
 6504      655F7564 
 6504      737300
 6505              	.LASF551:
 6506 21fa 4359424C 		.ascii	"CYBLE_STATE_INITIALIZING\000"
 6506      455F5354 
 6506      4154455F 
 6506      494E4954 
 6506      49414C49 
 6507              	.LASF369:
 6508 2213 4359424C 		.ascii	"CYBLE_EVT_CSCSC_WRITE_CHAR_RESPONSE\000"
 6508      455F4556 
 6508      545F4353 
 6508      4353435F 
 6508      57524954 
 6509              	.LASF78:
 6510 2237 4359424C 		.ascii	"CYBLE_EVT_L2CAP_CBFC_DISCONN_IND\000"
 6510      455F4556 
 6510      545F4C32 
 6510      4341505F 
 6510      43424643 
 6511              	.LASF365:
 6512 2258 4359424C 		.ascii	"CYBLE_EVT_CSCSS_CHAR_WRITE\000"
 6512      455F4556 
 6512      545F4353 
 6512      4353535F 
 6512      43484152 
 6513              	.LASF482:
 6514 2273 4359424C 		.ascii	"CYBLE_EVT_PLXSS_INDICATION_DISABLED\000"
 6514      455F4556 
 6514      545F504C 
 6514      5853535F 
 6514      494E4449 
 6515              	.LASF498:
ARM GAS  C:\Users\310309~1\AppData\Local\Temp\cckEzWOW.s 			page 155


 6516 2297 4359424C 		.ascii	"CYBLE_EVT_RSCSC_READ_CHAR_RESPONSE\000"
 6516      455F4556 
 6516      545F5253 
 6516      4353435F 
 6516      52454144 
 6517              	.LASF26:
 6518 22ba 4359424C 		.ascii	"CYBLE_EVT_GAP_PASSKEY_ENTRY_REQUEST\000"
 6518      455F4556 
 6518      545F4741 
 6518      505F5041 
 6518      53534B45 
 6519              	.LASF180:
 6520 22de 67617474 		.ascii	"gattErrorCode\000"
 6520      4572726F 
 6520      72436F64 
 6520      6500
 6521              	.LASF187:
 6522 22ec 4359424C 		.ascii	"CYBLE_GATTS_CHAR_VAL_READ_REQ_T\000"
 6522      455F4741 
 6522      5454535F 
 6522      43484152 
 6522      5F56414C 
 6523              	.LASF350:
 6524 230c 4359424C 		.ascii	"CYBLE_EVT_CPSS_BROADCAST_ENABLED\000"
 6524      455F4556 
 6524      545F4350 
 6524      53535F42 
 6524      524F4144 
 6525              	.LASF178:
 6526 232d 62617365 		.ascii	"baseAddr\000"
 6526      41646472 
 6526      00
 6527              	.LASF452:
 6528 2336 4359424C 		.ascii	"CYBLE_EVT_IPSC_WRITE_DESCR_RESPONSE\000"
 6528      455F4556 
 6528      545F4950 
 6528      53435F57 
 6528      52495445 
 6529              	.LASF402:
 6530 235a 4359424C 		.ascii	"CYBLE_EVT_GLSC_READ_CHAR_RESPONSE\000"
 6530      455F4556 
 6530      545F474C 
 6530      53435F52 
 6530      4541445F 
 6531              	.LASF489:
 6532 237c 4359424C 		.ascii	"CYBLE_EVT_PLXSC_WRITE_DESCR_RESPONSE\000"
 6532      455F4556 
 6532      545F504C 
 6532      5853435F 
 6532      57524954 
 6533              	.LASF483:
 6534 23a1 4359424C 		.ascii	"CYBLE_EVT_PLXS_INDICATION_CONFIRMATION\000"
 6534      455F4556 
 6534      545F504C 
 6534      58535F49 
 6534      4E444943 
 6535              	.LASF440:
ARM GAS  C:\Users\310309~1\AppData\Local\Temp\cckEzWOW.s 			page 156


 6536 23c8 4359424C 		.ascii	"CYBLE_EVT_HTSC_NOTIFICATION\000"
 6536      455F4556 
 6536      545F4854 
 6536      53435F4E 
 6536      4F544946 
 6537              	.LASF6:
 6538 23e4 6C6F6E67 		.ascii	"long long int\000"
 6538      206C6F6E 
 6538      6720696E 
 6538      7400
 6539              	.LASF596:
 6540 23f2 4379426C 		.ascii	"CyBle_GattsIndication\000"
 6540      655F4761 
 6540      74747349 
 6540      6E646963 
 6540      6174696F 
 6541              	.LASF513:
 6542 2408 4359424C 		.ascii	"CYBLE_EVT_TPSC_READ_CHAR_RESPONSE\000"
 6542      455F4556 
 6542      545F5450 
 6542      53435F52 
 6542      4541445F 
 6543              	.LASF212:
 6544 242a 4359424C 		.ascii	"CYBLE_DIS_PNP_ID\000"
 6544      455F4449 
 6544      535F504E 
 6544      505F4944 
 6544      00
 6545              	.LASF270:
 6546 243b 4359424C 		.ascii	"CYBLE_EVT_GATTC_CHAR_DUPLICATION\000"
 6546      455F4556 
 6546      545F4741 
 6546      5454435F 
 6546      43484152 
 6547              	.LASF397:
 6548 245c 4359424C 		.ascii	"CYBLE_EVT_GLSS_NOTIFICATION_ENABLED\000"
 6548      455F4556 
 6548      545F474C 
 6548      53535F4E 
 6548      4F544946 
 6549              	.LASF132:
 6550 2480 4359424C 		.ascii	"CYBLE_GATT_ERR_PREPARE_WRITE_QUEUE_FULL\000"
 6550      455F4741 
 6550      54545F45 
 6550      52525F50 
 6550      52455041 
 6551              	.LASF422:
 6552 24a8 4359424C 		.ascii	"CYBLE_EVT_HPSC_READ_CHAR_RESPONSE\000"
 6552      455F4556 
 6552      545F4850 
 6552      53435F52 
 6552      4541445F 
 6553              	.LASF104:
 6554 24ca 4359424C 		.ascii	"CYBLE_ERROR_L2CAP_PSM_NOT_REGISTERED\000"
 6554      455F4552 
 6554      524F525F 
 6554      4C324341 
ARM GAS  C:\Users\310309~1\AppData\Local\Temp\cckEzWOW.s 			page 157


 6554      505F5053 
 6555              	.LASF94:
 6556 24ef 4359424C 		.ascii	"CYBLE_ERROR_OOB_NOT_AVAILABLE\000"
 6556      455F4552 
 6556      524F525F 
 6556      4F4F425F 
 6556      4E4F545F 
 6557              	.LASF603:
 6558 250d 6D656D63 		.ascii	"memcpy\000"
 6558      707900
 6559              	.LASF333:
 6560 2514 4359424C 		.ascii	"CYBLE_EVT_CGMSS_INDICATION_ENABLED\000"
 6560      455F4556 
 6560      545F4347 
 6560      4D53535F 
 6560      494E4449 
 6561              	.LASF13:
 6562 2537 646F7562 		.ascii	"double\000"
 6562      6C6500
 6563              	.LASF109:
 6564 253e 4359424C 		.ascii	"CYBLE_ERROR_DEVICE_ALREADY_EXISTS\000"
 6564      455F4552 
 6564      524F525F 
 6564      44455649 
 6564      43455F41 
 6565              	.LASF384:
 6566 2560 4359424C 		.ascii	"CYBLE_EVT_ESSS_INDICATION_DISABLED\000"
 6566      455F4556 
 6566      545F4553 
 6566      53535F49 
 6566      4E444943 
 6567              	.LASF597:
 6568 2583 4379426C 		.ascii	"CyBle_GattDbCheckPermission\000"
 6568      655F4761 
 6568      74744462 
 6568      43686563 
 6568      6B506572 
 6569              	.LASF568:
 6570 259f 696E6450 		.ascii	"indParam\000"
 6570      6172616D 
 6570      00
 6571              	.LASF84:
 6572 25a8 4359424C 		.ascii	"CYBLE_EVT_PENDING_FLASH_WRITE\000"
 6572      455F4556 
 6572      545F5045 
 6572      4E44494E 
 6572      475F464C 
 6573              	.LASF135:
 6574 25c6 4359424C 		.ascii	"CYBLE_GATT_ERR_INSUFFICIENT_ENC_KEY_SIZE\000"
 6574      455F4741 
 6574      54545F45 
 6574      52525F49 
 6574      4E535546 
 6575              	.LASF530:
 6576 25ef 4359424C 		.ascii	"CYBLE_EVT_WPTSS_NOTIFICATION_ENABLED\000"
 6576      455F4556 
 6576      545F5750 
ARM GAS  C:\Users\310309~1\AppData\Local\Temp\cckEzWOW.s 			page 158


 6576      5453535F 
 6576      4E4F5449 
 6577              	.LASF293:
 6578 2614 4359424C 		.ascii	"CYBLE_EVT_ANCSC_NOTIFICATION\000"
 6578      455F4556 
 6578      545F414E 
 6578      4353435F 
 6578      4E4F5449 
 6579              	.LASF160:
 6580 2631 4359424C 		.ascii	"CYBLE_GATT_ERR_PROCEDURE_ALREADY_IN_PROGRESS\000"
 6580      455F4741 
 6580      54545F45 
 6580      52525F50 
 6580      524F4345 
 6581              	.LASF469:
 6582 265e 4359424C 		.ascii	"CYBLE_EVT_LNSC_WRITE_DESCR_RESPONSE\000"
 6582      455F4556 
 6582      545F4C4E 
 6582      53435F57 
 6582      52495445 
 6583              	.LASF41:
 6584 2682 4359424C 		.ascii	"CYBLE_EVT_GAP_ENHANCE_CONN_COMPLETE\000"
 6584      455F4556 
 6584      545F4741 
 6584      505F454E 
 6584      48414E43 
 6585              	.LASF456:
 6586 26a6 4359424C 		.ascii	"CYBLE_EVT_LLSC_READ_CHAR_RESPONSE\000"
 6586      455F4556 
 6586      545F4C4C 
 6586      53435F52 
 6586      4541445F 
 6587              	.LASF364:
 6588 26c8 4359424C 		.ascii	"CYBLE_EVT_CSCSS_INDICATION_CONFIRMATION\000"
 6588      455F4556 
 6588      545F4353 
 6588      4353535F 
 6588      494E4449 
 6589              	.LASF106:
 6590 26f0 4359424C 		.ascii	"CYBLE_ERROR_L2CAP_CHANNEL_NOT_FOUND\000"
 6590      455F4552 
 6590      524F525F 
 6590      4C324341 
 6590      505F4348 
 6591              	.LASF588:
 6592 2714 6379426C 		.ascii	"cyBle_gattDB\000"
 6592      655F6761 
 6592      74744442 
 6592      00
 6593              	.LASF97:
 6594 2721 4359424C 		.ascii	"CYBLE_ERROR_REPEATED_ATTEMPTS\000"
 6594      455F4552 
 6594      524F525F 
 6594      52455045 
 6594      41544544 
 6595              	.LASF387:
 6596 273f 4359424C 		.ascii	"CYBLE_EVT_ESSS_DESCR_WRITE\000"
ARM GAS  C:\Users\310309~1\AppData\Local\Temp\cckEzWOW.s 			page 159


 6596      455F4556 
 6596      545F4553 
 6596      53535F44 
 6596      45534352 
 6597              	.LASF383:
 6598 275a 4359424C 		.ascii	"CYBLE_EVT_ESSS_INDICATION_ENABLED\000"
 6598      455F4556 
 6598      545F4553 
 6598      53535F49 
 6598      4E444943 
 6599              	.LASF12:
 6600 277c 666C6F61 		.ascii	"float\000"
 6600      7400
 6601              	.LASF507:
 6602 2782 4359424C 		.ascii	"CYBLE_EVT_SCPSC_NOTIFICATION\000"
 6602      455F4556 
 6602      545F5343 
 6602      5053435F 
 6602      4E4F5449 
 6603              	.LASF409:
 6604 279f 4359424C 		.ascii	"CYBLE_EVT_HIDSS_REPORT_MODE_ENTER\000"
 6604      455F4556 
 6604      545F4849 
 6604      4453535F 
 6604      5245504F 
 6605              	.LASF388:
 6606 27c1 4359424C 		.ascii	"CYBLE_EVT_ESSC_NOTIFICATION\000"
 6606      455F4556 
 6606      545F4553 
 6606      53435F4E 
 6606      4F544946 
 6607              	.LASF110:
 6608 27dd 4359424C 		.ascii	"CYBLE_ERROR_FLASH_WRITE_NOT_PERMITED\000"
 6608      455F4552 
 6608      524F525F 
 6608      464C4153 
 6608      485F5752 
 6609              	.LASF407:
 6610 2802 4359424C 		.ascii	"CYBLE_EVT_HIDSS_NOTIFICATION_DISABLED\000"
 6610      455F4556 
 6610      545F4849 
 6610      4453535F 
 6610      4E4F5449 
 6611              	.LASF71:
 6612 2828 4359424C 		.ascii	"CYBLE_EVT_GATTS_READ_CHAR_VAL_ACCESS_REQ\000"
 6612      455F4556 
 6612      545F4741 
 6612      5454535F 
 6612      52454144 
 6613              	.LASF295:
 6614 2851 4359424C 		.ascii	"CYBLE_EVT_ANCSC_READ_DESCR_RESPONSE\000"
 6614      455F4556 
 6614      545F414E 
 6614      4353435F 
 6614      52454144 
 6615              	.LASF131:
 6616 2875 4359424C 		.ascii	"CYBLE_GATT_ERR_INSUFFICIENT_AUTHORIZATION\000"
ARM GAS  C:\Users\310309~1\AppData\Local\Temp\cckEzWOW.s 			page 160


 6616      455F4741 
 6616      54545F45 
 6616      52525F49 
 6616      4E535546 
 6617              	.LASF564:
 6618 289f 64657363 		.ascii	"descrIndex\000"
 6618      72496E64 
 6618      657800
 6619              	.LASF170:
 6620 28aa 61747472 		.ascii	"attrHandle\000"
 6620      48616E64 
 6620      6C6500
 6621              	.LASF524:
 6622 28b5 4359424C 		.ascii	"CYBLE_EVT_UDSC_NOTIFICATION\000"
 6622      455F4556 
 6622      545F5544 
 6622      53435F4E 
 6622      4F544946 
 6623              	.LASF240:
 6624 28d1 4359424C 		.ascii	"CYBLE_UDS_2ZL\000"
 6624      455F5544 
 6624      535F325A 
 6624      4C00
 6625              	.LASF186:
 6626 28df 4359424C 		.ascii	"CYBLE_GATTS_WRITE_REQ_PARAM_T\000"
 6626      455F4741 
 6626      5454535F 
 6626      57524954 
 6626      455F5245 
 6627              	.LASF8:
 6628 28fd 756E7369 		.ascii	"unsigned int\000"
 6628      676E6564 
 6628      20696E74 
 6628      00
 6629              	.LASF63:
 6630 290a 4359424C 		.ascii	"CYBLE_EVT_GATTS_PREP_WRITE_REQ\000"
 6630      455F4556 
 6630      545F4741 
 6630      5454535F 
 6630      50524550 
 6631              	.LASF200:
 6632 2929 61747445 		.ascii	"attEndHandle\000"
 6632      6E644861 
 6632      6E646C65 
 6632      00
 6633              	.LASF128:
 6634 2936 4359424C 		.ascii	"CYBLE_GATT_ERR_INSUFFICIENT_AUTHENTICATION\000"
 6634      455F4741 
 6634      54545F45 
 6634      52525F49 
 6634      4E535546 
 6635              	.LASF331:
 6636 2961 4359424C 		.ascii	"CYBLE_EVT_BMSC_WRITE_CHAR_RESPONSE\000"
 6636      455F4556 
 6636      545F424D 
 6636      53435F57 
 6636      52495445 
ARM GAS  C:\Users\310309~1\AppData\Local\Temp\cckEzWOW.s 			page 161


 6637              	.LASF373:
 6638 2984 4359424C 		.ascii	"CYBLE_EVT_CTSS_NOTIFICATION_DISABLED\000"
 6638      455F4556 
 6638      545F4354 
 6638      53535F4E 
 6638      4F544946 
 6639              	.LASF320:
 6640 29a9 4359424C 		.ascii	"CYBLE_EVT_BLSS_INDICATION_DISABLED\000"
 6640      455F4556 
 6640      545F424C 
 6640      53535F49 
 6640      4E444943 
 6641              	.LASF211:
 6642 29cc 4359424C 		.ascii	"CYBLE_DIS_REG_CERT_DATA\000"
 6642      455F4449 
 6642      535F5245 
 6642      475F4345 
 6642      52545F44 
 6643              	.LASF505:
 6644 29e4 4359424C 		.ascii	"CYBLE_EVT_SCPSS_NOTIFICATION_DISABLED\000"
 6644      455F4556 
 6644      545F5343 
 6644      5053535F 
 6644      4E4F5449 
 6645              	.LASF385:
 6646 2a0a 4359424C 		.ascii	"CYBLE_EVT_ESSS_INDICATION_CONFIRMATION\000"
 6646      455F4556 
 6646      545F4553 
 6646      53535F49 
 6646      4E444943 
 6647              	.LASF481:
 6648 2a31 4359424C 		.ascii	"CYBLE_EVT_PLXSS_INDICATION_ENABLED\000"
 6648      455F4556 
 6648      545F504C 
 6648      5853535F 
 6648      494E4449 
 6649              	.LASF146:
 6650 2a54 4359424C 		.ascii	"CYBLE_GATTS_ERR_PROCEDURE_ALREADY_IN_PROGRESS\000"
 6650      455F4741 
 6650      5454535F 
 6650      4552525F 
 6650      50524F43 
 6651              	.LASF288:
 6652 2a82 4359424C 		.ascii	"CYBLE_EVT_AIOSC_WRITE_DESCR_RESPONSE\000"
 6652      455F4556 
 6652      545F4149 
 6652      4F53435F 
 6652      57524954 
 6653              	.LASF244:
 6654 2aa7 4359424C 		.ascii	"CYBLE_UDS_LNG\000"
 6654      455F5544 
 6654      535F4C4E 
 6654      4700
 6655              	.LASF573:
 6656 2ab5 4379426C 		.ascii	"CyBle_UdssReadRequestEventHandler\000"
 6656      655F5564 
 6656      73735265 
ARM GAS  C:\Users\310309~1\AppData\Local\Temp\cckEzWOW.s 			page 162


 6656      61645265 
 6656      71756573 
 6657              	.LASF252:
 6658 2ad7 4359424C 		.ascii	"CYBLE_UDSS_CHAR_T\000"
 6658      455F5544 
 6658      53535F43 
 6658      4841525F 
 6658      5400
 6659              	.LASF258:
 6660 2ae9 4359424C 		.ascii	"CYBLE_AUTHENTICATION_REQUEST_REPLY\000"
 6660      455F4155 
 6660      5448454E 
 6660      54494341 
 6660      54494F4E 
 6661              	.LASF102:
 6662 2b0c 4359424C 		.ascii	"CYBLE_ERROR_L2CAP_PSM_WRONG_ENCODING\000"
 6662      455F4552 
 6662      524F525F 
 6662      4C324341 
 6662      505F5053 
 6663              	.LASF323:
 6664 2b31 4359424C 		.ascii	"CYBLE_EVT_BLSS_NOTIFICATION_DISABLED\000"
 6664      455F4556 
 6664      545F424C 
 6664      53535F4E 
 6664      4F544946 
 6665              	.LASF174:
 6666 2b56 4359424C 		.ascii	"CYBLE_GATT_HANDLE_VALUE_OFFSET_PARAM_T\000"
 6666      455F4741 
 6666      54545F48 
 6666      414E444C 
 6666      455F5641 
 6667              	.LASF133:
 6668 2b7d 4359424C 		.ascii	"CYBLE_GATT_ERR_ATTRIBUTE_NOT_FOUND\000"
 6668      455F4741 
 6668      54545F45 
 6668      52525F41 
 6668      54545249 
 6669              	.LASF173:
 6670 2ba0 6F666673 		.ascii	"offset\000"
 6670      657400
 6671              	.LASF443:
 6672 2ba7 4359424C 		.ascii	"CYBLE_EVT_HTSC_WRITE_CHAR_RESPONSE\000"
 6672      455F4556 
 6672      545F4854 
 6672      53435F57 
 6672      52495445 
 6673              	.LASF543:
 6674 2bca 4359424C 		.ascii	"CYBLE_EVT_WSSS_INDICATION_DISABLED\000"
 6674      455F4556 
 6674      545F5753 
 6674      53535F49 
 6674      4E444943 
 6675              	.LASF425:
 6676 2bed 4359424C 		.ascii	"CYBLE_EVT_HPSC_WRITE_CHAR_RESPONSE\000"
 6676      455F4556 
 6676      545F4850 
ARM GAS  C:\Users\310309~1\AppData\Local\Temp\cckEzWOW.s 			page 163


 6676      53435F57 
 6676      52495445 
 6677              	.LASF88:
 6678 2c10 4359424C 		.ascii	"CYBLE_EVT_MAX\000"
 6678      455F4556 
 6678      545F4D41 
 6678      5800
 6679              	.LASF35:
 6680 2c1e 4359424C 		.ascii	"CYBLE_EVT_GAPC_SCAN_START_STOP\000"
 6680      455F4556 
 6680      545F4741 
 6680      50435F53 
 6680      43414E5F 
 6681              	.LASF298:
 6682 2c3d 4359424C 		.ascii	"CYBLE_EVT_ANSS_NOTIFICATION_ENABLED\000"
 6682      455F4556 
 6682      545F414E 
 6682      53535F4E 
 6682      4F544946 
 6683              	.LASF60:
 6684 2c61 4359424C 		.ascii	"CYBLE_EVT_GATTS_WRITE_REQ\000"
 6684      455F4556 
 6684      545F4741 
 6684      5454535F 
 6684      57524954 
 6685              	.LASF526:
 6686 2c7b 4359424C 		.ascii	"CYBLE_EVT_UDSC_WRITE_CHAR_RESPONSE\000"
 6686      455F4556 
 6686      545F5544 
 6686      53435F57 
 6686      52495445 
 6687              	.LASF537:
 6688 2c9e 4359424C 		.ascii	"CYBLE_EVT_WPTSC_INDICATION\000"
 6688      455F4556 
 6688      545F5750 
 6688      5453435F 
 6688      494E4449 
 6689              	.LASF27:
 6690 2cb9 4359424C 		.ascii	"CYBLE_EVT_GAP_PASSKEY_DISPLAY_REQUEST\000"
 6690      455F4556 
 6690      545F4741 
 6690      505F5041 
 6690      53534B45 
 6691              	.LASF118:
 6692 2cdf 4359424C 		.ascii	"CYBLE_ERROR_IND_DISABLED\000"
 6692      455F4552 
 6692      524F525F 
 6692      494E445F 
 6692      44495341 
 6693              	.LASF117:
 6694 2cf8 4359424C 		.ascii	"CYBLE_ERROR_NTF_DISABLED\000"
 6694      455F4552 
 6694      524F525F 
 6694      4E54465F 
 6694      44495341 
 6695              	.LASF57:
 6696 2d11 4359424C 		.ascii	"CYBLE_EVT_GATTC_READ_RSP\000"
ARM GAS  C:\Users\310309~1\AppData\Local\Temp\cckEzWOW.s 			page 164


 6696      455F4556 
 6696      545F4741 
 6696      5454435F 
 6696      52454144 
 6697              	.LASF354:
 6698 2d2a 4359424C 		.ascii	"CYBLE_EVT_CPSC_INDICATION\000"
 6698      455F4556 
 6698      545F4350 
 6698      53435F49 
 6698      4E444943 
 6699              	.LASF130:
 6700 2d44 4359424C 		.ascii	"CYBLE_GATT_ERR_INVALID_OFFSET\000"
 6700      455F4741 
 6700      54545F45 
 6700      52525F49 
 6700      4E56414C 
 6701              	.LASF380:
 6702 2d62 4359424C 		.ascii	"CYBLE_EVT_DISC_READ_CHAR_RESPONSE\000"
 6702      455F4556 
 6702      545F4449 
 6702      53435F52 
 6702      4541445F 
 6703              	.LASF77:
 6704 2d84 4359424C 		.ascii	"CYBLE_EVT_L2CAP_CBFC_CONN_CNF\000"
 6704      455F4556 
 6704      545F4C32 
 6704      4341505F 
 6704      43424643 
 6705              	.LASF190:
 6706 2da2 4359424C 		.ascii	"CYBLE_GATTS_ATT_GEN_VAL_LEN_T\000"
 6706      455F4741 
 6706      5454535F 
 6706      4154545F 
 6706      47454E5F 
 6707              	.LASF444:
 6708 2dc0 4359424C 		.ascii	"CYBLE_EVT_HTSC_READ_DESCR_RESPONSE\000"
 6708      455F4556 
 6708      545F4854 
 6708      53435F52 
 6708      4541445F 
 6709              	.LASF549:
 6710 2de3 4359424C 		.ascii	"CYBLE_DEBUG_EVT_BLESS_INT\000"
 6710      455F4445 
 6710      4255475F 
 6710      4556545F 
 6710      424C4553 
 6711              	.LASF161:
 6712 2dfd 4359424C 		.ascii	"CYBLE_GATT_ERR_OUT_OF_RANGE\000"
 6712      455F4741 
 6712      54545F45 
 6712      52525F4F 
 6712      55545F4F 
 6713              	.LASF399:
 6714 2e19 4359424C 		.ascii	"CYBLE_EVT_GLSS_WRITE_CHAR\000"
 6714      455F4556 
 6714      545F474C 
 6714      53535F57 
ARM GAS  C:\Users\310309~1\AppData\Local\Temp\cckEzWOW.s 			page 165


 6714      52495445 
 6715              	.LASF87:
 6716 2e33 4359424C 		.ascii	"CYBLE_EVT_FLASH_CORRUPT\000"
 6716      455F4556 
 6716      545F464C 
 6716      4153485F 
 6716      434F5252 
 6717              	.LASF15:
 6718 2e4b 6C6F6E67 		.ascii	"long double\000"
 6718      20646F75 
 6718      626C6500 
 6719              	.LASF336:
 6720 2e57 4359424C 		.ascii	"CYBLE_EVT_CGMSS_NOTIFICATION_ENABLED\000"
 6720      455F4556 
 6720      545F4347 
 6720      4D53535F 
 6720      4E4F5449 
 6721              	.LASF429:
 6722 2e7c 4359424C 		.ascii	"CYBLE_EVT_HRSC_NOTIFICATION\000"
 6722      455F4556 
 6722      545F4852 
 6722      53435F4E 
 6722      4F544946 
 6723              	.LASF23:
 6724 2e98 4359424C 		.ascii	"CYBLE_EVT_MEMORY_REQUEST\000"
 6724      455F4556 
 6724      545F4D45 
 6724      4D4F5259 
 6724      5F524551 
 6725              	.LASF285:
 6726 2eb1 4359424C 		.ascii	"CYBLE_EVT_AIOSC_READ_CHAR_RESPONSE\000"
 6726      455F4556 
 6726      545F4149 
 6726      4F53435F 
 6726      52454144 
 6727              	.LASF595:
 6728 2ed4 4379426C 		.ascii	"CyBle_Get16ByPtr\000"
 6728      655F4765 
 6728      74313642 
 6728      79507472 
 6728      00
 6729              	.LASF494:
 6730 2ee5 4359424C 		.ascii	"CYBLE_EVT_RSCSS_INDICATION_CONFIRMATION\000"
 6730      455F4556 
 6730      545F5253 
 6730      4353535F 
 6730      494E4449 
 6731              	.LASF416:
 6732 2f0d 4359424C 		.ascii	"CYBLE_EVT_HIDSC_READ_DESCR_RESPONSE\000"
 6732      455F4556 
 6732      545F4849 
 6732      4453435F 
 6732      52454144 
 6733              	.LASF430:
 6734 2f31 4359424C 		.ascii	"CYBLE_EVT_HRSC_READ_CHAR_RESPONSE\000"
 6734      455F4556 
 6734      545F4852 
ARM GAS  C:\Users\310309~1\AppData\Local\Temp\cckEzWOW.s 			page 166


 6734      53435F52 
 6734      4541445F 
 6735              	.LASF308:
 6736 2f53 4359424C 		.ascii	"CYBLE_EVT_BASC_NOTIFICATION\000"
 6736      455F4556 
 6736      545F4241 
 6736      53435F4E 
 6736      4F544946 
 6737              	.LASF33:
 6738 2f6f 4359424C 		.ascii	"CYBLE_EVT_GAP_ENCRYPT_CHANGE\000"
 6738      455F4556 
 6738      545F4741 
 6738      505F454E 
 6738      43525950 
 6739              	.LASF470:
 6740 2f8c 4359424C 		.ascii	"CYBLE_EVT_NDCSC_READ_CHAR_RESPONSE\000"
 6740      455F4556 
 6740      545F4E44 
 6740      4353435F 
 6740      52454144 
 6741              	.LASF271:
 6742 2faf 4359424C 		.ascii	"CYBLE_EVT_GATTC_DESCR_DUPLICATION\000"
 6742      455F4556 
 6742      545F4741 
 6742      5454435F 
 6742      44455343 
 6743              	.LASF51:
 6744 2fd1 4359424C 		.ascii	"CYBLE_EVT_GATTS_XCNHG_MTU_REQ\000"
 6744      455F4556 
 6744      545F4741 
 6744      5454535F 
 6744      58434E48 
 6745              	.LASF419:
 6746 2fef 4359424C 		.ascii	"CYBLE_EVT_HPSS_NOTIFICATION_DISABLED\000"
 6746      455F4556 
 6746      545F4850 
 6746      53535F4E 
 6746      4F544946 
 6747              	.LASF572:
 6748 3014 6C6F6343 		.ascii	"locCharIndex\000"
 6748      68617249 
 6748      6E646578 
 6748      00
 6749              	.LASF519:
 6750 3021 4359424C 		.ascii	"CYBLE_EVT_UDSS_NOTIFICATION_ENABLED\000"
 6750      455F4556 
 6750      545F5544 
 6750      53535F4E 
 6750      4F544946 
 6751              	.LASF280:
 6752 3045 4359424C 		.ascii	"CYBLE_EVT_AIOSS_INDICATION_CONFIRMED\000"
 6752      455F4556 
 6752      545F4149 
 6752      4F53535F 
 6752      494E4449 
 6753              	.LASF460:
 6754 306a 4359424C 		.ascii	"CYBLE_EVT_LNSS_INDICATION_CONFIRMED\000"
ARM GAS  C:\Users\310309~1\AppData\Local\Temp\cckEzWOW.s 			page 167


 6754      455F4556 
 6754      545F4C4E 
 6754      53535F49 
 6754      4E444943 
 6755              	.LASF47:
 6756 308e 4359424C 		.ascii	"CYBLE_EVT_GAP_SMP_LOC_P256_KEYS_GEN_AND_SET_COMPLET"
 6756      455F4556 
 6756      545F4741 
 6756      505F534D 
 6756      505F4C4F 
 6757 30c1 4500     		.ascii	"E\000"
 6758              	.LASF305:
 6759 30c3 4359424C 		.ascii	"CYBLE_EVT_ANSC_WRITE_DESCR_RESPONSE\000"
 6759      455F4556 
 6759      545F414E 
 6759      53435F57 
 6759      52495445 
 6760              	.LASF466:
 6761 30e7 4359424C 		.ascii	"CYBLE_EVT_LNSC_READ_CHAR_RESPONSE\000"
 6761      455F4556 
 6761      545F4C4E 
 6761      53435F52 
 6761      4541445F 
 6762              	.LASF204:
 6763 3109 4359424C 		.ascii	"CYBLE_DIS_MANUFACTURER_NAME\000"
 6763      455F4449 
 6763      535F4D41 
 6763      4E554641 
 6763      43545552 
 6764              	.LASF396:
 6765 3125 4359424C 		.ascii	"CYBLE_EVT_GLSS_INDICATION_CONFIRMED\000"
 6765      455F4556 
 6765      545F474C 
 6765      53535F49 
 6765      4E444943 
 6766              	.LASF555:
 6767 3149 4359424C 		.ascii	"CYBLE_STATE_T\000"
 6767      455F5354 
 6767      4154455F 
 6767      5400
 6768              	.LASF262:
 6769 3157 4359424C 		.ascii	"CYBLE_EVT_GATTS_INDICATION_ENABLED\000"
 6769      455F4556 
 6769      545F4741 
 6769      5454535F 
 6769      494E4449 
 6770              	.LASF7:
 6771 317a 6C6F6E67 		.ascii	"long long unsigned int\000"
 6771      206C6F6E 
 6771      6720756E 
 6771      7369676E 
 6771      65642069 
 6772              	.LASF216:
 6773 3191 4359424C 		.ascii	"CYBLE_UDS_EML\000"
 6773      455F5544 
 6773      535F454D 
 6773      4C00
ARM GAS  C:\Users\310309~1\AppData\Local\Temp\cckEzWOW.s 			page 168


 6774              	.LASF124:
 6775 319f 4359424C 		.ascii	"CYBLE_GATT_ERR_INVALID_HANDLE\000"
 6775      455F4741 
 6775      54545F45 
 6775      52525F49 
 6775      4E56414C 
 6776              	.LASF19:
 6777 31bd 4359424C 		.ascii	"CYBLE_EVT_TIMEOUT\000"
 6777      455F4556 
 6777      545F5449 
 6777      4D454F55 
 6777      5400
 6778              	.LASF377:
 6779 31cf 4359424C 		.ascii	"CYBLE_EVT_CTSC_READ_DESCR_RESPONSE\000"
 6779      455F4556 
 6779      545F4354 
 6779      53435F52 
 6779      4541445F 
 6780              	.LASF553:
 6781 31f2 4359424C 		.ascii	"CYBLE_STATE_ADVERTISING\000"
 6781      455F5354 
 6781      4154455F 
 6781      41445645 
 6781      52544953 
 6782              	.LASF255:
 6783 320a 4359424C 		.ascii	"CYBLE_UDSS_T\000"
 6783      455F5544 
 6783      53535F54 
 6783      00
 6784              	.LASF148:
 6785 3217 4359424C 		.ascii	"CYBLE_GATT_ERR_MISSING_CRC\000"
 6785      455F4741 
 6785      54545F45 
 6785      52525F4D 
 6785      49535349 
 6786              	.LASF120:
 6787 3232 4359424C 		.ascii	"CYBLE_ERROR_INVALID_STATE\000"
 6787      455F4552 
 6787      524F525F 
 6787      494E5641 
 6787      4C49445F 
 6788              	.LASF163:
 6789 324c 4359424C 		.ascii	"CYBLE_GATT_DB_ATTR_HANDLE_T\000"
 6789      455F4741 
 6789      54545F44 
 6789      425F4154 
 6789      54525F48 
 6790              	.LASF278:
 6791 3268 4359424C 		.ascii	"CYBLE_EVT_AIOSS_INDICATION_ENABLED\000"
 6791      455F4556 
 6791      545F4149 
 6791      4F53535F 
 6791      494E4449 
 6792              	.LASF80:
 6793 328b 4359424C 		.ascii	"CYBLE_EVT_L2CAP_CBFC_DATA_READ\000"
 6793      455F4556 
 6793      545F4C32 
ARM GAS  C:\Users\310309~1\AppData\Local\Temp\cckEzWOW.s 			page 169


 6793      4341505F 
 6793      43424643 
 6794              	.LASF123:
 6795 32aa 4359424C 		.ascii	"CYBLE_GATT_ERR_NONE\000"
 6795      455F4741 
 6795      54545F45 
 6795      52525F4E 
 6795      4F4E4500 
 6796              	.LASF169:
 6797 32be 76616C75 		.ascii	"value\000"
 6797      6500
 6798              	.LASF353:
 6799 32c4 4359424C 		.ascii	"CYBLE_EVT_CPSC_NOTIFICATION\000"
 6799      455F4556 
 6799      545F4350 
 6799      53435F4E 
 6799      4F544946 
 6800              	.LASF328:
 6801 32e0 4359424C 		.ascii	"CYBLE_EVT_BLSC_WRITE_DESCR_RESPONSE\000"
 6801      455F4556 
 6801      545F424C 
 6801      53435F57 
 6801      52495445 
 6802              	.LASF201:
 6803 3304 61747456 		.ascii	"attValue\000"
 6803      616C7565 
 6803      00
 6804              	.LASF465:
 6805 330d 4359424C 		.ascii	"CYBLE_EVT_LNSC_NOTIFICATION\000"
 6805      455F4556 
 6805      545F4C4E 
 6805      53435F4E 
 6805      4F544946 
 6806              	.LASF375:
 6807 3329 4359424C 		.ascii	"CYBLE_EVT_CTSC_NOTIFICATION\000"
 6807      455F4556 
 6807      545F4354 
 6807      53435F4E 
 6807      4F544946 
 6808              	.LASF114:
 6809 3345 4359424C 		.ascii	"CYBLE_ERROR_FLASH_WRITE\000"
 6809      455F4552 
 6809      524F525F 
 6809      464C4153 
 6809      485F5752 
 6810              	.LASF395:
 6811 335d 4359424C 		.ascii	"CYBLE_EVT_GLSS_INDICATION_DISABLED\000"
 6811      455F4556 
 6811      545F474C 
 6811      53535F49 
 6811      4E444943 
 6812              	.LASF223:
 6813 3380 4359424C 		.ascii	"CYBLE_UDS_HRM\000"
 6813      455F5544 
 6813      535F4852 
 6813      4D00
 6814              	.LASF145:
ARM GAS  C:\Users\310309~1\AppData\Local\Temp\cckEzWOW.s 			page 170


 6815 338e 4359424C 		.ascii	"CYBLE_GATT_ERR_HTS_OUT_OF_RANGE\000"
 6815      455F4741 
 6815      54545F45 
 6815      52525F48 
 6815      54535F4F 
 6816              	.LASF281:
 6817 33ae 4359424C 		.ascii	"CYBLE_EVT_AIOSS_CHAR_WRITE\000"
 6817      455F4556 
 6817      545F4149 
 6817      4F53535F 
 6817      43484152 
 6818              	.LASF269:
 6819 33c9 4359424C 		.ascii	"CYBLE_EVT_GATTC_SRVC_DUPLICATION\000"
 6819      455F4556 
 6819      545F4741 
 6819      5454435F 
 6819      53525643 
 6820              	.LASF225:
 6821 33ea 4359424C 		.ascii	"CYBLE_UDS_MRH\000"
 6821      455F5544 
 6821      535F4D52 
 6821      4800
 6822              	.LASF458:
 6823 33f8 4359424C 		.ascii	"CYBLE_EVT_LNSS_INDICATION_ENABLED\000"
 6823      455F4556 
 6823      545F4C4E 
 6823      53535F49 
 6823      4E444943 
 6824              	.LASF335:
 6825 341a 4359424C 		.ascii	"CYBLE_EVT_CGMSS_INDICATION_CONFIRMED\000"
 6825      455F4556 
 6825      545F4347 
 6825      4D53535F 
 6825      494E4449 
 6826              	.LASF291:
 6827 343f 4359424C 		.ascii	"CYBLE_EVT_ANCSS_NOTIFICATION_DISABLED\000"
 6827      455F4556 
 6827      545F414E 
 6827      4353535F 
 6827      4E4F5449 
 6828              	.LASF177:
 6829 3465 636F6E6E 		.ascii	"connHandle\000"
 6829      48616E64 
 6829      6C6500
 6830              	.LASF188:
 6831 3470 61637475 		.ascii	"actualLength\000"
 6831      616C4C65 
 6831      6E677468 
 6831      00
 6832              	.LASF184:
 6833 347d 4359424C 		.ascii	"CYBLE_GATTS_EXEC_WRITE_REQ_T\000"
 6833      455F4741 
 6833      5454535F 
 6833      45584543 
 6833      5F575249 
 6834              	.LASF478:
 6835 349a 4359424C 		.ascii	"CYBLE_EVT_PLXSS_WRITE_CHAR\000"
ARM GAS  C:\Users\310309~1\AppData\Local\Temp\cckEzWOW.s 			page 171


 6835      455F4556 
 6835      545F504C 
 6835      5853535F 
 6835      57524954 
 6836              	.LASF345:
 6837 34b5 4359424C 		.ascii	"CYBLE_EVT_CPSS_NOTIFICATION_ENABLED\000"
 6837      455F4556 
 6837      545F4350 
 6837      53535F4E 
 6837      4F544946 
 6838              	.LASF239:
 6839 34d9 4359424C 		.ascii	"CYBLE_UDS_3ZL\000"
 6839      455F5544 
 6839      535F335A 
 6839      4C00
 6840              	.LASF514:
 6841 34e7 4359424C 		.ascii	"CYBLE_EVT_TPSC_READ_DESCR_RESPONSE\000"
 6841      455F4556 
 6841      545F5450 
 6841      53435F52 
 6841      4541445F 
 6842              	.LASF586:
 6843 350a 6379426C 		.ascii	"cyBle_pendingFlashWrite\000"
 6843      655F7065 
 6843      6E64696E 
 6843      67466C61 
 6843      73685772 
 6844              	.LASF529:
 6845 3522 4359424C 		.ascii	"CYBLE_EVT_UDSC_ERROR_RESPONSE\000"
 6845      455F4556 
 6845      545F5544 
 6845      53435F45 
 6845      52524F52 
 6846              	.LASF55:
 6847 3540 4359424C 		.ascii	"CYBLE_EVT_GATTC_FIND_INFO_RSP\000"
 6847      455F4556 
 6847      545F4741 
 6847      5454435F 
 6847      46494E44 
 6848              	.LASF54:
 6849 355e 4359424C 		.ascii	"CYBLE_EVT_GATTC_READ_BY_TYPE_RSP\000"
 6849      455F4556 
 6849      545F4741 
 6849      5454435F 
 6849      52454144 
 6850              	.LASF472:
 6851 357f 4359424C 		.ascii	"CYBLE_EVT_PASSS_NOTIFICATION_DISABLED\000"
 6851      455F4556 
 6851      545F5041 
 6851      5353535F 
 6851      4E4F5449 
 6852              	.LASF343:
 6853 35a5 4359424C 		.ascii	"CYBLE_EVT_CGMSC_READ_DESCR_RESPONSE\000"
 6853      455F4556 
 6853      545F4347 
 6853      4D53435F 
 6853      52454144 
ARM GAS  C:\Users\310309~1\AppData\Local\Temp\cckEzWOW.s 			page 172


 6854              	.LASF414:
 6855 35c9 4359424C 		.ascii	"CYBLE_EVT_HIDSC_READ_CHAR_RESPONSE\000"
 6855      455F4556 
 6855      545F4849 
 6855      4453435F 
 6855      52454144 
 6856              	.LASF150:
 6857 35ec 4359424C 		.ascii	"CYBLE_GATTS_ERR_OPERATION_FAILED\000"
 6857      455F4741 
 6857      5454535F 
 6857      4552525F 
 6857      4F504552 
 6858              	.LASF559:
 6859 360d 61706952 		.ascii	"apiResult\000"
 6859      6573756C 
 6859      7400
 6860              	.LASF591:
 6861 3617 6379426C 		.ascii	"cyBle_state\000"
 6861      655F7374 
 6861      61746500 
 6862              	.LASF511:
 6863 3623 4359424C 		.ascii	"CYBLE_EVT_TPSS_NOTIFICATION_DISABLED\000"
 6863      455F4556 
 6863      545F5450 
 6863      53535F4E 
 6863      4F544946 
 6864              	.LASF508:
 6865 3648 4359424C 		.ascii	"CYBLE_EVT_SCPSC_READ_DESCR_RESPONSE\000"
 6865      455F4556 
 6865      545F5343 
 6865      5053435F 
 6865      52454144 
 6866              	.LASF433:
 6867 366c 4359424C 		.ascii	"CYBLE_EVT_HRSC_WRITE_DESCR_RESPONSE\000"
 6867      455F4556 
 6867      545F4852 
 6867      53435F57 
 6867      52495445 
 6868              	.LASF463:
 6869 3690 4359424C 		.ascii	"CYBLE_EVT_LNSS_WRITE_CHAR\000"
 6869      455F4556 
 6869      545F4C4E 
 6869      53535F57 
 6869      52495445 
 6870              	.LASF172:
 6871 36aa 68616E64 		.ascii	"handleValuePair\000"
 6871      6C655661 
 6871      6C756550 
 6871      61697200 
 6872              	.LASF386:
 6873 36ba 4359424C 		.ascii	"CYBLE_EVT_ESSS_CHAR_WRITE\000"
 6873      455F4556 
 6873      545F4553 
 6873      53535F43 
 6873      4841525F 
 6874              	.LASF61:
 6875 36d4 4359424C 		.ascii	"CYBLE_EVT_GATTC_WRITE_RSP\000"
ARM GAS  C:\Users\310309~1\AppData\Local\Temp\cckEzWOW.s 			page 173


 6875      455F4556 
 6875      545F4741 
 6875      5454435F 
 6875      57524954 
 6876              	.LASF381:
 6877 36ee 4359424C 		.ascii	"CYBLE_EVT_ESSS_NOTIFICATION_ENABLED\000"
 6877      455F4556 
 6877      545F4553 
 6877      53535F4E 
 6877      4F544946 
 6878              	.LASF554:
 6879 3712 4359424C 		.ascii	"CYBLE_STATE_DISCONNECTED\000"
 6879      455F5354 
 6879      4154455F 
 6879      44495343 
 6879      4F4E4E45 
 6880              	.LASF196:
 6881 372b 4359424C 		.ascii	"CYBLE_GATTS_ATT_VALUE_T\000"
 6881      455F4741 
 6881      5454535F 
 6881      4154545F 
 6881      56414C55 
 6882              	.LASF496:
 6883 3743 4359424C 		.ascii	"CYBLE_EVT_RSCSC_NOTIFICATION\000"
 6883      455F4556 
 6883      545F5253 
 6883      4353435F 
 6883      4E4F5449 
 6884              	.LASF193:
 6885 3760 4359424C 		.ascii	"CYBLE_GATTS_ATT_PACK_VAL_LEN_T\000"
 6885      455F4741 
 6885      5454535F 
 6885      4154545F 
 6885      5041434B 
 6886              	.LASF30:
 6887 377f 4359424C 		.ascii	"CYBLE_EVT_GAPP_ADVERTISEMENT_START_STOP\000"
 6887      455F4556 
 6887      545F4741 
 6887      50505F41 
 6887      44564552 
 6888              	.LASF321:
 6889 37a7 4359424C 		.ascii	"CYBLE_EVT_BLSS_INDICATION_CONFIRMED\000"
 6889      455F4556 
 6889      545F424C 
 6889      53535F49 
 6889      4E444943 
 6890              	.LASF540:
 6891 37cb 4359424C 		.ascii	"CYBLE_EVT_WPTSC_READ_DESCR_RESPONSE\000"
 6891      455F4556 
 6891      545F5750 
 6891      5453435F 
 6891      52454144 
 6892              	.LASF232:
 6893 37ef 4359424C 		.ascii	"CYBLE_UDS_FBL\000"
 6893      455F5544 
 6893      535F4642 
 6893      4C00
ARM GAS  C:\Users\310309~1\AppData\Local\Temp\cckEzWOW.s 			page 174


 6894              	.LASF189:
 6895 37fd 61747447 		.ascii	"attGenericVal\000"
 6895      656E6572 
 6895      69635661 
 6895      6C00
 6896              	.LASF250:
 6897 380b 63686172 		.ascii	"charHandle\000"
 6897      48616E64 
 6897      6C6500
 6898              	.LASF233:
 6899 3816 4359424C 		.ascii	"CYBLE_UDS_FBU\000"
 6899      455F5544 
 6899      535F4642 
 6899      5500
 6900              	.LASF342:
 6901 3824 4359424C 		.ascii	"CYBLE_EVT_CGMSC_WRITE_CHAR_RESPONSE\000"
 6901      455F4556 
 6901      545F4347 
 6901      4D53435F 
 6901      57524954 
 6902              	.LASF562:
 6903 3848 4379426C 		.ascii	"CyBle_UdssGetCharacteristicValue\000"
 6903      655F5564 
 6903      73734765 
 6903      74436861 
 6903      72616374 
 6904              	.LASF9:
 6905 3869 75696E74 		.ascii	"uint8\000"
 6905      3800
 6906              	.LASF442:
 6907 386f 4359424C 		.ascii	"CYBLE_EVT_HTSC_READ_CHAR_RESPONSE\000"
 6907      455F4556 
 6907      545F4854 
 6907      53435F52 
 6907      4541445F 
 6908              	.LASF38:
 6909 3891 4359424C 		.ascii	"CYBLE_EVT_GAP_KEYPRESS_NOTIFICATION\000"
 6909      455F4556 
 6909      545F4741 
 6909      505F4B45 
 6909      59505245 
 6910              	.LASF477:
 6911 38b5 4359424C 		.ascii	"CYBLE_EVT_PASSC_WRITE_DESCR_RESPONSE\000"
 6911      455F4556 
 6911      545F5041 
 6911      5353435F 
 6911      57524954 
 6912              	.LASF2:
 6913 38da 73686F72 		.ascii	"short int\000"
 6913      7420696E 
 6913      7400
 6914              	.LASF218:
 6915 38e4 4359424C 		.ascii	"CYBLE_UDS_DOB\000"
 6915      455F5544 
 6915      535F444F 
 6915      4200
 6916              	.LASF185:
ARM GAS  C:\Users\310309~1\AppData\Local\Temp\cckEzWOW.s 			page 175


 6917 38f2 68616E64 		.ascii	"handleValPair\000"
 6917      6C655661 
 6917      6C506169 
 6917      7200
 6918              	.LASF329:
 6919 3900 4359424C 		.ascii	"CYBLE_EVT_BMSS_WRITE_CHAR\000"
 6919      455F4556 
 6919      545F424D 
 6919      53535F57 
 6919      52495445 
 6920              	.LASF192:
 6921 391a 61747447 		.ascii	"attGenericValLen\000"
 6921      656E6572 
 6921      69635661 
 6921      6C4C656E 
 6921      00
 6922              	.LASF194:
 6923 392b 61747446 		.ascii	"attFormatValue\000"
 6923      6F726D61 
 6923      7456616C 
 6923      756500
 6924              	.LASF286:
 6925 393a 4359424C 		.ascii	"CYBLE_EVT_AIOSC_WRITE_CHAR_RESPONSE\000"
 6925      455F4556 
 6925      545F4149 
 6925      4F53435F 
 6925      57524954 
 6926              	.LASF569:
 6927 395e 4379426C 		.ascii	"CyBle_UdsRegisterAttrCallback\000"
 6927      655F5564 
 6927      73526567 
 6927      69737465 
 6927      72417474 
 6928              	.LASF112:
 6929 397c 4359424C 		.ascii	"CYBLE_ERROR_HARDWARE_FAILURE\000"
 6929      455F4552 
 6929      524F525F 
 6929      48415244 
 6929      57415245 
 6930              	.LASF144:
 6931 3999 4359424C 		.ascii	"CYBLE_GATT_ERR_CPS_INAPPROPRIATE_CONNECTION_PARAMET"
 6931      455F4741 
 6931      54545F45 
 6931      52525F43 
 6931      50535F49 
 6932 39cc 45525300 		.ascii	"ERS\000"
 6933              	.LASF340:
 6934 39d0 4359424C 		.ascii	"CYBLE_EVT_CGMSC_NOTIFICATION\000"
 6934      455F4556 
 6934      545F4347 
 6934      4D53435F 
 6934      4E4F5449 
 6935              	.LASF129:
 6936 39ed 4359424C 		.ascii	"CYBLE_GATT_ERR_REQUEST_NOT_SUPPORTED\000"
 6936      455F4741 
 6936      54545F45 
 6936      52525F52 
ARM GAS  C:\Users\310309~1\AppData\Local\Temp\cckEzWOW.s 			page 176


 6936      45515545 
 6937              	.LASF48:
 6938 3a12 4359424C 		.ascii	"CYBLE_EVT_GATTC_ERROR_RSP\000"
 6938      455F4556 
 6938      545F4741 
 6938      5454435F 
 6938      4552524F 
 6939              	.LASF391:
 6940 3a2c 4359424C 		.ascii	"CYBLE_EVT_ESSC_WRITE_CHAR_RESPONSE\000"
 6940      455F4556 
 6940      545F4553 
 6940      53435F57 
 6940      52495445 
 6941              	.LASF297:
 6942 3a4f 4359424C 		.ascii	"CYBLE_EVT_ANCSC_ERROR_RESPONSE\000"
 6942      455F4556 
 6942      545F414E 
 6942      4353435F 
 6942      4552524F 
 6943              	.LASF311:
 6944 3a6e 4359424C 		.ascii	"CYBLE_EVT_BASC_WRITE_DESCR_RESPONSE\000"
 6944      455F4556 
 6944      545F4241 
 6944      53435F57 
 6944      52495445 
 6945              	.LASF265:
 6946 3a92 4359424C 		.ascii	"CYBLE_EVT_GATTC_SRVC_DISCOVERY_FAILED\000"
 6946      455F4556 
 6946      545F4741 
 6946      5454435F 
 6946      53525643 
 6947              	.LASF394:
 6948 3ab8 4359424C 		.ascii	"CYBLE_EVT_GLSS_INDICATION_ENABLED\000"
 6948      455F4556 
 6948      545F474C 
 6948      53535F49 
 6948      4E444943 
 6949              	.LASF300:
 6950 3ada 4359424C 		.ascii	"CYBLE_EVT_ANSS_CHAR_WRITE\000"
 6950      455F4556 
 6950      545F414E 
 6950      53535F43 
 6950      4841525F 
 6951              	.LASF76:
 6952 3af4 4359424C 		.ascii	"CYBLE_EVT_L2CAP_CBFC_CONN_IND\000"
 6952      455F4556 
 6952      545F4C32 
 6952      4341505F 
 6952      43424643 
 6953              	.LASF64:
 6954 3b12 4359424C 		.ascii	"CYBLE_EVT_GATTS_EXEC_WRITE_REQ\000"
 6954      455F4556 
 6954      545F4741 
 6954      5454535F 
 6954      45584543 
 6955              	.LASF24:
 6956 3b31 4359424C 		.ascii	"CYBLE_EVT_GAPC_SCAN_PROGRESS_RESULT\000"
ARM GAS  C:\Users\310309~1\AppData\Local\Temp\cckEzWOW.s 			page 177


 6956      455F4556 
 6956      545F4741 
 6956      50435F53 
 6956      43414E5F 
 6957              	.LASF423:
 6958 3b55 4359424C 		.ascii	"CYBLE_EVT_HPSC_READ_DESCR_RESPONSE\000"
 6958      455F4556 
 6958      545F4850 
 6958      53435F52 
 6958      4541445F 
 6959              	.LASF374:
 6960 3b78 4359424C 		.ascii	"CYBLE_EVT_CTSS_CHAR_WRITE\000"
 6960      455F4556 
 6960      545F4354 
 6960      53535F43 
 6960      4841525F 
 6961              	.LASF516:
 6962 3b92 4359424C 		.ascii	"CYBLE_EVT_UDSS_INDICATION_ENABLED\000"
 6962      455F4556 
 6962      545F5544 
 6962      53535F49 
 6962      4E444943 
 6963              	.LASF584:
 6964 3bb4 6379426C 		.ascii	"cyBle_udssReqHandle\000"
 6964      655F7564 
 6964      73735265 
 6964      7148616E 
 6964      646C6500 
 6965              	.LASF421:
 6966 3bc8 4359424C 		.ascii	"CYBLE_EVT_HPSC_NOTIFICATION\000"
 6966      455F4556 
 6966      545F4850 
 6966      53435F4E 
 6966      4F544946 
 6967              	.LASF162:
 6968 3be4 4359424C 		.ascii	"CYBLE_GATT_ERR_CODE_T\000"
 6968      455F4741 
 6968      54545F45 
 6968      52525F43 
 6968      4F44455F 
 6969              	.LASF157:
 6970 3bfa 4359424C 		.ascii	"CYBLE_GATT_ERR_ANCS_INVALID_PARAMETER\000"
 6970      455F4741 
 6970      54545F45 
 6970      52525F41 
 6970      4E43535F 
 6971              	.LASF243:
 6972 3c20 4359424C 		.ascii	"CYBLE_UDS_UCP\000"
 6972      455F5544 
 6972      535F5543 
 6972      5000
 6973              	.LASF98:
 6974 3c2e 4359424C 		.ascii	"CYBLE_ERROR_GAP_ROLE\000"
 6974      455F4552 
 6974      524F525F 
 6974      4741505F 
 6974      524F4C45 
ARM GAS  C:\Users\310309~1\AppData\Local\Temp\cckEzWOW.s 			page 178


 6975              	.LASF436:
 6976 3c43 4359424C 		.ascii	"CYBLE_EVT_HTSS_INDICATION_ENABLED\000"
 6976      455F4556 
 6976      545F4854 
 6976      53535F49 
 6976      4E444943 
 6977              	.LASF247:
 6978 3c65 4359424C 		.ascii	"CYBLE_UDS_CCCD\000"
 6978      455F5544 
 6978      535F4343 
 6978      434400
 6979              	.LASF527:
 6980 3c74 4359424C 		.ascii	"CYBLE_EVT_UDSC_READ_DESCR_RESPONSE\000"
 6980      455F4556 
 6980      545F5544 
 6980      53435F52 
 6980      4541445F 
 6981              	.LASF282:
 6982 3c97 4359424C 		.ascii	"CYBLE_EVT_AIOSS_DESCR_WRITE\000"
 6982      455F4556 
 6982      545F4149 
 6982      4F53535F 
 6982      44455343 
 6983              	.LASF45:
 6984 3cb3 4359424C 		.ascii	"CYBLE_EVT_GAP_SCAN_REQ_RECVD\000"
 6984      455F4556 
 6984      545F4741 
 6984      505F5343 
 6984      414E5F52 
 6985              	.LASF309:
 6986 3cd0 4359424C 		.ascii	"CYBLE_EVT_BASC_READ_CHAR_RESPONSE\000"
 6986      455F4556 
 6986      545F4241 
 6986      53435F52 
 6986      4541445F 
 6987              	.LASF401:
 6988 3cf2 4359424C 		.ascii	"CYBLE_EVT_GLSC_NOTIFICATION\000"
 6988      455F4556 
 6988      545F474C 
 6988      53435F4E 
 6988      4F544946 
 6989              	.LASF154:
 6990 3d0e 4359424C 		.ascii	"CYBLE_GATT_ERR_ANS_COMMAND_NOT_SUPPORTED\000"
 6990      455F4741 
 6990      54545F45 
 6990      52525F41 
 6990      4E535F43 
 6991              	.LASF506:
 6992 3d37 4359424C 		.ascii	"CYBLE_EVT_SCPSS_SCAN_INT_WIN_CHAR_WRITE\000"
 6992      455F4556 
 6992      545F5343 
 6992      5053535F 
 6992      5343414E 
 6993              	.LASF585:
 6994 3d5f 6379426C 		.ascii	"cyBle_eventHandlerFlag\000"
 6994      655F6576 
 6994      656E7448 
ARM GAS  C:\Users\310309~1\AppData\Local\Temp\cckEzWOW.s 			page 179


 6994      616E646C 
 6994      6572466C 
 6995              	.LASF254:
 6996 3d76 63686172 		.ascii	"charInfo\000"
 6996      496E666F 
 6996      00
 6997              	.LASF95:
 6998 3d7f 4359424C 		.ascii	"CYBLE_ERROR_NO_CONNECTION\000"
 6998      455F4552 
 6998      524F525F 
 6998      4E4F5F43 
 6998      4F4E4E45 
 6999              	.LASF566:
 7000 3d99 6E746650 		.ascii	"ntfParam\000"
 7000      6172616D 
 7000      00
 7001              	.LASF179:
 7002 3da2 63757272 		.ascii	"currentPrepWriteReqCount\000"
 7002      656E7450 
 7002      72657057 
 7002      72697465 
 7002      52657143 
 7003              	.LASF579:
 7004 3dbb 6C6F634D 		.ascii	"locMtu\000"
 7004      747500
 7005              	.LASF332:
 7006 3dc2 4359424C 		.ascii	"CYBLE_EVT_BMSC_READ_DESCR_RESPONSE\000"
 7006      455F4556 
 7006      545F424D 
 7006      53435F52 
 7006      4541445F 
 7007              	.LASF85:
 7008 3de5 4359424C 		.ascii	"CYBLE_EVT_LE_PING_AUTH_TIMEOUT\000"
 7008      455F4556 
 7008      545F4C45 
 7008      5F50494E 
 7008      475F4155 
 7009              	.LASF122:
 7010 3e04 4359424C 		.ascii	"CYBLE_API_RESULT_T\000"
 7010      455F4150 
 7010      495F5245 
 7010      53554C54 
 7010      5F5400
 7011              	.LASF334:
 7012 3e17 4359424C 		.ascii	"CYBLE_EVT_CGMSS_INDICATION_DISABLED\000"
 7012      455F4556 
 7012      545F4347 
 7012      4D53535F 
 7012      494E4449 
 7013              	.LASF580:
 7014 3e3b 4379426C 		.ascii	"CyBle_UdssExecuteWriteRequestEventHandler\000"
 7014      655F5564 
 7014      73734578 
 7014      65637574 
 7014      65577269 
 7015              	.LASF234:
 7016 3e65 4359424C 		.ascii	"CYBLE_UDS_AEL\000"
ARM GAS  C:\Users\310309~1\AppData\Local\Temp\cckEzWOW.s 			page 180


 7016      455F5544 
 7016      535F4145 
 7016      4C00
 7017              	.LASF275:
 7018 3e73 4359424C 		.ascii	"CYBLE_EVT_GATTC_DISCOVERY_COMPLETE\000"
 7018      455F4556 
 7018      545F4741 
 7018      5454435F 
 7018      44495343 
 7019              	.LASF338:
 7020 3e96 4359424C 		.ascii	"CYBLE_EVT_CGMSS_WRITE_CHAR\000"
 7020      455F4556 
 7020      545F4347 
 7020      4D53535F 
 7020      57524954 
 7021              	.LASF226:
 7022 3eb1 4359424C 		.ascii	"CYBLE_UDS_AET\000"
 7022      455F5544 
 7022      535F4145 
 7022      5400
 7023              	.LASF235:
 7024 3ebf 4359424C 		.ascii	"CYBLE_UDS_AEU\000"
 7024      455F5544 
 7024      535F4145 
 7024      5500
 7025              	.LASF67:
 7026 3ecd 4359424C 		.ascii	"CYBLE_EVT_GATTC_HANDLE_VALUE_IND\000"
 7026      455F4556 
 7026      545F4741 
 7026      5454435F 
 7026      48414E44 
 7027              	.LASF359:
 7028 3eee 4359424C 		.ascii	"CYBLE_EVT_CPSC_SCAN_PROGRESS_RESULT\000"
 7028      455F4556 
 7028      545F4350 
 7028      53435F53 
 7028      43414E5F 
 7029              	.LASF500:
 7030 3f12 4359424C 		.ascii	"CYBLE_EVT_RSCSC_READ_DESCR_RESPONSE\000"
 7030      455F4556 
 7030      545F5253 
 7030      4353435F 
 7030      52454144 
 7031              	.LASF577:
 7032 3f36 6576656E 		.ascii	"eventCode\000"
 7032      74436F64 
 7032      6500
 7033              	.LASF101:
 7034 3f40 4359424C 		.ascii	"CYBLE_ERROR_SEC_FAILED\000"
 7034      455F4552 
 7034      524F525F 
 7034      5345435F 
 7034      4641494C 
 7035              	.LASF22:
 7036 3f57 4359424C 		.ascii	"CYBLE_EVT_STACK_BUSY_STATUS\000"
 7036      455F4556 
 7036      545F5354 
ARM GAS  C:\Users\310309~1\AppData\Local\Temp\cckEzWOW.s 			page 181


 7036      41434B5F 
 7036      42555359 
 7037              	.LASF453:
 7038 3f73 4359424C 		.ascii	"CYBLE_EVT_IPSC_ERROR_RESPONSE\000"
 7038      455F4556 
 7038      545F4950 
 7038      53435F45 
 7038      52524F52 
 7039              	.LASF445:
 7040 3f91 4359424C 		.ascii	"CYBLE_EVT_HTSC_WRITE_DESCR_RESPONSE\000"
 7040      455F4556 
 7040      545F4854 
 7040      53435F57 
 7040      52495445 
 7041              	.LASF36:
 7042 3fb5 4359424C 		.ascii	"CYBLE_EVT_GAP_KEYINFO_EXCHNGE_CMPLT\000"
 7042      455F4556 
 7042      545F4741 
 7042      505F4B45 
 7042      59494E46 
 7043              	.LASF532:
 7044 3fd9 4359424C 		.ascii	"CYBLE_EVT_WPTSS_INDICATION_ENABLED\000"
 7044      455F4556 
 7044      545F5750 
 7044      5453535F 
 7044      494E4449 
 7045              	.LASF541:
 7046 3ffc 4359424C 		.ascii	"CYBLE_EVT_WPTSC_WRITE_DESCR_RESPONSE\000"
 7046      455F4556 
 7046      545F5750 
 7046      5453435F 
 7046      57524954 
 7047              	.LASF246:
 7048 4021 4359424C 		.ascii	"CYBLE_UDS_CHAR_INDEX_T\000"
 7048      455F5544 
 7048      535F4348 
 7048      41525F49 
 7048      4E444558 
 7049              	.LASF73:
 7050 4038 4359424C 		.ascii	"CYBLE_EVT_L2CAP_CONN_PARAM_UPDATE_REQ\000"
 7050      455F4556 
 7050      545F4C32 
 7050      4341505F 
 7050      434F4E4E 
 7051              	.LASF337:
 7052 405e 4359424C 		.ascii	"CYBLE_EVT_CGMSS_NOTIFICATION_DISABLED\000"
 7052      455F4556 
 7052      545F4347 
 7052      4D53535F 
 7052      4E4F5449 
 7053              	.LASF576:
 7054 4084 67617474 		.ascii	"gattErr\000"
 7054      45727200 
 7055              	.LASF266:
 7056 408c 4359424C 		.ascii	"CYBLE_EVT_GATTC_INCL_DISCOVERY_FAILED\000"
 7056      455F4556 
 7056      545F4741 
ARM GAS  C:\Users\310309~1\AppData\Local\Temp\cckEzWOW.s 			page 182


 7056      5454435F 
 7056      494E434C 
 7057              	.LASF126:
 7058 40b2 4359424C 		.ascii	"CYBLE_GATT_ERR_WRITE_NOT_PERMITTED\000"
 7058      455F4741 
 7058      54545F45 
 7058      52525F57 
 7058      52495445 
 7059              	.LASF263:
 7060 40d5 4359424C 		.ascii	"CYBLE_EVT_GATTS_INDICATION_DISABLED\000"
 7060      455F4556 
 7060      545F4741 
 7060      5454535F 
 7060      494E4449 
 7061              	.LASF3:
 7062 40f9 73686F72 		.ascii	"short unsigned int\000"
 7062      7420756E 
 7062      7369676E 
 7062      65642069 
 7062      6E7400
 7063              	.LASF138:
 7064 410c 4359424C 		.ascii	"CYBLE_GATT_ERR_INSUFFICIENT_ENCRYPTION\000"
 7064      455F4741 
 7064      54545F45 
 7064      52525F49 
 7064      4E535546 
 7065              	.LASF303:
 7066 4133 4359424C 		.ascii	"CYBLE_EVT_ANSC_WRITE_CHAR_RESPONSE\000"
 7066      455F4556 
 7066      545F414E 
 7066      53435F57 
 7066      52495445 
 7067              	.LASF468:
 7068 4156 4359424C 		.ascii	"CYBLE_EVT_LNSC_READ_DESCR_RESPONSE\000"
 7068      455F4556 
 7068      545F4C4E 
 7068      53435F52 
 7068      4541445F 
 7069              	.LASF552:
 7070 4179 4359424C 		.ascii	"CYBLE_STATE_CONNECTED\000"
 7070      455F5354 
 7070      4154455F 
 7070      434F4E4E 
 7070      45435445 
 7071              	.LASF307:
 7072 418f 4359424C 		.ascii	"CYBLE_EVT_BASS_NOTIFICATION_DISABLED\000"
 7072      455F4556 
 7072      545F4241 
 7072      53535F4E 
 7072      4F544946 
 7073              	.LASF167:
 7074 41b4 61637475 		.ascii	"actualLen\000"
 7074      616C4C65 
 7074      6E00
 7075              	.LASF292:
 7076 41be 4359424C 		.ascii	"CYBLE_EVT_ANCSS_WRITE_CHAR\000"
 7076      455F4556 
ARM GAS  C:\Users\310309~1\AppData\Local\Temp\cckEzWOW.s 			page 183


 7076      545F414E 
 7076      4353535F 
 7076      57524954 
 7077              	.LASF217:
 7078 41d9 4359424C 		.ascii	"CYBLE_UDS_AGE\000"
 7078      455F5544 
 7078      535F4147 
 7078      4500
 7079              	.LASF400:
 7080 41e7 4359424C 		.ascii	"CYBLE_EVT_GLSC_INDICATION\000"
 7080      455F4556 
 7080      545F474C 
 7080      53435F49 
 7080      4E444943 
 7081              	.LASF351:
 7082 4201 4359424C 		.ascii	"CYBLE_EVT_CPSS_BROADCAST_DISABLED\000"
 7082      455F4556 
 7082      545F4350 
 7082      53535F42 
 7082      524F4144 
 7083              	.LASF165:
 7084 4223 61747449 		.ascii	"attId\000"
 7084      6400
 7085              	.LASF91:
 7086 4229 4359424C 		.ascii	"CYBLE_ERROR_INVALID_OPERATION\000"
 7086      455F4552 
 7086      524F525F 
 7086      494E5641 
 7086      4C49445F 
 7087              	.LASF21:
 7088 4247 4359424C 		.ascii	"CYBLE_EVT_HCI_STATUS\000"
 7088      455F4556 
 7088      545F4843 
 7088      495F5354 
 7088      41545553 
 7089              	.LASF594:
 7090 425c 4379426C 		.ascii	"CyBle_GattsNotification\000"
 7090      655F4761 
 7090      7474734E 
 7090      6F746966 
 7090      69636174 
 7091              	.LASF50:
 7092 4274 4359424C 		.ascii	"CYBLE_EVT_GATT_DISCONNECT_IND\000"
 7092      455F4556 
 7092      545F4741 
 7092      54545F44 
 7092      4953434F 
 7093              	.LASF261:
 7094 4292 4359424C 		.ascii	"CYBLE_KEY_EXCHANGE_INFO_REQUEST_REPLY\000"
 7094      455F4B45 
 7094      595F4558 
 7094      4348414E 
 7094      47455F49 
 7095              	.LASF83:
 7096 42b8 4359424C 		.ascii	"CYBLE_EVT_L2CAP_CBFC_DATA_WRITE_IND\000"
 7096      455F4556 
 7096      545F4C32 
ARM GAS  C:\Users\310309~1\AppData\Local\Temp\cckEzWOW.s 			page 184


 7096      4341505F 
 7096      43424643 
 7097              	.LASF259:
 7098 42dc 4359424C 		.ascii	"CYBLE_PASSKEY_ENTRY_REQUEST_REPLY\000"
 7098      455F5041 
 7098      53534B45 
 7098      595F454E 
 7098      5452595F 
 7099              	.LASF318:
 7100 42fe 4359424C 		.ascii	"CYBLE_EVT_BCSC_WRITE_DESCR_RESPONSE\000"
 7100      455F4556 
 7100      545F4243 
 7100      53435F57 
 7100      52495445 
 7101              	.LASF546:
 7102 4322 4359424C 		.ascii	"CYBLE_EVT_WSSC_READ_CHAR_RESPONSE\000"
 7102      455F4556 
 7102      545F5753 
 7102      53435F52 
 7102      4541445F 
 7103              	.LASF72:
 7104 4344 4359424C 		.ascii	"CYBLE_EVT_GATTC_LONG_PROCEDURE_END\000"
 7104      455F4556 
 7104      545F4741 
 7104      5454435F 
 7104      4C4F4E47 
 7105              	.LASF301:
 7106 4367 4359424C 		.ascii	"CYBLE_EVT_ANSC_NOTIFICATION\000"
 7106      455F4556 
 7106      545F414E 
 7106      53435F4E 
 7106      4F544946 
 7107              	.LASF32:
 7108 4383 4359424C 		.ascii	"CYBLE_EVT_GAP_DEVICE_DISCONNECTED\000"
 7108      455F4556 
 7108      545F4741 
 7108      505F4445 
 7108      56494345 
 7109              	.LASF408:
 7110 43a5 4359424C 		.ascii	"CYBLE_EVT_HIDSS_BOOT_MODE_ENTER\000"
 7110      455F4556 
 7110      545F4849 
 7110      4453535F 
 7110      424F4F54 
 7111              	.LASF68:
 7112 43c5 4359424C 		.ascii	"CYBLE_EVT_GATTS_HANDLE_VALUE_CNF\000"
 7112      455F4556 
 7112      545F4741 
 7112      5454535F 
 7112      48414E44 
 7113              	.LASF229:
 7114 43e6 4359424C 		.ascii	"CYBLE_UDS_DTA\000"
 7114      455F5544 
 7114      535F4454 
 7114      4100
 7115              	.LASF370:
 7116 43f4 4359424C 		.ascii	"CYBLE_EVT_CSCSC_READ_DESCR_RESPONSE\000"
ARM GAS  C:\Users\310309~1\AppData\Local\Temp\cckEzWOW.s 			page 185


 7116      455F4556 
 7116      545F4353 
 7116      4353435F 
 7116      52454144 
 7117              	.LASF10:
 7118 4418 75696E74 		.ascii	"uint16\000"
 7118      313600
 7119              	.LASF294:
 7120 441f 4359424C 		.ascii	"CYBLE_EVT_ANCSC_WRITE_CHAR_RESPONSE\000"
 7120      455F4556 
 7120      545F414E 
 7120      4353435F 
 7120      57524954 
 7121              	.LASF581:
 7122 4443 6C6F6343 		.ascii	"locCount\000"
 7122      6F756E74 
 7122      00
 7123              	.LASF99:
 7124 444c 4359424C 		.ascii	"CYBLE_ERROR_TX_POWER_READ\000"
 7124      455F4552 
 7124      524F525F 
 7124      54585F50 
 7124      4F574552 
 7125              	.LASF490:
 7126 4466 4359424C 		.ascii	"CYBLE_EVT_RSCSS_NOTIFICATION_ENABLED\000"
 7126      455F4556 
 7126      545F5253 
 7126      4353535F 
 7126      4E4F5449 
 7127              	.LASF299:
 7128 448b 4359424C 		.ascii	"CYBLE_EVT_ANSS_NOTIFICATION_DISABLED\000"
 7128      455F4556 
 7128      545F414E 
 7128      53535F4E 
 7128      4F544946 
 7129              	.LASF441:
 7130 44b0 4359424C 		.ascii	"CYBLE_EVT_HTSC_INDICATION\000"
 7130      455F4556 
 7130      545F4854 
 7130      53435F49 
 7130      4E444943 
 7131              	.LASF406:
 7132 44ca 4359424C 		.ascii	"CYBLE_EVT_HIDSS_NOTIFICATION_ENABLED\000"
 7132      455F4556 
 7132      545F4849 
 7132      4453535F 
 7132      4E4F5449 
 7133              	.LASF438:
 7134 44ef 4359424C 		.ascii	"CYBLE_EVT_HTSS_INDICATION_CONFIRMED\000"
 7134      455F4556 
 7134      545F4854 
 7134      53535F49 
 7134      4E444943 
 7135              	.LASF277:
 7136 4513 4359424C 		.ascii	"CYBLE_EVT_AIOSS_NOTIFICATION_DISABLED\000"
 7136      455F4556 
 7136      545F4149 
ARM GAS  C:\Users\310309~1\AppData\Local\Temp\cckEzWOW.s 			page 186


 7136      4F53535F 
 7136      4E4F5449 
 7137              	.LASF534:
 7138 4539 4359424C 		.ascii	"CYBLE_EVT_WPTSS_INDICATION_CONFIRMED\000"
 7138      455F4556 
 7138      545F5750 
 7138      5453535F 
 7138      494E4449 
 7139              	.LASF428:
 7140 455e 4359424C 		.ascii	"CYBLE_EVT_HRSS_NOTIFICATION_DISABLED\000"
 7140      455F4556 
 7140      545F4852 
 7140      53535F4E 
 7140      4F544946 
 7141              		.ident	"GCC: (GNU Tools for ARM Embedded Processors) 5.4.1 20160609 (release) [ARM/embedded-5-bran
