ARM GAS  C:\Users\310309~1\AppData\Local\Temp\cckEzWOW.s 			page 1


   1              		.syntax unified
   2              		.cpu cortex-m0
   3              		.fpu softvfp
   4              		.eabi_attribute 20, 1
   5              		.eabi_attribute 21, 1
   6              		.eabi_attribute 23, 3
   7              		.eabi_attribute 24, 1
   8              		.eabi_attribute 25, 1
   9              		.eabi_attribute 26, 1
  10              		.eabi_attribute 30, 1
  11              		.eabi_attribute 34, 0
  12              		.eabi_attribute 18, 4
  13              		.thumb
  14              		.syntax unified
  15              		.file	"ble_uds.c"
  16              		.text
  17              	.Ltext0:
  18              		.cfi_sections	.debug_frame
  19              		.section	.text.CyBle_UdsInit,"ax",%progbits
  20              		.align	2
  21              		.global	CyBle_UdsInit
  22              		.code	16
  23              		.thumb_func
  24              		.type	CyBle_UdsInit, %function
  25              	CyBle_UdsInit:
  26              	.LFB2:
  27              		.file 1 "Generated_Source\\PSoC4\\ble_uds.c"
   1:Generated_Source\PSoC4/ble_uds.c **** /***************************************************************************//**
   2:Generated_Source\PSoC4/ble_uds.c **** * \file CYBLE_uds.c
   3:Generated_Source\PSoC4/ble_uds.c **** * \version 3.30
   4:Generated_Source\PSoC4/ble_uds.c **** * 
   5:Generated_Source\PSoC4/ble_uds.c **** * \brief
   6:Generated_Source\PSoC4/ble_uds.c **** *  This file contains the source code for
   7:Generated_Source\PSoC4/ble_uds.c **** *  the User Data Service of the BLE Component.
   8:Generated_Source\PSoC4/ble_uds.c **** * 
   9:Generated_Source\PSoC4/ble_uds.c **** ********************************************************************************
  10:Generated_Source\PSoC4/ble_uds.c **** * \copyright
  11:Generated_Source\PSoC4/ble_uds.c **** * Copyright 2014-2016, Cypress Semiconductor Corporation.  All rights reserved.
  12:Generated_Source\PSoC4/ble_uds.c **** * You may use this file only in accordance with the license, terms, conditions,
  13:Generated_Source\PSoC4/ble_uds.c **** * disclaimers, and limitations in the end user license agreement accompanying
  14:Generated_Source\PSoC4/ble_uds.c **** * the software package with which this file was provided.
  15:Generated_Source\PSoC4/ble_uds.c **** *******************************************************************************/
  16:Generated_Source\PSoC4/ble_uds.c **** 
  17:Generated_Source\PSoC4/ble_uds.c **** 
  18:Generated_Source\PSoC4/ble_uds.c **** #include "ble_eventHandler.h"
  19:Generated_Source\PSoC4/ble_uds.c **** 
  20:Generated_Source\PSoC4/ble_uds.c **** static CYBLE_CALLBACK_T CyBle_UdsApplCallback;
  21:Generated_Source\PSoC4/ble_uds.c **** 
  22:Generated_Source\PSoC4/ble_uds.c **** #ifdef CYBLE_UDS_SERVER
  23:Generated_Source\PSoC4/ble_uds.c **** /* Generated code */
  24:Generated_Source\PSoC4/ble_uds.c **** const CYBLE_UDSS_T cyBle_udss =
  25:Generated_Source\PSoC4/ble_uds.c **** {
  26:Generated_Source\PSoC4/ble_uds.c ****     0x0050u,    /* Handle of the UDS service */
  27:Generated_Source\PSoC4/ble_uds.c ****     {
  28:Generated_Source\PSoC4/ble_uds.c ****         
  29:Generated_Source\PSoC4/ble_uds.c ****         /* First Name characteristic */
  30:Generated_Source\PSoC4/ble_uds.c ****         {
ARM GAS  C:\Users\310309~1\AppData\Local\Temp\cckEzWOW.s 			page 2


  31:Generated_Source\PSoC4/ble_uds.c ****             0x0052u, /* Handle of the First Name characteristic */ 
  32:Generated_Source\PSoC4/ble_uds.c ****             
  33:Generated_Source\PSoC4/ble_uds.c ****             /* Array of Descriptors handles */
  34:Generated_Source\PSoC4/ble_uds.c ****             {
  35:Generated_Source\PSoC4/ble_uds.c ****                 CYBLE_GATT_INVALID_ATTR_HANDLE_VALUE, 
  36:Generated_Source\PSoC4/ble_uds.c ****             }, 
  37:Generated_Source\PSoC4/ble_uds.c ****         }, 
  38:Generated_Source\PSoC4/ble_uds.c ****         
  39:Generated_Source\PSoC4/ble_uds.c ****         /* Last Name characteristic */
  40:Generated_Source\PSoC4/ble_uds.c ****         {
  41:Generated_Source\PSoC4/ble_uds.c ****             0x0054u, /* Handle of the Last Name characteristic */ 
  42:Generated_Source\PSoC4/ble_uds.c ****             
  43:Generated_Source\PSoC4/ble_uds.c ****             /* Array of Descriptors handles */
  44:Generated_Source\PSoC4/ble_uds.c ****             {
  45:Generated_Source\PSoC4/ble_uds.c ****                 CYBLE_GATT_INVALID_ATTR_HANDLE_VALUE, 
  46:Generated_Source\PSoC4/ble_uds.c ****             }, 
  47:Generated_Source\PSoC4/ble_uds.c ****         }, 
  48:Generated_Source\PSoC4/ble_uds.c ****         
  49:Generated_Source\PSoC4/ble_uds.c ****         /* Email Address characteristic */
  50:Generated_Source\PSoC4/ble_uds.c ****         {
  51:Generated_Source\PSoC4/ble_uds.c ****             0x0056u, /* Handle of the Email Address characteristic */ 
  52:Generated_Source\PSoC4/ble_uds.c ****             
  53:Generated_Source\PSoC4/ble_uds.c ****             /* Array of Descriptors handles */
  54:Generated_Source\PSoC4/ble_uds.c ****             {
  55:Generated_Source\PSoC4/ble_uds.c ****                 CYBLE_GATT_INVALID_ATTR_HANDLE_VALUE, 
  56:Generated_Source\PSoC4/ble_uds.c ****             }, 
  57:Generated_Source\PSoC4/ble_uds.c ****         }, 
  58:Generated_Source\PSoC4/ble_uds.c ****         
  59:Generated_Source\PSoC4/ble_uds.c ****         /* Age characteristic */
  60:Generated_Source\PSoC4/ble_uds.c ****         {
  61:Generated_Source\PSoC4/ble_uds.c ****             0x0058u, /* Handle of the Age characteristic */ 
  62:Generated_Source\PSoC4/ble_uds.c ****             
  63:Generated_Source\PSoC4/ble_uds.c ****             /* Array of Descriptors handles */
  64:Generated_Source\PSoC4/ble_uds.c ****             {
  65:Generated_Source\PSoC4/ble_uds.c ****                 CYBLE_GATT_INVALID_ATTR_HANDLE_VALUE, 
  66:Generated_Source\PSoC4/ble_uds.c ****             }, 
  67:Generated_Source\PSoC4/ble_uds.c ****         }, 
  68:Generated_Source\PSoC4/ble_uds.c ****         
  69:Generated_Source\PSoC4/ble_uds.c ****         /* Date of Birth characteristic */
  70:Generated_Source\PSoC4/ble_uds.c ****         {
  71:Generated_Source\PSoC4/ble_uds.c ****             0x005Au, /* Handle of the Date of Birth characteristic */ 
  72:Generated_Source\PSoC4/ble_uds.c ****             
  73:Generated_Source\PSoC4/ble_uds.c ****             /* Array of Descriptors handles */
  74:Generated_Source\PSoC4/ble_uds.c ****             {
  75:Generated_Source\PSoC4/ble_uds.c ****                 CYBLE_GATT_INVALID_ATTR_HANDLE_VALUE, 
  76:Generated_Source\PSoC4/ble_uds.c ****             }, 
  77:Generated_Source\PSoC4/ble_uds.c ****         }, 
  78:Generated_Source\PSoC4/ble_uds.c ****         
  79:Generated_Source\PSoC4/ble_uds.c ****         /* Gender characteristic */
  80:Generated_Source\PSoC4/ble_uds.c ****         {
  81:Generated_Source\PSoC4/ble_uds.c ****             0x005Cu, /* Handle of the Gender characteristic */ 
  82:Generated_Source\PSoC4/ble_uds.c ****             
  83:Generated_Source\PSoC4/ble_uds.c ****             /* Array of Descriptors handles */
  84:Generated_Source\PSoC4/ble_uds.c ****             {
  85:Generated_Source\PSoC4/ble_uds.c ****                 CYBLE_GATT_INVALID_ATTR_HANDLE_VALUE, 
  86:Generated_Source\PSoC4/ble_uds.c ****             }, 
  87:Generated_Source\PSoC4/ble_uds.c ****         }, 
ARM GAS  C:\Users\310309~1\AppData\Local\Temp\cckEzWOW.s 			page 3


  88:Generated_Source\PSoC4/ble_uds.c ****         
  89:Generated_Source\PSoC4/ble_uds.c ****         /* Weight characteristic */
  90:Generated_Source\PSoC4/ble_uds.c ****         {
  91:Generated_Source\PSoC4/ble_uds.c ****             0x005Eu, /* Handle of the Weight characteristic */ 
  92:Generated_Source\PSoC4/ble_uds.c ****             
  93:Generated_Source\PSoC4/ble_uds.c ****             /* Array of Descriptors handles */
  94:Generated_Source\PSoC4/ble_uds.c ****             {
  95:Generated_Source\PSoC4/ble_uds.c ****                 CYBLE_GATT_INVALID_ATTR_HANDLE_VALUE, 
  96:Generated_Source\PSoC4/ble_uds.c ****             }, 
  97:Generated_Source\PSoC4/ble_uds.c ****         }, 
  98:Generated_Source\PSoC4/ble_uds.c ****         
  99:Generated_Source\PSoC4/ble_uds.c ****         /* Height characteristic */
 100:Generated_Source\PSoC4/ble_uds.c ****         {
 101:Generated_Source\PSoC4/ble_uds.c ****             0x0060u, /* Handle of the Height characteristic */ 
 102:Generated_Source\PSoC4/ble_uds.c ****             
 103:Generated_Source\PSoC4/ble_uds.c ****             /* Array of Descriptors handles */
 104:Generated_Source\PSoC4/ble_uds.c ****             {
 105:Generated_Source\PSoC4/ble_uds.c ****                 CYBLE_GATT_INVALID_ATTR_HANDLE_VALUE, 
 106:Generated_Source\PSoC4/ble_uds.c ****             }, 
 107:Generated_Source\PSoC4/ble_uds.c ****         }, 
 108:Generated_Source\PSoC4/ble_uds.c ****         
 109:Generated_Source\PSoC4/ble_uds.c ****         /* VO2 Max characteristic */
 110:Generated_Source\PSoC4/ble_uds.c ****         {
 111:Generated_Source\PSoC4/ble_uds.c ****             0x0062u, /* Handle of the VO2 Max characteristic */ 
 112:Generated_Source\PSoC4/ble_uds.c ****             
 113:Generated_Source\PSoC4/ble_uds.c ****             /* Array of Descriptors handles */
 114:Generated_Source\PSoC4/ble_uds.c ****             {
 115:Generated_Source\PSoC4/ble_uds.c ****                 CYBLE_GATT_INVALID_ATTR_HANDLE_VALUE, 
 116:Generated_Source\PSoC4/ble_uds.c ****             }, 
 117:Generated_Source\PSoC4/ble_uds.c ****         }, 
 118:Generated_Source\PSoC4/ble_uds.c ****         
 119:Generated_Source\PSoC4/ble_uds.c ****         /* Heart Rate Max characteristic */
 120:Generated_Source\PSoC4/ble_uds.c ****         {
 121:Generated_Source\PSoC4/ble_uds.c ****             0x0064u, /* Handle of the Heart Rate Max characteristic */ 
 122:Generated_Source\PSoC4/ble_uds.c ****             
 123:Generated_Source\PSoC4/ble_uds.c ****             /* Array of Descriptors handles */
 124:Generated_Source\PSoC4/ble_uds.c ****             {
 125:Generated_Source\PSoC4/ble_uds.c ****                 CYBLE_GATT_INVALID_ATTR_HANDLE_VALUE, 
 126:Generated_Source\PSoC4/ble_uds.c ****             }, 
 127:Generated_Source\PSoC4/ble_uds.c ****         }, 
 128:Generated_Source\PSoC4/ble_uds.c ****         
 129:Generated_Source\PSoC4/ble_uds.c ****         /* Resting Heart Rate characteristic */
 130:Generated_Source\PSoC4/ble_uds.c ****         {
 131:Generated_Source\PSoC4/ble_uds.c ****             0x0066u, /* Handle of the Resting Heart Rate characteristic */ 
 132:Generated_Source\PSoC4/ble_uds.c ****             
 133:Generated_Source\PSoC4/ble_uds.c ****             /* Array of Descriptors handles */
 134:Generated_Source\PSoC4/ble_uds.c ****             {
 135:Generated_Source\PSoC4/ble_uds.c ****                 CYBLE_GATT_INVALID_ATTR_HANDLE_VALUE, 
 136:Generated_Source\PSoC4/ble_uds.c ****             }, 
 137:Generated_Source\PSoC4/ble_uds.c ****         }, 
 138:Generated_Source\PSoC4/ble_uds.c ****         
 139:Generated_Source\PSoC4/ble_uds.c ****         /* Maximum Recommended Heart Rate characteristic */
 140:Generated_Source\PSoC4/ble_uds.c ****         {
 141:Generated_Source\PSoC4/ble_uds.c ****             0x0068u, /* Handle of the Maximum Recommended Heart Rate characteristic */ 
 142:Generated_Source\PSoC4/ble_uds.c ****             
 143:Generated_Source\PSoC4/ble_uds.c ****             /* Array of Descriptors handles */
 144:Generated_Source\PSoC4/ble_uds.c ****             {
ARM GAS  C:\Users\310309~1\AppData\Local\Temp\cckEzWOW.s 			page 4


 145:Generated_Source\PSoC4/ble_uds.c ****                 CYBLE_GATT_INVALID_ATTR_HANDLE_VALUE, 
 146:Generated_Source\PSoC4/ble_uds.c ****             }, 
 147:Generated_Source\PSoC4/ble_uds.c ****         }, 
 148:Generated_Source\PSoC4/ble_uds.c ****         
 149:Generated_Source\PSoC4/ble_uds.c ****         /* Aerobic Threshold characteristic */
 150:Generated_Source\PSoC4/ble_uds.c ****         {
 151:Generated_Source\PSoC4/ble_uds.c ****             0x006Au, /* Handle of the Aerobic Threshold characteristic */ 
 152:Generated_Source\PSoC4/ble_uds.c ****             
 153:Generated_Source\PSoC4/ble_uds.c ****             /* Array of Descriptors handles */
 154:Generated_Source\PSoC4/ble_uds.c ****             {
 155:Generated_Source\PSoC4/ble_uds.c ****                 CYBLE_GATT_INVALID_ATTR_HANDLE_VALUE, 
 156:Generated_Source\PSoC4/ble_uds.c ****             }, 
 157:Generated_Source\PSoC4/ble_uds.c ****         }, 
 158:Generated_Source\PSoC4/ble_uds.c ****         
 159:Generated_Source\PSoC4/ble_uds.c ****         /* Anaerobic Threshold characteristic */
 160:Generated_Source\PSoC4/ble_uds.c ****         {
 161:Generated_Source\PSoC4/ble_uds.c ****             0x006Cu, /* Handle of the Anaerobic Threshold characteristic */ 
 162:Generated_Source\PSoC4/ble_uds.c ****             
 163:Generated_Source\PSoC4/ble_uds.c ****             /* Array of Descriptors handles */
 164:Generated_Source\PSoC4/ble_uds.c ****             {
 165:Generated_Source\PSoC4/ble_uds.c ****                 CYBLE_GATT_INVALID_ATTR_HANDLE_VALUE, 
 166:Generated_Source\PSoC4/ble_uds.c ****             }, 
 167:Generated_Source\PSoC4/ble_uds.c ****         }, 
 168:Generated_Source\PSoC4/ble_uds.c ****         
 169:Generated_Source\PSoC4/ble_uds.c ****         /* Sport Type for Aerobic and Anaerobic Thresholds characteristic */
 170:Generated_Source\PSoC4/ble_uds.c ****         {
 171:Generated_Source\PSoC4/ble_uds.c ****             0x006Eu, /* Handle of the Sport Type for Aerobic and Anaerobic Thresholds characteristi
 172:Generated_Source\PSoC4/ble_uds.c ****             
 173:Generated_Source\PSoC4/ble_uds.c ****             /* Array of Descriptors handles */
 174:Generated_Source\PSoC4/ble_uds.c ****             {
 175:Generated_Source\PSoC4/ble_uds.c ****                 CYBLE_GATT_INVALID_ATTR_HANDLE_VALUE, 
 176:Generated_Source\PSoC4/ble_uds.c ****             }, 
 177:Generated_Source\PSoC4/ble_uds.c ****         }, 
 178:Generated_Source\PSoC4/ble_uds.c ****         
 179:Generated_Source\PSoC4/ble_uds.c ****         /* Date of Threshold Assessment characteristic */
 180:Generated_Source\PSoC4/ble_uds.c ****         {
 181:Generated_Source\PSoC4/ble_uds.c ****             0x0070u, /* Handle of the Date of Threshold Assessment characteristic */ 
 182:Generated_Source\PSoC4/ble_uds.c ****             
 183:Generated_Source\PSoC4/ble_uds.c ****             /* Array of Descriptors handles */
 184:Generated_Source\PSoC4/ble_uds.c ****             {
 185:Generated_Source\PSoC4/ble_uds.c ****                 CYBLE_GATT_INVALID_ATTR_HANDLE_VALUE, 
 186:Generated_Source\PSoC4/ble_uds.c ****             }, 
 187:Generated_Source\PSoC4/ble_uds.c ****         }, 
 188:Generated_Source\PSoC4/ble_uds.c ****         
 189:Generated_Source\PSoC4/ble_uds.c ****         /* Waist Circumference characteristic */
 190:Generated_Source\PSoC4/ble_uds.c ****         {
 191:Generated_Source\PSoC4/ble_uds.c ****             0x0072u, /* Handle of the Waist Circumference characteristic */ 
 192:Generated_Source\PSoC4/ble_uds.c ****             
 193:Generated_Source\PSoC4/ble_uds.c ****             /* Array of Descriptors handles */
 194:Generated_Source\PSoC4/ble_uds.c ****             {
 195:Generated_Source\PSoC4/ble_uds.c ****                 CYBLE_GATT_INVALID_ATTR_HANDLE_VALUE, 
 196:Generated_Source\PSoC4/ble_uds.c ****             }, 
 197:Generated_Source\PSoC4/ble_uds.c ****         }, 
 198:Generated_Source\PSoC4/ble_uds.c ****         
 199:Generated_Source\PSoC4/ble_uds.c ****         /* Hip Circumference characteristic */
 200:Generated_Source\PSoC4/ble_uds.c ****         {
 201:Generated_Source\PSoC4/ble_uds.c ****             0x0074u, /* Handle of the Hip Circumference characteristic */ 
ARM GAS  C:\Users\310309~1\AppData\Local\Temp\cckEzWOW.s 			page 5


 202:Generated_Source\PSoC4/ble_uds.c ****             
 203:Generated_Source\PSoC4/ble_uds.c ****             /* Array of Descriptors handles */
 204:Generated_Source\PSoC4/ble_uds.c ****             {
 205:Generated_Source\PSoC4/ble_uds.c ****                 CYBLE_GATT_INVALID_ATTR_HANDLE_VALUE, 
 206:Generated_Source\PSoC4/ble_uds.c ****             }, 
 207:Generated_Source\PSoC4/ble_uds.c ****         }, 
 208:Generated_Source\PSoC4/ble_uds.c ****         
 209:Generated_Source\PSoC4/ble_uds.c ****         /* Fat Burn Heart Rate Lower Limit characteristic */
 210:Generated_Source\PSoC4/ble_uds.c ****         {
 211:Generated_Source\PSoC4/ble_uds.c ****             0x0076u, /* Handle of the Fat Burn Heart Rate Lower Limit characteristic */ 
 212:Generated_Source\PSoC4/ble_uds.c ****             
 213:Generated_Source\PSoC4/ble_uds.c ****             /* Array of Descriptors handles */
 214:Generated_Source\PSoC4/ble_uds.c ****             {
 215:Generated_Source\PSoC4/ble_uds.c ****                 CYBLE_GATT_INVALID_ATTR_HANDLE_VALUE, 
 216:Generated_Source\PSoC4/ble_uds.c ****             }, 
 217:Generated_Source\PSoC4/ble_uds.c ****         }, 
 218:Generated_Source\PSoC4/ble_uds.c ****         
 219:Generated_Source\PSoC4/ble_uds.c ****         /* Fat Burn Heart Rate Upper Limit characteristic */
 220:Generated_Source\PSoC4/ble_uds.c ****         {
 221:Generated_Source\PSoC4/ble_uds.c ****             0x0078u, /* Handle of the Fat Burn Heart Rate Upper Limit characteristic */ 
 222:Generated_Source\PSoC4/ble_uds.c ****             
 223:Generated_Source\PSoC4/ble_uds.c ****             /* Array of Descriptors handles */
 224:Generated_Source\PSoC4/ble_uds.c ****             {
 225:Generated_Source\PSoC4/ble_uds.c ****                 CYBLE_GATT_INVALID_ATTR_HANDLE_VALUE, 
 226:Generated_Source\PSoC4/ble_uds.c ****             }, 
 227:Generated_Source\PSoC4/ble_uds.c ****         }, 
 228:Generated_Source\PSoC4/ble_uds.c ****         
 229:Generated_Source\PSoC4/ble_uds.c ****         /* Aerobic Heart Rate Lower Limit characteristic */
 230:Generated_Source\PSoC4/ble_uds.c ****         {
 231:Generated_Source\PSoC4/ble_uds.c ****             0x007Au, /* Handle of the Aerobic Heart Rate Lower Limit characteristic */ 
 232:Generated_Source\PSoC4/ble_uds.c ****             
 233:Generated_Source\PSoC4/ble_uds.c ****             /* Array of Descriptors handles */
 234:Generated_Source\PSoC4/ble_uds.c ****             {
 235:Generated_Source\PSoC4/ble_uds.c ****                 CYBLE_GATT_INVALID_ATTR_HANDLE_VALUE, 
 236:Generated_Source\PSoC4/ble_uds.c ****             }, 
 237:Generated_Source\PSoC4/ble_uds.c ****         }, 
 238:Generated_Source\PSoC4/ble_uds.c ****         
 239:Generated_Source\PSoC4/ble_uds.c ****         /* Aerobic Heart Rate Upper Limit characteristic */
 240:Generated_Source\PSoC4/ble_uds.c ****         {
 241:Generated_Source\PSoC4/ble_uds.c ****             0x007Cu, /* Handle of the Aerobic Heart Rate Upper Limit characteristic */ 
 242:Generated_Source\PSoC4/ble_uds.c ****             
 243:Generated_Source\PSoC4/ble_uds.c ****             /* Array of Descriptors handles */
 244:Generated_Source\PSoC4/ble_uds.c ****             {
 245:Generated_Source\PSoC4/ble_uds.c ****                 CYBLE_GATT_INVALID_ATTR_HANDLE_VALUE, 
 246:Generated_Source\PSoC4/ble_uds.c ****             }, 
 247:Generated_Source\PSoC4/ble_uds.c ****         }, 
 248:Generated_Source\PSoC4/ble_uds.c ****         
 249:Generated_Source\PSoC4/ble_uds.c ****         /* Anaerobic Heart Rate Lower Limit characteristic */
 250:Generated_Source\PSoC4/ble_uds.c ****         {
 251:Generated_Source\PSoC4/ble_uds.c ****             0x007Eu, /* Handle of the Anaerobic Heart Rate Lower Limit characteristic */ 
 252:Generated_Source\PSoC4/ble_uds.c ****             
 253:Generated_Source\PSoC4/ble_uds.c ****             /* Array of Descriptors handles */
 254:Generated_Source\PSoC4/ble_uds.c ****             {
 255:Generated_Source\PSoC4/ble_uds.c ****                 CYBLE_GATT_INVALID_ATTR_HANDLE_VALUE, 
 256:Generated_Source\PSoC4/ble_uds.c ****             }, 
 257:Generated_Source\PSoC4/ble_uds.c ****         }, 
 258:Generated_Source\PSoC4/ble_uds.c ****         
ARM GAS  C:\Users\310309~1\AppData\Local\Temp\cckEzWOW.s 			page 6


 259:Generated_Source\PSoC4/ble_uds.c ****         /* Anaerobic Heart Rate Upper Limit characteristic */
 260:Generated_Source\PSoC4/ble_uds.c ****         {
 261:Generated_Source\PSoC4/ble_uds.c ****             0x0080u, /* Handle of the Anaerobic Heart Rate Upper Limit characteristic */ 
 262:Generated_Source\PSoC4/ble_uds.c ****             
 263:Generated_Source\PSoC4/ble_uds.c ****             /* Array of Descriptors handles */
 264:Generated_Source\PSoC4/ble_uds.c ****             {
 265:Generated_Source\PSoC4/ble_uds.c ****                 CYBLE_GATT_INVALID_ATTR_HANDLE_VALUE, 
 266:Generated_Source\PSoC4/ble_uds.c ****             }, 
 267:Generated_Source\PSoC4/ble_uds.c ****         }, 
 268:Generated_Source\PSoC4/ble_uds.c ****         
 269:Generated_Source\PSoC4/ble_uds.c ****         /* Five Zone Heart Rate Limits characteristic */
 270:Generated_Source\PSoC4/ble_uds.c ****         {
 271:Generated_Source\PSoC4/ble_uds.c ****             0x0082u, /* Handle of the Five Zone Heart Rate Limits characteristic */ 
 272:Generated_Source\PSoC4/ble_uds.c ****             
 273:Generated_Source\PSoC4/ble_uds.c ****             /* Array of Descriptors handles */
 274:Generated_Source\PSoC4/ble_uds.c ****             {
 275:Generated_Source\PSoC4/ble_uds.c ****                 CYBLE_GATT_INVALID_ATTR_HANDLE_VALUE, 
 276:Generated_Source\PSoC4/ble_uds.c ****             }, 
 277:Generated_Source\PSoC4/ble_uds.c ****         }, 
 278:Generated_Source\PSoC4/ble_uds.c ****         
 279:Generated_Source\PSoC4/ble_uds.c ****         /* Three Zone Heart Rate Limits characteristic */
 280:Generated_Source\PSoC4/ble_uds.c ****         {
 281:Generated_Source\PSoC4/ble_uds.c ****             0x0084u, /* Handle of the Three Zone Heart Rate Limits characteristic */ 
 282:Generated_Source\PSoC4/ble_uds.c ****             
 283:Generated_Source\PSoC4/ble_uds.c ****             /* Array of Descriptors handles */
 284:Generated_Source\PSoC4/ble_uds.c ****             {
 285:Generated_Source\PSoC4/ble_uds.c ****                 CYBLE_GATT_INVALID_ATTR_HANDLE_VALUE, 
 286:Generated_Source\PSoC4/ble_uds.c ****             }, 
 287:Generated_Source\PSoC4/ble_uds.c ****         }, 
 288:Generated_Source\PSoC4/ble_uds.c ****         
 289:Generated_Source\PSoC4/ble_uds.c ****         /* Two Zone Heart Rate Limit characteristic */
 290:Generated_Source\PSoC4/ble_uds.c ****         {
 291:Generated_Source\PSoC4/ble_uds.c ****             0x0086u, /* Handle of the Two Zone Heart Rate Limit characteristic */ 
 292:Generated_Source\PSoC4/ble_uds.c ****             
 293:Generated_Source\PSoC4/ble_uds.c ****             /* Array of Descriptors handles */
 294:Generated_Source\PSoC4/ble_uds.c ****             {
 295:Generated_Source\PSoC4/ble_uds.c ****                 CYBLE_GATT_INVALID_ATTR_HANDLE_VALUE, 
 296:Generated_Source\PSoC4/ble_uds.c ****             }, 
 297:Generated_Source\PSoC4/ble_uds.c ****         }, 
 298:Generated_Source\PSoC4/ble_uds.c ****         
 299:Generated_Source\PSoC4/ble_uds.c ****         /* Database Change Increment characteristic */
 300:Generated_Source\PSoC4/ble_uds.c ****         {
 301:Generated_Source\PSoC4/ble_uds.c ****             0x0088u, /* Handle of the Database Change Increment characteristic */ 
 302:Generated_Source\PSoC4/ble_uds.c ****             
 303:Generated_Source\PSoC4/ble_uds.c ****             /* Array of Descriptors handles */
 304:Generated_Source\PSoC4/ble_uds.c ****             {
 305:Generated_Source\PSoC4/ble_uds.c ****                 0x0089u, /* Handle of the Client Characteristic Configuration descriptor */ 
 306:Generated_Source\PSoC4/ble_uds.c ****             }, 
 307:Generated_Source\PSoC4/ble_uds.c ****         }, 
 308:Generated_Source\PSoC4/ble_uds.c ****         
 309:Generated_Source\PSoC4/ble_uds.c ****         /* User Index characteristic */
 310:Generated_Source\PSoC4/ble_uds.c ****         {
 311:Generated_Source\PSoC4/ble_uds.c ****             0x008Bu, /* Handle of the User Index characteristic */ 
 312:Generated_Source\PSoC4/ble_uds.c ****             
 313:Generated_Source\PSoC4/ble_uds.c ****             /* Array of Descriptors handles */
 314:Generated_Source\PSoC4/ble_uds.c ****             {
 315:Generated_Source\PSoC4/ble_uds.c ****                 CYBLE_GATT_INVALID_ATTR_HANDLE_VALUE, 
ARM GAS  C:\Users\310309~1\AppData\Local\Temp\cckEzWOW.s 			page 7


 316:Generated_Source\PSoC4/ble_uds.c ****             }, 
 317:Generated_Source\PSoC4/ble_uds.c ****         }, 
 318:Generated_Source\PSoC4/ble_uds.c ****         
 319:Generated_Source\PSoC4/ble_uds.c ****         /* User Control Point characteristic */
 320:Generated_Source\PSoC4/ble_uds.c ****         {
 321:Generated_Source\PSoC4/ble_uds.c ****             0x008Du, /* Handle of the User Control Point characteristic */ 
 322:Generated_Source\PSoC4/ble_uds.c ****             
 323:Generated_Source\PSoC4/ble_uds.c ****             /* Array of Descriptors handles */
 324:Generated_Source\PSoC4/ble_uds.c ****             {
 325:Generated_Source\PSoC4/ble_uds.c ****                 0x008Eu, /* Handle of the Client Characteristic Configuration descriptor */ 
 326:Generated_Source\PSoC4/ble_uds.c ****             }, 
 327:Generated_Source\PSoC4/ble_uds.c ****         }, 
 328:Generated_Source\PSoC4/ble_uds.c ****         
 329:Generated_Source\PSoC4/ble_uds.c ****         /* Language characteristic */
 330:Generated_Source\PSoC4/ble_uds.c ****         {
 331:Generated_Source\PSoC4/ble_uds.c ****             0x0090u, /* Handle of the Language characteristic */ 
 332:Generated_Source\PSoC4/ble_uds.c ****             
 333:Generated_Source\PSoC4/ble_uds.c ****             /* Array of Descriptors handles */
 334:Generated_Source\PSoC4/ble_uds.c ****             {
 335:Generated_Source\PSoC4/ble_uds.c ****                 CYBLE_GATT_INVALID_ATTR_HANDLE_VALUE, 
 336:Generated_Source\PSoC4/ble_uds.c ****             }, 
 337:Generated_Source\PSoC4/ble_uds.c ****         }, 
 338:Generated_Source\PSoC4/ble_uds.c ****     },
 339:Generated_Source\PSoC4/ble_uds.c **** };
 340:Generated_Source\PSoC4/ble_uds.c **** /* End of generated code */
 341:Generated_Source\PSoC4/ble_uds.c ****     uint8 cyBle_udsFlag;
 342:Generated_Source\PSoC4/ble_uds.c ****     
 343:Generated_Source\PSoC4/ble_uds.c **** static CYBLE_GATT_DB_ATTR_HANDLE_T cyBle_udssReqHandle;
 344:Generated_Source\PSoC4/ble_uds.c **** 
 345:Generated_Source\PSoC4/ble_uds.c **** #endif /* CYBLE_UDS_SERVER */
 346:Generated_Source\PSoC4/ble_uds.c **** 
 347:Generated_Source\PSoC4/ble_uds.c **** #ifdef CYBLE_UDS_CLIENT
 348:Generated_Source\PSoC4/ble_uds.c ****     
 349:Generated_Source\PSoC4/ble_uds.c **** /* Server's User Data Service characteristics GATT DB handles structure */
 350:Generated_Source\PSoC4/ble_uds.c **** CYBLE_UDSC_T cyBle_udsc;
 351:Generated_Source\PSoC4/ble_uds.c **** 
 352:Generated_Source\PSoC4/ble_uds.c **** /* Internal storage for last request handle to check response */
 353:Generated_Source\PSoC4/ble_uds.c **** static CYBLE_GATT_DB_ATTR_HANDLE_T cyBle_udscReqHandle;
 354:Generated_Source\PSoC4/ble_uds.c ****     
 355:Generated_Source\PSoC4/ble_uds.c **** /* Read Long Descriptors variables */
 356:Generated_Source\PSoC4/ble_uds.c **** static uint8 * cyBle_udscRdLongBuffPtr = NULL;
 357:Generated_Source\PSoC4/ble_uds.c **** static uint8 cyBle_udscRdLongBuffLen = 0u;
 358:Generated_Source\PSoC4/ble_uds.c **** static uint8 cyBle_udscCurrLen = 0u;
 359:Generated_Source\PSoC4/ble_uds.c ****     
 360:Generated_Source\PSoC4/ble_uds.c **** #endif /* CYBLE_UDS_CLIENT */
 361:Generated_Source\PSoC4/ble_uds.c **** 
 362:Generated_Source\PSoC4/ble_uds.c **** 
 363:Generated_Source\PSoC4/ble_uds.c **** /******************************************************************************
 364:Generated_Source\PSoC4/ble_uds.c **** * Function Name: CyBle_UdsInit
 365:Generated_Source\PSoC4/ble_uds.c **** ***************************************************************************//**
 366:Generated_Source\PSoC4/ble_uds.c **** * 
 367:Generated_Source\PSoC4/ble_uds.c **** *  Initializes the profile internals.
 368:Generated_Source\PSoC4/ble_uds.c **** * 
 369:Generated_Source\PSoC4/ble_uds.c **** ******************************************************************************/
 370:Generated_Source\PSoC4/ble_uds.c **** void CyBle_UdsInit(void)
 371:Generated_Source\PSoC4/ble_uds.c **** {
  28              		.loc 1 371 0
ARM GAS  C:\Users\310309~1\AppData\Local\Temp\cckEzWOW.s 			page 8


  29              		.cfi_startproc
  30              		@ args = 0, pretend = 0, frame = 0
  31              		@ frame_needed = 0, uses_anonymous_args = 0
  32              		@ link register save eliminated.
 372:Generated_Source\PSoC4/ble_uds.c **** #ifdef CYBLE_UDS_SERVER
 373:Generated_Source\PSoC4/ble_uds.c ****     cyBle_udsFlag = 0u;
  33              		.loc 1 373 0
  34 0000 0023     		movs	r3, #0
  35 0002 024A     		ldr	r2, .L2
  36 0004 1370     		strb	r3, [r2]
 374:Generated_Source\PSoC4/ble_uds.c ****     cyBle_udssReqHandle = CYBLE_GATT_INVALID_ATTR_HANDLE_VALUE;
  37              		.loc 1 374 0
  38 0006 024A     		ldr	r2, .L2+4
  39 0008 1380     		strh	r3, [r2]
 375:Generated_Source\PSoC4/ble_uds.c **** #endif /* CYBLE_UDS_SERVER */
 376:Generated_Source\PSoC4/ble_uds.c **** #ifdef CYBLE_UDS_CLIENT
 377:Generated_Source\PSoC4/ble_uds.c ****     if(cyBle_serverInfo[CYBLE_SRVI_UDS].range.startHandle == CYBLE_GATT_INVALID_ATTR_HANDLE_VALUE)
 378:Generated_Source\PSoC4/ble_uds.c ****     {
 379:Generated_Source\PSoC4/ble_uds.c ****         (void)memset(&cyBle_udsc, 0, sizeof(cyBle_udsc));
 380:Generated_Source\PSoC4/ble_uds.c ****     }
 381:Generated_Source\PSoC4/ble_uds.c ****     cyBle_udscReqHandle = CYBLE_GATT_INVALID_ATTR_HANDLE_VALUE;
 382:Generated_Source\PSoC4/ble_uds.c **** #endif /* CYBLE_UDS_CLIENT */
 383:Generated_Source\PSoC4/ble_uds.c **** }
  40              		.loc 1 383 0
  41              		@ sp needed
  42 000a 7047     		bx	lr
  43              	.L3:
  44              		.align	2
  45              	.L2:
  46 000c 00000000 		.word	cyBle_udsFlag
  47 0010 00000000 		.word	.LANCHOR0
  48              		.cfi_endproc
  49              	.LFE2:
  50              		.size	CyBle_UdsInit, .-CyBle_UdsInit
  51              		.section	.text.CyBle_UdsRegisterAttrCallback,"ax",%progbits
  52              		.align	2
  53              		.global	CyBle_UdsRegisterAttrCallback
  54              		.code	16
  55              		.thumb_func
  56              		.type	CyBle_UdsRegisterAttrCallback, %function
  57              	CyBle_UdsRegisterAttrCallback:
  58              	.LFB3:
 384:Generated_Source\PSoC4/ble_uds.c **** 
 385:Generated_Source\PSoC4/ble_uds.c **** 
 386:Generated_Source\PSoC4/ble_uds.c **** /******************************************************************************
 387:Generated_Source\PSoC4/ble_uds.c **** * Function Name: CyBle_UdsRegisterAttrCallback
 388:Generated_Source\PSoC4/ble_uds.c **** ***************************************************************************//**
 389:Generated_Source\PSoC4/ble_uds.c **** * 
 390:Generated_Source\PSoC4/ble_uds.c **** *  Registers a callback function for service-specific attribute operations.
 391:Generated_Source\PSoC4/ble_uds.c **** *  Service-specific write requests from a peer device will not be handled with
 392:Generated_Source\PSoC4/ble_uds.c **** *  an unregistered callback function.
 393:Generated_Source\PSoC4/ble_uds.c **** * 
 394:Generated_Source\PSoC4/ble_uds.c **** *  \param callbackFunc: An application layer event callback function to receive 
 395:Generated_Source\PSoC4/ble_uds.c **** *                        events from the BLE Component. The definition of 
 396:Generated_Source\PSoC4/ble_uds.c **** *                        CYBLE_CALLBACK_T for UDS is: \n
 397:Generated_Source\PSoC4/ble_uds.c **** *    typedef void (* CYBLE_CALLBACK_T) (uint32 eventCode, void *eventParam),
 398:Generated_Source\PSoC4/ble_uds.c **** *    where:
ARM GAS  C:\Users\310309~1\AppData\Local\Temp\cckEzWOW.s 			page 9


 399:Generated_Source\PSoC4/ble_uds.c **** *      * eventCode indicates the event that triggered this callback.
 400:Generated_Source\PSoC4/ble_uds.c **** *      * eventParam contains the parameters corresponding to the current event.
 401:Generated_Source\PSoC4/ble_uds.c **** *
 402:Generated_Source\PSoC4/ble_uds.c **** * \sideeffect
 403:Generated_Source\PSoC4/ble_uds.c **** *  The *eventParams in the callback function should not be used by the 
 404:Generated_Source\PSoC4/ble_uds.c **** *  application once the callback function execution is finished. Otherwise this
 405:Generated_Source\PSoC4/ble_uds.c **** *  data may become corrupted.
 406:Generated_Source\PSoC4/ble_uds.c **** *  
 407:Generated_Source\PSoC4/ble_uds.c **** ******************************************************************************/
 408:Generated_Source\PSoC4/ble_uds.c **** void CyBle_UdsRegisterAttrCallback(CYBLE_CALLBACK_T callbackFunc)
 409:Generated_Source\PSoC4/ble_uds.c **** {
  59              		.loc 1 409 0
  60              		.cfi_startproc
  61              		@ args = 0, pretend = 0, frame = 0
  62              		@ frame_needed = 0, uses_anonymous_args = 0
  63              		@ link register save eliminated.
  64              	.LVL0:
 410:Generated_Source\PSoC4/ble_uds.c ****     CyBle_UdsApplCallback = callbackFunc;
  65              		.loc 1 410 0
  66 0000 014B     		ldr	r3, .L5
  67 0002 5860     		str	r0, [r3, #4]
 411:Generated_Source\PSoC4/ble_uds.c **** }
  68              		.loc 1 411 0
  69              		@ sp needed
  70 0004 7047     		bx	lr
  71              	.L6:
  72 0006 C046     		.align	2
  73              	.L5:
  74 0008 00000000 		.word	.LANCHOR0
  75              		.cfi_endproc
  76              	.LFE3:
  77              		.size	CyBle_UdsRegisterAttrCallback, .-CyBle_UdsRegisterAttrCallback
  78              		.section	.text.CyBle_UdssSetCharacteristicValue,"ax",%progbits
  79              		.align	2
  80              		.global	CyBle_UdssSetCharacteristicValue
  81              		.code	16
  82              		.thumb_func
  83              		.type	CyBle_UdssSetCharacteristicValue, %function
  84              	CyBle_UdssSetCharacteristicValue:
  85              	.LFB4:
 412:Generated_Source\PSoC4/ble_uds.c **** 
 413:Generated_Source\PSoC4/ble_uds.c **** 
 414:Generated_Source\PSoC4/ble_uds.c **** #ifdef CYBLE_UDS_SERVER
 415:Generated_Source\PSoC4/ble_uds.c **** 
 416:Generated_Source\PSoC4/ble_uds.c **** 
 417:Generated_Source\PSoC4/ble_uds.c **** /******************************************************************************
 418:Generated_Source\PSoC4/ble_uds.c **** * Function Name: CyBle_UdssSetCharacteristicValue
 419:Generated_Source\PSoC4/ble_uds.c **** ***************************************************************************//**
 420:Generated_Source\PSoC4/ble_uds.c **** * 
 421:Generated_Source\PSoC4/ble_uds.c **** *  Sets the value of the characteristic, as identified by charIndex.
 422:Generated_Source\PSoC4/ble_uds.c **** * 
 423:Generated_Source\PSoC4/ble_uds.c **** *  \param charIndex:  The index of the service characteristic.
 424:Generated_Source\PSoC4/ble_uds.c **** *  \param attrSize:   The size of the characteristic value attribute.
 425:Generated_Source\PSoC4/ble_uds.c **** *  \param attrValue: The pointer to the characteristic value data that should be
 426:Generated_Source\PSoC4/ble_uds.c **** *                     stored to the GATT database.
 427:Generated_Source\PSoC4/ble_uds.c **** * 
 428:Generated_Source\PSoC4/ble_uds.c **** * \return
ARM GAS  C:\Users\310309~1\AppData\Local\Temp\cckEzWOW.s 			page 10


 429:Generated_Source\PSoC4/ble_uds.c **** *  A return value is of type CYBLE_API_RESULT_T.
 430:Generated_Source\PSoC4/ble_uds.c **** *  * CYBLE_ERROR_OK - The request handled successfully.
 431:Generated_Source\PSoC4/ble_uds.c **** *  * CYBLE_ERROR_INVALID_PARAMETER - Validation of the input parameter failed.
 432:Generated_Source\PSoC4/ble_uds.c **** *  * CYBLE_ERROR_GATT_DB_INVALID_ATTR_HANDLE - An optional characteristic is absent
 433:Generated_Source\PSoC4/ble_uds.c **** *
 434:Generated_Source\PSoC4/ble_uds.c **** ******************************************************************************/
 435:Generated_Source\PSoC4/ble_uds.c **** CYBLE_API_RESULT_T CyBle_UdssSetCharacteristicValue(CYBLE_UDS_CHAR_INDEX_T charIndex, uint8 attrSiz
 436:Generated_Source\PSoC4/ble_uds.c **** {
  86              		.loc 1 436 0
  87              		.cfi_startproc
  88              		@ args = 0, pretend = 0, frame = 16
  89              		@ frame_needed = 0, uses_anonymous_args = 0
  90              	.LVL1:
  91 0000 00B5     		push	{lr}
  92              		.cfi_def_cfa_offset 4
  93              		.cfi_offset 14, -4
  94 0002 85B0     		sub	sp, sp, #20
  95              		.cfi_def_cfa_offset 24
 437:Generated_Source\PSoC4/ble_uds.c ****     CYBLE_API_RESULT_T apiResult;
 438:Generated_Source\PSoC4/ble_uds.c ****     
 439:Generated_Source\PSoC4/ble_uds.c ****     /* Check parameters */
 440:Generated_Source\PSoC4/ble_uds.c ****     if(charIndex >= CYBLE_UDS_CHAR_COUNT)
  96              		.loc 1 440 0
  97 0004 1E28     		cmp	r0, #30
  98 0006 14D8     		bhi	.L10
 441:Generated_Source\PSoC4/ble_uds.c ****     {
 442:Generated_Source\PSoC4/ble_uds.c ****         apiResult = CYBLE_ERROR_INVALID_PARAMETER;
 443:Generated_Source\PSoC4/ble_uds.c ****     }
 444:Generated_Source\PSoC4/ble_uds.c **** 	else if(cyBle_udss.charInfo[charIndex].charHandle == CYBLE_GATT_INVALID_ATTR_HANDLE_VALUE)
  99              		.loc 1 444 0
 100 0008 8000     		lsls	r0, r0, #2
 101              	.LVL2:
 102 000a 0C4B     		ldr	r3, .L13
 103 000c 1818     		adds	r0, r3, r0
 104 000e 4388     		ldrh	r3, [r0, #2]
 105 0010 002B     		cmp	r3, #0
 106 0012 10D0     		beq	.L11
 107              	.LBB2:
 445:Generated_Source\PSoC4/ble_uds.c ****     {
 446:Generated_Source\PSoC4/ble_uds.c ****         apiResult = CYBLE_ERROR_GATT_DB_INVALID_ATTR_HANDLE;
 447:Generated_Source\PSoC4/ble_uds.c ****     } 
 448:Generated_Source\PSoC4/ble_uds.c ****     else
 449:Generated_Source\PSoC4/ble_uds.c ****     {
 450:Generated_Source\PSoC4/ble_uds.c ****         CYBLE_GATT_HANDLE_VALUE_PAIR_T locHandleValuePair;
 451:Generated_Source\PSoC4/ble_uds.c ****         
 452:Generated_Source\PSoC4/ble_uds.c ****         /* Store characteristic value into GATT database */
 453:Generated_Source\PSoC4/ble_uds.c ****         locHandleValuePair.attrHandle = cyBle_udss.charInfo[charIndex].charHandle;
 108              		.loc 1 453 0
 109 0014 01A8     		add	r0, sp, #4
 110 0016 0381     		strh	r3, [r0, #8]
 454:Generated_Source\PSoC4/ble_uds.c ****         locHandleValuePair.value.len = attrSize;
 111              		.loc 1 454 0
 112 0018 8180     		strh	r1, [r0, #4]
 455:Generated_Source\PSoC4/ble_uds.c ****         locHandleValuePair.value.val = attrValue;
 113              		.loc 1 455 0
 114 001a 0192     		str	r2, [sp, #4]
 456:Generated_Source\PSoC4/ble_uds.c ****         
ARM GAS  C:\Users\310309~1\AppData\Local\Temp\cckEzWOW.s 			page 11


 457:Generated_Source\PSoC4/ble_uds.c ****         if(CYBLE_GATT_ERR_NONE != CyBle_GattsWriteAttributeValue(&locHandleValuePair,
 115              		.loc 1 457 0
 116 001c 0023     		movs	r3, #0
 117 001e 0022     		movs	r2, #0
 118              	.LVL3:
 119 0020 0021     		movs	r1, #0
 120              	.LVL4:
 121 0022 FFF7FEFF 		bl	CyBle_GattsWriteAttributeValue
 122              	.LVL5:
 123 0026 0028     		cmp	r0, #0
 124 0028 01D0     		beq	.L12
 458:Generated_Source\PSoC4/ble_uds.c ****                                     0u, NULL, CYBLE_GATT_DB_LOCALLY_INITIATED))
 459:Generated_Source\PSoC4/ble_uds.c ****         {
 460:Generated_Source\PSoC4/ble_uds.c ****             apiResult = CYBLE_ERROR_INVALID_PARAMETER;
 125              		.loc 1 460 0
 126 002a 0120     		movs	r0, #1
 127 002c 04E0     		b	.L8
 128              	.L12:
 461:Generated_Source\PSoC4/ble_uds.c ****         }
 462:Generated_Source\PSoC4/ble_uds.c ****         else
 463:Generated_Source\PSoC4/ble_uds.c ****         {
 464:Generated_Source\PSoC4/ble_uds.c ****             apiResult = CYBLE_ERROR_OK;
 129              		.loc 1 464 0
 130 002e 0020     		movs	r0, #0
 131              	.LVL6:
 132 0030 02E0     		b	.L8
 133              	.LVL7:
 134              	.L10:
 135              	.LBE2:
 442:Generated_Source\PSoC4/ble_uds.c ****     }
 136              		.loc 1 442 0
 137 0032 0120     		movs	r0, #1
 138              	.LVL8:
 139 0034 00E0     		b	.L8
 140              	.L11:
 446:Generated_Source\PSoC4/ble_uds.c ****     } 
 141              		.loc 1 446 0
 142 0036 1320     		movs	r0, #19
 143              	.LVL9:
 144              	.L8:
 465:Generated_Source\PSoC4/ble_uds.c ****         }
 466:Generated_Source\PSoC4/ble_uds.c ****     }
 467:Generated_Source\PSoC4/ble_uds.c **** 
 468:Generated_Source\PSoC4/ble_uds.c ****     return (apiResult);
 469:Generated_Source\PSoC4/ble_uds.c **** }
 145              		.loc 1 469 0
 146 0038 05B0     		add	sp, sp, #20
 147              		@ sp needed
 148 003a 00BD     		pop	{pc}
 149              	.L14:
 150              		.align	2
 151              	.L13:
 152 003c 00000000 		.word	.LANCHOR1
 153              		.cfi_endproc
 154              	.LFE4:
 155              		.size	CyBle_UdssSetCharacteristicValue, .-CyBle_UdssSetCharacteristicValue
 156              		.section	.text.CyBle_UdssGetCharacteristicValue,"ax",%progbits
ARM GAS  C:\Users\310309~1\AppData\Local\Temp\cckEzWOW.s 			page 12


 157              		.align	2
 158              		.global	CyBle_UdssGetCharacteristicValue
 159              		.code	16
 160              		.thumb_func
 161              		.type	CyBle_UdssGetCharacteristicValue, %function
 162              	CyBle_UdssGetCharacteristicValue:
 163              	.LFB5:
 470:Generated_Source\PSoC4/ble_uds.c **** 
 471:Generated_Source\PSoC4/ble_uds.c **** 
 472:Generated_Source\PSoC4/ble_uds.c **** /******************************************************************************
 473:Generated_Source\PSoC4/ble_uds.c **** * Function Name: CyBle_UdssGetCharacteristicValue
 474:Generated_Source\PSoC4/ble_uds.c **** ***************************************************************************//**
 475:Generated_Source\PSoC4/ble_uds.c **** * 
 476:Generated_Source\PSoC4/ble_uds.c **** *  Gets the value of the characteristic, as identified by charIndex.
 477:Generated_Source\PSoC4/ble_uds.c **** * 
 478:Generated_Source\PSoC4/ble_uds.c **** *  \param charIndex:  The index of the service characteristic.
 479:Generated_Source\PSoC4/ble_uds.c **** *  \param attrSize:   The size of the characteristic value attribute.
 480:Generated_Source\PSoC4/ble_uds.c **** *  \param attrValue: The pointer to the location where characteristic 
 481:Generated_Source\PSoC4/ble_uds.c **** *                     value data should be stored.
 482:Generated_Source\PSoC4/ble_uds.c **** * 
 483:Generated_Source\PSoC4/ble_uds.c **** * \return
 484:Generated_Source\PSoC4/ble_uds.c **** *  A return value is of type CYBLE_API_RESULT_T.
 485:Generated_Source\PSoC4/ble_uds.c **** *   * CYBLE_ERROR_OK - The characteristic value was read successfully
 486:Generated_Source\PSoC4/ble_uds.c **** *   * CYBLE_ERROR_INVALID_PARAMETER - Validation of the input parameter failed.
 487:Generated_Source\PSoC4/ble_uds.c **** *   * CYBLE_ERROR_GATT_DB_INVALID_ATTR_HANDLE - A characteristic is absent.
 488:Generated_Source\PSoC4/ble_uds.c **** *
 489:Generated_Source\PSoC4/ble_uds.c **** ******************************************************************************/
 490:Generated_Source\PSoC4/ble_uds.c **** CYBLE_API_RESULT_T CyBle_UdssGetCharacteristicValue(CYBLE_UDS_CHAR_INDEX_T charIndex, uint8 attrSiz
 491:Generated_Source\PSoC4/ble_uds.c **** {
 164              		.loc 1 491 0
 165              		.cfi_startproc
 166              		@ args = 0, pretend = 0, frame = 16
 167              		@ frame_needed = 0, uses_anonymous_args = 0
 168              	.LVL10:
 169 0000 00B5     		push	{lr}
 170              		.cfi_def_cfa_offset 4
 171              		.cfi_offset 14, -4
 172 0002 85B0     		sub	sp, sp, #20
 173              		.cfi_def_cfa_offset 24
 492:Generated_Source\PSoC4/ble_uds.c ****     CYBLE_API_RESULT_T apiResult;
 493:Generated_Source\PSoC4/ble_uds.c ****     
 494:Generated_Source\PSoC4/ble_uds.c ****     /* Check parameters */
 495:Generated_Source\PSoC4/ble_uds.c ****     if(charIndex >= CYBLE_UDS_CHAR_COUNT)
 174              		.loc 1 495 0
 175 0004 1E28     		cmp	r0, #30
 176 0006 13D8     		bhi	.L18
 496:Generated_Source\PSoC4/ble_uds.c ****     {
 497:Generated_Source\PSoC4/ble_uds.c ****         apiResult = CYBLE_ERROR_INVALID_PARAMETER;
 498:Generated_Source\PSoC4/ble_uds.c ****     }
 499:Generated_Source\PSoC4/ble_uds.c **** 	else if(cyBle_udss.charInfo[charIndex].charHandle == CYBLE_GATT_INVALID_ATTR_HANDLE_VALUE)
 177              		.loc 1 499 0
 178 0008 8000     		lsls	r0, r0, #2
 179              	.LVL11:
 180 000a 0C4B     		ldr	r3, .L21
 181 000c 1818     		adds	r0, r3, r0
 182 000e 4388     		ldrh	r3, [r0, #2]
 183 0010 002B     		cmp	r3, #0
ARM GAS  C:\Users\310309~1\AppData\Local\Temp\cckEzWOW.s 			page 13


 184 0012 0FD0     		beq	.L19
 185              	.LBB3:
 500:Generated_Source\PSoC4/ble_uds.c ****     {
 501:Generated_Source\PSoC4/ble_uds.c ****         apiResult = CYBLE_ERROR_GATT_DB_INVALID_ATTR_HANDLE;
 502:Generated_Source\PSoC4/ble_uds.c ****     }
 503:Generated_Source\PSoC4/ble_uds.c ****     else
 504:Generated_Source\PSoC4/ble_uds.c ****     {
 505:Generated_Source\PSoC4/ble_uds.c ****         CYBLE_GATT_HANDLE_VALUE_PAIR_T locHandleValuePair;
 506:Generated_Source\PSoC4/ble_uds.c ****         
 507:Generated_Source\PSoC4/ble_uds.c ****         /* Get characteristic value from GATT database */
 508:Generated_Source\PSoC4/ble_uds.c ****         locHandleValuePair.attrHandle = cyBle_udss.charInfo[charIndex].charHandle;
 186              		.loc 1 508 0
 187 0014 01A8     		add	r0, sp, #4
 188 0016 0381     		strh	r3, [r0, #8]
 509:Generated_Source\PSoC4/ble_uds.c ****         locHandleValuePair.value.len = attrSize;
 189              		.loc 1 509 0
 190 0018 8180     		strh	r1, [r0, #4]
 510:Generated_Source\PSoC4/ble_uds.c ****         locHandleValuePair.value.val = attrValue;
 191              		.loc 1 510 0
 192 001a 0192     		str	r2, [sp, #4]
 511:Generated_Source\PSoC4/ble_uds.c ****         
 512:Generated_Source\PSoC4/ble_uds.c ****         if(CYBLE_GATT_ERR_NONE != CyBle_GattsReadAttributeValue(&locHandleValuePair,
 193              		.loc 1 512 0
 194 001c 0022     		movs	r2, #0
 195              	.LVL12:
 196 001e 0021     		movs	r1, #0
 197              	.LVL13:
 198 0020 FFF7FEFF 		bl	CyBle_GattsReadAttributeValue
 199              	.LVL14:
 200 0024 0028     		cmp	r0, #0
 201 0026 01D0     		beq	.L20
 513:Generated_Source\PSoC4/ble_uds.c ****                                     0u, CYBLE_GATT_DB_LOCALLY_INITIATED))
 514:Generated_Source\PSoC4/ble_uds.c ****         {
 515:Generated_Source\PSoC4/ble_uds.c ****             apiResult = CYBLE_ERROR_INVALID_PARAMETER;
 202              		.loc 1 515 0
 203 0028 0120     		movs	r0, #1
 204 002a 04E0     		b	.L16
 205              	.L20:
 516:Generated_Source\PSoC4/ble_uds.c ****         }
 517:Generated_Source\PSoC4/ble_uds.c ****         else
 518:Generated_Source\PSoC4/ble_uds.c ****         {
 519:Generated_Source\PSoC4/ble_uds.c ****             apiResult = CYBLE_ERROR_OK;
 206              		.loc 1 519 0
 207 002c 0020     		movs	r0, #0
 208              	.LVL15:
 209 002e 02E0     		b	.L16
 210              	.LVL16:
 211              	.L18:
 212              	.LBE3:
 497:Generated_Source\PSoC4/ble_uds.c ****     }
 213              		.loc 1 497 0
 214 0030 0120     		movs	r0, #1
 215              	.LVL17:
 216 0032 00E0     		b	.L16
 217              	.L19:
 501:Generated_Source\PSoC4/ble_uds.c ****     }
 218              		.loc 1 501 0
ARM GAS  C:\Users\310309~1\AppData\Local\Temp\cckEzWOW.s 			page 14


 219 0034 1320     		movs	r0, #19
 220              	.LVL18:
 221              	.L16:
 520:Generated_Source\PSoC4/ble_uds.c ****         }
 521:Generated_Source\PSoC4/ble_uds.c ****     }
 522:Generated_Source\PSoC4/ble_uds.c **** 
 523:Generated_Source\PSoC4/ble_uds.c ****     return (apiResult);
 524:Generated_Source\PSoC4/ble_uds.c **** }
 222              		.loc 1 524 0
 223 0036 05B0     		add	sp, sp, #20
 224              		@ sp needed
 225 0038 00BD     		pop	{pc}
 226              	.L22:
 227 003a C046     		.align	2
 228              	.L21:
 229 003c 00000000 		.word	.LANCHOR1
 230              		.cfi_endproc
 231              	.LFE5:
 232              		.size	CyBle_UdssGetCharacteristicValue, .-CyBle_UdssGetCharacteristicValue
 233              		.section	.text.CyBle_UdssGetCharacteristicDescriptor,"ax",%progbits
 234              		.align	2
 235              		.global	CyBle_UdssGetCharacteristicDescriptor
 236              		.code	16
 237              		.thumb_func
 238              		.type	CyBle_UdssGetCharacteristicDescriptor, %function
 239              	CyBle_UdssGetCharacteristicDescriptor:
 240              	.LFB6:
 525:Generated_Source\PSoC4/ble_uds.c **** 
 526:Generated_Source\PSoC4/ble_uds.c **** 
 527:Generated_Source\PSoC4/ble_uds.c **** /******************************************************************************
 528:Generated_Source\PSoC4/ble_uds.c **** * Function Name: CyBle_UdssGetCharacteristicDescriptor
 529:Generated_Source\PSoC4/ble_uds.c **** ***************************************************************************//**
 530:Generated_Source\PSoC4/ble_uds.c **** * 
 531:Generated_Source\PSoC4/ble_uds.c **** *  Gets a characteristic descriptor of the specified characteristic.
 532:Generated_Source\PSoC4/ble_uds.c **** * 
 533:Generated_Source\PSoC4/ble_uds.c **** *  \param charIndex:  The index of the characteristic.
 534:Generated_Source\PSoC4/ble_uds.c **** *  \param descrIndex: The index of the descriptor.
 535:Generated_Source\PSoC4/ble_uds.c **** *  \param attrSize:   The size of the descriptor value attribute.
 536:Generated_Source\PSoC4/ble_uds.c **** *  \param attrValue: The pointer to the location where characteristic descriptor value 
 537:Generated_Source\PSoC4/ble_uds.c **** *                     data should be stored. 
 538:Generated_Source\PSoC4/ble_uds.c **** * 
 539:Generated_Source\PSoC4/ble_uds.c **** * \return
 540:Generated_Source\PSoC4/ble_uds.c **** *  A return value is of type CYBLE_API_RESULT_T.
 541:Generated_Source\PSoC4/ble_uds.c **** *   * CYBLE_ERROR_OK - Characteristic Descriptor value was read successfully
 542:Generated_Source\PSoC4/ble_uds.c **** *   * CYBLE_ERROR_INVALID_PARAMETER - Validation of the input parameter failed.
 543:Generated_Source\PSoC4/ble_uds.c **** *   * CYBLE_ERROR_GATT_DB_INVALID_ATTR_HANDLE - A characteristic is absent.
 544:Generated_Source\PSoC4/ble_uds.c **** *
 545:Generated_Source\PSoC4/ble_uds.c **** ******************************************************************************/
 546:Generated_Source\PSoC4/ble_uds.c **** CYBLE_API_RESULT_T CyBle_UdssGetCharacteristicDescriptor(CYBLE_UDS_CHAR_INDEX_T charIndex, 
 547:Generated_Source\PSoC4/ble_uds.c ****                                                          CYBLE_UDS_DESCR_INDEX_T descrIndex,
 548:Generated_Source\PSoC4/ble_uds.c ****                                                          uint8 attrSize, uint8 *attrValue)
 549:Generated_Source\PSoC4/ble_uds.c **** {
 241              		.loc 1 549 0
 242              		.cfi_startproc
 243              		@ args = 0, pretend = 0, frame = 16
 244              		@ frame_needed = 0, uses_anonymous_args = 0
 245              	.LVL19:
ARM GAS  C:\Users\310309~1\AppData\Local\Temp\cckEzWOW.s 			page 15


 246 0000 30B5     		push	{r4, r5, lr}
 247              		.cfi_def_cfa_offset 12
 248              		.cfi_offset 4, -12
 249              		.cfi_offset 5, -8
 250              		.cfi_offset 14, -4
 251 0002 85B0     		sub	sp, sp, #20
 252              		.cfi_def_cfa_offset 32
 550:Generated_Source\PSoC4/ble_uds.c ****     CYBLE_API_RESULT_T apiResult;
 551:Generated_Source\PSoC4/ble_uds.c ****     
 552:Generated_Source\PSoC4/ble_uds.c ****     /* Check parameters */
 553:Generated_Source\PSoC4/ble_uds.c ****     if((charIndex >= CYBLE_UDS_CHAR_COUNT) || (descrIndex >= CYBLE_UDS_DESCR_COUNT))
 253              		.loc 1 553 0
 254 0004 1E28     		cmp	r0, #30
 255 0006 1AD8     		bhi	.L26
 256              		.loc 1 553 0 is_stmt 0 discriminator 1
 257 0008 0029     		cmp	r1, #0
 258 000a 1AD1     		bne	.L27
 554:Generated_Source\PSoC4/ble_uds.c ****     {
 555:Generated_Source\PSoC4/ble_uds.c ****         apiResult = CYBLE_ERROR_INVALID_PARAMETER;
 556:Generated_Source\PSoC4/ble_uds.c ****     }
 557:Generated_Source\PSoC4/ble_uds.c ****     else if(cyBle_udss.charInfo[charIndex].descrHandle[CYBLE_UDS_CCCD] == CYBLE_GATT_INVALID_ATTR_H
 259              		.loc 1 557 0 is_stmt 1
 260 000c 8400     		lsls	r4, r0, #2
 261 000e 0F4D     		ldr	r5, .L30
 262 0010 2C19     		adds	r4, r5, r4
 263 0012 A488     		ldrh	r4, [r4, #4]
 264 0014 002C     		cmp	r4, #0
 265 0016 16D0     		beq	.L28
 266              	.LBB4:
 558:Generated_Source\PSoC4/ble_uds.c ****     {
 559:Generated_Source\PSoC4/ble_uds.c ****         apiResult = CYBLE_ERROR_GATT_DB_INVALID_ATTR_HANDLE;
 560:Generated_Source\PSoC4/ble_uds.c ****     }
 561:Generated_Source\PSoC4/ble_uds.c ****     else
 562:Generated_Source\PSoC4/ble_uds.c ****     {
 563:Generated_Source\PSoC4/ble_uds.c ****         CYBLE_GATT_HANDLE_VALUE_PAIR_T locHandleValuePair;
 564:Generated_Source\PSoC4/ble_uds.c ****         
 565:Generated_Source\PSoC4/ble_uds.c ****         /* Get data from database */
 566:Generated_Source\PSoC4/ble_uds.c ****         locHandleValuePair.attrHandle = cyBle_udss.charInfo[charIndex].descrHandle[descrIndex];
 267              		.loc 1 566 0
 268 0018 4000     		lsls	r0, r0, #1
 269              	.LVL20:
 270 001a 4018     		adds	r0, r0, r1
 271 001c 4000     		lsls	r0, r0, #1
 272 001e 2818     		adds	r0, r5, r0
 273 0020 8188     		ldrh	r1, [r0, #4]
 274              	.LVL21:
 275 0022 01A8     		add	r0, sp, #4
 276 0024 0181     		strh	r1, [r0, #8]
 567:Generated_Source\PSoC4/ble_uds.c ****         locHandleValuePair.value.len = attrSize;
 277              		.loc 1 567 0
 278 0026 8280     		strh	r2, [r0, #4]
 568:Generated_Source\PSoC4/ble_uds.c ****         locHandleValuePair.value.val = attrValue;
 279              		.loc 1 568 0
 280 0028 0193     		str	r3, [sp, #4]
 569:Generated_Source\PSoC4/ble_uds.c **** 
 570:Generated_Source\PSoC4/ble_uds.c ****         if(CYBLE_GATT_ERR_NONE != CyBle_GattsReadAttributeValue(&locHandleValuePair,
 281              		.loc 1 570 0
ARM GAS  C:\Users\310309~1\AppData\Local\Temp\cckEzWOW.s 			page 16


 282 002a 0022     		movs	r2, #0
 283              	.LVL22:
 284 002c 0021     		movs	r1, #0
 285 002e FFF7FEFF 		bl	CyBle_GattsReadAttributeValue
 286              	.LVL23:
 287 0032 0028     		cmp	r0, #0
 288 0034 01D0     		beq	.L29
 571:Generated_Source\PSoC4/ble_uds.c ****                                     0u, CYBLE_GATT_DB_LOCALLY_INITIATED))
 572:Generated_Source\PSoC4/ble_uds.c ****         {
 573:Generated_Source\PSoC4/ble_uds.c ****             apiResult = CYBLE_ERROR_INVALID_PARAMETER;
 289              		.loc 1 573 0
 290 0036 0120     		movs	r0, #1
 291 0038 06E0     		b	.L24
 292              	.L29:
 574:Generated_Source\PSoC4/ble_uds.c ****         }
 575:Generated_Source\PSoC4/ble_uds.c ****         else
 576:Generated_Source\PSoC4/ble_uds.c ****         {
 577:Generated_Source\PSoC4/ble_uds.c ****             apiResult = CYBLE_ERROR_OK;
 293              		.loc 1 577 0
 294 003a 0020     		movs	r0, #0
 295              	.LVL24:
 296 003c 04E0     		b	.L24
 297              	.LVL25:
 298              	.L26:
 299              	.LBE4:
 555:Generated_Source\PSoC4/ble_uds.c ****     }
 300              		.loc 1 555 0
 301 003e 0120     		movs	r0, #1
 302              	.LVL26:
 303 0040 02E0     		b	.L24
 304              	.LVL27:
 305              	.L27:
 306 0042 0120     		movs	r0, #1
 307              	.LVL28:
 308 0044 00E0     		b	.L24
 309              	.LVL29:
 310              	.L28:
 559:Generated_Source\PSoC4/ble_uds.c ****     }
 311              		.loc 1 559 0
 312 0046 1320     		movs	r0, #19
 313              	.LVL30:
 314              	.L24:
 578:Generated_Source\PSoC4/ble_uds.c ****         }
 579:Generated_Source\PSoC4/ble_uds.c ****     }
 580:Generated_Source\PSoC4/ble_uds.c **** 
 581:Generated_Source\PSoC4/ble_uds.c ****     return (apiResult);
 582:Generated_Source\PSoC4/ble_uds.c **** }
 315              		.loc 1 582 0
 316 0048 05B0     		add	sp, sp, #20
 317              		@ sp needed
 318 004a 30BD     		pop	{r4, r5, pc}
 319              	.L31:
 320              		.align	2
 321              	.L30:
 322 004c 00000000 		.word	.LANCHOR1
 323              		.cfi_endproc
 324              	.LFE6:
ARM GAS  C:\Users\310309~1\AppData\Local\Temp\cckEzWOW.s 			page 17


 325              		.size	CyBle_UdssGetCharacteristicDescriptor, .-CyBle_UdssGetCharacteristicDescriptor
 326              		.section	.text.CyBle_UdssSendNotification,"ax",%progbits
 327              		.align	2
 328              		.global	CyBle_UdssSendNotification
 329              		.code	16
 330              		.thumb_func
 331              		.type	CyBle_UdssSendNotification, %function
 332              	CyBle_UdssSendNotification:
 333              	.LFB7:
 583:Generated_Source\PSoC4/ble_uds.c **** 
 584:Generated_Source\PSoC4/ble_uds.c **** 
 585:Generated_Source\PSoC4/ble_uds.c **** /******************************************************************************
 586:Generated_Source\PSoC4/ble_uds.c **** * Function Name: CyBle_UdssSendNotification
 587:Generated_Source\PSoC4/ble_uds.c **** ***************************************************************************//**
 588:Generated_Source\PSoC4/ble_uds.c **** * 
 589:Generated_Source\PSoC4/ble_uds.c **** *  Sends a notification of the specified characteristic value, as identified by
 590:Generated_Source\PSoC4/ble_uds.c **** *  the charIndex.
 591:Generated_Source\PSoC4/ble_uds.c **** *
 592:Generated_Source\PSoC4/ble_uds.c **** *  On enabling notification successfully for a service characteristic, if the GATT
 593:Generated_Source\PSoC4/ble_uds.c **** *  server has an updated value to be notified to the GATT Client, it sends out a
 594:Generated_Source\PSoC4/ble_uds.c **** *  'Handle Value Notification' which results in CYBLE_EVT_UDSC_NOTIFICATION event
 595:Generated_Source\PSoC4/ble_uds.c **** *  at the GATT Client's end.
 596:Generated_Source\PSoC4/ble_uds.c **** * 
 597:Generated_Source\PSoC4/ble_uds.c **** *  \param connHandle: The connection handle which consist of the device ID and ATT 
 598:Generated_Source\PSoC4/ble_uds.c **** *                     connection ID.
 599:Generated_Source\PSoC4/ble_uds.c **** *  \param charIndex:  The index of the service characteristic.
 600:Generated_Source\PSoC4/ble_uds.c **** *  \param attrSize:   The size of the characteristic value attribute.
 601:Generated_Source\PSoC4/ble_uds.c **** *  \param attrValue: The pointer to the characteristic value data
 602:Generated_Source\PSoC4/ble_uds.c **** *                     that should be sent to the client device. 
 603:Generated_Source\PSoC4/ble_uds.c **** * 
 604:Generated_Source\PSoC4/ble_uds.c **** * \return
 605:Generated_Source\PSoC4/ble_uds.c **** *  A return value is of type CYBLE_API_RESULT_T.
 606:Generated_Source\PSoC4/ble_uds.c **** *   * CYBLE_ERROR_OK - The request handled successfully.
 607:Generated_Source\PSoC4/ble_uds.c **** *   * CYBLE_ERROR_INVALID_PARAMETER - Validation of the input parameter failed.
 608:Generated_Source\PSoC4/ble_uds.c **** *   * CYBLE_ERROR_INVALID_OPERATION - Operation is invalid for this 
 609:Generated_Source\PSoC4/ble_uds.c **** *                                     characteristic
 610:Generated_Source\PSoC4/ble_uds.c **** *   * CYBLE_ERROR_GATT_DB_INVALID_ATTR_HANDLE - An optional characteristic is absent.
 611:Generated_Source\PSoC4/ble_uds.c **** *   * CYBLE_ERROR_INVALID_STATE - Connection with the client is not established.
 612:Generated_Source\PSoC4/ble_uds.c **** *   * CYBLE_ERROR_MEMORY_ALLOCATION_FAILED - Memory allocation failed.
 613:Generated_Source\PSoC4/ble_uds.c **** *   * CYBLE_ERROR_NTF_DISABLED - Notification is not enabled by the client.
 614:Generated_Source\PSoC4/ble_uds.c **** *
 615:Generated_Source\PSoC4/ble_uds.c **** ******************************************************************************/
 616:Generated_Source\PSoC4/ble_uds.c **** CYBLE_API_RESULT_T CyBle_UdssSendNotification(CYBLE_CONN_HANDLE_T connHandle,
 617:Generated_Source\PSoC4/ble_uds.c ****                     CYBLE_UDS_CHAR_INDEX_T charIndex, uint8 attrSize, uint8 *attrValue)
 618:Generated_Source\PSoC4/ble_uds.c **** {
 334              		.loc 1 618 0
 335              		.cfi_startproc
 336              		@ args = 0, pretend = 0, frame = 24
 337              		@ frame_needed = 0, uses_anonymous_args = 0
 338              	.LVL31:
 339 0000 70B5     		push	{r4, r5, r6, lr}
 340              		.cfi_def_cfa_offset 16
 341              		.cfi_offset 4, -16
 342              		.cfi_offset 5, -12
 343              		.cfi_offset 6, -8
 344              		.cfi_offset 14, -4
 345 0002 86B0     		sub	sp, sp, #24
ARM GAS  C:\Users\310309~1\AppData\Local\Temp\cckEzWOW.s 			page 18


 346              		.cfi_def_cfa_offset 40
 347 0004 01AC     		add	r4, sp, #4
 348 0006 2080     		strh	r0, [r4]
 349 0008 0C00     		movs	r4, r1
 350 000a 1500     		movs	r5, r2
 351 000c 1E00     		movs	r6, r3
 619:Generated_Source\PSoC4/ble_uds.c ****     CYBLE_API_RESULT_T apiResult;
 620:Generated_Source\PSoC4/ble_uds.c ****     
 621:Generated_Source\PSoC4/ble_uds.c ****     /* Send Notification if it is enabled and connected */
 622:Generated_Source\PSoC4/ble_uds.c ****     if(CYBLE_STATE_CONNECTED != CyBle_GetState())
 352              		.loc 1 622 0
 353 000e 174B     		ldr	r3, .L38
 354              	.LVL32:
 355 0010 1B78     		ldrb	r3, [r3]
 356 0012 022B     		cmp	r3, #2
 357 0014 1FD1     		bne	.L34
 623:Generated_Source\PSoC4/ble_uds.c ****     {
 624:Generated_Source\PSoC4/ble_uds.c ****         apiResult = CYBLE_ERROR_INVALID_STATE;
 625:Generated_Source\PSoC4/ble_uds.c ****     }
 626:Generated_Source\PSoC4/ble_uds.c ****     else if(charIndex >= CYBLE_UDS_CHAR_COUNT)
 358              		.loc 1 626 0
 359 0016 1E29     		cmp	r1, #30
 360 0018 20D8     		bhi	.L35
 627:Generated_Source\PSoC4/ble_uds.c ****     {
 628:Generated_Source\PSoC4/ble_uds.c ****         apiResult = CYBLE_ERROR_INVALID_PARAMETER;
 629:Generated_Source\PSoC4/ble_uds.c ****     }
 630:Generated_Source\PSoC4/ble_uds.c ****     else if(cyBle_udss.charInfo[charIndex].descrHandle[CYBLE_UDS_CCCD] == CYBLE_GATT_INVALID_ATTR_H
 361              		.loc 1 630 0
 362 001a 8B00     		lsls	r3, r1, #2
 363 001c 144A     		ldr	r2, .L38+4
 364              	.LVL33:
 365 001e D318     		adds	r3, r2, r3
 366 0020 9B88     		ldrh	r3, [r3, #4]
 367 0022 002B     		cmp	r3, #0
 368 0024 1CD0     		beq	.L36
 631:Generated_Source\PSoC4/ble_uds.c ****     {
 632:Generated_Source\PSoC4/ble_uds.c **** 		apiResult = CYBLE_ERROR_GATT_DB_INVALID_ATTR_HANDLE;
 633:Generated_Source\PSoC4/ble_uds.c **** 	}
 634:Generated_Source\PSoC4/ble_uds.c ****     else if(!CYBLE_IS_NOTIFICATION_ENABLED(cyBle_udss.charInfo[charIndex].descrHandle[CYBLE_UDS_CCC
 369              		.loc 1 634 0
 370 0026 013B     		subs	r3, r3, #1
 371 0028 9A00     		lsls	r2, r3, #2
 372 002a D318     		adds	r3, r2, r3
 373 002c 9A00     		lsls	r2, r3, #2
 374 002e 114B     		ldr	r3, .L38+8
 375 0030 9A18     		adds	r2, r3, r2
 376 0032 1369     		ldr	r3, [r2, #16]
 377 0034 5868     		ldr	r0, [r3, #4]
 378 0036 FFF7FEFF 		bl	CyBle_Get16ByPtr
 379              	.LVL34:
 380 003a C307     		lsls	r3, r0, #31
 381 003c 12D5     		bpl	.L37
 382              	.LBB5:
 635:Generated_Source\PSoC4/ble_uds.c ****     {
 636:Generated_Source\PSoC4/ble_uds.c ****         apiResult = CYBLE_ERROR_NTF_DISABLED;
 637:Generated_Source\PSoC4/ble_uds.c ****     }
 638:Generated_Source\PSoC4/ble_uds.c ****     else
ARM GAS  C:\Users\310309~1\AppData\Local\Temp\cckEzWOW.s 			page 19


 639:Generated_Source\PSoC4/ble_uds.c ****     {
 640:Generated_Source\PSoC4/ble_uds.c ****         CYBLE_GATTS_HANDLE_VALUE_NTF_T ntfParam;
 641:Generated_Source\PSoC4/ble_uds.c ****         
 642:Generated_Source\PSoC4/ble_uds.c ****         /* Fill all fields of write request structure ... */
 643:Generated_Source\PSoC4/ble_uds.c ****         ntfParam.attrHandle = cyBle_udss.charInfo[charIndex].charHandle; 
 383              		.loc 1 643 0
 384 003e A400     		lsls	r4, r4, #2
 385 0040 0B4B     		ldr	r3, .L38+4
 386 0042 1C19     		adds	r4, r3, r4
 387 0044 6388     		ldrh	r3, [r4, #2]
 388 0046 03A9     		add	r1, sp, #12
 389 0048 0B81     		strh	r3, [r1, #8]
 644:Generated_Source\PSoC4/ble_uds.c ****         ntfParam.value.val = attrValue;
 390              		.loc 1 644 0
 391 004a 0396     		str	r6, [sp, #12]
 645:Generated_Source\PSoC4/ble_uds.c ****         ntfParam.value.len = attrSize;
 392              		.loc 1 645 0
 393 004c 8D80     		strh	r5, [r1, #4]
 646:Generated_Source\PSoC4/ble_uds.c ****         
 647:Generated_Source\PSoC4/ble_uds.c ****         /* Send notification to client using previously filled structure */
 648:Generated_Source\PSoC4/ble_uds.c ****         apiResult = CyBle_GattsNotification(connHandle, &ntfParam);
 394              		.loc 1 648 0
 395 004e 0198     		ldr	r0, [sp, #4]
 396 0050 FFF7FEFF 		bl	CyBle_GattsNotification
 397              	.LVL35:
 398 0054 08E0     		b	.L33
 399              	.LVL36:
 400              	.L34:
 401              	.LBE5:
 624:Generated_Source\PSoC4/ble_uds.c ****     }
 402              		.loc 1 624 0
 403 0056 0420     		movs	r0, #4
 404 0058 FF30     		adds	r0, r0, #255
 405 005a 05E0     		b	.L33
 406              	.L35:
 628:Generated_Source\PSoC4/ble_uds.c ****     }
 407              		.loc 1 628 0
 408 005c 0120     		movs	r0, #1
 409 005e 03E0     		b	.L33
 410              	.LVL37:
 411              	.L36:
 632:Generated_Source\PSoC4/ble_uds.c **** 	}
 412              		.loc 1 632 0
 413 0060 1320     		movs	r0, #19
 414 0062 01E0     		b	.L33
 415              	.LVL38:
 416              	.L37:
 636:Generated_Source\PSoC4/ble_uds.c ****     }
 417              		.loc 1 636 0
 418 0064 8020     		movs	r0, #128
 419 0066 4000     		lsls	r0, r0, #1
 420              	.L33:
 421              	.LVL39:
 649:Generated_Source\PSoC4/ble_uds.c ****     }
 650:Generated_Source\PSoC4/ble_uds.c **** 
 651:Generated_Source\PSoC4/ble_uds.c ****     return (apiResult);
 652:Generated_Source\PSoC4/ble_uds.c **** }
ARM GAS  C:\Users\310309~1\AppData\Local\Temp\cckEzWOW.s 			page 20


 422              		.loc 1 652 0
 423 0068 06B0     		add	sp, sp, #24
 424              		@ sp needed
 425              	.LVL40:
 426 006a 70BD     		pop	{r4, r5, r6, pc}
 427              	.L39:
 428              		.align	2
 429              	.L38:
 430 006c 00000000 		.word	cyBle_state
 431 0070 00000000 		.word	.LANCHOR1
 432 0074 00000000 		.word	cyBle_gattDB
 433              		.cfi_endproc
 434              	.LFE7:
 435              		.size	CyBle_UdssSendNotification, .-CyBle_UdssSendNotification
 436              		.section	.text.CyBle_UdssSendIndication,"ax",%progbits
 437              		.align	2
 438              		.global	CyBle_UdssSendIndication
 439              		.code	16
 440              		.thumb_func
 441              		.type	CyBle_UdssSendIndication, %function
 442              	CyBle_UdssSendIndication:
 443              	.LFB8:
 653:Generated_Source\PSoC4/ble_uds.c **** 
 654:Generated_Source\PSoC4/ble_uds.c **** 
 655:Generated_Source\PSoC4/ble_uds.c **** /******************************************************************************
 656:Generated_Source\PSoC4/ble_uds.c **** * Function Name: CyBle_UdssSendIndication
 657:Generated_Source\PSoC4/ble_uds.c **** ***************************************************************************//**
 658:Generated_Source\PSoC4/ble_uds.c **** * 
 659:Generated_Source\PSoC4/ble_uds.c **** *  Sends an indication of the specified characteristic value, as identified by
 660:Generated_Source\PSoC4/ble_uds.c **** *  the charIndex.
 661:Generated_Source\PSoC4/ble_uds.c **** *
 662:Generated_Source\PSoC4/ble_uds.c **** *  On enabling indication successfully, if the GATT server has an updated value to be 
 663:Generated_Source\PSoC4/ble_uds.c **** *  indicated to the GATT Client, it sends out a 'Handle Value Indication' which
 664:Generated_Source\PSoC4/ble_uds.c **** *  results in CYBLE_EVT_UDSC_INDICATION or CYBLE_EVT_GATTC_HANDLE_VALUE_IND (if 
 665:Generated_Source\PSoC4/ble_uds.c **** *  service specific callback function is not registered) event at the GATT Client's end.
 666:Generated_Source\PSoC4/ble_uds.c **** *
 667:Generated_Source\PSoC4/ble_uds.c **** *  \param connHandle: The connection handle which consist of the device ID and ATT 
 668:Generated_Source\PSoC4/ble_uds.c **** *                     connection ID.
 669:Generated_Source\PSoC4/ble_uds.c **** *  \param charIndex:  The index of the service characteristic.
 670:Generated_Source\PSoC4/ble_uds.c **** *  \param attrSize:   The size of the characteristic value attribute.
 671:Generated_Source\PSoC4/ble_uds.c **** *  \param attrValue: The pointer to the characteristic value data that should be sent 
 672:Generated_Source\PSoC4/ble_uds.c **** *                     to the client device.
 673:Generated_Source\PSoC4/ble_uds.c **** * 
 674:Generated_Source\PSoC4/ble_uds.c **** * \return
 675:Generated_Source\PSoC4/ble_uds.c **** *  A return value is of type CYBLE_API_RESULT_T.
 676:Generated_Source\PSoC4/ble_uds.c **** *   * CYBLE_ERROR_OK - The request handled successfully.
 677:Generated_Source\PSoC4/ble_uds.c **** *   * CYBLE_ERROR_INVALID_PARAMETER - Validation of the input parameter failed.
 678:Generated_Source\PSoC4/ble_uds.c **** *   * CYBLE_ERROR_INVALID_OPERATION - Operation is invalid for this 
 679:Generated_Source\PSoC4/ble_uds.c **** *                                      characteristic.
 680:Generated_Source\PSoC4/ble_uds.c **** *   * CYBLE_ERROR_GATT_DB_INVALID_ATTR_HANDLE - An optional characteristic is absent.
 681:Generated_Source\PSoC4/ble_uds.c **** *   * CYBLE_ERROR_INVALID_STATE - Connection with the client is not established.
 682:Generated_Source\PSoC4/ble_uds.c **** *   * CYBLE_ERROR_MEMORY_ALLOCATION_FAILED - Memory allocation failed.
 683:Generated_Source\PSoC4/ble_uds.c **** *   * CYBLE_ERROR_NTF_DISABLED - Notification is not enabled by the client.
 684:Generated_Source\PSoC4/ble_uds.c **** *   * CYBLE_ERROR_IND_DISABLED - Indication is disabled for this characteristic.
 685:Generated_Source\PSoC4/ble_uds.c **** *
 686:Generated_Source\PSoC4/ble_uds.c **** * \events
 687:Generated_Source\PSoC4/ble_uds.c **** *  In case of successful execution (return value = CYBLE_ERROR_OK)
ARM GAS  C:\Users\310309~1\AppData\Local\Temp\cckEzWOW.s 			page 21


 688:Generated_Source\PSoC4/ble_uds.c **** *  the next events can appear: \n
 689:Generated_Source\PSoC4/ble_uds.c **** *   If the UDS service-specific callback is registered 
 690:Generated_Source\PSoC4/ble_uds.c **** *      (with CyBle_UdsRegisterAttrCallback):
 691:Generated_Source\PSoC4/ble_uds.c **** *  * CYBLE_EVT_UDSS_INDICATION_CONFIRMED - If the indication is
 692:Generated_Source\PSoC4/ble_uds.c **** *                                successfully delivered to the peer device.
 693:Generated_Source\PSoC4/ble_uds.c **** *  .
 694:Generated_Source\PSoC4/ble_uds.c **** *   Otherwise (if the UDS service-specific callback is not registered):
 695:Generated_Source\PSoC4/ble_uds.c **** *  * CYBLE_EVT_GATTS_HANDLE_VALUE_CNF - If the indication is
 696:Generated_Source\PSoC4/ble_uds.c **** *                                successfully delivered to the peer device.
 697:Generated_Source\PSoC4/ble_uds.c **** *
 698:Generated_Source\PSoC4/ble_uds.c **** ******************************************************************************/
 699:Generated_Source\PSoC4/ble_uds.c **** CYBLE_API_RESULT_T CyBle_UdssSendIndication(CYBLE_CONN_HANDLE_T connHandle,
 700:Generated_Source\PSoC4/ble_uds.c ****                     CYBLE_UDS_CHAR_INDEX_T charIndex, uint8 attrSize, uint8 *attrValue)
 701:Generated_Source\PSoC4/ble_uds.c **** {
 444              		.loc 1 701 0
 445              		.cfi_startproc
 446              		@ args = 0, pretend = 0, frame = 24
 447              		@ frame_needed = 0, uses_anonymous_args = 0
 448              	.LVL41:
 449 0000 70B5     		push	{r4, r5, r6, lr}
 450              		.cfi_def_cfa_offset 16
 451              		.cfi_offset 4, -16
 452              		.cfi_offset 5, -12
 453              		.cfi_offset 6, -8
 454              		.cfi_offset 14, -4
 455 0002 86B0     		sub	sp, sp, #24
 456              		.cfi_def_cfa_offset 40
 457 0004 01AC     		add	r4, sp, #4
 458 0006 2080     		strh	r0, [r4]
 459 0008 0C00     		movs	r4, r1
 460 000a 1500     		movs	r5, r2
 461 000c 1E00     		movs	r6, r3
 702:Generated_Source\PSoC4/ble_uds.c ****     CYBLE_API_RESULT_T apiResult;
 703:Generated_Source\PSoC4/ble_uds.c ****     
 704:Generated_Source\PSoC4/ble_uds.c ****     /* Send Indication if it is enabled and connected */
 705:Generated_Source\PSoC4/ble_uds.c ****     if(CYBLE_STATE_CONNECTED != CyBle_GetState())
 462              		.loc 1 705 0
 463 000e 1A4B     		ldr	r3, .L47
 464              	.LVL42:
 465 0010 1B78     		ldrb	r3, [r3]
 466 0012 022B     		cmp	r3, #2
 467 0014 25D1     		bne	.L43
 706:Generated_Source\PSoC4/ble_uds.c ****     {
 707:Generated_Source\PSoC4/ble_uds.c ****         apiResult = CYBLE_ERROR_INVALID_STATE;
 708:Generated_Source\PSoC4/ble_uds.c ****     }
 709:Generated_Source\PSoC4/ble_uds.c ****     else if(charIndex >= CYBLE_UDS_CHAR_COUNT)
 468              		.loc 1 709 0
 469 0016 1E29     		cmp	r1, #30
 470 0018 26D8     		bhi	.L44
 710:Generated_Source\PSoC4/ble_uds.c ****     {
 711:Generated_Source\PSoC4/ble_uds.c ****         apiResult = CYBLE_ERROR_INVALID_PARAMETER;
 712:Generated_Source\PSoC4/ble_uds.c ****     }
 713:Generated_Source\PSoC4/ble_uds.c ****     else if(cyBle_udss.charInfo[charIndex].descrHandle[CYBLE_UDS_CCCD] == CYBLE_GATT_INVALID_ATTR_H
 471              		.loc 1 713 0
 472 001a 8B00     		lsls	r3, r1, #2
 473 001c 174A     		ldr	r2, .L47+4
 474              	.LVL43:
ARM GAS  C:\Users\310309~1\AppData\Local\Temp\cckEzWOW.s 			page 22


 475 001e D318     		adds	r3, r2, r3
 476 0020 9B88     		ldrh	r3, [r3, #4]
 477 0022 002B     		cmp	r3, #0
 478 0024 22D0     		beq	.L45
 714:Generated_Source\PSoC4/ble_uds.c ****     {
 715:Generated_Source\PSoC4/ble_uds.c **** 		apiResult = CYBLE_ERROR_GATT_DB_INVALID_ATTR_HANDLE;
 716:Generated_Source\PSoC4/ble_uds.c **** 	}
 717:Generated_Source\PSoC4/ble_uds.c ****     else if(!CYBLE_IS_INDICATION_ENABLED(cyBle_udss.charInfo[charIndex].descrHandle[CYBLE_UDS_CCCD]
 479              		.loc 1 717 0
 480 0026 013B     		subs	r3, r3, #1
 481 0028 9A00     		lsls	r2, r3, #2
 482 002a D318     		adds	r3, r2, r3
 483 002c 9A00     		lsls	r2, r3, #2
 484 002e 144B     		ldr	r3, .L47+8
 485 0030 9A18     		adds	r2, r3, r2
 486 0032 1369     		ldr	r3, [r2, #16]
 487 0034 5868     		ldr	r0, [r3, #4]
 488 0036 FFF7FEFF 		bl	CyBle_Get16ByPtr
 489              	.LVL44:
 490 003a 8307     		lsls	r3, r0, #30
 491 003c 18D5     		bpl	.L46
 492              	.LBB6:
 718:Generated_Source\PSoC4/ble_uds.c ****     {
 719:Generated_Source\PSoC4/ble_uds.c ****         apiResult = CYBLE_ERROR_IND_DISABLED;
 720:Generated_Source\PSoC4/ble_uds.c ****     }
 721:Generated_Source\PSoC4/ble_uds.c ****     else
 722:Generated_Source\PSoC4/ble_uds.c ****     {
 723:Generated_Source\PSoC4/ble_uds.c ****         CYBLE_GATTS_HANDLE_VALUE_IND_T indParam;
 724:Generated_Source\PSoC4/ble_uds.c ****         
 725:Generated_Source\PSoC4/ble_uds.c ****         /* Fill all fields of write request structure ... */
 726:Generated_Source\PSoC4/ble_uds.c ****         indParam.attrHandle = cyBle_udss.charInfo[charIndex].charHandle; 
 493              		.loc 1 726 0
 494 003e A400     		lsls	r4, r4, #2
 495 0040 0E4B     		ldr	r3, .L47+4
 496 0042 1C19     		adds	r4, r3, r4
 497 0044 6388     		ldrh	r3, [r4, #2]
 498 0046 03A9     		add	r1, sp, #12
 499 0048 0B81     		strh	r3, [r1, #8]
 727:Generated_Source\PSoC4/ble_uds.c ****         indParam.value.val = attrValue;
 500              		.loc 1 727 0
 501 004a 0396     		str	r6, [sp, #12]
 728:Generated_Source\PSoC4/ble_uds.c ****         indParam.value.len = attrSize;
 502              		.loc 1 728 0
 503 004c 8D80     		strh	r5, [r1, #4]
 729:Generated_Source\PSoC4/ble_uds.c ****         
 730:Generated_Source\PSoC4/ble_uds.c ****         /* Send notification to client using previously filled structure */
 731:Generated_Source\PSoC4/ble_uds.c ****         apiResult = CyBle_GattsIndication(connHandle, &indParam);
 504              		.loc 1 731 0
 505 004e 0198     		ldr	r0, [sp, #4]
 506 0050 FFF7FEFF 		bl	CyBle_GattsIndication
 507              	.LVL45:
 732:Generated_Source\PSoC4/ble_uds.c ****         
 733:Generated_Source\PSoC4/ble_uds.c ****         if(apiResult == CYBLE_ERROR_OK)
 508              		.loc 1 733 0
 509 0054 0028     		cmp	r0, #0
 510 0056 0DD1     		bne	.L41
 734:Generated_Source\PSoC4/ble_uds.c ****         {
ARM GAS  C:\Users\310309~1\AppData\Local\Temp\cckEzWOW.s 			page 23


 735:Generated_Source\PSoC4/ble_uds.c ****             /* Save handle to support service specific value confirmation response from client */
 736:Generated_Source\PSoC4/ble_uds.c ****             cyBle_udssReqHandle = indParam.attrHandle;
 511              		.loc 1 736 0
 512 0058 03AB     		add	r3, sp, #12
 513 005a 1A89     		ldrh	r2, [r3, #8]
 514 005c 094B     		ldr	r3, .L47+12
 515 005e 1A80     		strh	r2, [r3]
 516 0060 08E0     		b	.L41
 517              	.LVL46:
 518              	.L43:
 519              	.LBE6:
 707:Generated_Source\PSoC4/ble_uds.c ****     }
 520              		.loc 1 707 0
 521 0062 0420     		movs	r0, #4
 522 0064 FF30     		adds	r0, r0, #255
 523 0066 05E0     		b	.L41
 524              	.L44:
 711:Generated_Source\PSoC4/ble_uds.c ****     }
 525              		.loc 1 711 0
 526 0068 0120     		movs	r0, #1
 527 006a 03E0     		b	.L41
 528              	.LVL47:
 529              	.L45:
 715:Generated_Source\PSoC4/ble_uds.c **** 	}
 530              		.loc 1 715 0
 531 006c 1320     		movs	r0, #19
 532 006e 01E0     		b	.L41
 533              	.LVL48:
 534              	.L46:
 719:Generated_Source\PSoC4/ble_uds.c ****     }
 535              		.loc 1 719 0
 536 0070 0220     		movs	r0, #2
 537 0072 FF30     		adds	r0, r0, #255
 538              	.L41:
 539              	.LVL49:
 737:Generated_Source\PSoC4/ble_uds.c ****         }
 738:Generated_Source\PSoC4/ble_uds.c ****     }
 739:Generated_Source\PSoC4/ble_uds.c **** 
 740:Generated_Source\PSoC4/ble_uds.c ****     return (apiResult);
 741:Generated_Source\PSoC4/ble_uds.c **** }
 540              		.loc 1 741 0
 541 0074 06B0     		add	sp, sp, #24
 542              		@ sp needed
 543              	.LVL50:
 544 0076 70BD     		pop	{r4, r5, r6, pc}
 545              	.L48:
 546              		.align	2
 547              	.L47:
 548 0078 00000000 		.word	cyBle_state
 549 007c 00000000 		.word	.LANCHOR1
 550 0080 00000000 		.word	cyBle_gattDB
 551 0084 00000000 		.word	.LANCHOR0
 552              		.cfi_endproc
 553              	.LFE8:
 554              		.size	CyBle_UdssSendIndication, .-CyBle_UdssSendIndication
 555              		.section	.text.CyBle_UdssConfirmationEventHandler,"ax",%progbits
 556              		.align	2
ARM GAS  C:\Users\310309~1\AppData\Local\Temp\cckEzWOW.s 			page 24


 557              		.global	CyBle_UdssConfirmationEventHandler
 558              		.code	16
 559              		.thumb_func
 560              		.type	CyBle_UdssConfirmationEventHandler, %function
 561              	CyBle_UdssConfirmationEventHandler:
 562              	.LFB9:
 742:Generated_Source\PSoC4/ble_uds.c **** 
 743:Generated_Source\PSoC4/ble_uds.c **** 
 744:Generated_Source\PSoC4/ble_uds.c **** /******************************************************************************
 745:Generated_Source\PSoC4/ble_uds.c **** * Function Name: CyBle_UdssConfirmationEventHandler
 746:Generated_Source\PSoC4/ble_uds.c **** ***************************************************************************//**
 747:Generated_Source\PSoC4/ble_uds.c **** * 
 748:Generated_Source\PSoC4/ble_uds.c **** *  Handles the Value Confirmation request event from the BLE stack.
 749:Generated_Source\PSoC4/ble_uds.c **** * 
 750:Generated_Source\PSoC4/ble_uds.c **** *  \param eventParam: The pointer to a structure of type CYBLE_CONN_HANDLE_T.
 751:Generated_Source\PSoC4/ble_uds.c **** * 
 752:Generated_Source\PSoC4/ble_uds.c **** ******************************************************************************/
 753:Generated_Source\PSoC4/ble_uds.c **** void CyBle_UdssConfirmationEventHandler(const CYBLE_CONN_HANDLE_T *eventParam)
 754:Generated_Source\PSoC4/ble_uds.c **** {
 563              		.loc 1 754 0
 564              		.cfi_startproc
 565              		@ args = 0, pretend = 0, frame = 16
 566              		@ frame_needed = 0, uses_anonymous_args = 0
 567              	.LVL51:
 568 0000 F0B5     		push	{r4, r5, r6, r7, lr}
 569              		.cfi_def_cfa_offset 20
 570              		.cfi_offset 4, -20
 571              		.cfi_offset 5, -16
 572              		.cfi_offset 6, -12
 573              		.cfi_offset 7, -8
 574              		.cfi_offset 14, -4
 575 0002 85B0     		sub	sp, sp, #20
 576              		.cfi_def_cfa_offset 40
 755:Generated_Source\PSoC4/ble_uds.c ****     if((NULL != CyBle_UdsApplCallback) 
 577              		.loc 1 755 0
 578 0004 104B     		ldr	r3, .L51
 579 0006 5C68     		ldr	r4, [r3, #4]
 580 0008 002C     		cmp	r4, #0
 581 000a 1BD0     		beq	.L49
 756:Generated_Source\PSoC4/ble_uds.c ****         && (cyBle_udss.charInfo[CYBLE_UDS_UCP].charHandle == cyBle_udssReqHandle))
 582              		.loc 1 756 0
 583 000c 1B88     		ldrh	r3, [r3]
 584 000e 8D2B     		cmp	r3, #141
 585 0010 18D1     		bne	.L49
 586              	.LBB7:
 757:Generated_Source\PSoC4/ble_uds.c ****     {   
 758:Generated_Source\PSoC4/ble_uds.c ****         CYBLE_UDS_CHAR_VALUE_T locCharIndex;
 759:Generated_Source\PSoC4/ble_uds.c ****         
 760:Generated_Source\PSoC4/ble_uds.c ****         cyBle_udssReqHandle = CYBLE_GATT_INVALID_ATTR_HANDLE_VALUE;
 587              		.loc 1 760 0
 588 0012 0027     		movs	r7, #0
 589 0014 0C4B     		ldr	r3, .L51
 590 0016 1F80     		strh	r7, [r3]
 761:Generated_Source\PSoC4/ble_uds.c ****         
 762:Generated_Source\PSoC4/ble_uds.c ****         cyBle_udsFlag &= (uint8) ~CYBLE_UDS_FLAG_PROCESS;
 591              		.loc 1 762 0
 592 0018 0C4A     		ldr	r2, .L51+4
ARM GAS  C:\Users\310309~1\AppData\Local\Temp\cckEzWOW.s 			page 25


 593 001a 1378     		ldrb	r3, [r2]
 594 001c 0126     		movs	r6, #1
 595 001e B343     		bics	r3, r6
 596 0020 1370     		strb	r3, [r2]
 763:Generated_Source\PSoC4/ble_uds.c ****         
 764:Generated_Source\PSoC4/ble_uds.c ****         locCharIndex.connHandle = *eventParam;
 597              		.loc 1 764 0
 598 0022 01AD     		add	r5, sp, #4
 599 0024 0222     		movs	r2, #2
 600 0026 0100     		movs	r1, r0
 601 0028 2800     		movs	r0, r5
 602              	.LVL52:
 603 002a FFF7FEFF 		bl	memcpy
 604              	.LVL53:
 765:Generated_Source\PSoC4/ble_uds.c ****         locCharIndex.charIndex = CYBLE_UDS_UCP;
 605              		.loc 1 765 0
 606 002e 1D23     		movs	r3, #29
 607 0030 AB70     		strb	r3, [r5, #2]
 766:Generated_Source\PSoC4/ble_uds.c ****         locCharIndex.value = NULL;
 608              		.loc 1 766 0
 609 0032 6F60     		str	r7, [r5, #4]
 767:Generated_Source\PSoC4/ble_uds.c ****         
 768:Generated_Source\PSoC4/ble_uds.c ****         cyBle_eventHandlerFlag &= (uint8)~CYBLE_CALLBACK;
 610              		.loc 1 768 0
 611 0034 064A     		ldr	r2, .L51+8
 612 0036 1378     		ldrb	r3, [r2]
 613 0038 B343     		bics	r3, r6
 614 003a 1370     		strb	r3, [r2]
 769:Generated_Source\PSoC4/ble_uds.c ****         CyBle_UdsApplCallback((uint32)CYBLE_EVT_UDSS_INDICATION_CONFIRMED, &locCharIndex);
 615              		.loc 1 769 0
 616 003c 2900     		movs	r1, r5
 617 003e 8120     		movs	r0, #129
 618 0040 8000     		lsls	r0, r0, #2
 619 0042 A047     		blx	r4
 620              	.LVL54:
 621              	.L49:
 622              	.LBE7:
 770:Generated_Source\PSoC4/ble_uds.c ****     }
 771:Generated_Source\PSoC4/ble_uds.c **** }
 623              		.loc 1 771 0
 624 0044 05B0     		add	sp, sp, #20
 625              		@ sp needed
 626 0046 F0BD     		pop	{r4, r5, r6, r7, pc}
 627              	.L52:
 628              		.align	2
 629              	.L51:
 630 0048 00000000 		.word	.LANCHOR0
 631 004c 00000000 		.word	cyBle_udsFlag
 632 0050 00000000 		.word	cyBle_eventHandlerFlag
 633              		.cfi_endproc
 634              	.LFE9:
 635              		.size	CyBle_UdssConfirmationEventHandler, .-CyBle_UdssConfirmationEventHandler
 636              		.section	.text.CyBle_UdssReadRequestEventHandler,"ax",%progbits
 637              		.align	2
 638              		.global	CyBle_UdssReadRequestEventHandler
 639              		.code	16
 640              		.thumb_func
ARM GAS  C:\Users\310309~1\AppData\Local\Temp\cckEzWOW.s 			page 26


 641              		.type	CyBle_UdssReadRequestEventHandler, %function
 642              	CyBle_UdssReadRequestEventHandler:
 643              	.LFB10:
 772:Generated_Source\PSoC4/ble_uds.c **** 
 773:Generated_Source\PSoC4/ble_uds.c **** 
 774:Generated_Source\PSoC4/ble_uds.c **** /******************************************************************************
 775:Generated_Source\PSoC4/ble_uds.c **** * Function Name: CyBle_UdssReadRequestEventHandler
 776:Generated_Source\PSoC4/ble_uds.c **** ***************************************************************************//**
 777:Generated_Source\PSoC4/ble_uds.c **** * 
 778:Generated_Source\PSoC4/ble_uds.c **** *  Handles the Read Request Event.
 779:Generated_Source\PSoC4/ble_uds.c **** * 
 780:Generated_Source\PSoC4/ble_uds.c **** *  \param eventParam: The pointer to the data structure specified by the event.
 781:Generated_Source\PSoC4/ble_uds.c **** * 
 782:Generated_Source\PSoC4/ble_uds.c **** ******************************************************************************/
 783:Generated_Source\PSoC4/ble_uds.c **** void CyBle_UdssReadRequestEventHandler(CYBLE_GATTS_CHAR_VAL_READ_REQ_T *eventParam)
 784:Generated_Source\PSoC4/ble_uds.c **** {
 644              		.loc 1 784 0
 645              		.cfi_startproc
 646              		@ args = 0, pretend = 0, frame = 16
 647              		@ frame_needed = 0, uses_anonymous_args = 0
 648              	.LVL55:
 649 0000 70B5     		push	{r4, r5, r6, lr}
 650              		.cfi_def_cfa_offset 16
 651              		.cfi_offset 4, -16
 652              		.cfi_offset 5, -12
 653              		.cfi_offset 6, -8
 654              		.cfi_offset 14, -4
 655 0002 84B0     		sub	sp, sp, #16
 656              		.cfi_def_cfa_offset 32
 657 0004 0400     		movs	r4, r0
 785:Generated_Source\PSoC4/ble_uds.c ****     if(CyBle_UdsApplCallback != NULL)
 658              		.loc 1 785 0
 659 0006 184B     		ldr	r3, .L61
 660 0008 5D68     		ldr	r5, [r3, #4]
 661 000a 002D     		cmp	r5, #0
 662 000c 2AD0     		beq	.L53
 663              	.LBB8:
 786:Generated_Source\PSoC4/ble_uds.c ****     {
 787:Generated_Source\PSoC4/ble_uds.c ****         CYBLE_UDS_CHAR_VALUE_T locCharValue;
 788:Generated_Source\PSoC4/ble_uds.c ****         locCharValue.connHandle = eventParam->connHandle;
 664              		.loc 1 788 0
 665 000e 01AB     		add	r3, sp, #4
 666 0010 0288     		ldrh	r2, [r0]
 667 0012 1A80     		strh	r2, [r3]
 789:Generated_Source\PSoC4/ble_uds.c ****         locCharValue.gattErrorCode = CYBLE_GATT_ERR_NONE;
 668              		.loc 1 789 0
 669 0014 0022     		movs	r2, #0
 670 0016 1A72     		strb	r2, [r3, #8]
 790:Generated_Source\PSoC4/ble_uds.c ****         locCharValue.value = NULL;
 671              		.loc 1 790 0
 672 0018 0292     		str	r2, [sp, #8]
 791:Generated_Source\PSoC4/ble_uds.c ****     
 792:Generated_Source\PSoC4/ble_uds.c ****         for(locCharValue.charIndex = CYBLE_UDS_FNM; 
 673              		.loc 1 792 0
 674 001a 9A70     		strb	r2, [r3, #2]
 675 001c 1EE0     		b	.L55
 676              	.LVL56:
ARM GAS  C:\Users\310309~1\AppData\Local\Temp\cckEzWOW.s 			page 27


 677              	.L60:
 793:Generated_Source\PSoC4/ble_uds.c ****             locCharValue.charIndex < CYBLE_UDS_CHAR_COUNT; 
 794:Generated_Source\PSoC4/ble_uds.c ****             locCharValue.charIndex++)
 795:Generated_Source\PSoC4/ble_uds.c ****         {
 796:Generated_Source\PSoC4/ble_uds.c ****             if(locCharValue.charIndex == CYBLE_UDS_UCP)
 678              		.loc 1 796 0
 679 001e 1D2B     		cmp	r3, #29
 680 0020 02D1     		bne	.L56
 797:Generated_Source\PSoC4/ble_uds.c ****             {
 798:Generated_Source\PSoC4/ble_uds.c ****                 /* Omit UCP characteristic */
 799:Generated_Source\PSoC4/ble_uds.c ****                 locCharValue.charIndex = CYBLE_UDS_LNG;
 681              		.loc 1 799 0
 682 0022 1E22     		movs	r2, #30
 683 0024 01AB     		add	r3, sp, #4
 684 0026 9A70     		strb	r2, [r3, #2]
 685              	.L56:
 800:Generated_Source\PSoC4/ble_uds.c ****             }
 801:Generated_Source\PSoC4/ble_uds.c ****             
 802:Generated_Source\PSoC4/ble_uds.c ****             if(eventParam->attrHandle == cyBle_udss.charInfo[locCharValue.charIndex].charHandle)
 686              		.loc 1 802 0
 687 0028 6188     		ldrh	r1, [r4, #2]
 688 002a 01AB     		add	r3, sp, #4
 689 002c 9B78     		ldrb	r3, [r3, #2]
 690 002e 9A00     		lsls	r2, r3, #2
 691 0030 0E48     		ldr	r0, .L61+4
 692 0032 8218     		adds	r2, r0, r2
 693 0034 5288     		ldrh	r2, [r2, #2]
 694 0036 9142     		cmp	r1, r2
 695 0038 0DD1     		bne	.L57
 803:Generated_Source\PSoC4/ble_uds.c ****             {
 804:Generated_Source\PSoC4/ble_uds.c **** 
 805:Generated_Source\PSoC4/ble_uds.c ****                 CyBle_UdsApplCallback((uint32)CYBLE_EVT_UDSS_READ_CHAR, &locCharValue);
 696              		.loc 1 805 0
 697 003a 01AE     		add	r6, sp, #4
 698 003c 3100     		movs	r1, r6
 699 003e 0C48     		ldr	r0, .L61+8
 700 0040 A847     		blx	r5
 701              	.LVL57:
 806:Generated_Source\PSoC4/ble_uds.c ****                         
 807:Generated_Source\PSoC4/ble_uds.c ****                 if(locCharValue.gattErrorCode == CYBLE_GATT_ERR_USER_DATA_ACCESS_NOT_PERMITTED)
 702              		.loc 1 807 0
 703 0042 337A     		ldrb	r3, [r6, #8]
 704 0044 802B     		cmp	r3, #128
 705 0046 00D1     		bne	.L58
 808:Generated_Source\PSoC4/ble_uds.c **** 	            {
 809:Generated_Source\PSoC4/ble_uds.c ****                     eventParam->gattErrorCode = CYBLE_GATT_ERR_USER_DATA_ACCESS_NOT_PERMITTED;
 706              		.loc 1 809 0
 707 0048 2371     		strb	r3, [r4, #4]
 708              	.L58:
 810:Generated_Source\PSoC4/ble_uds.c ****                 }
 811:Generated_Source\PSoC4/ble_uds.c ****                 
 812:Generated_Source\PSoC4/ble_uds.c ****                 cyBle_eventHandlerFlag &= (uint8)~CYBLE_CALLBACK;
 709              		.loc 1 812 0
 710 004a 0A4A     		ldr	r2, .L61+12
 711 004c 1378     		ldrb	r3, [r2]
 712 004e 0121     		movs	r1, #1
 713 0050 8B43     		bics	r3, r1
ARM GAS  C:\Users\310309~1\AppData\Local\Temp\cckEzWOW.s 			page 28


 714 0052 1370     		strb	r3, [r2]
 813:Generated_Source\PSoC4/ble_uds.c ****                 break;
 715              		.loc 1 813 0
 716 0054 06E0     		b	.L53
 717              	.L57:
 794:Generated_Source\PSoC4/ble_uds.c ****         {
 718              		.loc 1 794 0
 719 0056 0133     		adds	r3, r3, #1
 720 0058 01AA     		add	r2, sp, #4
 721 005a 9370     		strb	r3, [r2, #2]
 722              	.L55:
 793:Generated_Source\PSoC4/ble_uds.c ****             locCharValue.charIndex++)
 723              		.loc 1 793 0 discriminator 1
 724 005c 01AB     		add	r3, sp, #4
 725 005e 9B78     		ldrb	r3, [r3, #2]
 792:Generated_Source\PSoC4/ble_uds.c ****             locCharValue.charIndex < CYBLE_UDS_CHAR_COUNT; 
 726              		.loc 1 792 0 discriminator 1
 727 0060 1E2B     		cmp	r3, #30
 728 0062 DCD9     		bls	.L60
 729              	.L53:
 730              	.LBE8:
 814:Generated_Source\PSoC4/ble_uds.c ****             }
 815:Generated_Source\PSoC4/ble_uds.c ****         }
 816:Generated_Source\PSoC4/ble_uds.c ****     }
 817:Generated_Source\PSoC4/ble_uds.c **** }
 731              		.loc 1 817 0
 732 0064 04B0     		add	sp, sp, #16
 733              		@ sp needed
 734              	.LVL58:
 735 0066 70BD     		pop	{r4, r5, r6, pc}
 736              	.L62:
 737              		.align	2
 738              	.L61:
 739 0068 00000000 		.word	.LANCHOR0
 740 006c 00000000 		.word	.LANCHOR1
 741 0070 07020000 		.word	519
 742 0074 00000000 		.word	cyBle_eventHandlerFlag
 743              		.cfi_endproc
 744              	.LFE10:
 745              		.size	CyBle_UdssReadRequestEventHandler, .-CyBle_UdssReadRequestEventHandler
 746              		.section	.text.CyBle_UdssWriteEventHandler,"ax",%progbits
 747              		.align	2
 748              		.global	CyBle_UdssWriteEventHandler
 749              		.code	16
 750              		.thumb_func
 751              		.type	CyBle_UdssWriteEventHandler, %function
 752              	CyBle_UdssWriteEventHandler:
 753              	.LFB11:
 818:Generated_Source\PSoC4/ble_uds.c **** 
 819:Generated_Source\PSoC4/ble_uds.c **** 
 820:Generated_Source\PSoC4/ble_uds.c **** /******************************************************************************
 821:Generated_Source\PSoC4/ble_uds.c **** * Function Name: CyBle_UdssWriteEventHandler
 822:Generated_Source\PSoC4/ble_uds.c **** ***************************************************************************//**
 823:Generated_Source\PSoC4/ble_uds.c **** * 
 824:Generated_Source\PSoC4/ble_uds.c **** *  Handles the Write Request Event.
 825:Generated_Source\PSoC4/ble_uds.c **** * 
 826:Generated_Source\PSoC4/ble_uds.c **** *  \param eventParam: The pointer to the data structure specified by the event.
ARM GAS  C:\Users\310309~1\AppData\Local\Temp\cckEzWOW.s 			page 29


 827:Generated_Source\PSoC4/ble_uds.c **** * 
 828:Generated_Source\PSoC4/ble_uds.c **** * \return
 829:Generated_Source\PSoC4/ble_uds.c **** *  CYBLE_GATT_ERR_CODE_T - An API result state if the API succeeded
 830:Generated_Source\PSoC4/ble_uds.c **** *  (CYBLE_GATT_ERR_NONE) or failed with error codes:
 831:Generated_Source\PSoC4/ble_uds.c **** *   * CYBLE_GATTS_ERR_PROCEDURE_ALREADY_IN_PROGRESS
 832:Generated_Source\PSoC4/ble_uds.c **** *   * CYBLE_GATTS_ERR_CCCD_IMPROPERLY_CONFIGURED
 833:Generated_Source\PSoC4/ble_uds.c **** * 
 834:Generated_Source\PSoC4/ble_uds.c **** ******************************************************************************/
 835:Generated_Source\PSoC4/ble_uds.c **** CYBLE_GATT_ERR_CODE_T CyBle_UdssWriteEventHandler(CYBLE_GATTS_WRITE_REQ_PARAM_T *eventParam)
 836:Generated_Source\PSoC4/ble_uds.c **** {
 754              		.loc 1 836 0
 755              		.cfi_startproc
 756              		@ args = 0, pretend = 0, frame = 16
 757              		@ frame_needed = 0, uses_anonymous_args = 0
 758              	.LVL59:
 759 0000 30B5     		push	{r4, r5, lr}
 760              		.cfi_def_cfa_offset 12
 761              		.cfi_offset 4, -12
 762              		.cfi_offset 5, -8
 763              		.cfi_offset 14, -4
 764 0002 85B0     		sub	sp, sp, #20
 765              		.cfi_def_cfa_offset 32
 766 0004 0400     		movs	r4, r0
 767              	.LVL60:
 837:Generated_Source\PSoC4/ble_uds.c ****     CYBLE_GATT_ERR_CODE_T gattErr = CYBLE_GATT_ERR_NONE;
 838:Generated_Source\PSoC4/ble_uds.c ****     
 839:Generated_Source\PSoC4/ble_uds.c ****     if(NULL != CyBle_UdsApplCallback)
 768              		.loc 1 839 0
 769 0006 624B     		ldr	r3, .L85
 770 0008 5B68     		ldr	r3, [r3, #4]
 771 000a 002B     		cmp	r3, #0
 772 000c 00D1     		bne	.LCB723
 773 000e BAE0     		b	.L77	@long jump
 774              	.LCB723:
 775              	.LBB9:
 840:Generated_Source\PSoC4/ble_uds.c ****     {
 841:Generated_Source\PSoC4/ble_uds.c **** 	    CYBLE_UDS_CHAR_VALUE_T locCharValue;
 842:Generated_Source\PSoC4/ble_uds.c ****         locCharValue.connHandle = eventParam->connHandle;
 776              		.loc 1 842 0
 777 0010 01AB     		add	r3, sp, #4
 778 0012 0288     		ldrh	r2, [r0]
 779 0014 1A80     		strh	r2, [r3]
 843:Generated_Source\PSoC4/ble_uds.c ****         locCharValue.gattErrorCode = CYBLE_GATT_ERR_NONE;
 780              		.loc 1 843 0
 781 0016 0022     		movs	r2, #0
 782 0018 1A72     		strb	r2, [r3, #8]
 844:Generated_Source\PSoC4/ble_uds.c **** 	
 845:Generated_Source\PSoC4/ble_uds.c **** 	    if((eventParam->handleValPair.attrHandle == cyBle_udss.charInfo[CYBLE_UDS_DCI].descrHandle[CYB
 783              		.loc 1 845 0
 784 001a 8089     		ldrh	r0, [r0, #12]
 785              	.LVL61:
 786 001c 8928     		cmp	r0, #137
 787 001e 01D0     		beq	.L65
 788              		.loc 1 845 0 is_stmt 0 discriminator 1
 789 0020 8E28     		cmp	r0, #142
 790 0022 36D1     		bne	.L66
 791              	.L65:
ARM GAS  C:\Users\310309~1\AppData\Local\Temp\cckEzWOW.s 			page 30


 846:Generated_Source\PSoC4/ble_uds.c ****            (eventParam->handleValPair.attrHandle == cyBle_udss.charInfo[CYBLE_UDS_UCP].descrHandle[
 847:Generated_Source\PSoC4/ble_uds.c **** 	    {
 848:Generated_Source\PSoC4/ble_uds.c ****             locCharValue.value = NULL;
 792              		.loc 1 848 0 is_stmt 1
 793 0024 0023     		movs	r3, #0
 794 0026 0293     		str	r3, [sp, #8]
 849:Generated_Source\PSoC4/ble_uds.c ****             gattErr = CyBle_GattsWriteAttributeValue(&eventParam->handleValPair,
 795              		.loc 1 849 0
 796 0028 201D     		adds	r0, r4, #4
 797 002a 4033     		adds	r3, r3, #64
 798 002c 2200     		movs	r2, r4
 799 002e 0021     		movs	r1, #0
 800 0030 FFF7FEFF 		bl	CyBle_GattsWriteAttributeValue
 801              	.LVL62:
 802 0034 051E     		subs	r5, r0, #0
 803              	.LVL63:
 850:Generated_Source\PSoC4/ble_uds.c ****                          0u, &eventParam->connHandle, CYBLE_GATT_DB_PEER_INITIATED);
 851:Generated_Source\PSoC4/ble_uds.c ****             
 852:Generated_Source\PSoC4/ble_uds.c ****             if(gattErr == CYBLE_GATT_ERR_NONE)
 804              		.loc 1 852 0
 805 0036 1DD1     		bne	.L67
 806              	.LBB10:
 853:Generated_Source\PSoC4/ble_uds.c ****             {
 854:Generated_Source\PSoC4/ble_uds.c ****                 uint32 eventCode;
 855:Generated_Source\PSoC4/ble_uds.c ****                 
 856:Generated_Source\PSoC4/ble_uds.c ****                 if(eventParam->handleValPair.attrHandle == cyBle_udss.charInfo[CYBLE_UDS_DCI].descr
 807              		.loc 1 856 0
 808 0038 A389     		ldrh	r3, [r4, #12]
 809 003a 892B     		cmp	r3, #137
 810 003c 09D1     		bne	.L68
 857:Generated_Source\PSoC4/ble_uds.c ****                 {
 858:Generated_Source\PSoC4/ble_uds.c ****                     locCharValue.charIndex = CYBLE_UDS_DCI;
 811              		.loc 1 858 0
 812 003e 1B22     		movs	r2, #27
 813 0040 01AB     		add	r3, sp, #4
 814 0042 9A70     		strb	r2, [r3, #2]
 859:Generated_Source\PSoC4/ble_uds.c ****                     
 860:Generated_Source\PSoC4/ble_uds.c ****                     if(CYBLE_IS_NOTIFICATION_ENABLED_IN_PTR(eventParam->handleValPair.value.val))
 815              		.loc 1 860 0
 816 0044 6068     		ldr	r0, [r4, #4]
 817              	.LVL64:
 818 0046 FFF7FEFF 		bl	CyBle_Get16ByPtr
 819              	.LVL65:
 820 004a C307     		lsls	r3, r0, #31
 821 004c 0BD5     		bpl	.L78
 861:Generated_Source\PSoC4/ble_uds.c ****                     {
 862:Generated_Source\PSoC4/ble_uds.c ****                         eventCode = (uint32) CYBLE_EVT_UDSS_NOTIFICATION_ENABLED;
 822              		.loc 1 862 0
 823 004e 5148     		ldr	r0, .L85+4
 824 0050 0CE0     		b	.L69
 825              	.LVL66:
 826              	.L68:
 863:Generated_Source\PSoC4/ble_uds.c ****                     }
 864:Generated_Source\PSoC4/ble_uds.c ****                     else
 865:Generated_Source\PSoC4/ble_uds.c ****                     {
 866:Generated_Source\PSoC4/ble_uds.c ****                         eventCode = (uint32) CYBLE_EVT_UDSS_NOTIFICATION_DISABLED;
 867:Generated_Source\PSoC4/ble_uds.c ****                     }
ARM GAS  C:\Users\310309~1\AppData\Local\Temp\cckEzWOW.s 			page 31


 868:Generated_Source\PSoC4/ble_uds.c ****                 }
 869:Generated_Source\PSoC4/ble_uds.c ****                 else
 870:Generated_Source\PSoC4/ble_uds.c ****                 {
 871:Generated_Source\PSoC4/ble_uds.c ****                     locCharValue.charIndex = CYBLE_UDS_UCP;
 827              		.loc 1 871 0
 828 0052 1D22     		movs	r2, #29
 829 0054 01AB     		add	r3, sp, #4
 830 0056 9A70     		strb	r2, [r3, #2]
 872:Generated_Source\PSoC4/ble_uds.c ****                     
 873:Generated_Source\PSoC4/ble_uds.c ****                     if(CYBLE_IS_INDICATION_ENABLED_IN_PTR(eventParam->handleValPair.value.val))
 831              		.loc 1 873 0
 832 0058 6068     		ldr	r0, [r4, #4]
 833              	.LVL67:
 834 005a FFF7FEFF 		bl	CyBle_Get16ByPtr
 835              	.LVL68:
 836 005e 8307     		lsls	r3, r0, #30
 837 0060 03D5     		bpl	.L79
 874:Generated_Source\PSoC4/ble_uds.c ****                     {
 875:Generated_Source\PSoC4/ble_uds.c ****                         eventCode = (uint32) CYBLE_EVT_UDSS_INDICATION_ENABLED;
 838              		.loc 1 875 0
 839 0062 4D48     		ldr	r0, .L85+8
 840 0064 02E0     		b	.L69
 841              	.L78:
 866:Generated_Source\PSoC4/ble_uds.c ****                     }
 842              		.loc 1 866 0
 843 0066 4D48     		ldr	r0, .L85+12
 844 0068 00E0     		b	.L69
 845              	.L79:
 876:Generated_Source\PSoC4/ble_uds.c ****                     }
 877:Generated_Source\PSoC4/ble_uds.c ****                     else
 878:Generated_Source\PSoC4/ble_uds.c ****                     {
 879:Generated_Source\PSoC4/ble_uds.c ****                         eventCode = (uint32) CYBLE_EVT_UDSS_INDICATION_DISABLED;
 846              		.loc 1 879 0
 847 006a 4D48     		ldr	r0, .L85+16
 848              	.L69:
 849              	.LVL69:
 880:Generated_Source\PSoC4/ble_uds.c ****                     }
 881:Generated_Source\PSoC4/ble_uds.c ****                 }
 882:Generated_Source\PSoC4/ble_uds.c ****                 
 883:Generated_Source\PSoC4/ble_uds.c ****                 CyBle_UdsApplCallback(eventCode, &locCharValue);
 850              		.loc 1 883 0
 851 006c 484B     		ldr	r3, .L85
 852 006e 5B68     		ldr	r3, [r3, #4]
 853 0070 01A9     		add	r1, sp, #4
 854 0072 9847     		blx	r3
 855              	.LVL70:
 856              	.L67:
 857              	.LBE10:
 884:Generated_Source\PSoC4/ble_uds.c ****             }
 885:Generated_Source\PSoC4/ble_uds.c **** 
 886:Generated_Source\PSoC4/ble_uds.c ****         #if((CYBLE_GAP_ROLE_PERIPHERAL || CYBLE_GAP_ROLE_CENTRAL) && \
 887:Generated_Source\PSoC4/ble_uds.c ****             (CYBLE_BONDING_REQUIREMENT == CYBLE_BONDING_YES))
 888:Generated_Source\PSoC4/ble_uds.c ****             /* Set flag to store bonding data to flash */
 889:Generated_Source\PSoC4/ble_uds.c ****             if(cyBle_peerBonding == CYBLE_GAP_BONDING)
 858              		.loc 1 889 0
 859 0074 4B4B     		ldr	r3, .L85+20
 860 0076 1B78     		ldrb	r3, [r3]
ARM GAS  C:\Users\310309~1\AppData\Local\Temp\cckEzWOW.s 			page 32


 861 0078 012B     		cmp	r3, #1
 862 007a 04D1     		bne	.L70
 890:Generated_Source\PSoC4/ble_uds.c ****             {
 891:Generated_Source\PSoC4/ble_uds.c ****                 cyBle_pendingFlashWrite |= CYBLE_PENDING_CCCD_FLASH_WRITE_BIT;
 863              		.loc 1 891 0
 864 007c 4A4A     		ldr	r2, .L85+24
 865 007e 1178     		ldrb	r1, [r2]
 866 0080 0223     		movs	r3, #2
 867 0082 0B43     		orrs	r3, r1
 868 0084 1370     		strb	r3, [r2]
 869              	.L70:
 892:Generated_Source\PSoC4/ble_uds.c ****             }
 893:Generated_Source\PSoC4/ble_uds.c ****         #endif /* (CYBLE_BONDING_REQUIREMENT == CYBLE_BONDING_YES) */
 894:Generated_Source\PSoC4/ble_uds.c **** 			    
 895:Generated_Source\PSoC4/ble_uds.c ****             cyBle_eventHandlerFlag &= (uint8)~CYBLE_CALLBACK;
 870              		.loc 1 895 0
 871 0086 494A     		ldr	r2, .L85+28
 872 0088 1378     		ldrb	r3, [r2]
 873 008a 0121     		movs	r1, #1
 874 008c 8B43     		bics	r3, r1
 875 008e 1370     		strb	r3, [r2]
 876 0090 7AE0     		b	.L64
 877              	.LVL71:
 878              	.L66:
 896:Generated_Source\PSoC4/ble_uds.c ****         }
 897:Generated_Source\PSoC4/ble_uds.c **** 	    else
 898:Generated_Source\PSoC4/ble_uds.c ****         {
 899:Generated_Source\PSoC4/ble_uds.c ****             for(locCharValue.charIndex = CYBLE_UDS_FNM; 
 879              		.loc 1 899 0
 880 0092 0022     		movs	r2, #0
 881 0094 01AB     		add	r3, sp, #4
 882 0096 9A70     		strb	r2, [r3, #2]
 883 0098 6FE0     		b	.L72
 884              	.L76:
 900:Generated_Source\PSoC4/ble_uds.c ****                 locCharValue.charIndex < CYBLE_UDS_CHAR_COUNT; 
 901:Generated_Source\PSoC4/ble_uds.c ****                 locCharValue.charIndex++)
 902:Generated_Source\PSoC4/ble_uds.c **** 	        {
 903:Generated_Source\PSoC4/ble_uds.c ****                 if(eventParam->handleValPair.attrHandle == cyBle_udss.charInfo[locCharValue.charInd
 885              		.loc 1 903 0
 886 009a 9300     		lsls	r3, r2, #2
 887 009c 4449     		ldr	r1, .L85+32
 888 009e CB18     		adds	r3, r1, r3
 889 00a0 5B88     		ldrh	r3, [r3, #2]
 890 00a2 9842     		cmp	r0, r3
 891 00a4 66D1     		bne	.L73
 904:Generated_Source\PSoC4/ble_uds.c **** 	            {
 905:Generated_Source\PSoC4/ble_uds.c **** 	                gattErr = CyBle_GattDbCheckPermission(eventParam->handleValPair.attrHandle, 
 892              		.loc 1 905 0
 893 00a6 4222     		movs	r2, #66
 894 00a8 2100     		movs	r1, r4
 895 00aa FFF7FEFF 		bl	CyBle_GattDbCheckPermission
 896              	.LVL72:
 897 00ae 051E     		subs	r5, r0, #0
 898              	.LVL73:
 906:Generated_Source\PSoC4/ble_uds.c ****                                                          &eventParam->connHandle,
 907:Generated_Source\PSoC4/ble_uds.c ****                                                          CYBLE_GATT_DB_WRITE | CYBLE_GATT_DB_PEER_I
 908:Generated_Source\PSoC4/ble_uds.c ****                     
ARM GAS  C:\Users\310309~1\AppData\Local\Temp\cckEzWOW.s 			page 33


 909:Generated_Source\PSoC4/ble_uds.c ****                     if((gattErr == CYBLE_GATT_ERR_NONE) && (locCharValue.charIndex == CYBLE_UDS_UCP
 899              		.loc 1 909 0
 900 00b0 13D1     		bne	.L74
 901              		.loc 1 909 0 is_stmt 0 discriminator 1
 902 00b2 01AB     		add	r3, sp, #4
 903 00b4 9B78     		ldrb	r3, [r3, #2]
 904 00b6 1D2B     		cmp	r3, #29
 905 00b8 0FD1     		bne	.L74
 910:Generated_Source\PSoC4/ble_uds.c ****                     {
 911:Generated_Source\PSoC4/ble_uds.c ****                         if(CYBLE_UDS_IS_PROCEDURE_IN_PROGRESS)
 906              		.loc 1 911 0 is_stmt 1
 907 00ba 3E4B     		ldr	r3, .L85+36
 908 00bc 1B78     		ldrb	r3, [r3]
 909 00be DB07     		lsls	r3, r3, #31
 910 00c0 08D4     		bmi	.L80
 912:Generated_Source\PSoC4/ble_uds.c ****                         {
 913:Generated_Source\PSoC4/ble_uds.c ****                             gattErr = CYBLE_GATT_ERR_PROCEDURE_ALREADY_IN_PROGRESS;
 914:Generated_Source\PSoC4/ble_uds.c ****                         }
 915:Generated_Source\PSoC4/ble_uds.c ****                         else if(!CYBLE_IS_INDICATION_ENABLED(cyBle_udss.charInfo[CYBLE_UDS_UCP].
 911              		.loc 1 915 0
 912 00c2 3D4B     		ldr	r3, .L85+40
 913 00c4 3D4A     		ldr	r2, .L85+44
 914 00c6 D358     		ldr	r3, [r2, r3]
 915 00c8 5868     		ldr	r0, [r3, #4]
 916              	.LVL74:
 917 00ca FFF7FEFF 		bl	CyBle_Get16ByPtr
 918              	.LVL75:
 919 00ce 8307     		lsls	r3, r0, #30
 920 00d0 02D5     		bpl	.L81
 921 00d2 02E0     		b	.L74
 922              	.LVL76:
 923              	.L80:
 913:Generated_Source\PSoC4/ble_uds.c ****                         }
 924              		.loc 1 913 0
 925 00d4 FE25     		movs	r5, #254
 926 00d6 00E0     		b	.L74
 927              	.LVL77:
 928              	.L81:
 916:Generated_Source\PSoC4/ble_uds.c ****                                                                      descrHandle[CYBLE_UDS_CCCD]))
 917:Generated_Source\PSoC4/ble_uds.c ****                         {
 918:Generated_Source\PSoC4/ble_uds.c ****                             gattErr = CYBLE_GATT_ERR_CCCD_IMPROPERLY_CONFIGURED;
 929              		.loc 1 918 0
 930 00d8 FD25     		movs	r5, #253
 931              	.LVL78:
 932              	.L74:
 919:Generated_Source\PSoC4/ble_uds.c ****                         }
 920:Generated_Source\PSoC4/ble_uds.c ****                         else
 921:Generated_Source\PSoC4/ble_uds.c ****                         {
 922:Generated_Source\PSoC4/ble_uds.c ****                         }
 923:Generated_Source\PSoC4/ble_uds.c ****                     }
 924:Generated_Source\PSoC4/ble_uds.c ****                     
 925:Generated_Source\PSoC4/ble_uds.c ****                     if(gattErr == CYBLE_GATT_ERR_NONE)
 933              		.loc 1 925 0
 934 00da 002D     		cmp	r5, #0
 935 00dc 44D1     		bne	.L75
 926:Generated_Source\PSoC4/ble_uds.c ****                     {
 927:Generated_Source\PSoC4/ble_uds.c ****                         locCharValue.value = &eventParam->handleValPair.value;
ARM GAS  C:\Users\310309~1\AppData\Local\Temp\cckEzWOW.s 			page 34


 936              		.loc 1 927 0
 937 00de 231D     		adds	r3, r4, #4
 938 00e0 0293     		str	r3, [sp, #8]
 928:Generated_Source\PSoC4/ble_uds.c ****                         
 929:Generated_Source\PSoC4/ble_uds.c ****                         if(!CYBLE_GATT_DB_ATTR_CHECK_PRPTY(eventParam->handleValPair.attrHandle, CY
 939              		.loc 1 929 0
 940 00e2 A389     		ldrh	r3, [r4, #12]
 941 00e4 013B     		subs	r3, r3, #1
 942 00e6 9900     		lsls	r1, r3, #2
 943 00e8 C918     		adds	r1, r1, r3
 944 00ea 8A00     		lsls	r2, r1, #2
 945 00ec 3349     		ldr	r1, .L85+44
 946 00ee 8A18     		adds	r2, r1, r2
 947 00f0 5268     		ldr	r2, [r2, #4]
 948 00f2 1203     		lsls	r2, r2, #12
 949 00f4 33D5     		bpl	.L82
 930:Generated_Source\PSoC4/ble_uds.c ****                         {
 931:Generated_Source\PSoC4/ble_uds.c ****                             gattErr = CYBLE_GATT_ERR_WRITE_NOT_PERMITTED;
 932:Generated_Source\PSoC4/ble_uds.c ****                         }
 933:Generated_Source\PSoC4/ble_uds.c ****                         else if(eventParam->handleValPair.value.len > CYBLE_GATT_DB_ATTR_GET_ATTR_G
 950              		.loc 1 933 0
 951 00f6 2189     		ldrh	r1, [r4, #8]
 952 00f8 9A00     		lsls	r2, r3, #2
 953 00fa D318     		adds	r3, r2, r3
 954 00fc 9A00     		lsls	r2, r3, #2
 955 00fe 2F4B     		ldr	r3, .L85+44
 956 0100 9A18     		adds	r2, r3, r2
 957 0102 9389     		ldrh	r3, [r2, #12]
 958 0104 9942     		cmp	r1, r3
 959 0106 2CD8     		bhi	.L83
 934:Generated_Source\PSoC4/ble_uds.c ****                         {
 935:Generated_Source\PSoC4/ble_uds.c ****                             gattErr = CYBLE_GATT_ERR_INVALID_ATTRIBUTE_LEN;   
 936:Generated_Source\PSoC4/ble_uds.c ****                         }
 937:Generated_Source\PSoC4/ble_uds.c ****                         else
 938:Generated_Source\PSoC4/ble_uds.c ****                         {
 939:Generated_Source\PSoC4/ble_uds.c ****                             CyBle_UdsApplCallback((uint32)CYBLE_EVT_UDSS_WRITE_CHAR, &locCharValue)
 960              		.loc 1 939 0
 961 0108 01AD     		add	r5, sp, #4
 962              	.LVL79:
 963 010a 214B     		ldr	r3, .L85
 964 010c 5B68     		ldr	r3, [r3, #4]
 965 010e 2900     		movs	r1, r5
 966 0110 8220     		movs	r0, #130
 967 0112 8000     		lsls	r0, r0, #2
 968 0114 9847     		blx	r3
 969              	.LVL80:
 940:Generated_Source\PSoC4/ble_uds.c ****                             
 941:Generated_Source\PSoC4/ble_uds.c ****                             if(locCharValue.gattErrorCode == CYBLE_GATT_ERR_USER_DATA_ACCESS_NOT_PE
 970              		.loc 1 941 0
 971 0116 2B7A     		ldrb	r3, [r5, #8]
 972 0118 802B     		cmp	r3, #128
 973 011a 24D0     		beq	.L84
 942:Generated_Source\PSoC4/ble_uds.c ****             	            {
 943:Generated_Source\PSoC4/ble_uds.c ****                                 gattErr = CYBLE_GATT_ERR_USER_DATA_ACCESS_NOT_PERMITTED;
 944:Generated_Source\PSoC4/ble_uds.c ****                             }
 945:Generated_Source\PSoC4/ble_uds.c ****                             else
 946:Generated_Source\PSoC4/ble_uds.c ****                             {
ARM GAS  C:\Users\310309~1\AppData\Local\Temp\cckEzWOW.s 			page 35


 947:Generated_Source\PSoC4/ble_uds.c ****                                 gattErr = CyBle_GattsWriteAttributeValue(&eventParam->handleValPair
 974              		.loc 1 947 0
 975 011c 201D     		adds	r0, r4, #4
 976 011e 4023     		movs	r3, #64
 977 0120 2200     		movs	r2, r4
 978 0122 0021     		movs	r1, #0
 979 0124 FFF7FEFF 		bl	CyBle_GattsWriteAttributeValue
 980              	.LVL81:
 981 0128 051E     		subs	r5, r0, #0
 982              	.LVL82:
 948:Generated_Source\PSoC4/ble_uds.c ****             	                      0u, &eventParam->connHandle, CYBLE_GATT_DB_PEER_INITIATED);
 949:Generated_Source\PSoC4/ble_uds.c ****                     
 950:Generated_Source\PSoC4/ble_uds.c ****                                 if(gattErr == CYBLE_GATT_ERR_NONE)
 983              		.loc 1 950 0
 984 012a 1DD1     		bne	.L75
 951:Generated_Source\PSoC4/ble_uds.c ****                     	        {
 952:Generated_Source\PSoC4/ble_uds.c ****                                     CYBLE_GATT_DB_ATTR_SET_ATTR_GEN_LEN
 985              		.loc 1 952 0
 986 012c 01AA     		add	r2, sp, #4
 987 012e 9378     		ldrb	r3, [r2, #2]
 988 0130 9B00     		lsls	r3, r3, #2
 989 0132 1F49     		ldr	r1, .L85+32
 990 0134 CB18     		adds	r3, r1, r3
 991 0136 5B88     		ldrh	r3, [r3, #2]
 992 0138 013B     		subs	r3, r3, #1
 993 013a 9900     		lsls	r1, r3, #2
 994 013c CB18     		adds	r3, r1, r3
 995 013e 9900     		lsls	r1, r3, #2
 996 0140 1E4B     		ldr	r3, .L85+44
 997 0142 5918     		adds	r1, r3, r1
 998 0144 0B69     		ldr	r3, [r1, #16]
 999 0146 0299     		ldr	r1, [sp, #8]
 1000 0148 8988     		ldrh	r1, [r1, #4]
 1001 014a 1980     		strh	r1, [r3]
 953:Generated_Source\PSoC4/ble_uds.c ****                                         (cyBle_udss.charInfo[locCharValue.charIndex].charHandle,
 954:Generated_Source\PSoC4/ble_uds.c ****                                             locCharValue.value->len);
 955:Generated_Source\PSoC4/ble_uds.c ****                                     
 956:Generated_Source\PSoC4/ble_uds.c ****                                     if(locCharValue.charIndex == CYBLE_UDS_UCP)
 1002              		.loc 1 956 0
 1003 014c 9378     		ldrb	r3, [r2, #2]
 1004 014e 1D2B     		cmp	r3, #29
 1005 0150 0AD1     		bne	.L75
 957:Generated_Source\PSoC4/ble_uds.c ****                                     {
 958:Generated_Source\PSoC4/ble_uds.c ****                                         cyBle_udsFlag |= CYBLE_UDS_FLAG_PROCESS;
 1006              		.loc 1 958 0
 1007 0152 184A     		ldr	r2, .L85+36
 1008 0154 1178     		ldrb	r1, [r2]
 1009 0156 0123     		movs	r3, #1
 1010 0158 0B43     		orrs	r3, r1
 1011 015a 1370     		strb	r3, [r2]
 1012 015c 04E0     		b	.L75
 1013              	.LVL83:
 1014              	.L82:
 931:Generated_Source\PSoC4/ble_uds.c ****                         }
 1015              		.loc 1 931 0
 1016 015e 0325     		movs	r5, #3
 1017              	.LVL84:
ARM GAS  C:\Users\310309~1\AppData\Local\Temp\cckEzWOW.s 			page 36


 1018 0160 02E0     		b	.L75
 1019              	.LVL85:
 1020              	.L83:
 935:Generated_Source\PSoC4/ble_uds.c ****                         }
 1021              		.loc 1 935 0
 1022 0162 0D25     		movs	r5, #13
 1023              	.LVL86:
 1024 0164 00E0     		b	.L75
 1025              	.L84:
 943:Generated_Source\PSoC4/ble_uds.c ****                             }
 1026              		.loc 1 943 0
 1027 0166 8025     		movs	r5, #128
 1028              	.L75:
 1029              	.LVL87:
 959:Generated_Source\PSoC4/ble_uds.c ****                                     }
 960:Generated_Source\PSoC4/ble_uds.c ****                     	        }
 961:Generated_Source\PSoC4/ble_uds.c ****                             }
 962:Generated_Source\PSoC4/ble_uds.c ****                         }
 963:Generated_Source\PSoC4/ble_uds.c ****                     }
 964:Generated_Source\PSoC4/ble_uds.c ****                     cyBle_eventHandlerFlag &= (uint8)~CYBLE_CALLBACK;
 1030              		.loc 1 964 0
 1031 0168 104A     		ldr	r2, .L85+28
 1032 016a 1378     		ldrb	r3, [r2]
 1033 016c 0121     		movs	r1, #1
 1034 016e 8B43     		bics	r3, r1
 1035 0170 1370     		strb	r3, [r2]
 965:Generated_Source\PSoC4/ble_uds.c ****                     break;
 1036              		.loc 1 965 0
 1037 0172 09E0     		b	.L64
 1038              	.LVL88:
 1039              	.L73:
 901:Generated_Source\PSoC4/ble_uds.c **** 	        {
 1040              		.loc 1 901 0
 1041 0174 0132     		adds	r2, r2, #1
 1042 0176 01AB     		add	r3, sp, #4
 1043 0178 9A70     		strb	r2, [r3, #2]
 1044              	.L72:
 900:Generated_Source\PSoC4/ble_uds.c ****                 locCharValue.charIndex++)
 1045              		.loc 1 900 0 discriminator 1
 1046 017a 01AB     		add	r3, sp, #4
 1047 017c 9A78     		ldrb	r2, [r3, #2]
 899:Generated_Source\PSoC4/ble_uds.c ****                 locCharValue.charIndex < CYBLE_UDS_CHAR_COUNT; 
 1048              		.loc 1 899 0 discriminator 1
 1049 017e 1E2A     		cmp	r2, #30
 1050 0180 8BD9     		bls	.L76
 1051              	.LBE9:
 837:Generated_Source\PSoC4/ble_uds.c ****     
 1052              		.loc 1 837 0
 1053 0182 0025     		movs	r5, #0
 1054 0184 00E0     		b	.L64
 1055              	.LVL89:
 1056              	.L77:
 1057 0186 0025     		movs	r5, #0
 1058              	.LVL90:
 1059              	.L64:
 966:Generated_Source\PSoC4/ble_uds.c **** 				}
 967:Generated_Source\PSoC4/ble_uds.c ****             }
ARM GAS  C:\Users\310309~1\AppData\Local\Temp\cckEzWOW.s 			page 37


 968:Generated_Source\PSoC4/ble_uds.c ****         }
 969:Generated_Source\PSoC4/ble_uds.c ****     }
 970:Generated_Source\PSoC4/ble_uds.c **** 
 971:Generated_Source\PSoC4/ble_uds.c ****     return (gattErr);
 972:Generated_Source\PSoC4/ble_uds.c **** }
 1060              		.loc 1 972 0
 1061 0188 2800     		movs	r0, r5
 1062 018a 05B0     		add	sp, sp, #20
 1063              		@ sp needed
 1064              	.LVL91:
 1065              	.LVL92:
 1066 018c 30BD     		pop	{r4, r5, pc}
 1067              	.L86:
 1068 018e C046     		.align	2
 1069              	.L85:
 1070 0190 00000000 		.word	.LANCHOR0
 1071 0194 05020000 		.word	517
 1072 0198 02020000 		.word	514
 1073 019c 06020000 		.word	518
 1074 01a0 03020000 		.word	515
 1075 01a4 00000000 		.word	cyBle_peerBonding
 1076 01a8 00000000 		.word	cyBle_pendingFlashWrite
 1077 01ac 00000000 		.word	cyBle_eventHandlerFlag
 1078 01b0 00000000 		.word	.LANCHOR1
 1079 01b4 00000000 		.word	cyBle_udsFlag
 1080 01b8 140B0000 		.word	2836
 1081 01bc 00000000 		.word	cyBle_gattDB
 1082              		.cfi_endproc
 1083              	.LFE11:
 1084              		.size	CyBle_UdssWriteEventHandler, .-CyBle_UdssWriteEventHandler
 1085              		.section	.text.CyBle_UdssPrepareWriteRequestEventHandler,"ax",%progbits
 1086              		.align	2
 1087              		.global	CyBle_UdssPrepareWriteRequestEventHandler
 1088              		.code	16
 1089              		.thumb_func
 1090              		.type	CyBle_UdssPrepareWriteRequestEventHandler, %function
 1091              	CyBle_UdssPrepareWriteRequestEventHandler:
 1092              	.LFB12:
 973:Generated_Source\PSoC4/ble_uds.c **** 
 974:Generated_Source\PSoC4/ble_uds.c **** /****************************************************************************** 
 975:Generated_Source\PSoC4/ble_uds.c **** * Function Name: CyBle_UdssPrepareWriteEventHandler
 976:Generated_Source\PSoC4/ble_uds.c **** ***************************************************************************//**
 977:Generated_Source\PSoC4/ble_uds.c **** * 
 978:Generated_Source\PSoC4/ble_uds.c **** *  Handles the Prepare Write Request Event.
 979:Generated_Source\PSoC4/ble_uds.c **** * 
 980:Generated_Source\PSoC4/ble_uds.c **** *  \param eventParam: The pointer to the data that comes with a prepare 
 981:Generated_Source\PSoC4/ble_uds.c **** *                      write request.
 982:Generated_Source\PSoC4/ble_uds.c **** *                                                  
 983:Generated_Source\PSoC4/ble_uds.c **** * 
 984:Generated_Source\PSoC4/ble_uds.c **** ******************************************************************************/
 985:Generated_Source\PSoC4/ble_uds.c **** void CyBle_UdssPrepareWriteRequestEventHandler(CYBLE_GATTS_PREP_WRITE_REQ_PARAM_T *eventParam)
 986:Generated_Source\PSoC4/ble_uds.c **** {
 1093              		.loc 1 986 0
 1094              		.cfi_startproc
 1095              		@ args = 0, pretend = 0, frame = 8
 1096              		@ frame_needed = 0, uses_anonymous_args = 0
 1097              	.LVL93:
ARM GAS  C:\Users\310309~1\AppData\Local\Temp\cckEzWOW.s 			page 38


 1098 0000 10B5     		push	{r4, lr}
 1099              		.cfi_def_cfa_offset 8
 1100              		.cfi_offset 4, -8
 1101              		.cfi_offset 14, -4
 1102 0002 82B0     		sub	sp, sp, #8
 1103              		.cfi_def_cfa_offset 16
 1104 0004 0400     		movs	r4, r0
 987:Generated_Source\PSoC4/ble_uds.c ****     CYBLE_UDS_CHAR_INDEX_T locCharIndex;
 988:Generated_Source\PSoC4/ble_uds.c ****     uint16 locMtu = CYBLE_GATT_MTU;
 1105              		.loc 1 988 0
 1106 0006 6B46     		mov	r3, sp
 1107 0008 981D     		adds	r0, r3, #6
 1108              	.LVL94:
 1109 000a 1723     		movs	r3, #23
 1110 000c 0380     		strh	r3, [r0]
 989:Generated_Source\PSoC4/ble_uds.c ****     (void) CyBle_GattGetMtuSize(&locMtu);
 1111              		.loc 1 989 0
 1112 000e FFF7FEFF 		bl	CyBle_GattGetMtuSize
 1113              	.LVL95:
 990:Generated_Source\PSoC4/ble_uds.c ****     
 991:Generated_Source\PSoC4/ble_uds.c ****     for(locCharIndex = CYBLE_UDS_FNM; locCharIndex <= CYBLE_UDS_EML; locCharIndex++)
 1114              		.loc 1 991 0
 1115 0012 0022     		movs	r2, #0
 1116 0014 25E0     		b	.L88
 1117              	.LVL96:
 1118              	.L92:
 992:Generated_Source\PSoC4/ble_uds.c ****     {
 993:Generated_Source\PSoC4/ble_uds.c ****         if(eventParam->baseAddr[eventParam->currentPrepWriteReqCount - 1u].handleValuePair.attrHand
 1119              		.loc 1 993 0
 1120 0016 237A     		ldrb	r3, [r4, #8]
 1121 0018 1449     		ldr	r1, .L93
 1122 001a 8C46     		mov	ip, r1
 1123 001c 6344     		add	r3, r3, ip
 1124 001e 1B01     		lsls	r3, r3, #4
 1125 0020 6168     		ldr	r1, [r4, #4]
 1126 0022 8C46     		mov	ip, r1
 1127 0024 6344     		add	r3, r3, ip
 1128 0026 1989     		ldrh	r1, [r3, #8]
 994:Generated_Source\PSoC4/ble_uds.c ****                 cyBle_udss.charInfo[locCharIndex].charHandle)
 1129              		.loc 1 994 0
 1130 0028 9300     		lsls	r3, r2, #2
 1131 002a 1148     		ldr	r0, .L93+4
 1132 002c C318     		adds	r3, r0, r3
 1133 002e 5B88     		ldrh	r3, [r3, #2]
 993:Generated_Source\PSoC4/ble_uds.c ****                 cyBle_udss.charInfo[locCharIndex].charHandle)
 1134              		.loc 1 993 0
 1135 0030 9942     		cmp	r1, r3
 1136 0032 14D1     		bne	.L89
 995:Generated_Source\PSoC4/ble_uds.c ****         {
 996:Generated_Source\PSoC4/ble_uds.c ****             if(CYBLE_GATT_DB_ATTR_GET_ATTR_GEN_MAX_LEN(cyBle_udss.charInfo[locCharIndex].charHandle
 1137              		.loc 1 996 0
 1138 0034 013B     		subs	r3, r3, #1
 1139 0036 9A00     		lsls	r2, r3, #2
 1140              	.LVL97:
 1141 0038 D318     		adds	r3, r2, r3
 1142 003a 9A00     		lsls	r2, r3, #2
 1143 003c 0D4B     		ldr	r3, .L93+8
ARM GAS  C:\Users\310309~1\AppData\Local\Temp\cckEzWOW.s 			page 39


 1144 003e 9A18     		adds	r2, r3, r2
 1145 0040 9289     		ldrh	r2, [r2, #12]
 1146 0042 6B46     		mov	r3, sp
 1147 0044 0633     		adds	r3, r3, #6
 1148 0046 1B88     		ldrh	r3, [r3]
 1149 0048 033B     		subs	r3, r3, #3
 1150 004a 9A42     		cmp	r2, r3
 1151 004c 01D8     		bhi	.L90
 997:Generated_Source\PSoC4/ble_uds.c ****             {   
 998:Generated_Source\PSoC4/ble_uds.c ****                 #ifdef ATT_QUEUED_WRITE_SUPPORT
 999:Generated_Source\PSoC4/ble_uds.c ****                     if(eventParam->currentPrepWriteReqCount == CYBLE_GATTS_FIRST_PREP_WRITE_REQ)
1000:Generated_Source\PSoC4/ble_uds.c ****                     {
1001:Generated_Source\PSoC4/ble_uds.c ****                         CyBle_GattsPrepWriteReqSupport(CYBLE_GATTS_PREP_WRITE_SUPPORT);
1002:Generated_Source\PSoC4/ble_uds.c ****                     }
1003:Generated_Source\PSoC4/ble_uds.c ****                 #endif /* ATT_QUEUED_WRITE_SUPPORT */
1004:Generated_Source\PSoC4/ble_uds.c ****             } 
1005:Generated_Source\PSoC4/ble_uds.c ****             else
1006:Generated_Source\PSoC4/ble_uds.c ****             {
1007:Generated_Source\PSoC4/ble_uds.c ****                 eventParam->gattErrorCode = CYBLE_GATT_ERR_ATTRIBUTE_NOT_LONG;
 1152              		.loc 1 1007 0
 1153 004e 0B23     		movs	r3, #11
 1154 0050 6372     		strb	r3, [r4, #9]
 1155              	.L90:
1008:Generated_Source\PSoC4/ble_uds.c ****             }
1009:Generated_Source\PSoC4/ble_uds.c ****             
1010:Generated_Source\PSoC4/ble_uds.c ****             /* Indicate that request was handled */
1011:Generated_Source\PSoC4/ble_uds.c ****             cyBle_eventHandlerFlag &= (uint8)~CYBLE_CALLBACK;
 1156              		.loc 1 1011 0
 1157 0052 094A     		ldr	r2, .L93+12
 1158 0054 1378     		ldrb	r3, [r2]
 1159 0056 0121     		movs	r1, #1
 1160 0058 8B43     		bics	r3, r1
 1161 005a 1370     		strb	r3, [r2]
1012:Generated_Source\PSoC4/ble_uds.c ****             break;
 1162              		.loc 1 1012 0
 1163 005c 03E0     		b	.L87
 1164              	.LVL98:
 1165              	.L89:
 991:Generated_Source\PSoC4/ble_uds.c ****     {
 1166              		.loc 1 991 0 discriminator 2
 1167 005e 0132     		adds	r2, r2, #1
 1168              	.LVL99:
 1169 0060 D2B2     		uxtb	r2, r2
 1170              	.LVL100:
 1171              	.L88:
 991:Generated_Source\PSoC4/ble_uds.c ****     {
 1172              		.loc 1 991 0 is_stmt 0 discriminator 1
 1173 0062 022A     		cmp	r2, #2
 1174 0064 D7D9     		bls	.L92
 1175              	.LVL101:
 1176              	.L87:
1013:Generated_Source\PSoC4/ble_uds.c ****         }
1014:Generated_Source\PSoC4/ble_uds.c ****     }
1015:Generated_Source\PSoC4/ble_uds.c **** }
 1177              		.loc 1 1015 0 is_stmt 1
 1178 0066 02B0     		add	sp, sp, #8
 1179              		@ sp needed
ARM GAS  C:\Users\310309~1\AppData\Local\Temp\cckEzWOW.s 			page 40


 1180              	.LVL102:
 1181 0068 10BD     		pop	{r4, pc}
 1182              	.L94:
 1183 006a C046     		.align	2
 1184              	.L93:
 1185 006c FFFFFF0F 		.word	268435455
 1186 0070 00000000 		.word	.LANCHOR1
 1187 0074 00000000 		.word	cyBle_gattDB
 1188 0078 00000000 		.word	cyBle_eventHandlerFlag
 1189              		.cfi_endproc
 1190              	.LFE12:
 1191              		.size	CyBle_UdssPrepareWriteRequestEventHandler, .-CyBle_UdssPrepareWriteRequestEventHandler
 1192              		.section	.text.CyBle_UdssExecuteWriteRequestEventHandler,"ax",%progbits
 1193              		.align	2
 1194              		.global	CyBle_UdssExecuteWriteRequestEventHandler
 1195              		.code	16
 1196              		.thumb_func
 1197              		.type	CyBle_UdssExecuteWriteRequestEventHandler, %function
 1198              	CyBle_UdssExecuteWriteRequestEventHandler:
 1199              	.LFB13:
1016:Generated_Source\PSoC4/ble_uds.c **** 
1017:Generated_Source\PSoC4/ble_uds.c **** /****************************************************************************** 
1018:Generated_Source\PSoC4/ble_uds.c **** * Function Name: CyBle_UdssExecuteWriteRequestEventHandler
1019:Generated_Source\PSoC4/ble_uds.c **** ***************************************************************************//**
1020:Generated_Source\PSoC4/ble_uds.c **** * 
1021:Generated_Source\PSoC4/ble_uds.c **** *  Handles the Execute Write Request Event.
1022:Generated_Source\PSoC4/ble_uds.c **** * 
1023:Generated_Source\PSoC4/ble_uds.c **** *  \param eventParam: The pointer to the data that came with a write request.
1024:Generated_Source\PSoC4/ble_uds.c **** * 
1025:Generated_Source\PSoC4/ble_uds.c **** ******************************************************************************/
1026:Generated_Source\PSoC4/ble_uds.c **** void CyBle_UdssExecuteWriteRequestEventHandler(CYBLE_GATTS_EXEC_WRITE_REQ_T *eventParam)
1027:Generated_Source\PSoC4/ble_uds.c **** {
 1200              		.loc 1 1027 0
 1201              		.cfi_startproc
 1202              		@ args = 0, pretend = 0, frame = 72
 1203              		@ frame_needed = 0, uses_anonymous_args = 0
 1204              	.LVL103:
 1205 0000 F0B5     		push	{r4, r5, r6, r7, lr}
 1206              		.cfi_def_cfa_offset 20
 1207              		.cfi_offset 4, -20
 1208              		.cfi_offset 5, -16
 1209              		.cfi_offset 6, -12
 1210              		.cfi_offset 7, -8
 1211              		.cfi_offset 14, -4
 1212 0002 4746     		mov	r7, r8
 1213 0004 80B4     		push	{r7}
 1214              		.cfi_def_cfa_offset 24
 1215              		.cfi_offset 8, -24
 1216 0006 92B0     		sub	sp, sp, #72
 1217              		.cfi_def_cfa_offset 96
 1218 0008 0400     		movs	r4, r0
 1219              	.LVL104:
1028:Generated_Source\PSoC4/ble_uds.c ****     uint8 locCount;
1029:Generated_Source\PSoC4/ble_uds.c ****     CYBLE_UDS_CHAR_VALUE_T locCharValue[CYBLE_UDS_LONG_CHAR_COUNT];
1030:Generated_Source\PSoC4/ble_uds.c ****     CYBLE_GATT_VALUE_T locGattValue[CYBLE_UDS_LONG_CHAR_COUNT];
1031:Generated_Source\PSoC4/ble_uds.c ****     CYBLE_UDS_CHAR_INDEX_T locCharIndex;
1032:Generated_Source\PSoC4/ble_uds.c ****     for(locCharIndex = CYBLE_UDS_FNM; locCharIndex <= CYBLE_UDS_EML; locCharIndex++)
ARM GAS  C:\Users\310309~1\AppData\Local\Temp\cckEzWOW.s 			page 41


 1220              		.loc 1 1032 0
 1221 000a 0023     		movs	r3, #0
 1222 000c 07E0     		b	.L96
 1223              	.LVL105:
 1224              	.L97:
1033:Generated_Source\PSoC4/ble_uds.c ****     {
1034:Generated_Source\PSoC4/ble_uds.c ****         locGattValue[locCharIndex].len = 0u;
 1225              		.loc 1 1034 0 discriminator 3
 1226 000e 03AA     		add	r2, sp, #12
 1227 0010 D900     		lsls	r1, r3, #3
 1228 0012 5518     		adds	r5, r2, r1
 1229 0014 0020     		movs	r0, #0
 1230 0016 A880     		strh	r0, [r5, #4]
1035:Generated_Source\PSoC4/ble_uds.c ****         locGattValue[locCharIndex].val = NULL;
 1231              		.loc 1 1035 0 discriminator 3
 1232 0018 8850     		str	r0, [r1, r2]
1032:Generated_Source\PSoC4/ble_uds.c ****     {
 1233              		.loc 1 1032 0 discriminator 3
 1234 001a 0133     		adds	r3, r3, #1
 1235              	.LVL106:
 1236 001c DBB2     		uxtb	r3, r3
 1237              	.LVL107:
 1238              	.L96:
1032:Generated_Source\PSoC4/ble_uds.c ****     {
 1239              		.loc 1 1032 0 is_stmt 0 discriminator 1
 1240 001e 022B     		cmp	r3, #2
 1241 0020 F5D9     		bls	.L97
 1242 0022 0027     		movs	r7, #0
 1243 0024 2DE0     		b	.L98
 1244              	.LVL108:
 1245              	.L101:
1036:Generated_Source\PSoC4/ble_uds.c ****     }
1037:Generated_Source\PSoC4/ble_uds.c ****     
1038:Generated_Source\PSoC4/ble_uds.c ****     for(locCount = 0u; locCount < eventParam->prepWriteReqCount; locCount++)
1039:Generated_Source\PSoC4/ble_uds.c ****     {
1040:Generated_Source\PSoC4/ble_uds.c ****         for(locCharIndex = CYBLE_UDS_FNM; locCharIndex <= CYBLE_UDS_EML; locCharIndex++)
1041:Generated_Source\PSoC4/ble_uds.c ****         {
1042:Generated_Source\PSoC4/ble_uds.c ****             if(eventParam->baseAddr[locCount].handleValuePair.attrHandle ==
 1246              		.loc 1 1042 0 is_stmt 1
 1247 0026 3801     		lsls	r0, r7, #4
 1248 0028 6268     		ldr	r2, [r4, #4]
 1249 002a 1118     		adds	r1, r2, r0
 1250 002c 0E89     		ldrh	r6, [r1, #8]
1043:Generated_Source\PSoC4/ble_uds.c ****                 cyBle_udss.charInfo[locCharIndex].charHandle)
 1251              		.loc 1 1043 0
 1252 002e 0193     		str	r3, [sp, #4]
 1253 0030 9A00     		lsls	r2, r3, #2
 1254 0032 3D4D     		ldr	r5, .L109
 1255 0034 AA18     		adds	r2, r5, r2
 1256 0036 5288     		ldrh	r2, [r2, #2]
1042:Generated_Source\PSoC4/ble_uds.c ****                 cyBle_udss.charInfo[locCharIndex].charHandle)
 1257              		.loc 1 1042 0
 1258 0038 9642     		cmp	r6, r2
 1259 003a 1AD1     		bne	.L99
1044:Generated_Source\PSoC4/ble_uds.c ****             {
1045:Generated_Source\PSoC4/ble_uds.c ****                 locGattValue[locCharIndex].len = eventParam->baseAddr[locCount].offset + 
 1260              		.loc 1 1045 0
ARM GAS  C:\Users\310309~1\AppData\Local\Temp\cckEzWOW.s 			page 42


 1261 003c 8A89     		ldrh	r2, [r1, #12]
 1262 003e 9046     		mov	r8, r2
1046:Generated_Source\PSoC4/ble_uds.c ****                                    eventParam->baseAddr[locCount].handleValuePair.value.len;
 1263              		.loc 1 1046 0
 1264 0040 8A88     		ldrh	r2, [r1, #4]
1045:Generated_Source\PSoC4/ble_uds.c ****                                    eventParam->baseAddr[locCount].handleValuePair.value.len;
 1265              		.loc 1 1045 0
 1266 0042 03A9     		add	r1, sp, #12
 1267 0044 DE00     		lsls	r6, r3, #3
 1268 0046 8D19     		adds	r5, r1, r6
 1269 0048 4244     		add	r2, r2, r8
 1270 004a AA80     		strh	r2, [r5, #4]
1047:Generated_Source\PSoC4/ble_uds.c **** 
1048:Generated_Source\PSoC4/ble_uds.c ****                 if(locGattValue[locCharIndex].val == NULL)
 1271              		.loc 1 1048 0
 1272 004c 7258     		ldr	r2, [r6, r1]
 1273 004e 002A     		cmp	r2, #0
 1274 0050 04D1     		bne	.L100
1049:Generated_Source\PSoC4/ble_uds.c ****                 {
1050:Generated_Source\PSoC4/ble_uds.c ****                     locGattValue[locCharIndex].val = eventParam->baseAddr[locCount].handleValuePair
 1275              		.loc 1 1050 0
 1276 0052 6268     		ldr	r2, [r4, #4]
 1277 0054 1158     		ldr	r1, [r2, r0]
 1278 0056 03AA     		add	r2, sp, #12
 1279 0058 B150     		str	r1, [r6, r2]
 1280 005a 0AE0     		b	.L99
 1281              	.L100:
1051:Generated_Source\PSoC4/ble_uds.c ****                 }
1052:Generated_Source\PSoC4/ble_uds.c ****                 else if(eventParam->baseAddr[locCount].offset == 0u)
 1282              		.loc 1 1052 0
 1283 005c 6268     		ldr	r2, [r4, #4]
 1284 005e 9446     		mov	ip, r2
 1285 0060 6044     		add	r0, r0, ip
 1286 0062 8289     		ldrh	r2, [r0, #12]
 1287 0064 002A     		cmp	r2, #0
 1288 0066 04D1     		bne	.L99
1053:Generated_Source\PSoC4/ble_uds.c ****                 {
1054:Generated_Source\PSoC4/ble_uds.c ****                     /* Case when client wants to rewrite value from beginning */
1055:Generated_Source\PSoC4/ble_uds.c ****                     locGattValue[locCharIndex].val = eventParam->baseAddr[locCount].handleValuePair
 1289              		.loc 1 1055 0
 1290 0068 0168     		ldr	r1, [r0]
 1291 006a 019A     		ldr	r2, [sp, #4]
 1292 006c D500     		lsls	r5, r2, #3
 1293 006e 03AA     		add	r2, sp, #12
 1294 0070 A950     		str	r1, [r5, r2]
 1295              	.L99:
1040:Generated_Source\PSoC4/ble_uds.c ****         {
 1296              		.loc 1 1040 0 discriminator 2
 1297 0072 0133     		adds	r3, r3, #1
 1298              	.LVL109:
 1299 0074 DBB2     		uxtb	r3, r3
 1300              	.LVL110:
 1301 0076 00E0     		b	.L102
 1302              	.LVL111:
 1303              	.L108:
 1304 0078 0023     		movs	r3, #0
 1305              	.L102:
ARM GAS  C:\Users\310309~1\AppData\Local\Temp\cckEzWOW.s 			page 43


 1306              	.LVL112:
1040:Generated_Source\PSoC4/ble_uds.c ****         {
 1307              		.loc 1 1040 0 is_stmt 0 discriminator 1
 1308 007a 022B     		cmp	r3, #2
 1309 007c D3D9     		bls	.L101
1038:Generated_Source\PSoC4/ble_uds.c ****     {
 1310              		.loc 1 1038 0 is_stmt 1 discriminator 2
 1311 007e 0137     		adds	r7, r7, #1
 1312              	.LVL113:
 1313 0080 FFB2     		uxtb	r7, r7
 1314              	.LVL114:
 1315              	.L98:
1038:Generated_Source\PSoC4/ble_uds.c ****     {
 1316              		.loc 1 1038 0 is_stmt 0 discriminator 1
 1317 0082 237A     		ldrb	r3, [r4, #8]
 1318              	.LVL115:
 1319 0084 9F42     		cmp	r7, r3
 1320 0086 F7D3     		bcc	.L108
 1321 0088 0025     		movs	r5, #0
 1322 008a 46E0     		b	.L103
 1323              	.LVL116:
 1324              	.L107:
1056:Generated_Source\PSoC4/ble_uds.c ****                 }
1057:Generated_Source\PSoC4/ble_uds.c ****                 else
1058:Generated_Source\PSoC4/ble_uds.c ****                 {
1059:Generated_Source\PSoC4/ble_uds.c ****                     /* Do nothing */
1060:Generated_Source\PSoC4/ble_uds.c ****                 }
1061:Generated_Source\PSoC4/ble_uds.c ****             }
1062:Generated_Source\PSoC4/ble_uds.c ****         }
1063:Generated_Source\PSoC4/ble_uds.c ****     }
1064:Generated_Source\PSoC4/ble_uds.c ****     
1065:Generated_Source\PSoC4/ble_uds.c ****     for(locCharIndex = CYBLE_UDS_FNM; locCharIndex <= CYBLE_UDS_EML; locCharIndex++)
1066:Generated_Source\PSoC4/ble_uds.c ****     {
1067:Generated_Source\PSoC4/ble_uds.c ****         if((locGattValue[locCharIndex].len != 0u) &&
 1325              		.loc 1 1067 0 is_stmt 1
 1326 008c EB00     		lsls	r3, r5, #3
 1327 008e 03AA     		add	r2, sp, #12
 1328 0090 9446     		mov	ip, r2
 1329 0092 6344     		add	r3, r3, ip
 1330 0094 9A88     		ldrh	r2, [r3, #4]
 1331 0096 002A     		cmp	r2, #0
 1332 0098 3DD0     		beq	.L104
1068:Generated_Source\PSoC4/ble_uds.c ****            (locGattValue[locCharIndex].len <= 
1069:Generated_Source\PSoC4/ble_uds.c ****             CYBLE_GATT_DB_ATTR_GET_ATTR_GEN_MAX_LEN(cyBle_udss.charInfo[locCharIndex].charHandle)))
 1333              		.loc 1 1069 0 discriminator 1
 1334 009a AB00     		lsls	r3, r5, #2
 1335 009c 2249     		ldr	r1, .L109
 1336 009e CB18     		adds	r3, r1, r3
 1337 00a0 5F88     		ldrh	r7, [r3, #2]
 1338 00a2 013F     		subs	r7, r7, #1
 1339 00a4 B900     		lsls	r1, r7, #2
 1340 00a6 C919     		adds	r1, r1, r7
 1341 00a8 8B00     		lsls	r3, r1, #2
 1342 00aa 2049     		ldr	r1, .L109+4
 1343 00ac CB18     		adds	r3, r1, r3
 1344 00ae 9B89     		ldrh	r3, [r3, #12]
1067:Generated_Source\PSoC4/ble_uds.c ****            (locGattValue[locCharIndex].len <= 
ARM GAS  C:\Users\310309~1\AppData\Local\Temp\cckEzWOW.s 			page 44


 1345              		.loc 1 1067 0 discriminator 1
 1346 00b0 9A42     		cmp	r2, r3
 1347 00b2 30D8     		bhi	.L104
1070:Generated_Source\PSoC4/ble_uds.c ****         {
1071:Generated_Source\PSoC4/ble_uds.c ****             /* Check the execWriteFlag before execute or cancel write long operation */
1072:Generated_Source\PSoC4/ble_uds.c ****             if(eventParam->execWriteFlag == CYBLE_GATT_EXECUTE_WRITE_EXEC_FLAG)
 1348              		.loc 1 1072 0
 1349 00b4 637A     		ldrb	r3, [r4, #9]
 1350 00b6 012B     		cmp	r3, #1
 1351 00b8 28D1     		bne	.L105
1073:Generated_Source\PSoC4/ble_uds.c ****             {
1074:Generated_Source\PSoC4/ble_uds.c ****                 locCharValue[locCharIndex].gattErrorCode = CYBLE_GATT_ERR_NONE;
 1352              		.loc 1 1074 0
 1353 00ba 09AA     		add	r2, sp, #36
 1354 00bc 6B00     		lsls	r3, r5, #1
 1355 00be 5819     		adds	r0, r3, r5
 1356 00c0 8100     		lsls	r1, r0, #2
 1357 00c2 8846     		mov	r8, r1
 1358 00c4 9044     		add	r8, r8, r2
 1359 00c6 0021     		movs	r1, #0
 1360 00c8 4046     		mov	r0, r8
 1361 00ca 0172     		strb	r1, [r0, #8]
1075:Generated_Source\PSoC4/ble_uds.c ****                 locCharValue[locCharIndex].connHandle = eventParam->connHandle;
 1362              		.loc 1 1075 0
 1363 00cc 5B19     		adds	r3, r3, r5
 1364 00ce 9900     		lsls	r1, r3, #2
 1365 00d0 2388     		ldrh	r3, [r4]
 1366 00d2 8B52     		strh	r3, [r1, r2]
1076:Generated_Source\PSoC4/ble_uds.c ****                 locCharValue[locCharIndex].charIndex = locCharIndex;
 1367              		.loc 1 1076 0
 1368 00d4 8570     		strb	r5, [r0, #2]
1077:Generated_Source\PSoC4/ble_uds.c ****                 locCharValue[locCharIndex].value = &locGattValue[locCharIndex];
 1369              		.loc 1 1077 0
 1370 00d6 EB00     		lsls	r3, r5, #3
 1371 00d8 6344     		add	r3, r3, ip
 1372 00da 4360     		str	r3, [r0, #4]
1078:Generated_Source\PSoC4/ble_uds.c ****             
1079:Generated_Source\PSoC4/ble_uds.c ****                 CyBle_UdsApplCallback((uint32)CYBLE_EVT_UDSS_WRITE_CHAR, &locCharValue[locCharIndex
 1373              		.loc 1 1079 0
 1374 00dc 144B     		ldr	r3, .L109+8
 1375 00de 5B68     		ldr	r3, [r3, #4]
 1376 00e0 4146     		mov	r1, r8
 1377 00e2 8220     		movs	r0, #130
 1378 00e4 8000     		lsls	r0, r0, #2
 1379 00e6 9847     		blx	r3
 1380              	.LVL117:
1080:Generated_Source\PSoC4/ble_uds.c ****                            
1081:Generated_Source\PSoC4/ble_uds.c ****                 if(locCharValue[locCharIndex].gattErrorCode == CYBLE_GATT_ERR_USER_DATA_ACCESS_NOT_
 1381              		.loc 1 1081 0
 1382 00e8 4346     		mov	r3, r8
 1383 00ea 1B7A     		ldrb	r3, [r3, #8]
 1384 00ec 802B     		cmp	r3, #128
 1385 00ee 01D1     		bne	.L106
1082:Generated_Source\PSoC4/ble_uds.c ****                 {
1083:Generated_Source\PSoC4/ble_uds.c ****                     eventParam->gattErrorCode = CYBLE_GATT_ERR_USER_DATA_ACCESS_NOT_PERMITTED;
 1386              		.loc 1 1083 0
 1387 00f0 2373     		strb	r3, [r4, #12]
ARM GAS  C:\Users\310309~1\AppData\Local\Temp\cckEzWOW.s 			page 45


 1388 00f2 0BE0     		b	.L105
 1389              	.L106:
1084:Generated_Source\PSoC4/ble_uds.c ****                 }
1085:Generated_Source\PSoC4/ble_uds.c ****                 else
1086:Generated_Source\PSoC4/ble_uds.c ****                 {
1087:Generated_Source\PSoC4/ble_uds.c ****                     CYBLE_GATT_DB_ATTR_SET_ATTR_GEN_LEN(cyBle_udss.charInfo[locCharIndex].charHandl
 1390              		.loc 1 1087 0
 1391 00f4 BB00     		lsls	r3, r7, #2
 1392 00f6 DF19     		adds	r7, r3, r7
 1393 00f8 BB00     		lsls	r3, r7, #2
 1394 00fa 0C4A     		ldr	r2, .L109+4
 1395 00fc D318     		adds	r3, r2, r3
 1396 00fe 1B69     		ldr	r3, [r3, #16]
 1397 0100 EE00     		lsls	r6, r5, #3
 1398 0102 03AA     		add	r2, sp, #12
 1399 0104 9446     		mov	ip, r2
 1400 0106 6644     		add	r6, r6, ip
 1401 0108 B288     		ldrh	r2, [r6, #4]
 1402 010a 1A80     		strh	r2, [r3]
 1403              	.L105:
1088:Generated_Source\PSoC4/ble_uds.c ****                                                             locGattValue[locCharIndex].len);    
1089:Generated_Source\PSoC4/ble_uds.c ****                 }
1090:Generated_Source\PSoC4/ble_uds.c ****             }
1091:Generated_Source\PSoC4/ble_uds.c ****             
1092:Generated_Source\PSoC4/ble_uds.c ****             /* Indicate that request was handled */
1093:Generated_Source\PSoC4/ble_uds.c ****             cyBle_eventHandlerFlag &= (uint8)~CYBLE_CALLBACK;
 1404              		.loc 1 1093 0
 1405 010c 094A     		ldr	r2, .L109+12
 1406 010e 1378     		ldrb	r3, [r2]
 1407 0110 0121     		movs	r1, #1
 1408 0112 8B43     		bics	r3, r1
 1409 0114 1370     		strb	r3, [r2]
 1410              	.L104:
1065:Generated_Source\PSoC4/ble_uds.c ****     {
 1411              		.loc 1 1065 0 discriminator 2
 1412 0116 0135     		adds	r5, r5, #1
 1413              	.LVL118:
 1414 0118 EDB2     		uxtb	r5, r5
 1415              	.LVL119:
 1416              	.L103:
1065:Generated_Source\PSoC4/ble_uds.c ****     {
 1417              		.loc 1 1065 0 is_stmt 0 discriminator 1
 1418 011a 022D     		cmp	r5, #2
 1419 011c B6D9     		bls	.L107
1094:Generated_Source\PSoC4/ble_uds.c ****         }
1095:Generated_Source\PSoC4/ble_uds.c ****     }
1096:Generated_Source\PSoC4/ble_uds.c **** }
 1420              		.loc 1 1096 0 is_stmt 1
 1421 011e 12B0     		add	sp, sp, #72
 1422              		@ sp needed
 1423              	.LVL120:
 1424              	.LVL121:
 1425 0120 04BC     		pop	{r2}
 1426 0122 9046     		mov	r8, r2
 1427 0124 F0BD     		pop	{r4, r5, r6, r7, pc}
 1428              	.L110:
 1429 0126 C046     		.align	2
ARM GAS  C:\Users\310309~1\AppData\Local\Temp\cckEzWOW.s 			page 46


 1430              	.L109:
 1431 0128 00000000 		.word	.LANCHOR1
 1432 012c 00000000 		.word	cyBle_gattDB
 1433 0130 00000000 		.word	.LANCHOR0
 1434 0134 00000000 		.word	cyBle_eventHandlerFlag
 1435              		.cfi_endproc
 1436              	.LFE13:
 1437              		.size	CyBle_UdssExecuteWriteRequestEventHandler, .-CyBle_UdssExecuteWriteRequestEventHandler
 1438              		.comm	cyBle_udsFlag,1,1
 1439              		.global	cyBle_udss
 1440              		.section	.rodata
 1441              		.align	2
 1442              		.set	.LANCHOR1,. + 0
 1443              		.type	cyBle_udss, %object
 1444              		.size	cyBle_udss, 126
 1445              	cyBle_udss:
 1446 0000 5000     		.short	80
 1447 0002 5200     		.short	82
 1448 0004 0000     		.short	0
 1449 0006 5400     		.short	84
 1450 0008 0000     		.short	0
 1451 000a 5600     		.short	86
 1452 000c 0000     		.short	0
 1453 000e 5800     		.short	88
 1454 0010 0000     		.short	0
 1455 0012 5A00     		.short	90
 1456 0014 0000     		.short	0
 1457 0016 5C00     		.short	92
 1458 0018 0000     		.short	0
 1459 001a 5E00     		.short	94
 1460 001c 0000     		.short	0
 1461 001e 6000     		.short	96
 1462 0020 0000     		.short	0
 1463 0022 6200     		.short	98
 1464 0024 0000     		.short	0
 1465 0026 6400     		.short	100
 1466 0028 0000     		.short	0
 1467 002a 6600     		.short	102
 1468 002c 0000     		.short	0
 1469 002e 6800     		.short	104
 1470 0030 0000     		.short	0
 1471 0032 6A00     		.short	106
 1472 0034 0000     		.short	0
 1473 0036 6C00     		.short	108
 1474 0038 0000     		.short	0
 1475 003a 6E00     		.short	110
 1476 003c 0000     		.short	0
 1477 003e 7000     		.short	112
 1478 0040 0000     		.short	0
 1479 0042 7200     		.short	114
 1480 0044 0000     		.short	0
 1481 0046 7400     		.short	116
 1482 0048 0000     		.short	0
 1483 004a 7600     		.short	118
 1484 004c 0000     		.short	0
 1485 004e 7800     		.short	120
 1486 0050 0000     		.short	0
ARM GAS  C:\Users\310309~1\AppData\Local\Temp\cckEzWOW.s 			page 47


 1487 0052 7A00     		.short	122
 1488 0054 0000     		.short	0
 1489 0056 7C00     		.short	124
 1490 0058 0000     		.short	0
 1491 005a 7E00     		.short	126
 1492 005c 0000     		.short	0
 1493 005e 8000     		.short	128
 1494 0060 0000     		.short	0
 1495 0062 8200     		.short	130
 1496 0064 0000     		.short	0
 1497 0066 8400     		.short	132
 1498 0068 0000     		.short	0
 1499 006a 8600     		.short	134
 1500 006c 0000     		.short	0
 1501 006e 8800     		.short	136
 1502 0070 8900     		.short	137
 1503 0072 8B00     		.short	139
 1504 0074 0000     		.short	0
 1505 0076 8D00     		.short	141
 1506 0078 8E00     		.short	142
 1507 007a 9000     		.short	144
 1508 007c 0000     		.short	0
 1509              		.bss
 1510              		.align	2
 1511              		.set	.LANCHOR0,. + 0
 1512              		.type	cyBle_udssReqHandle, %object
 1513              		.size	cyBle_udssReqHandle, 2
 1514              	cyBle_udssReqHandle:
 1515 0000 0000     		.space	2
 1516 0002 0000     		.space	2
 1517              		.type	CyBle_UdsApplCallback, %object
 1518              		.size	CyBle_UdsApplCallback, 4
 1519              	CyBle_UdsApplCallback:
 1520 0004 00000000 		.space	4
 1521              		.text
 1522              	.Letext0:
 1523              		.file 2 "Generated_Source\\PSoC4\\cytypes.h"
 1524              		.file 3 "Generated_Source\\PSoC4\\ble_Stack.h"
 1525              		.file 4 "Generated_Source\\PSoC4\\ble_StackGatt.h"
 1526              		.file 5 "Generated_Source\\PSoC4\\ble_StackGattServer.h"
 1527              		.file 6 "Generated_Source\\PSoC4\\ble_StackGattDb.h"
 1528              		.file 7 "Generated_Source\\PSoC4\\ble.h"
 1529              		.file 8 "Generated_Source\\PSoC4\\ble_dis.h"
 1530              		.file 9 "Generated_Source\\PSoC4\\ble_uds.h"
 1531              		.file 10 "Generated_Source\\PSoC4\\ble_eventHandler.h"
 1532              		.file 11 "Generated_Source\\PSoC4\\ble_gatt.h"