ARM GAS  C:\Users\310309~1\AppData\Local\Temp\cc63zhrg.s 			page 1


   1              		.syntax unified
   2              		.cpu cortex-m0
   3              		.fpu softvfp
   4              		.eabi_attribute 20, 1
   5              		.eabi_attribute 21, 1
   6              		.eabi_attribute 23, 3
   7              		.eabi_attribute 24, 1
   8              		.eabi_attribute 25, 1
   9              		.eabi_attribute 26, 1
  10              		.eabi_attribute 30, 1
  11              		.eabi_attribute 34, 0
  12              		.eabi_attribute 18, 4
  13              		.thumb
  14              		.syntax unified
  15              		.file	"debug.c"
  16              		.text
  17              	.Ltext0:
  18              		.cfi_sections	.debug_frame
  19              		.section	.text._write,"ax",%progbits
  20              		.align	2
  21              		.global	_write
  22              		.code	16
  23              		.thumb_func
  24              		.type	_write, %function
  25              	_write:
  26              	.LFB36:
  27              		.file 1 "debug.c"
   1:debug.c       **** /*******************************************************************************
   2:debug.c       **** * File Name: debug.c
   3:debug.c       **** *
   4:debug.c       **** * Version 1.0
   5:debug.c       **** *
   6:debug.c       **** * Description:
   7:debug.c       **** *  Common BLE application code for printout debug messages.
   8:debug.c       **** *
   9:debug.c       **** * Hardware Dependency:
  10:debug.c       **** *  CY8CKIT-042 BLE
  11:debug.c       **** *
  12:debug.c       **** ********************************************************************************
  13:debug.c       **** * Copyright 2016, Cypress Semiconductor Corporation.  All rights reserved.
  14:debug.c       **** * You may use this file only in accordance with the license, terms, conditions,
  15:debug.c       **** * disclaimers, and limitations in the end user license agreement accompanying
  16:debug.c       **** * the software package with which this file was provided.
  17:debug.c       **** *******************************************************************************/
  18:debug.c       **** 
  19:debug.c       **** #include "common.h"
  20:debug.c       **** 
  21:debug.c       **** #if(DEBUG_UART_ENABLED == ENABLED)
  22:debug.c       **** 
  23:debug.c       ****     #if defined(__ARMCC_VERSION)
  24:debug.c       **** 
  25:debug.c       ****         /* For MDK/RVDS compiler revise fputc() for printf() */
  26:debug.c       ****         struct __FILE
  27:debug.c       ****         {
  28:debug.c       ****             int handle;
  29:debug.c       ****         };
  30:debug.c       **** 
ARM GAS  C:\Users\310309~1\AppData\Local\Temp\cc63zhrg.s 			page 2


  31:debug.c       ****         enum
  32:debug.c       ****         {
  33:debug.c       ****             STDIN_HANDLE,
  34:debug.c       ****             STDOUT_HANDLE,
  35:debug.c       ****             STDERR_HANDLE
  36:debug.c       ****         } ;
  37:debug.c       **** 
  38:debug.c       ****         FILE __stdin = {STDIN_HANDLE};
  39:debug.c       ****         FILE __stdout = {STDOUT_HANDLE};
  40:debug.c       ****         FILE __stderr = {STDERR_HANDLE};
  41:debug.c       **** 
  42:debug.c       ****         int fputc(int ch, FILE *file)
  43:debug.c       ****         {
  44:debug.c       ****             int ret = EOF;
  45:debug.c       **** 
  46:debug.c       ****             switch( file->handle )
  47:debug.c       ****             {
  48:debug.c       ****                 case STDOUT_HANDLE:
  49:debug.c       ****                     UART_DEB_UartPutChar(ch);
  50:debug.c       ****                     ret = ch ;
  51:debug.c       ****                     break ;
  52:debug.c       **** 
  53:debug.c       ****                 case STDERR_HANDLE:
  54:debug.c       ****                     ret = ch ;
  55:debug.c       ****                     break ;
  56:debug.c       **** 
  57:debug.c       ****                 default:
  58:debug.c       ****                     file = file;
  59:debug.c       ****                     break ;
  60:debug.c       ****             }
  61:debug.c       ****             return ret ;
  62:debug.c       ****         }
  63:debug.c       **** 
  64:debug.c       **** #elif defined (__ICCARM__)      /* IAR */
  65:debug.c       **** 
  66:debug.c       **** /* For IAR compiler revise __write() function for printf functionality */
  67:debug.c       **** size_t __write(int handle, const unsigned char * buffer, size_t size)
  68:debug.c       **** {
  69:debug.c       ****     size_t nChars = 0;
  70:debug.c       **** 
  71:debug.c       ****     if (buffer == 0)
  72:debug.c       ****     {
  73:debug.c       ****         /*
  74:debug.c       ****          * This means that we should flush internal buffers.  Since we
  75:debug.c       ****          * don't, we just return.  (Remember, "handle" == -1 means that all
  76:debug.c       ****          * handles should be flushed.)
  77:debug.c       ****          */
  78:debug.c       ****         return (0);
  79:debug.c       ****     }
  80:debug.c       **** 
  81:debug.c       ****     for (/* Empty */; size != 0; --size)
  82:debug.c       ****     {
  83:debug.c       ****         UART_DEB_UartPutChar(*buffer++);
  84:debug.c       ****         ++nChars;
  85:debug.c       ****     }
  86:debug.c       **** 
  87:debug.c       ****     return (nChars);
ARM GAS  C:\Users\310309~1\AppData\Local\Temp\cc63zhrg.s 			page 3


  88:debug.c       **** }
  89:debug.c       **** 
  90:debug.c       **** #else  /* (__GNUC__)  GCC */
  91:debug.c       **** 
  92:debug.c       **** /* For GCC compiler revise _write() function for printf functionality */
  93:debug.c       ****         int _write(int file, char *ptr, int len)
  94:debug.c       ****         {
  28              		.loc 1 94 0
  29              		.cfi_startproc
  30              		@ args = 0, pretend = 0, frame = 0
  31              		@ frame_needed = 0, uses_anonymous_args = 0
  32              	.LVL0:
  33 0000 70B5     		push	{r4, r5, r6, lr}
  34              		.cfi_def_cfa_offset 16
  35              		.cfi_offset 4, -16
  36              		.cfi_offset 5, -12
  37              		.cfi_offset 6, -8
  38              		.cfi_offset 14, -4
  39 0002 1600     		movs	r6, r2
  40              	.LVL1:
  95:debug.c       ****             int i;
  96:debug.c       ****             file = file;
  97:debug.c       ****             for (i = 0; i < len; i++)
  41              		.loc 1 97 0
  42 0004 0024     		movs	r4, #0
  43 0006 05E0     		b	.L2
  44              	.LVL2:
  45              	.L3:
  98:debug.c       ****             {
  99:debug.c       ****                 UART_DEB_UartPutChar(*ptr++);
  46              		.loc 1 99 0 discriminator 3
  47 0008 4D1C     		adds	r5, r1, #1
  48              	.LVL3:
  49 000a 0878     		ldrb	r0, [r1]
  50 000c FFF7FEFF 		bl	UART_DEB_SpiUartWriteTxData
  51              	.LVL4:
  97:debug.c       ****             {
  52              		.loc 1 97 0 discriminator 3
  53 0010 0134     		adds	r4, r4, #1
  54              	.LVL5:
  55              		.loc 1 99 0 discriminator 3
  56 0012 2900     		movs	r1, r5
  57              	.LVL6:
  58              	.L2:
  97:debug.c       ****             {
  59              		.loc 1 97 0 discriminator 1
  60 0014 B442     		cmp	r4, r6
  61 0016 F7DB     		blt	.L3
 100:debug.c       ****             }
 101:debug.c       ****             return len;
 102:debug.c       ****         }
  62              		.loc 1 102 0
  63 0018 3000     		movs	r0, r6
  64              		@ sp needed
  65              	.LVL7:
  66              	.LVL8:
  67 001a 70BD     		pop	{r4, r5, r6, pc}
ARM GAS  C:\Users\310309~1\AppData\Local\Temp\cc63zhrg.s 			page 4


  68              		.cfi_endproc
  69              	.LFE36:
  70              		.size	_write, .-_write
  71              		.section	.text.PrintState,"ax",%progbits
  72              		.align	2
  73              		.global	PrintState
  74              		.code	16
  75              		.thumb_func
  76              		.type	PrintState, %function
  77              	PrintState:
  78              	.LFB37:
 103:debug.c       **** 
 104:debug.c       ****     #endif  /* (__ARMCC_VERSION) */
 105:debug.c       **** 
 106:debug.c       **** #endif /* (DEBUG_UART_ENABLED == YES) */
 107:debug.c       **** 
 108:debug.c       **** /*******************************************************************************
 109:debug.c       **** * Function Name: PrintState
 110:debug.c       **** ********************************************************************************
 111:debug.c       **** *
 112:debug.c       **** * Summary:
 113:debug.c       **** *   Decodes and prints the cyBle_state global variable value.
 114:debug.c       **** *
 115:debug.c       **** * Parameters:
 116:debug.c       **** *   None.
 117:debug.c       **** *
 118:debug.c       **** * Return:
 119:debug.c       **** *   None.
 120:debug.c       **** *
 121:debug.c       **** *******************************************************************************/
 122:debug.c       **** void PrintState(void)
 123:debug.c       **** {
  79              		.loc 1 123 0
  80              		.cfi_startproc
  81              		@ args = 0, pretend = 0, frame = 0
  82              		@ frame_needed = 0, uses_anonymous_args = 0
  83 0000 10B5     		push	{r4, lr}
  84              		.cfi_def_cfa_offset 8
  85              		.cfi_offset 4, -8
  86              		.cfi_offset 14, -4
 124:debug.c       ****     DBG_PRINTF("state: ");
  87              		.loc 1 124 0
  88 0002 1148     		ldr	r0, .L13
  89 0004 FFF7FEFF 		bl	printf
  90              	.LVL9:
 125:debug.c       ****     switch(CyBle_GetState())
  91              		.loc 1 125 0
  92 0008 104B     		ldr	r3, .L13+4
  93 000a 1A78     		ldrb	r2, [r3]
  94 000c 042A     		cmp	r2, #4
  95 000e 17D8     		bhi	.L5
  96 0010 9300     		lsls	r3, r2, #2
  97 0012 0F4A     		ldr	r2, .L13+8
  98 0014 D358     		ldr	r3, [r2, r3]
  99 0016 9F46     		mov	pc, r3
 100              		.section	.rodata
 101              		.align	2
ARM GAS  C:\Users\310309~1\AppData\Local\Temp\cc63zhrg.s 			page 5


 102              	.L7:
 103 0000 18000000 		.word	.L6
 104 0004 20000000 		.word	.L8
 105 0008 28000000 		.word	.L9
 106 000c 38000000 		.word	.L10
 107 0010 30000000 		.word	.L11
 108              		.section	.text.PrintState
 109              	.L6:
 126:debug.c       ****     {
 127:debug.c       ****         case CYBLE_STATE_STOPPED:
 128:debug.c       ****             DBG_PRINTF("stopped\r\n");
 110              		.loc 1 128 0
 111 0018 0E48     		ldr	r0, .L13+12
 112 001a FFF7FEFF 		bl	puts
 113              	.LVL10:
 129:debug.c       ****             break;
 114              		.loc 1 129 0
 115 001e 12E0     		b	.L4
 116              	.L8:
 130:debug.c       ****             
 131:debug.c       ****         case CYBLE_STATE_INITIALIZING:
 132:debug.c       ****             DBG_PRINTF("initializing\r\n");
 117              		.loc 1 132 0
 118 0020 0D48     		ldr	r0, .L13+16
 119 0022 FFF7FEFF 		bl	puts
 120              	.LVL11:
 133:debug.c       ****             break;
 121              		.loc 1 133 0
 122 0026 0EE0     		b	.L4
 123              	.L9:
 134:debug.c       ****             
 135:debug.c       ****         case CYBLE_STATE_CONNECTED:
 136:debug.c       ****             DBG_PRINTF("connected\r\n");
 124              		.loc 1 136 0
 125 0028 0C48     		ldr	r0, .L13+20
 126 002a FFF7FEFF 		bl	puts
 127              	.LVL12:
 137:debug.c       ****             break;
 128              		.loc 1 137 0
 129 002e 0AE0     		b	.L4
 130              	.L11:
 138:debug.c       ****             
 139:debug.c       ****         case CYBLE_STATE_DISCONNECTED:
 140:debug.c       ****             DBG_PRINTF("disconnected\r\n");
 131              		.loc 1 140 0
 132 0030 0B48     		ldr	r0, .L13+24
 133 0032 FFF7FEFF 		bl	puts
 134              	.LVL13:
 141:debug.c       ****             break;
 135              		.loc 1 141 0
 136 0036 06E0     		b	.L4
 137              	.L10:
 142:debug.c       ****             
 143:debug.c       ****         case CYBLE_STATE_ADVERTISING:
 144:debug.c       ****             DBG_PRINTF("advertising\r\n");
 138              		.loc 1 144 0
 139 0038 0A48     		ldr	r0, .L13+28
ARM GAS  C:\Users\310309~1\AppData\Local\Temp\cc63zhrg.s 			page 6


 140 003a FFF7FEFF 		bl	puts
 141              	.LVL14:
 145:debug.c       ****             break;
 142              		.loc 1 145 0
 143 003e 02E0     		b	.L4
 144              	.L5:
 146:debug.c       **** 
 147:debug.c       ****         default:
 148:debug.c       ****             DBG_PRINTF("unknown\r\n");
 145              		.loc 1 148 0
 146 0040 0948     		ldr	r0, .L13+32
 147 0042 FFF7FEFF 		bl	puts
 148              	.LVL15:
 149              	.L4:
 149:debug.c       ****             break;
 150:debug.c       ****     }
 151:debug.c       **** }
 150              		.loc 1 151 0
 151              		@ sp needed
 152 0046 10BD     		pop	{r4, pc}
 153              	.L14:
 154              		.align	2
 155              	.L13:
 156 0048 00000000 		.word	.LC0
 157 004c 00000000 		.word	cyBle_state
 158 0050 00000000 		.word	.L7
 159 0054 08000000 		.word	.LC4
 160 0058 14000000 		.word	.LC6
 161 005c 24000000 		.word	.LC8
 162 0060 30000000 		.word	.LC10
 163 0064 40000000 		.word	.LC12
 164 0068 50000000 		.word	.LC14
 165              		.cfi_endproc
 166              	.LFE37:
 167              		.size	PrintState, .-PrintState
 168              		.section	.text.PrintApiResult,"ax",%progbits
 169              		.align	2
 170              		.global	PrintApiResult
 171              		.code	16
 172              		.thumb_func
 173              		.type	PrintApiResult, %function
 174              	PrintApiResult:
 175              	.LFB38:
 152:debug.c       **** 
 153:debug.c       **** 
 154:debug.c       **** /*******************************************************************************
 155:debug.c       **** * Function Name: PrintApiResult
 156:debug.c       **** ********************************************************************************
 157:debug.c       **** *
 158:debug.c       **** * Summary:
 159:debug.c       **** *   Decodes and prints the apiResult global variable value.
 160:debug.c       **** *
 161:debug.c       **** * Parameters:
 162:debug.c       **** *   None.
 163:debug.c       **** *
 164:debug.c       **** * Return:
 165:debug.c       **** *   None.
ARM GAS  C:\Users\310309~1\AppData\Local\Temp\cc63zhrg.s 			page 7


 166:debug.c       **** *
 167:debug.c       **** *******************************************************************************/
 168:debug.c       **** void PrintApiResult(void)
 169:debug.c       **** {
 176              		.loc 1 169 0
 177              		.cfi_startproc
 178              		@ args = 0, pretend = 0, frame = 0
 179              		@ frame_needed = 0, uses_anonymous_args = 0
 180 0000 10B5     		push	{r4, lr}
 181              		.cfi_def_cfa_offset 8
 182              		.cfi_offset 4, -8
 183              		.cfi_offset 14, -4
 170:debug.c       ****     DBG_PRINTF("0x%2.2x ", apiResult);
 184              		.loc 1 170 0
 185 0002 2A4C     		ldr	r4, .L30
 186 0004 2188     		ldrh	r1, [r4]
 187 0006 2A48     		ldr	r0, .L30+4
 188 0008 FFF7FEFF 		bl	printf
 189              	.LVL16:
 171:debug.c       ****     
 172:debug.c       ****     switch(apiResult)
 190              		.loc 1 172 0
 191 000c 2388     		ldrh	r3, [r4]
 192 000e 132B     		cmp	r3, #19
 193 0010 3FD0     		beq	.L17
 194 0012 08D8     		bhi	.L18
 195 0014 012B     		cmp	r3, #1
 196 0016 1ED0     		beq	.L19
 197 0018 002B     		cmp	r3, #0
 198 001a 18D0     		beq	.L20
 199 001c 022B     		cmp	r3, #2
 200 001e 1ED0     		beq	.L21
 201 0020 072B     		cmp	r3, #7
 202 0022 20D0     		beq	.L22
 203 0024 3DE0     		b	.L16
 204              	.L18:
 205 0026 0222     		movs	r2, #2
 206 0028 FF32     		adds	r2, r2, #255
 207 002a 9342     		cmp	r3, r2
 208 002c 23D0     		beq	.L23
 209 002e 05D8     		bhi	.L24
 210 0030 282B     		cmp	r3, #40
 211 0032 32D0     		beq	.L25
 212 0034 013A     		subs	r2, r2, #1
 213 0036 9342     		cmp	r3, r2
 214 0038 19D0     		beq	.L26
 215 003a 32E0     		b	.L16
 216              	.L24:
 217 003c 8122     		movs	r2, #129
 218 003e 5200     		lsls	r2, r2, #1
 219 0040 9342     		cmp	r3, r2
 220 0042 1CD0     		beq	.L27
 221 0044 0422     		movs	r2, #4
 222 0046 FF32     		adds	r2, r2, #255
 223 0048 9342     		cmp	r3, r2
 224 004a 1CD0     		beq	.L28
 225 004c 29E0     		b	.L16
ARM GAS  C:\Users\310309~1\AppData\Local\Temp\cc63zhrg.s 			page 8


 226              	.L20:
 173:debug.c       ****     {
 174:debug.c       ****         case CYBLE_ERROR_OK:
 175:debug.c       ****             DBG_PRINTF("ok\r\n");
 227              		.loc 1 175 0
 228 004e 1948     		ldr	r0, .L30+8
 229 0050 FFF7FEFF 		bl	puts
 230              	.LVL17:
 176:debug.c       ****             break;
 231              		.loc 1 176 0
 232 0054 28E0     		b	.L15
 233              	.L19:
 177:debug.c       ****             
 178:debug.c       ****         case CYBLE_ERROR_INVALID_PARAMETER:
 179:debug.c       ****             DBG_PRINTF("invalid parameter\r\n");
 234              		.loc 1 179 0
 235 0056 1848     		ldr	r0, .L30+12
 236 0058 FFF7FEFF 		bl	puts
 237              	.LVL18:
 180:debug.c       ****             break;
 238              		.loc 1 180 0
 239 005c 24E0     		b	.L15
 240              	.L21:
 181:debug.c       ****             
 182:debug.c       ****         case CYBLE_ERROR_INVALID_OPERATION:
 183:debug.c       ****             DBG_PRINTF("invalid operation\r\n");
 241              		.loc 1 183 0
 242 005e 1748     		ldr	r0, .L30+16
 243 0060 FFF7FEFF 		bl	puts
 244              	.LVL19:
 184:debug.c       ****             break;
 245              		.loc 1 184 0
 246 0064 20E0     		b	.L15
 247              	.L22:
 185:debug.c       ****             
 186:debug.c       ****         case CYBLE_ERROR_NO_DEVICE_ENTITY:
 187:debug.c       ****             DBG_PRINTF("no device entity\r\n");
 248              		.loc 1 187 0
 249 0066 1648     		ldr	r0, .L30+20
 250 0068 FFF7FEFF 		bl	puts
 251              	.LVL20:
 188:debug.c       ****             break;
 252              		.loc 1 188 0
 253 006c 1CE0     		b	.L15
 254              	.L26:
 189:debug.c       ****             
 190:debug.c       ****         case CYBLE_ERROR_NTF_DISABLED:
 191:debug.c       ****             DBG_PRINTF("notification is disabled\r\n");
 255              		.loc 1 191 0
 256 006e 1548     		ldr	r0, .L30+24
 257 0070 FFF7FEFF 		bl	puts
 258              	.LVL21:
 192:debug.c       ****             break;
 259              		.loc 1 192 0
 260 0074 18E0     		b	.L15
 261              	.L23:
 193:debug.c       ****             
ARM GAS  C:\Users\310309~1\AppData\Local\Temp\cc63zhrg.s 			page 9


 194:debug.c       ****         case CYBLE_ERROR_IND_DISABLED:
 195:debug.c       ****             DBG_PRINTF("indication is disabled\r\n");
 262              		.loc 1 195 0
 263 0076 1448     		ldr	r0, .L30+28
 264 0078 FFF7FEFF 		bl	puts
 265              	.LVL22:
 196:debug.c       ****             break;
 266              		.loc 1 196 0
 267 007c 14E0     		b	.L15
 268              	.L27:
 197:debug.c       ****             
 198:debug.c       ****         case CYBLE_ERROR_CHAR_IS_NOT_DISCOVERED:
 199:debug.c       ****             DBG_PRINTF("characteristic is not discovered\r\n");
 269              		.loc 1 199 0
 270 007e 1348     		ldr	r0, .L30+32
 271 0080 FFF7FEFF 		bl	puts
 272              	.LVL23:
 200:debug.c       ****             break;
 273              		.loc 1 200 0
 274 0084 10E0     		b	.L15
 275              	.L28:
 201:debug.c       ****             
 202:debug.c       ****         case CYBLE_ERROR_INVALID_STATE:
 203:debug.c       ****             DBG_PRINTF("invalid state: ");
 276              		.loc 1 203 0
 277 0086 1248     		ldr	r0, .L30+36
 278 0088 FFF7FEFF 		bl	printf
 279              	.LVL24:
 204:debug.c       ****             PrintState();
 280              		.loc 1 204 0
 281 008c FFF7FEFF 		bl	PrintState
 282              	.LVL25:
 205:debug.c       ****             break;
 283              		.loc 1 205 0
 284 0090 0AE0     		b	.L15
 285              	.L17:
 206:debug.c       ****             
 207:debug.c       ****         case CYBLE_ERROR_GATT_DB_INVALID_ATTR_HANDLE:
 208:debug.c       ****             DBG_PRINTF("invalid attribute handle\r\n");
 286              		.loc 1 208 0
 287 0092 1048     		ldr	r0, .L30+40
 288 0094 FFF7FEFF 		bl	puts
 289              	.LVL26:
 209:debug.c       ****             break;
 290              		.loc 1 209 0
 291 0098 06E0     		b	.L15
 292              	.L25:
 210:debug.c       ****             
 211:debug.c       ****         case CYBLE_ERROR_FLASH_WRITE_NOT_PERMITED:
 212:debug.c       ****             DBG_PRINTF("flash write not permitted\r\n");
 293              		.loc 1 212 0
 294 009a 0F48     		ldr	r0, .L30+44
 295 009c FFF7FEFF 		bl	puts
 296              	.LVL27:
 213:debug.c       ****             break;
 297              		.loc 1 213 0
 298 00a0 02E0     		b	.L15
ARM GAS  C:\Users\310309~1\AppData\Local\Temp\cc63zhrg.s 			page 10


 299              	.L16:
 214:debug.c       ****             
 215:debug.c       ****         default:
 216:debug.c       ****             DBG_PRINTF("other api result\r\n");
 300              		.loc 1 216 0
 301 00a2 0E48     		ldr	r0, .L30+48
 302 00a4 FFF7FEFF 		bl	puts
 303              	.LVL28:
 304              	.L15:
 217:debug.c       ****             break;
 218:debug.c       ****     }
 219:debug.c       **** }
 305              		.loc 1 219 0
 306              		@ sp needed
 307 00a8 10BD     		pop	{r4, pc}
 308              	.L31:
 309 00aa C046     		.align	2
 310              	.L30:
 311 00ac 00000000 		.word	apiResult
 312 00b0 5C000000 		.word	.LC17
 313 00b4 68000000 		.word	.LC19
 314 00b8 6C000000 		.word	.LC21
 315 00bc 80000000 		.word	.LC23
 316 00c0 94000000 		.word	.LC25
 317 00c4 A8000000 		.word	.LC27
 318 00c8 C4000000 		.word	.LC29
 319 00cc DC000000 		.word	.LC31
 320 00d0 00010000 		.word	.LC33
 321 00d4 10010000 		.word	.LC35
 322 00d8 2C010000 		.word	.LC37
 323 00dc 48010000 		.word	.LC39
 324              		.cfi_endproc
 325              	.LFE38:
 326              		.size	PrintApiResult, .-PrintApiResult
 327              		.comm	sessionDescriptorIndicate,1,1
 328              		.comm	pamFeature,8,8
 329              		.comm	send_Deleted_Sessions,1,1
 330              		.comm	Get_Ended_Data_Value,1,1
 331              		.comm	Get_Ended_Data_Sub_SessionID,2,2
 332              		.comm	Get_Ended_Data_SessionID,2,2
 333              		.comm	Enquire_Sub_Sessions_Requested_For_ID,2,2
 334              		.comm	Enquire_Sessions_Requested,2,2
 335              		.section	.rodata.str1.4,"aMS",%progbits,1
 336              		.align	2
 337              	.LC0:
 338 0000 73746174 		.ascii	"state: \000"
 338      653A2000 
 339              	.LC4:
 340 0008 73746F70 		.ascii	"stopped\015\000"
 340      7065640D 
 340      00
 341 0011 000000   		.space	3
 342              	.LC6:
 343 0014 696E6974 		.ascii	"initializing\015\000"
 343      69616C69 
 343      7A696E67 
 343      0D00
ARM GAS  C:\Users\310309~1\AppData\Local\Temp\cc63zhrg.s 			page 11


 344 0022 0000     		.space	2
 345              	.LC8:
 346 0024 636F6E6E 		.ascii	"connected\015\000"
 346      65637465 
 346      640D00
 347 002f 00       		.space	1
 348              	.LC10:
 349 0030 64697363 		.ascii	"disconnected\015\000"
 349      6F6E6E65 
 349      63746564 
 349      0D00
 350 003e 0000     		.space	2
 351              	.LC12:
 352 0040 61647665 		.ascii	"advertising\015\000"
 352      72746973 
 352      696E670D 
 352      00
 353 004d 000000   		.space	3
 354              	.LC14:
 355 0050 756E6B6E 		.ascii	"unknown\015\000"
 355      6F776E0D 
 355      00
 356 0059 000000   		.space	3
 357              	.LC17:
 358 005c 30782532 		.ascii	"0x%2.2x \000"
 358      2E327820 
 358      00
 359 0065 000000   		.space	3
 360              	.LC19:
 361 0068 6F6B0D00 		.ascii	"ok\015\000"
 362              	.LC21:
 363 006c 696E7661 		.ascii	"invalid parameter\015\000"
 363      6C696420 
 363      70617261 
 363      6D657465 
 363      720D00
 364 007f 00       		.space	1
 365              	.LC23:
 366 0080 696E7661 		.ascii	"invalid operation\015\000"
 366      6C696420 
 366      6F706572 
 366      6174696F 
 366      6E0D00
 367 0093 00       		.space	1
 368              	.LC25:
 369 0094 6E6F2064 		.ascii	"no device entity\015\000"
 369      65766963 
 369      6520656E 
 369      74697479 
 369      0D00
 370 00a6 0000     		.space	2
 371              	.LC27:
 372 00a8 6E6F7469 		.ascii	"notification is disabled\015\000"
 372      66696361 
 372      74696F6E 
 372      20697320 
 372      64697361 
ARM GAS  C:\Users\310309~1\AppData\Local\Temp\cc63zhrg.s 			page 12


 373 00c2 0000     		.space	2
 374              	.LC29:
 375 00c4 696E6469 		.ascii	"indication is disabled\015\000"
 375      63617469 
 375      6F6E2069 
 375      73206469 
 375      7361626C 
 376              	.LC31:
 377 00dc 63686172 		.ascii	"characteristic is not discovered\015\000"
 377      61637465 
 377      72697374 
 377      69632069 
 377      73206E6F 
 378 00fe 0000     		.space	2
 379              	.LC33:
 380 0100 696E7661 		.ascii	"invalid state: \000"
 380      6C696420 
 380      73746174 
 380      653A2000 
 381              	.LC35:
 382 0110 696E7661 		.ascii	"invalid attribute handle\015\000"
 382      6C696420 
 382      61747472 
 382      69627574 
 382      65206861 
 383 012a 0000     		.space	2
 384              	.LC37:
 385 012c 666C6173 		.ascii	"flash write not permitted\015\000"
 385      68207772 
 385      69746520 
 385      6E6F7420 
 385      7065726D 
 386 0147 00       		.space	1
 387              	.LC39:
 388 0148 6F746865 		.ascii	"other api result\015\000"
 388      72206170 
 388      69207265 
 388      73756C74 
 388      0D00
 389              		.text
 390              	.Letext0:
 391              		.file 2 "Generated_Source\\PSoC4/cytypes.h"
 392              		.file 3 "Generated_Source\\PSoC4/ble_Stack.h"
 393              		.file 4 "Generated_Source\\PSoC4/ble_eventHandler.h"
 394              		.file 5 "pams.h"
 395              		.file 6 "pamFeatures.h"
 396              		.file 7 "pamSessDescr.h"
 397              		.file 8 "common.h"
 398              		.file 9 "Generated_Source\\PSoC4/UART_DEB_SPI_UART.h"
 399              		.file 10 "c:\\program files (x86)\\cypress\\psoc creator\\4.1\\psoc creator\\import\\gnu\\arm\\5.4
 400              		.file 11 "<built-in>"