ARM GAS  C:\Users\310309~1\AppData\Local\Temp\ccu8WRKs.s 			page 1


   1              		.syntax unified
   2              		.cpu cortex-m0
   3              		.fpu softvfp
   4              		.eabi_attribute 20, 1
   5              		.eabi_attribute 21, 1
   6              		.eabi_attribute 23, 3
   7              		.eabi_attribute 24, 1
   8              		.eabi_attribute 25, 1
   9              		.eabi_attribute 26, 1
  10              		.eabi_attribute 30, 1
  11              		.eabi_attribute 34, 0
  12              		.eabi_attribute 18, 4
  13              		.thumb
  14              		.syntax unified
  15              		.file	"main.c"
  16              		.text
  17              	.Ltext0:
  18              		.cfi_sections	.debug_frame
  19              		.section	.text.isr_timer_Handler,"ax",%progbits
  20              		.align	2
  21              		.global	isr_timer_Handler
  22              		.code	16
  23              		.thumb_func
  24              		.type	isr_timer_Handler, %function
  25              	isr_timer_Handler:
  26              	.LFB36:
  27              		.file 1 "main.c"
   1:main.c        **** /* ========================================
   2:main.c        ****  *
   3:main.c        ****  * Copyright YOUR COMPANY, THE YEAR
   4:main.c        ****  * All Rights Reserved
   5:main.c        ****  * UNPUBLISHED, LICENSED SOFTWARE.
   6:main.c        ****  *
   7:main.c        ****  * CONFIDENTIAL AND PROPRIETARY INFORMATION
   8:main.c        ****  * WHICH IS THE PROPERTY OF your company.
   9:main.c        ****  *
  10:main.c        ****  * ========================================
  11:main.c        **** */
  12:main.c        **** 
  13:main.c        **** #include "common.h"
  14:main.c        **** #include "pamGaid.h"
  15:main.c        **** #include "pamGasd.h"
  16:main.c        **** #include "pamCraid.h"
  17:main.c        **** #include "pamCrasd.h"
  18:main.c        **** #include "pamScasd.h"
  19:main.c        **** #include "pamSaid.h"
  20:main.c        **** #include "pamSasd.h"
  21:main.c        **** #include "pamControlPoint.h"
  22:main.c        **** #include "pamCurrSess.h"
  23:main.c        **** 
  24:main.c        **** /***************************************
  25:main.c        **** *        Global Variables
  26:main.c        **** ***************************************/
  27:main.c        **** CYBLE_API_RESULT_T      apiResult;
  28:main.c        **** uint8                   isButtonPressed = NO;
  29:main.c        **** 
  30:main.c        **** 
ARM GAS  C:\Users\310309~1\AppData\Local\Temp\ccu8WRKs.s 			page 2


  31:main.c        **** CY_ISR ( isr_timer_Handler )
  32:main.c        **** {
  28              		.loc 1 32 0
  29              		.cfi_startproc
  30              		@ args = 0, pretend = 0, frame = 0
  31              		@ frame_needed = 0, uses_anonymous_args = 0
  32 0000 10B5     		push	{r4, lr}
  33              		.cfi_def_cfa_offset 8
  34              		.cfi_offset 4, -8
  35              		.cfi_offset 14, -4
  33:main.c        ****     //this interupt happends every second
  34:main.c        **** 
  35:main.c        ****     
  36:main.c        ****     TCPWM_ClearInterrupt(TCPWM_INTR_MASK_TC);
  36              		.loc 1 36 0
  37 0002 0120     		movs	r0, #1
  38 0004 FFF7FEFF 		bl	TCPWM_ClearInterrupt
  39              	.LVL0:
  37:main.c        **** }
  40              		.loc 1 37 0
  41              		@ sp needed
  42 0008 10BD     		pop	{r4, pc}
  43              		.cfi_endproc
  44              	.LFE36:
  45              		.size	isr_timer_Handler, .-isr_timer_Handler
  46 000a C046     		.section	.text.Pin_SW2_Handler,"ax",%progbits
  47              		.align	2
  48              		.global	Pin_SW2_Handler
  49              		.code	16
  50              		.thumb_func
  51              		.type	Pin_SW2_Handler, %function
  52              	Pin_SW2_Handler:
  53              	.LFB37:
  38:main.c        **** 
  39:main.c        **** CY_ISR( Pin_SW2_Handler )
  40:main.c        **** {
  54              		.loc 1 40 0
  55              		.cfi_startproc
  56              		@ args = 0, pretend = 0, frame = 0
  57              		@ frame_needed = 0, uses_anonymous_args = 0
  58 0000 10B5     		push	{r4, lr}
  59              		.cfi_def_cfa_offset 8
  60              		.cfi_offset 4, -8
  61              		.cfi_offset 14, -4
  41:main.c        ****     DBG_PRINTF("BUTTON PRESS \r\n");
  62              		.loc 1 41 0
  63 0002 0E48     		ldr	r0, .L3
  64 0004 FFF7FEFF 		bl	puts
  65              	.LVL1:
  42:main.c        **** 
  43:main.c        ****     GaiData.RelativeTimestamp++;
  66              		.loc 1 43 0
  67 0008 0D4C     		ldr	r4, .L3+4
  68 000a 207A     		ldrb	r0, [r4, #8]
  69 000c 627A     		ldrb	r2, [r4, #9]
  70 000e 1202     		lsls	r2, r2, #8
  71 0010 0243     		orrs	r2, r0
ARM GAS  C:\Users\310309~1\AppData\Local\Temp\ccu8WRKs.s 			page 3


  72 0012 A37A     		ldrb	r3, [r4, #10]
  73 0014 1B04     		lsls	r3, r3, #16
  74 0016 1343     		orrs	r3, r2
  75 0018 1A00     		movs	r2, r3
  76 001a E37A     		ldrb	r3, [r4, #11]
  77 001c 1B06     		lsls	r3, r3, #24
  78 001e 1343     		orrs	r3, r2
  79 0020 0133     		adds	r3, r3, #1
  80 0022 2372     		strb	r3, [r4, #8]
  81 0024 1A0A     		lsrs	r2, r3, #8
  82 0026 6272     		strb	r2, [r4, #9]
  83 0028 1A0C     		lsrs	r2, r3, #16
  84 002a A272     		strb	r2, [r4, #10]
  85 002c 1B0E     		lsrs	r3, r3, #24
  86 002e E372     		strb	r3, [r4, #11]
  44:main.c        ****     UpdateGaid();
  87              		.loc 1 44 0
  88 0030 FFF7FEFF 		bl	UpdateGaid
  89              	.LVL2:
  45:main.c        ****     
  46:main.c        ****     //CraiData.RelativeTimestamp++;
  47:main.c        ****     //UpdateCraid();
  48:main.c        ****     //
  49:main.c        ****     //
  50:main.c        ****     //CrasData.RelativeTimestamp++;
  51:main.c        ****     //UpdateCrasd();
  52:main.c        ****     //
  53:main.c        ****     //
  54:main.c        ****     //GaiData.RelativeTimestamp++;
  55:main.c        ****     //GaiData.SessionID = 0xABCD;
  56:main.c        ****     //UpdateGaid();
  57:main.c        ****     //
  58:main.c        ****     //GasData.RelativeTimestamp++;
  59:main.c        ****     //GasData.SessionID = 0xABCD;
  60:main.c        ****     //UpdateGasd();
  61:main.c        ****     //
  62:main.c        ****     //
  63:main.c        ****     //
  64:main.c        ****     //
  65:main.c        ****     //SaiData.RelativeTimestamp++;
  66:main.c        ****     //UpdateSaid();
  67:main.c        ****     //
  68:main.c        ****     //
  69:main.c        ****     //SasData.RelativeTimestamp++;
  70:main.c        ****     //UpdateSasd();
  71:main.c        ****     //
  72:main.c        ****     //
  73:main.c        ****     //ScasData.RelativeTimestamp++;
  74:main.c        ****     //UpdateScasd();
  75:main.c        ****     
  76:main.c        ****     
  77:main.c        ****     Pin_SW2_ClearInterrupt();
  90              		.loc 1 77 0
  91 0034 FFF7FEFF 		bl	Pin_SW2_ClearInterrupt
  92              	.LVL3:
  78:main.c        **** }
  93              		.loc 1 78 0
ARM GAS  C:\Users\310309~1\AppData\Local\Temp\ccu8WRKs.s 			page 4


  94              		@ sp needed
  95 0038 10BD     		pop	{r4, pc}
  96              	.L4:
  97 003a C046     		.align	2
  98              	.L3:
  99 003c 00000000 		.word	.LC0
 100 0040 00000000 		.word	GaiData
 101              		.cfi_endproc
 102              	.LFE37:
 103              		.size	Pin_SW2_Handler, .-Pin_SW2_Handler
 104              		.section	.text.SimulateValues,"ax",%progbits
 105              		.align	2
 106              		.global	SimulateValues
 107              		.code	16
 108              		.thumb_func
 109              		.type	SimulateValues, %function
 110              	SimulateValues:
 111              	.LFB40:
  79:main.c        **** 
  80:main.c        **** void BleEventHandler(uint32 event, void* eventParam)
  81:main.c        **** {
  82:main.c        ****     if(0u != eventParam)
  83:main.c        ****     {
  84:main.c        ****         /* This dummy operation is to avoid warning about unused eventParam */
  85:main.c        ****     }
  86:main.c        ****     
  87:main.c        ****     CYBLE_GATTS_WRITE_REQ_PARAM_T *wrReqParam;
  88:main.c        ****     
  89:main.c        ****     switch(event)
  90:main.c        ****     {
  91:main.c        ****         case CYBLE_EVT_STACK_ON:
  92:main.c        ****         case CYBLE_EVT_GAP_DEVICE_DISCONNECTED:
  93:main.c        ****         {
  94:main.c        ****             CyBle_GappStartAdvertisement(CYBLE_ADVERTISING_FAST);
  95:main.c        ****             DBG_PRINTF("Start Advertisement with addr: ");
  96:main.c        ****             CYBLE_GAP_BD_ADDR_T localAddr;
  97:main.c        ****             localAddr.type = 0u;
  98:main.c        ****             CyBle_GetDeviceAddress(&localAddr);
  99:main.c        ****             for(uint8 i = CYBLE_GAP_BD_ADDR_SIZE; i > 0u; i--)
 100:main.c        ****             {
 101:main.c        ****                 DBG_PRINTF("%2.2x", localAddr.bdAddr[i-1]);
 102:main.c        ****             }
 103:main.c        ****             DBG_PRINTF("\r\n");
 104:main.c        ****             DBG_PRINTF("CYBLE_EVT_GAP_DEVICE_DISCONNECTED \r\n");
 105:main.c        ****             HandleLeds();
 106:main.c        ****            
 107:main.c        ****             generalinstantaneousdataNotify = DISABLED;
 108:main.c        ****             generalsummarydataIndicate = DISABLED;
 109:main.c        ****             cardiorespiratoryactivityinstantaneousdataNotify = DISABLED;
 110:main.c        ****             cardiorespiratoryactivitysummarydataIndicate = DISABLED;
 111:main.c        ****             stepcounteractivitysummarydataIndicate = DISABLED;
 112:main.c        ****             sleepactivityinstantaneousdataNotify = DISABLED;
 113:main.c        ****             sleepactivitysummarydataIndicate = DISABLED;
 114:main.c        ****             controlpointIndicate = DISABLED;
 115:main.c        ****             currentsessionIndicate = DISABLED;
 116:main.c        ****             sessionDescriptorIndicate = DISABLED;
 117:main.c        ****             break;
ARM GAS  C:\Users\310309~1\AppData\Local\Temp\ccu8WRKs.s 			page 5


 118:main.c        ****         }
 119:main.c        ****         case CYBLE_EVT_GAP_DEVICE_CONNECTED:
 120:main.c        ****         {
 121:main.c        ****             /* BLE link is established */
 122:main.c        ****             DBG_PRINTF("CYBLE_EVT_GAP_DEVICE_CONNECTED \r\n");
 123:main.c        ****             HandleLeds();
 124:main.c        ****             break;
 125:main.c        ****         }
 126:main.c        ****         case CYBLE_EVT_GAPP_ADVERTISEMENT_START_STOP:
 127:main.c        ****         {
 128:main.c        ****             HandleLeds();
 129:main.c        ****             DBG_PRINTF("CYBLE_EVT_GAPP_ADVERTISEMENT_START_STOP \r\n");
 130:main.c        ****             if(CyBle_GetState() == CYBLE_STATE_DISCONNECTED)
 131:main.c        ****             {
 132:main.c        ****                 /* Advertisement event timed out, go to low power
 133:main.c        ****                 * mode (Stop mode) and wait for device reset
 134:main.c        ****                 * event to wake up the device again */
 135:main.c        ****                 CySysPmSetWakeupPolarity(CY_PM_STOP_WAKEUP_ACTIVE_HIGH);
 136:main.c        ****                 CySysPmStop();
 137:main.c        ****             }
 138:main.c        ****             break;
 139:main.c        ****         }
 140:main.c        ****         case CYBLE_EVT_GATTS_HANDLE_VALUE_CNF:
 141:main.c        ****         {
 142:main.c        ****             DBG_PRINTF("indication confirmation \r\n");
 143:main.c        ****             break;
 144:main.c        ****         }
 145:main.c        ****         case CYBLE_EVT_GAP_AUTH_REQ:
 146:main.c        ****             DBG_PRINTF("CYBLE_EVT_GAP_AUTH_REQ: security: 0x%x, bonding: 0x%x, ekeySize: 0x%x, auth
 147:main.c        ****                 (*(CYBLE_GAP_AUTH_INFO_T *)eventParam).security, 
 148:main.c        ****                 (*(CYBLE_GAP_AUTH_INFO_T *)eventParam).bonding, 
 149:main.c        ****                 (*(CYBLE_GAP_AUTH_INFO_T *)eventParam).ekeySize, 
 150:main.c        ****                 (*(CYBLE_GAP_AUTH_INFO_T *)eventParam).authErr);
 151:main.c        ****             break;
 152:main.c        ****         case CYBLE_EVT_GAP_PASSKEY_ENTRY_REQUEST:
 153:main.c        ****             DBG_PRINTF("\r\n");
 154:main.c        ****             DBG_PRINTF("CYBLE_EVT_GAP_PASSKEY_ENTRY_REQUEST press 'p' to enter passkey.\r\n");
 155:main.c        ****             break;
 156:main.c        ****         case CYBLE_EVT_GAP_PASSKEY_DISPLAY_REQUEST:
 157:main.c        ****         {
 158:main.c        ****             DBG_PRINTF("\r\n");
 159:main.c        ****             DBG_PRINTF("CYBLE_EVT_GAP_PASSKEY_DISPLAY_REQUEST. Passkey is: %lu.\r\n",
 160:main.c        ****                 *(uint32 *)eventParam);
 161:main.c        ****             break;
 162:main.c        ****         }
 163:main.c        ****         case CYBLE_EVT_GAP_ENCRYPT_CHANGE:
 164:main.c        ****         {
 165:main.c        ****             DBG_PRINTF("CYBLE_EVT_GAP_ENCRYPT_CHANGE: %d \r\n", *(uint8 *)eventParam);
 166:main.c        ****             break;
 167:main.c        ****         }
 168:main.c        ****         case CYBLE_EVT_GATT_CONNECT_IND:
 169:main.c        ****         {
 170:main.c        ****             DBG_PRINTF("CYBLE_EVT_GATT_CONNECT_IND: attId %x, bdHandle %x \r\n", 
 171:main.c        ****                 ((CYBLE_CONN_HANDLE_T *)eventParam)->attId, ((CYBLE_CONN_HANDLE_T *)eventParam)->bd
 172:main.c        ****             break;
 173:main.c        ****         }
 174:main.c        ****         case CYBLE_EVT_GAP_AUTH_COMPLETE:
ARM GAS  C:\Users\310309~1\AppData\Local\Temp\ccu8WRKs.s 			page 6


 175:main.c        ****         {
 176:main.c        ****             DBG_PRINTF("CYBLE_EVT_GAP_AUTH_COMPLETE: security:%x, bonding:%x, ekeySize:%x, authErr 
 177:main.c        ****                         ((CYBLE_GAP_AUTH_INFO_T *)eventParam)->security,
 178:main.c        ****                         ((CYBLE_GAP_AUTH_INFO_T *)eventParam)->bonding, 
 179:main.c        ****                         ((CYBLE_GAP_AUTH_INFO_T *)eventParam)->ekeySize, 
 180:main.c        ****                         ((CYBLE_GAP_AUTH_INFO_T *)eventParam)->authErr);
 181:main.c        ****             break;
 182:main.c        ****         }
 183:main.c        ****         case CYBLE_EVT_GATTS_WRITE_REQ:
 184:main.c        ****         {
 185:main.c        ****             wrReqParam = (CYBLE_GATTS_WRITE_REQ_PARAM_T *) eventParam;
 186:main.c        ****             //CCCD Region
 187:main.c        ****             {
 188:main.c        ****                 if(wrReqParam->handleValPair.attrHandle == CYBLE_PHYSICAL_ACTIVITY_MONITOR_GENERAL_
 189:main.c        ****                 {
 190:main.c        ****                     CyBle_GattsWriteAttributeValue(&wrReqParam->handleValPair, 0, &cyBle_connHandle
 191:main.c        ****                     generalinstantaneousdataNotify = wrReqParam->handleValPair.value.val[0] & 0x01;
 192:main.c        ****                     CyBle_GattsWriteRsp(cyBle_connHandle);
 193:main.c        ****                     DBG_PRINTF("Start/stop GENERAL ACTIVITY INSTANTANEOUS DATA Notifications \r\n")
 194:main.c        ****                 }
 195:main.c        ****                 
 196:main.c        ****                 if(wrReqParam->handleValPair.attrHandle == CYBLE_PHYSICAL_ACTIVITY_MONITOR_GENERAL_
 197:main.c        ****                 {
 198:main.c        ****                     CyBle_GattsWriteAttributeValue(&wrReqParam->handleValPair, 0, &cyBle_connHandle
 199:main.c        ****                     generalsummarydataIndicate = wrReqParam->handleValPair.value.val[0] & 0x02;
 200:main.c        ****                     CyBle_GattsWriteRsp(cyBle_connHandle);
 201:main.c        ****                     DBG_PRINTF("Start/stop GENERAL ACTIVITY SUMMARY DATA Indications \r\n");
 202:main.c        ****                 }
 203:main.c        ****                 
 204:main.c        ****                 if(wrReqParam->handleValPair.attrHandle == CYBLE_PHYSICAL_ACTIVITY_MONITOR_CARDIORE
 205:main.c        ****                 {
 206:main.c        ****                     CyBle_GattsWriteAttributeValue(&wrReqParam->handleValPair, 0, &cyBle_connHandle
 207:main.c        ****                     cardiorespiratoryactivityinstantaneousdataNotify = wrReqParam->handleValPair.va
 208:main.c        ****                     CyBle_GattsWriteRsp(cyBle_connHandle);
 209:main.c        ****                     DBG_PRINTF("Start/stop CARDIORESPIRATORY ACTIVITY INSTANTANEOUS DATA Notificati
 210:main.c        ****                 }
 211:main.c        ****                 
 212:main.c        ****                 if(wrReqParam->handleValPair.attrHandle == CYBLE_PHYSICAL_ACTIVITY_MONITOR_CARDIORE
 213:main.c        ****                 {
 214:main.c        ****                     CyBle_GattsWriteAttributeValue(&wrReqParam->handleValPair, 0, &cyBle_connHandle
 215:main.c        ****                     cardiorespiratoryactivitysummarydataIndicate = wrReqParam->handleValPair.value.
 216:main.c        ****                     CyBle_GattsWriteRsp(cyBle_connHandle);
 217:main.c        ****                     DBG_PRINTF("Start/stop CARDIORESPIRATORY ACTIVITY SUMMARY DATA Indications \r\n
 218:main.c        ****                 }
 219:main.c        ****                 
 220:main.c        ****                 if(wrReqParam->handleValPair.attrHandle == CYBLE_PHYSICAL_ACTIVITY_MONITOR_STEP_COU
 221:main.c        ****                 {
 222:main.c        ****                     CyBle_GattsWriteAttributeValue(&wrReqParam->handleValPair, 0, &cyBle_connHandle
 223:main.c        ****                     stepcounteractivitysummarydataIndicate = wrReqParam->handleValPair.value.val[0]
 224:main.c        ****                     CyBle_GattsWriteRsp(cyBle_connHandle);
 225:main.c        ****                     DBG_PRINTF("Start/stop STEP COUNTER ACTIVITY SUMMARY DATA Indications \r\n");
 226:main.c        ****                 }
 227:main.c        ****                 
 228:main.c        ****                 if(wrReqParam->handleValPair.attrHandle == CYBLE_PHYSICAL_ACTIVITY_MONITOR_SLEEP_AC
 229:main.c        ****                 {
 230:main.c        ****                     CyBle_GattsWriteAttributeValue(&wrReqParam->handleValPair, 0, &cyBle_connHandle
 231:main.c        ****                     sleepactivityinstantaneousdataNotify = wrReqParam->handleValPair.value.val[0] &
ARM GAS  C:\Users\310309~1\AppData\Local\Temp\ccu8WRKs.s 			page 7


 232:main.c        ****                     CyBle_GattsWriteRsp(cyBle_connHandle);
 233:main.c        ****                     DBG_PRINTF("Start/stop SLEEP ACTIVITY INSTANTANEOUS DATA Notifications \r\n");
 234:main.c        ****                 }
 235:main.c        ****                 
 236:main.c        ****                 if(wrReqParam->handleValPair.attrHandle == CYBLE_PHYSICAL_ACTIVITY_MONITOR_SLEEP_AC
 237:main.c        ****                 {
 238:main.c        ****                     CyBle_GattsWriteAttributeValue(&wrReqParam->handleValPair, 0, &cyBle_connHandle
 239:main.c        ****                     sleepactivitysummarydataIndicate = wrReqParam->handleValPair.value.val[0] & 0x0
 240:main.c        ****                     CyBle_GattsWriteRsp(cyBle_connHandle);
 241:main.c        ****                     DBG_PRINTF("Start/stop SLEEP ACTIVITY SUMMARY DATA Indications \r\n");
 242:main.c        ****                 }
 243:main.c        ****                 
 244:main.c        ****                 if(wrReqParam->handleValPair.attrHandle == CYBLE_PHYSICAL_ACTIVITY_MONITOR_PHYSICAL
 245:main.c        ****                 {
 246:main.c        ****                     CyBle_GattsWriteAttributeValue(&wrReqParam->handleValPair, 0, &cyBle_connHandle
 247:main.c        ****                     controlpointIndicate = wrReqParam->handleValPair.value.val[0] & 0x02;
 248:main.c        ****                     CyBle_GattsWriteRsp(cyBle_connHandle);
 249:main.c        ****                     DBG_PRINTF("Start/stop CONTROL POINT Indications \r\n");
 250:main.c        ****                 }
 251:main.c        ****                 
 252:main.c        ****                 if(wrReqParam->handleValPair.attrHandle == CYBLE_PHYSICAL_ACTIVITY_MONITOR_CURRENT_
 253:main.c        ****                 {
 254:main.c        ****                     CyBle_GattsWriteAttributeValue(&wrReqParam->handleValPair, 0, &cyBle_connHandle
 255:main.c        ****                     currentsessionIndicate = wrReqParam->handleValPair.value.val[0] & 0x02;
 256:main.c        ****                     CyBle_GattsWriteRsp(cyBle_connHandle);
 257:main.c        ****                     DBG_PRINTF("Start/stop CURRENT SESSION Indications \r\n");
 258:main.c        ****                 }
 259:main.c        ****                 
 260:main.c        ****                 if(wrReqParam->handleValPair.attrHandle == CYBLE_PHYSICAL_ACTIVITY_MONITOR_SESSION_
 261:main.c        ****                 {
 262:main.c        ****                     CyBle_GattsWriteAttributeValue(&wrReqParam->handleValPair, 0, &cyBle_connHandle
 263:main.c        ****                     sessionDescriptorIndicate = wrReqParam->handleValPair.value.val[0] & 0x02;
 264:main.c        ****                     CyBle_GattsWriteRsp(cyBle_connHandle);
 265:main.c        ****                     DBG_PRINTF("Start/stop SESSION DESCRIPTOR Indications \r\n");
 266:main.c        ****                 }
 267:main.c        ****             }
 268:main.c        ****             //User control point write handler region
 269:main.c        ****             {
 270:main.c        ****                 if(wrReqParam->handleValPair.attrHandle == CYBLE_PHYSICAL_ACTIVITY_MONITOR_PHYSICAL
 271:main.c        ****                 {
 272:main.c        ****                     CyBle_GattsWriteAttributeValue(&wrReqParam->handleValPair, 0, &cyBle_connHandle
 273:main.c        ****                     CYBLE_GATTS_ERR_PARAM_T err;
 274:main.c        ****                     err.attrHandle = wrReqParam->handleValPair.attrHandle;
 275:main.c        ****                     err.opcode = CYBLE_GATT_WRITE_REQ;
 276:main.c        ****                     
 277:main.c        ****                     DBG_PRINTF("Control point write request with: %i \r\n", wrReqParam->handleValPa
 278:main.c        ****                     
 279:main.c        ****                     switch(wrReqParam->handleValPair.value.val[0])
 280:main.c        ****                     {
 281:main.c        ****                         case ENQUIRE_SESSIONS:
 282:main.c        ****                         {
 283:main.c        ****                             DBG_PRINTF("Enquire Sessions \r\n");
 284:main.c        ****                             if(!controlpointIndicate || !sessionDescriptorIndicate)
 285:main.c        ****                             {
 286:main.c        ****                                 DBG_PRINTF("Client not subscribed to control point or session descr
 287:main.c        ****                                 err.errorCode = CYBLE_GATT_ERR_CCCD_IMPROPERLY_CONFIGURED;
 288:main.c        ****                                 (void)CyBle_GattsErrorRsp(cyBle_connHandle, &err);
ARM GAS  C:\Users\310309~1\AppData\Local\Temp\ccu8WRKs.s 			page 8


 289:main.c        ****                                 return;
 290:main.c        ****                                 
 291:main.c        ****                             }
 292:main.c        ****                             else if(totalSessionCount > 0)
 293:main.c        ****                             {
 294:main.c        ****                                 Enquire_Sessions_Requested = YES;
 295:main.c        ****                             }
 296:main.c        ****                             else
 297:main.c        ****                             {
 298:main.c        ****                                 DBG_PRINTF("There are no sessions in the database \r\n");
 299:main.c        ****                                 err.errorCode = ERR_NO_SESSIONS_AVAILABLE;
 300:main.c        ****                                 (void)CyBle_GattsErrorRsp(cyBle_connHandle, &err);
 301:main.c        ****                                 return;
 302:main.c        ****                             }
 303:main.c        ****                             break;
 304:main.c        ****                         }
 305:main.c        ****                         case ENQUIRE_SUB_SESSIONS:
 306:main.c        ****                         {
 307:main.c        ****                             uint16 subSessionIDBuffer = 0;
 308:main.c        ****                             if(wrReqParam->handleValPair.value.val[2] == 0) { subSessionIDBuffer = 
 309:main.c        ****                                 else if(wrReqParam->handleValPair.value.val[1] == 0) { subSessionID
 310:main.c        ****                                 else { subSessionIDBuffer = wrReqParam->handleValPair.value.val[2] 
 311:main.c        ****                                 
 312:main.c        ****                             DBG_PRINTF("Enquire Sub-Sessions with with session ID: %i \r\n", subSes
 313:main.c        ****                             
 314:main.c        ****                             if(!controlpointIndicate || !sessionDescriptorIndicate)
 315:main.c        ****                             {
 316:main.c        ****                                 DBG_PRINTF("Client not subscribed to control point or session descr
 317:main.c        ****                                 err.errorCode = CYBLE_GATT_ERR_CCCD_IMPROPERLY_CONFIGURED;
 318:main.c        ****                                 (void)CyBle_GattsErrorRsp(cyBle_connHandle, &err);
 319:main.c        ****                                 return;
 320:main.c        ****                             }
 321:main.c        ****                             else if(totalSessionCount == 0)
 322:main.c        ****                             {
 323:main.c        ****                                 DBG_PRINTF("There are no sessions in the database \r\n");
 324:main.c        ****                                 err.errorCode = ERR_NO_SESSIONS_AVAILABLE;
 325:main.c        ****                                 (void)CyBle_GattsErrorRsp(cyBle_connHandle, &err);
 326:main.c        ****                                 return;
 327:main.c        ****                             }
 328:main.c        ****                             else 
 329:main.c        ****                             {
 330:main.c        ****                                 Enquire_Sub_Sessions_Requested_For_ID = subSessionIDBuffer;
 331:main.c        ****                                 
 332:main.c        ****                                 CYBIT foundSubSession = NO;
 333:main.c        ****                                 for(int i = 0; i < totalSubSessionCount; i++)
 334:main.c        ****                                 {
 335:main.c        ****                                     if(Enquire_Sub_Sessions_Requested_For_ID == mySubSessions[i].Se
 336:main.c        ****                                     {
 337:main.c        ****                                         foundSubSession = YES;
 338:main.c        ****                                     }
 339:main.c        ****                                 }
 340:main.c        ****                                 if(!foundSubSession)
 341:main.c        ****                                 {
 342:main.c        ****                                     Enquire_Sub_Sessions_Requested_For_ID = 0;
 343:main.c        ****                                     DBG_PRINTF("There are no Sessions with this ID thus no sub sess
 344:main.c        ****                                     err.errorCode = ERR_INVALID_SESSION_ID;
 345:main.c        ****                                     (void)CyBle_GattsErrorRsp(cyBle_connHandle, &err);
ARM GAS  C:\Users\310309~1\AppData\Local\Temp\ccu8WRKs.s 			page 9


 346:main.c        ****                                     return;
 347:main.c        ****                                 }
 348:main.c        ****                             }
 349:main.c        ****                             break;
 350:main.c        ****                         }
 351:main.c        ****                         case GET_ENDED_SESSION_DATA:
 352:main.c        ****                         {
 353:main.c        ****                         if(!controlpointIndicate)
 354:main.c        ****                         {
 355:main.c        ****                             DBG_PRINTF("Client not subscribed to control point indications \r\n");
 356:main.c        ****                             err.errorCode = CYBLE_GATT_ERR_CCCD_IMPROPERLY_CONFIGURED;
 357:main.c        ****                             (void)CyBle_GattsErrorRsp(cyBle_connHandle, &err);
 358:main.c        ****                             return;
 359:main.c        ****                         }
 360:main.c        ****                         else if(totalSessionCount == 0)
 361:main.c        ****                         {
 362:main.c        ****                             DBG_PRINTF("There are no sessions in the database \r\n");
 363:main.c        ****                             err.errorCode = ERR_NO_SESSIONS_AVAILABLE;
 364:main.c        ****                             (void)CyBle_GattsErrorRsp(cyBle_connHandle, &err);
 365:main.c        ****                         }
 366:main.c        ****                         else if(wrReqParam->handleValPair.value.val[5] > 6)
 367:main.c        ****                         {
 368:main.c        ****                             DBG_PRINTF("OPCODE not supported \r\n");
 369:main.c        ****                             err.errorCode = CYBLE_GATT_ERR_OP_CODE_NOT_SUPPORTED;
 370:main.c        ****                             CyBle_GattsErrorRsp(cyBle_connHandle, &err);
 371:main.c        ****                             return;
 372:main.c        ****                         }
 373:main.c        ****                         else
 374:main.c        ****                         {
 375:main.c        ****                             CYBIT foundSession = NO;
 376:main.c        ****                             CYBIT foundRunningSession = NO;
 377:main.c        ****                             if(wrReqParam->handleValPair.value.val[2] == 0) { Get_Ended_Data_Sessio
 378:main.c        ****                             else if(wrReqParam->handleValPair.value.val[1] == 0) { Get_Ended_Data_S
 379:main.c        ****                             else { Get_Ended_Data_SessionID = wrReqParam->handleValPair.value.val[2
 380:main.c        ****                             
 381:main.c        ****                             if(wrReqParam->handleValPair.value.val[4] == 0) { Get_Ended_Data_Sub_Se
 382:main.c        ****                             else if(wrReqParam->handleValPair.value.val[3] == 0) { Get_Ended_Data_S
 383:main.c        ****                             else { Get_Ended_Data_Sub_SessionID = wrReqParam->handleValPair.value.v
 384:main.c        ****                             
 385:main.c        ****                             Get_Ended_Data_Value = wrReqParam->handleValPair.value.val[5];
 386:main.c        ****                             
 387:main.c        ****                             for(int i = 0; i < totalSessionCount; i++)
 388:main.c        ****                             {
 389:main.c        ****                                 if(Get_Ended_Data_SessionID == mySessions[i].SessionID)
 390:main.c        ****                                 {
 391:main.c        ****                                     foundSession = YES;
 392:main.c        ****                                     if(CHECK_BIT(mySessions[i].Flags, SESSION_SUB_SESSION_RUNNING_F
 393:main.c        ****                                     {
 394:main.c        ****                                         foundSession = NO;
 395:main.c        ****                                         foundRunningSession = YES;
 396:main.c        ****                                     }
 397:main.c        ****                                 }
 398:main.c        ****                             }
 399:main.c        ****                             
 400:main.c        ****                             if(foundRunningSession)
 401:main.c        ****                             {
 402:main.c        ****                                 DBG_PRINTF("This session is still running: %i \r\n", Get_Ended_Data
ARM GAS  C:\Users\310309~1\AppData\Local\Temp\ccu8WRKs.s 			page 10


 403:main.c        ****                                 Get_Ended_Data_SessionID = 0;
 404:main.c        ****                                 Get_Ended_Data_Sub_SessionID = 0;
 405:main.c        ****                                 err.errorCode = ERR_SESSION_STILL_RUNNING;
 406:main.c        ****                                 (void)CyBle_GattsErrorRsp(cyBle_connHandle, &err);
 407:main.c        ****                                 return;
 408:main.c        ****                             }
 409:main.c        ****                             else if(!foundSession)
 410:main.c        ****                             {
 411:main.c        ****                                 DBG_PRINTF("There are no Sessions with this ID: %i \r\n", Get_Ended
 412:main.c        ****                                 Get_Ended_Data_SessionID = 0;
 413:main.c        ****                                 Get_Ended_Data_Sub_SessionID = 0;
 414:main.c        ****                                 err.errorCode = ERR_INVALID_SESSION_ID;
 415:main.c        ****                                 CyBle_GattsErrorRsp(cyBle_connHandle, &err);
 416:main.c        ****                                 return;
 417:main.c        ****                             }
 418:main.c        ****                             
 419:main.c        ****                             CYBIT foundSubSession = NO;
 420:main.c        ****                             for(int i = 0; i < totalSubSessionCount; i++)
 421:main.c        ****                             {
 422:main.c        ****                                 if(Get_Ended_Data_Sub_SessionID == mySubSessions[i].SubSessionID
 423:main.c        ****                                 && Get_Ended_Data_SessionID == mySubSessions[i].SessionID)
 424:main.c        ****                                 {
 425:main.c        ****                                     foundSubSession = YES;
 426:main.c        ****                                 }
 427:main.c        ****                             }
 428:main.c        ****                             
 429:main.c        ****                             if(Get_Ended_Data_Sub_SessionID == 0xFFFF)
 430:main.c        ****                             {
 431:main.c        ****                                 foundSubSession = YES;
 432:main.c        ****                             }
 433:main.c        ****                             
 434:main.c        ****                             if(!foundSubSession)
 435:main.c        ****                             {
 436:main.c        ****                                 DBG_PRINTF("There are no Sub-Sessions with this ID: %i \r\n", Get_E
 437:main.c        ****                                 Get_Ended_Data_SessionID = 0;
 438:main.c        ****                                 Get_Ended_Data_Sub_SessionID = 0;
 439:main.c        ****                                 err.errorCode = ERR_INVALID_SUB_SESSION_ID;
 440:main.c        ****                                 (void)CyBle_GattsErrorRsp(cyBle_connHandle, &err);
 441:main.c        ****                                 return;
 442:main.c        ****                             }
 443:main.c        ****                             else
 444:main.c        ****                             {
 445:main.c        ****                                 DBG_PRINTF("Get Ended Session Data\r\n");
 446:main.c        ****                                 DBG_PRINTF("SessionID: %i \r\n", Get_Ended_Data_SessionID);
 447:main.c        ****                                 DBG_PRINTF("Sub-SessionID: %i \r\n", Get_Ended_Data_Sub_SessionID);
 448:main.c        ****                                 DBG_PRINTF("Characteristic %i (0 = GAI, 1 = GAS, 2 = CRAI, 3 = CRAS
 449:main.c        ****                             }
 450:main.c        ****                         }
 451:main.c        ****                         break;
 452:main.c        ****                     }
 453:main.c        ****                         case START_SESSION_SUB_SESSION:
 454:main.c        ****                         {
 455:main.c        ****                         if(wrReqParam->handleValPair.value.val[1] == 0x00)
 456:main.c        ****                         {
 457:main.c        ****                             sessionCount++;
 458:main.c        ****                             add_session(mySessions, buildNewSession(sessionCount, 0), &totalSession
 459:main.c        ****                             subsessionCount = 1;
ARM GAS  C:\Users\310309~1\AppData\Local\Temp\ccu8WRKs.s 			page 11


 460:main.c        ****                             add_session(mySubSessions, buildNewSession(totalSessionCount, subsessio
 461:main.c        ****                             UpdateCurrSession(&mySubSessions[totalSubSessionCount - 1]);
 462:main.c        ****                             DBG_PRINTF("Start Session with session ID: %i\r\n Total sessions: %i \r
 463:main.c        ****                         }
 464:main.c        ****                         else if (wrReqParam->handleValPair.value.val[1] == 0x01)
 465:main.c        ****                         {
 466:main.c        ****                             if(totalSessionCount > 0)
 467:main.c        ****                             {
 468:main.c        ****                                 subsessionCount++;
 469:main.c        ****                                 add_session(mySubSessions, buildNewSession(totalSessionCount, subse
 470:main.c        ****                                 UpdateCurrSession(&mySubSessions[totalSubSessionCount - 1]);
 471:main.c        ****                                 DBG_PRINTF("Start Sub-Session with sub session ID: %i into sessionI
 472:main.c        ****                                 DBG_PRINTF("Total sessions: %i \r\n Total SUB sessions: %i \r\n", t
 473:main.c        ****                             }
 474:main.c        ****                             else
 475:main.c        ****                             {
 476:main.c        ****                                 DBG_PRINTF("Cannot start new Sub-Session need to start a session fi
 477:main.c        ****                                 err.errorCode = ERR_NO_SESSION_RUNNING;
 478:main.c        ****                                 (void)CyBle_GattsErrorRsp(cyBle_connHandle, &err);
 479:main.c        ****                                 return;
 480:main.c        ****                             }
 481:main.c        ****                         }
 482:main.c        ****                         else
 483:main.c        ****                         {
 484:main.c        ****                             DBG_PRINTF("Unknown Command\r\n Specify '0400' to start a session and '
 485:main.c        ****                             err.errorCode = ERR_UNDEFINED_VALUE;
 486:main.c        ****                             (void)CyBle_GattsErrorRsp(cyBle_connHandle, &err);
 487:main.c        ****                             return;
 488:main.c        ****                         }
 489:main.c        ****                         break;
 490:main.c        ****                     }
 491:main.c        ****                         case STOP_SESSION:
 492:main.c        ****                         {
 493:main.c        ****                         DBG_PRINTF("Stop Session\r\n");
 494:main.c        ****                         if (stop_session(mySessions, &totalSessionCount))
 495:main.c        ****                         {
 496:main.c        ****                             stop_sub_session(mySubSessions, &totalSubSessionCount);
 497:main.c        ****                             UpdateCurrSession(&mySubSessions[totalSubSessionCount - 1]);
 498:main.c        ****                         }
 499:main.c        ****                         else
 500:main.c        ****                         {
 501:main.c        ****                             DBG_PRINTF("Can't stop session, No running session\r\n");
 502:main.c        ****                             err.errorCode = ERR_NOTHING_TO_STOP;
 503:main.c        ****                             (void)CyBle_GattsErrorRsp(cyBle_connHandle, &err);
 504:main.c        ****                             return;
 505:main.c        ****                         }
 506:main.c        ****                         break;
 507:main.c        ****                     }
 508:main.c        ****                         case DELETE_SESSION:
 509:main.c        ****                         {
 510:main.c        ****                         uint16 sessionIDBuffer = 0;
 511:main.c        ****                         if(wrReqParam->handleValPair.value.val[2] == 0) { sessionIDBuffer = wrReqPa
 512:main.c        ****                             else if(wrReqParam->handleValPair.value.val[1] == 0) { sessionIDBuffer 
 513:main.c        ****                             else { sessionIDBuffer = wrReqParam->handleValPair.value.val[2] * 256 +
 514:main.c        ****                         
 515:main.c        ****                         DBG_PRINTF("Delete Session with parameter: %i requested\r\n", sessionIDBuff
 516:main.c        ****                         uint16 toDeleteID = sessionIDBuffer;
ARM GAS  C:\Users\310309~1\AppData\Local\Temp\ccu8WRKs.s 			page 12


 517:main.c        ****                         uint8 deleteStatus = delete_session(mySessions, &totalSessionCount, toDelet
 518:main.c        ****                         switch(deleteStatus)
 519:main.c        ****                         {
 520:main.c        ****                             case(SUCCES):
 521:main.c        ****                             {
 522:main.c        ****                                 DBG_PRINTF("Deleted Session and sub sessions \r\n");
 523:main.c        ****                                 delete_sub_session(mySubSessions, &totalSubSessionCount, toDeleteID
 524:main.c        ****                                 break;
 525:main.c        ****                             }
 526:main.c        ****                             case NO_SESSION_WITH_ID:
 527:main.c        ****                             {
 528:main.c        ****                                 DBG_PRINTF("There are no sessions with: \r\n SessionID: %i \r\n", t
 529:main.c        ****                                 err.errorCode = ERR_INVALID_SESSION_ID;
 530:main.c        ****                                 (void)CyBle_GattsErrorRsp(cyBle_connHandle, &err);
 531:main.c        ****                                 return;
 532:main.c        ****                             }
 533:main.c        ****                             case SESSION_STILL_RUNNING:
 534:main.c        ****                             {
 535:main.c        ****                                 DBG_PRINTF("This session is still running: \r\n SessionID: %i \r\n"
 536:main.c        ****                                 err.errorCode = ERR_SESSION_STILL_RUNNING;
 537:main.c        ****                                 (void)CyBle_GattsErrorRsp(cyBle_connHandle, &err);
 538:main.c        ****                                 return;
 539:main.c        ****                             }
 540:main.c        ****                             case NO_SESSIONS:
 541:main.c        ****                             {
 542:main.c        ****                                 DBG_PRINTF("There are no sessions\r\n");
 543:main.c        ****                                 err.errorCode = ERR_NO_SESSIONS_AVAILABLE;
 544:main.c        ****                                 (void)CyBle_GattsErrorRsp(cyBle_connHandle, &err);
 545:main.c        ****                             }
 546:main.c        ****                         }
 547:main.c        ****                         break;
 548:main.c        ****                     }
 549:main.c        ****                         case SET_AVERAGE_ACTIVITY_TYPE:
 550:main.c        ****                         {
 551:main.c        ****                             DBG_PRINTF("Set Average Activity Type Requested\r\n");
 552:main.c        ****                             if(!controlpointIndicate)
 553:main.c        ****                             {
 554:main.c        ****                                 DBG_PRINTF("Client not subscribed to control point indications \r\n
 555:main.c        ****                                 err.errorCode = CYBLE_GATT_ERR_CCCD_IMPROPERLY_CONFIGURED;
 556:main.c        ****                                 (void)CyBle_GattsErrorRsp(cyBle_connHandle, &err);
 557:main.c        ****                                 return;
 558:main.c        ****                             }
 559:main.c        ****                             else if(totalSessionCount == 0)
 560:main.c        ****                             {
 561:main.c        ****                                 DBG_PRINTF("There are no sessions in the database \r\n");
 562:main.c        ****                                 err.errorCode = ERR_NO_SESSIONS_AVAILABLE;
 563:main.c        ****                                 (void)CyBle_GattsErrorRsp(cyBle_connHandle, &err);
 564:main.c        ****                             }
 565:main.c        ****                             
 566:main.c        ****                             int scope = wrReqParam->handleValPair.value.val[1];
 567:main.c        ****                             uint8 UserDefinedActivityType = wrReqParam->handleValPair.value.val[2];
 568:main.c        ****                             
 569:main.c        ****                             switch(scope)
 570:main.c        ****                             {
 571:main.c        ****                                 case CURRENT_SUB_SESSION:
 572:main.c        ****                                 {
 573:main.c        ****                                     UserDefinedActivityTypeAllSubSessions[CurrSession.SessionID][Cu
ARM GAS  C:\Users\310309~1\AppData\Local\Temp\ccu8WRKs.s 			page 13


 574:main.c        ****                                     GasData.AverageActivityType = ((UserDefinedActivityTypeAllSubSe
 575:main.c        ****                                     break;
 576:main.c        ****                                 }
 577:main.c        ****                                 case ALL_SUB_SESSIONS_IN_SESSION:
 578:main.c        ****                                 {
 579:main.c        ****                                     for(int i = 0; i < totalSubSessionCount; i++)
 580:main.c        ****                                     {
 581:main.c        ****                                         if(mySubSessions[i].SessionID == CurrSession.SessionID)
 582:main.c        ****                                         {
 583:main.c        ****                                             UserDefinedActivityTypeAllSubSessions[CurrSession.Sessi
 584:main.c        ****                                             DBG_PRINTF("Value Set for: \r\n Sess ID: %i \r\n Sub Se
 585:main.c        ****                                         }
 586:main.c        ****                                     }  
 587:main.c        ****                                     break;
 588:main.c        ****                                 }
 589:main.c        ****                                 default:
 590:main.c        ****                                 {
 591:main.c        ****                                     DBG_PRINTF("Invalid Parameter\r\n");
 592:main.c        ****                                     err.errorCode = ERR_UNDEFINED_VALUE;
 593:main.c        ****                                     (void)CyBle_GattsErrorRsp(cyBle_connHandle, &err);
 594:main.c        ****                                     return;
 595:main.c        ****                                 }
 596:main.c        ****                             }
 597:main.c        ****                             break;
 598:main.c        ****                         }
 599:main.c        ****                         default:
 600:main.c        ****                         {
 601:main.c        ****                             DBG_PRINTF("Unknown Command\r\n");
 602:main.c        ****                             err.errorCode = CYBLE_GATT_ERR_OP_CODE_NOT_SUPPORTED;
 603:main.c        ****                             (void)CyBle_GattsErrorRsp(cyBle_connHandle, &err);
 604:main.c        ****                             return;
 605:main.c        ****                         }
 606:main.c        ****                     }
 607:main.c        ****                     CyBle_GattsWriteRsp(cyBle_connHandle);
 608:main.c        ****                 }
 609:main.c        ****             }
 610:main.c        ****             
 611:main.c        ****         case CYBLE_EVT_GATTS_READ_CHAR_VAL_ACCESS_REQ:
 612:main.c        ****             //DBG_PRINTF("READ REQUEST\r\n");
 613:main.c        ****             break;
 614:main.c        ****         
 615:main.c        ****         default:
 616:main.c        ****             break;
 617:main.c        ****         }
 618:main.c        ****     }
 619:main.c        **** }
 620:main.c        **** 
 621:main.c        **** int main(void)
 622:main.c        **** {
 623:main.c        ****     CyGlobalIntEnable; /* Enable global interrupts. */
 624:main.c        ****     
 625:main.c        ****     if(apiResult != CYBLE_ERROR_OK)
 626:main.c        ****     {
 627:main.c        ****         /* BLE stack initialization failed Check configuration */
 628:main.c        ****         CYASSERT(0);
 629:main.c        ****     }
 630:main.c        **** 
ARM GAS  C:\Users\310309~1\AppData\Local\Temp\ccu8WRKs.s 			page 14


 631:main.c        ****     /* Place your initialization/startup code here (e.g. MyInst_Start()) */
 632:main.c        **** 
 633:main.c        ****     Pin_SW2_Int_StartEx( Pin_SW2_Handler );
 634:main.c        ****     TCPWM_Start();
 635:main.c        ****     isr_timer_StartEx( isr_timer_Handler );
 636:main.c        ****     
 637:main.c        ****     CYBIT procedureFailed = FALSE;
 638:main.c        ****     
 639:main.c        ****     apiResult = CyBle_Start(BleEventHandler);
 640:main.c        ****     
 641:main.c        ****     InitializePhisicalActivityMonitor();
 642:main.c        ****     
 643:main.c        ****     for(;;)
 644:main.c        ****     {
 645:main.c        ****         /* Place your application code here. */
 646:main.c        ****         CyBle_ProcessEvents();
 647:main.c        ****         
 648:main.c        ****         if(CyBle_GetState() == CYBLE_STATE_CONNECTED)
 649:main.c        ****         //{
 650:main.c        ****         //#if (DEBUG_UART_ENABLED == ENABLED)
 651:main.c        ****         //    if((cyBle_pendingFlashWrite != 0u) &&
 652:main.c        ****         //       ((UART_DEB_SpiUartGetTxBufferSize() + UART_DEB_GET_TX_FIFO_SR_VALID) == 0u))
 653:main.c        ****         //#else
 654:main.c        ****         //    if(cyBle_pendingFlashWrite != 0u)
 655:main.c        ****         //#endif /* (DEBUG_UART_ENABLED == ENABLED) */
 656:main.c        ****         //    {
 657:main.c        ****         //        /* Store bounding data to flash only when all debug information has been sent */
 658:main.c        ****         //        apiResult = CyBle_StoreBondingData(0u);
 659:main.c        ****         //    }
 660:main.c        ****         //    else
 661:main.c        ****         //    {
 662:main.c        ****         //        /* nothing else */ 
 663:main.c        ****         //    }
 664:main.c        ****         //}
 665:main.c        ****         
 666:main.c        ****         #if(CYBLE_BONDING_REQUIREMENT == CYBLE_BONDING_YES)
 667:main.c        ****         /* Store bonding data to flash only when all debug information has been sent */
 668:main.c        ****         #if (DEBUG_UART_ENABLED == ENABLED)
 669:main.c        ****             if((cyBle_pendingFlashWrite != 0u) &&
 670:main.c        ****                ((UART_DEB_SpiUartGetTxBufferSize() + UART_DEB_GET_TX_FIFO_SR_VALID) == 0u))
 671:main.c        ****         #else
 672:main.c        ****             if(cyBle_pendingFlashWrite != 0u)
 673:main.c        ****         #endif /* (DEBUG_UART_ENABLED == ENABLED) */
 674:main.c        ****         {
 675:main.c        ****             apiResult = CyBle_StoreBondingData(0u);
 676:main.c        ****             DBG_PRINTF("Store bonding data, status: %x \r\n", apiResult);
 677:main.c        ****         }
 678:main.c        ****         #endif /* (CYBLE_BONDING_REQUIREMENT == CYBLE_BONDING_YES) */
 679:main.c        ****         
 680:main.c        ****         
 681:main.c        ****         
 682:main.c        ****         if(Enquire_Sessions_Requested)
 683:main.c        ****         {
 684:main.c        ****             for(int i = 0; i < totalSessionCount; i++)
 685:main.c        ****             {
 686:main.c        ****                 procedureFailed = UpdateSessionDescriptor(mySessions[i]);
 687:main.c        ****             }
ARM GAS  C:\Users\310309~1\AppData\Local\Temp\ccu8WRKs.s 			page 15


 688:main.c        ****             if(procedureFailed) 
 689:main.c        ****             { 
 690:main.c        ****                 updateControlPointEnquireSucces(0xFF, 0xFF);
 691:main.c        ****             }
 692:main.c        ****             else                
 693:main.c        ****             { 
 694:main.c        ****                 updateControlPointEnquireSucces(0xFC, totalSessionCount); 
 695:main.c        ****             }
 696:main.c        ****             
 697:main.c        ****             Enquire_Sessions_Requested = NO;
 698:main.c        ****             procedureFailed = FALSE;
 699:main.c        ****             
 700:main.c        ****         }
 701:main.c        ****         
 702:main.c        ****         if(Enquire_Sub_Sessions_Requested_For_ID > 0)
 703:main.c        ****         {
 704:main.c        ****             uint16 count = 0;
 705:main.c        ****             for(int i = 0; i < totalSubSessionCount; i++)
 706:main.c        ****             {
 707:main.c        ****                 if(Enquire_Sub_Sessions_Requested_For_ID == mySubSessions[i].SessionID)
 708:main.c        ****                 {
 709:main.c        ****                     procedureFailed = UpdateSessionDescriptor(mySubSessions[i]);
 710:main.c        ****                     count++;
 711:main.c        ****                 }
 712:main.c        ****             }
 713:main.c        ****             
 714:main.c        ****             if(procedureFailed) { updateControlPointEnquireSucces(0xFE, 0xFF); }
 715:main.c        ****             else                { updateControlPointEnquireSucces(0xFB, count); }
 716:main.c        ****             
 717:main.c        ****             Enquire_Sub_Sessions_Requested_For_ID = NO;
 718:main.c        ****             procedureFailed = FALSE;
 719:main.c        ****         }
 720:main.c        ****         
 721:main.c        ****         if(send_Deleted_Sessions)
 722:main.c        ****         {
 723:main.c        ****             for(int i = 0; i < totalDeletedSessions; i++)
 724:main.c        ****             {
 725:main.c        ****                 UpdateSessionDescriptor(myDeletedSessions[i]);
 726:main.c        ****                 myDeletedSessions[i] = myDeletedSessions[i + 1];
 727:main.c        ****                 totalDeletedSessions -= 1;
 728:main.c        ****             }
 729:main.c        ****             send_Deleted_Sessions = NO;
 730:main.c        ****         }
 731:main.c        ****         
 732:main.c        ****         if(Get_Ended_Data_SessionID > 0)
 733:main.c        ****         {
 734:main.c        ****             uint32 count = 0;
 735:main.c        ****             if(Get_Ended_Data_Sub_SessionID == 0xFFFF)
 736:main.c        ****             {
 737:main.c        ****                 for(int i = 0; i < totalSubSessionCount; i++)
 738:main.c        ****                 {
 739:main.c        ****                     if(Get_Ended_Data_SessionID == mySubSessions[i].SessionID)
 740:main.c        ****                     {
 741:main.c        ****                         uint16 subSessionID = mySubSessions[i].SubSessionID;
 742:main.c        ****                         count += SimulateValues(&Get_Ended_Data_SessionID, &subSessionID);
 743:main.c        ****                         
 744:main.c        ****                     }
ARM GAS  C:\Users\310309~1\AppData\Local\Temp\ccu8WRKs.s 			page 16


 745:main.c        ****                 }
 746:main.c        ****             }
 747:main.c        ****             else
 748:main.c        ****             {
 749:main.c        ****                 count += SimulateValues(&Get_Ended_Data_SessionID, &Get_Ended_Data_Sub_SessionID);
 750:main.c        ****             }
 751:main.c        ****             
 752:main.c        ****             if(procedureFailed) { updateControlPointEnquireSucces(0xFD, 0xFF); }
 753:main.c        ****             else                { updateControlPointGetEndedDataSucces(0xFA, count); }
 754:main.c        ****             
 755:main.c        ****             
 756:main.c        ****             Get_Ended_Data_SessionID = 0;
 757:main.c        ****             Get_Ended_Data_Sub_SessionID = 0;
 758:main.c        ****         }
 759:main.c        ****         
 760:main.c        ****         CyBle_EnterLPM(CYBLE_BLESS_DEEPSLEEP);
 761:main.c        ****     }
 762:main.c        **** }
 763:main.c        **** 
 764:main.c        **** uint32 SimulateValues(uint16* SessionID, uint16* SubSessionID)
 765:main.c        **** {
 112              		.loc 1 765 0
 113              		.cfi_startproc
 114              		@ args = 0, pretend = 0, frame = 0
 115              		@ frame_needed = 0, uses_anonymous_args = 0
 116              	.LVL4:
 117 0000 F8B5     		push	{r3, r4, r5, r6, r7, lr}
 118              		.cfi_def_cfa_offset 24
 119              		.cfi_offset 3, -24
 120              		.cfi_offset 4, -20
 121              		.cfi_offset 5, -16
 122              		.cfi_offset 6, -12
 123              		.cfi_offset 7, -8
 124              		.cfi_offset 14, -4
 766:main.c        ****     //GaiData
 767:main.c        ****     {
 768:main.c        ****         GaiData.SessionID = *SessionID;
 125              		.loc 1 768 0
 126 0002 0288     		ldrh	r2, [r0]
 127 0004 D24B     		ldr	r3, .L16
 128 0006 1A71     		strb	r2, [r3, #4]
 129 0008 120A     		lsrs	r2, r2, #8
 130 000a 5A71     		strb	r2, [r3, #5]
 769:main.c        ****         GaiData.SubSessionID = *SubSessionID;
 131              		.loc 1 769 0
 132 000c 0A88     		ldrh	r2, [r1]
 133 000e 9A71     		strb	r2, [r3, #6]
 134 0010 120A     		lsrs	r2, r2, #8
 135 0012 DA71     		strb	r2, [r3, #7]
 770:main.c        ****         GaiData.ActivityCountPerMinute = *SessionID * 10 + *SubSessionID;
 136              		.loc 1 770 0
 137 0014 0588     		ldrh	r5, [r0]
 138 0016 0E88     		ldrh	r6, [r1]
 139 0018 AC00     		lsls	r4, r5, #2
 140 001a 2C19     		adds	r4, r5, r4
 141 001c 6200     		lsls	r2, r4, #1
 142 001e B218     		adds	r2, r6, r2
ARM GAS  C:\Users\310309~1\AppData\Local\Temp\ccu8WRKs.s 			page 17


 143 0020 92B2     		uxth	r2, r2
 144 0022 2024     		movs	r4, #32
 145 0024 1A55     		strb	r2, [r3, r4]
 146 0026 120A     		lsrs	r2, r2, #8
 147 0028 0134     		adds	r4, r4, #1
 148 002a 1A55     		strb	r2, [r3, r4]
 771:main.c        ****         GaiData.ActivityLevel = *SessionID * 10 + *SubSessionID;
 149              		.loc 1 771 0
 150 002c 0588     		ldrh	r5, [r0]
 151 002e 0E88     		ldrh	r6, [r1]
 152 0030 AC00     		lsls	r4, r5, #2
 153 0032 2C19     		adds	r4, r5, r4
 154 0034 6200     		lsls	r2, r4, #1
 155 0036 B218     		adds	r2, r6, r2
 156 0038 92B2     		uxth	r2, r2
 157 003a 2224     		movs	r4, #34
 158 003c 1A55     		strb	r2, [r3, r4]
 159 003e 120A     		lsrs	r2, r2, #8
 160 0040 0134     		adds	r4, r4, #1
 161 0042 1A55     		strb	r2, [r3, r4]
 772:main.c        ****         GaiData.ActivityType = *SessionID * 10 + *SubSessionID;
 162              		.loc 1 772 0
 163 0044 0588     		ldrh	r5, [r0]
 164 0046 0E88     		ldrh	r6, [r1]
 165 0048 AC00     		lsls	r4, r5, #2
 166 004a 2C19     		adds	r4, r5, r4
 167 004c 6200     		lsls	r2, r4, #1
 168 004e B218     		adds	r2, r6, r2
 169 0050 92B2     		uxth	r2, r2
 170 0052 2424     		movs	r4, #36
 171 0054 1A55     		strb	r2, [r3, r4]
 172 0056 120A     		lsrs	r2, r2, #8
 173 0058 0134     		adds	r4, r4, #1
 174 005a 1A55     		strb	r2, [r3, r4]
 773:main.c        ****         GaiData.Elevation[0] = *SessionID * 10 + *SubSessionID;
 175              		.loc 1 773 0
 176 005c 0588     		ldrh	r5, [r0]
 177 005e 0C88     		ldrh	r4, [r1]
 178 0060 AA00     		lsls	r2, r5, #2
 179 0062 AA18     		adds	r2, r5, r2
 180 0064 5500     		lsls	r5, r2, #1
 181 0066 2A19     		adds	r2, r5, r4
 182 0068 5A77     		strb	r2, [r3, #29]
 774:main.c        ****         GaiData.Elevation[1] = *SessionID * 10 + *SubSessionID;
 183              		.loc 1 774 0
 184 006a 0588     		ldrh	r5, [r0]
 185 006c 0C88     		ldrh	r4, [r1]
 186 006e AA00     		lsls	r2, r5, #2
 187 0070 AA18     		adds	r2, r5, r2
 188 0072 5500     		lsls	r5, r2, #1
 189 0074 2A19     		adds	r2, r5, r4
 190 0076 9A77     		strb	r2, [r3, #30]
 775:main.c        ****         GaiData.Elevation[2] = *SessionID * 10 + *SubSessionID;
 191              		.loc 1 775 0
 192 0078 0588     		ldrh	r5, [r0]
 193 007a 0C88     		ldrh	r4, [r1]
 194 007c AA00     		lsls	r2, r5, #2
ARM GAS  C:\Users\310309~1\AppData\Local\Temp\ccu8WRKs.s 			page 18


 195 007e AA18     		adds	r2, r5, r2
 196 0080 5500     		lsls	r5, r2, #1
 197 0082 2A19     		adds	r2, r5, r4
 198 0084 DA77     		strb	r2, [r3, #31]
 776:main.c        ****         GaiData.FatBurnedPerHour = *SessionID * 10 + *SubSessionID;
 199              		.loc 1 776 0
 200 0086 0588     		ldrh	r5, [r0]
 201 0088 0E88     		ldrh	r6, [r1]
 202 008a AC00     		lsls	r4, r5, #2
 203 008c 2C19     		adds	r4, r5, r4
 204 008e 6200     		lsls	r2, r4, #1
 205 0090 B218     		adds	r2, r6, r2
 206 0092 92B2     		uxth	r2, r2
 207 0094 9A75     		strb	r2, [r3, #22]
 208 0096 120A     		lsrs	r2, r2, #8
 209 0098 DA75     		strb	r2, [r3, #23]
 777:main.c        ****         GaiData.IntensityEnergyExpenditurePerHour = *SessionID * 10 + *SubSessionID;
 210              		.loc 1 777 0
 211 009a 0588     		ldrh	r5, [r0]
 212 009c 0E88     		ldrh	r6, [r1]
 213 009e AC00     		lsls	r4, r5, #2
 214 00a0 2C19     		adds	r4, r5, r4
 215 00a2 6200     		lsls	r2, r4, #1
 216 00a4 B218     		adds	r2, r6, r2
 217 00a6 92B2     		uxth	r2, r2
 218 00a8 9A74     		strb	r2, [r3, #18]
 219 00aa 120A     		lsrs	r2, r2, #8
 220 00ac DA74     		strb	r2, [r3, #19]
 778:main.c        ****         GaiData.MetabolicEquivalent = *SessionID * 10 + *SubSessionID;
 221              		.loc 1 778 0
 222 00ae 0588     		ldrh	r5, [r0]
 223 00b0 0C88     		ldrh	r4, [r1]
 224 00b2 AA00     		lsls	r2, r5, #2
 225 00b4 AA18     		adds	r2, r5, r2
 226 00b6 5500     		lsls	r5, r2, #1
 227 00b8 2A19     		adds	r2, r5, r4
 228 00ba 1A76     		strb	r2, [r3, #24]
 779:main.c        ****         GaiData.MotionCadence = *SessionID * 10 + *SubSessionID;
 229              		.loc 1 779 0
 230 00bc 0588     		ldrh	r5, [r0]
 231 00be 0E88     		ldrh	r6, [r1]
 232 00c0 AC00     		lsls	r4, r5, #2
 233 00c2 2C19     		adds	r4, r5, r4
 234 00c4 6200     		lsls	r2, r4, #1
 235 00c6 B218     		adds	r2, r6, r2
 236 00c8 92B2     		uxth	r2, r2
 237 00ca DA76     		strb	r2, [r3, #27]
 238 00cc 120A     		lsrs	r2, r2, #8
 239 00ce 1A77     		strb	r2, [r3, #28]
 780:main.c        ****         GaiData.NormalWalkingEnergyExpenditurePerHour = *SessionID * 10 + *SubSessionID;
 240              		.loc 1 780 0
 241 00d0 0588     		ldrh	r5, [r0]
 242 00d2 0E88     		ldrh	r6, [r1]
 243 00d4 AC00     		lsls	r4, r5, #2
 244 00d6 2C19     		adds	r4, r5, r4
 245 00d8 6200     		lsls	r2, r4, #1
 246 00da B218     		adds	r2, r6, r2
ARM GAS  C:\Users\310309~1\AppData\Local\Temp\ccu8WRKs.s 			page 19


 247 00dc 92B2     		uxth	r2, r2
 248 00de 1A74     		strb	r2, [r3, #16]
 249 00e0 120A     		lsrs	r2, r2, #8
 250 00e2 5A74     		strb	r2, [r3, #17]
 781:main.c        ****         GaiData.RelativeTimestamp = *SessionID * 10 + *SubSessionID;
 251              		.loc 1 781 0
 252 00e4 0288     		ldrh	r2, [r0]
 253 00e6 9400     		lsls	r4, r2, #2
 254 00e8 A418     		adds	r4, r4, r2
 255 00ea 6200     		lsls	r2, r4, #1
 256 00ec 0C88     		ldrh	r4, [r1]
 257 00ee A218     		adds	r2, r4, r2
 258 00f0 1A72     		strb	r2, [r3, #8]
 259 00f2 140A     		lsrs	r4, r2, #8
 260 00f4 5C72     		strb	r4, [r3, #9]
 261 00f6 140C     		lsrs	r4, r2, #16
 262 00f8 9C72     		strb	r4, [r3, #10]
 263 00fa 120E     		lsrs	r2, r2, #24
 264 00fc DA72     		strb	r2, [r3, #11]
 782:main.c        ****         GaiData.SequenceNumber = *SessionID * 10 + *SubSessionID;
 265              		.loc 1 782 0
 266 00fe 0288     		ldrh	r2, [r0]
 267 0100 9400     		lsls	r4, r2, #2
 268 0102 A418     		adds	r4, r4, r2
 269 0104 6200     		lsls	r2, r4, #1
 270 0106 0C88     		ldrh	r4, [r1]
 271 0108 A218     		adds	r2, r4, r2
 272 010a 1A73     		strb	r2, [r3, #12]
 273 010c 140A     		lsrs	r4, r2, #8
 274 010e 5C73     		strb	r4, [r3, #13]
 275 0110 140C     		lsrs	r4, r2, #16
 276 0112 9C73     		strb	r4, [r3, #14]
 277 0114 120E     		lsrs	r2, r2, #24
 278 0116 DA73     		strb	r2, [r3, #15]
 783:main.c        ****         GaiData.Speed = *SessionID * 10 + *SubSessionID;
 279              		.loc 1 783 0
 280 0118 0588     		ldrh	r5, [r0]
 281 011a 0E88     		ldrh	r6, [r1]
 282 011c AC00     		lsls	r4, r5, #2
 283 011e 2C19     		adds	r4, r5, r4
 284 0120 6200     		lsls	r2, r4, #1
 285 0122 B218     		adds	r2, r6, r2
 286 0124 92B2     		uxth	r2, r2
 287 0126 5A76     		strb	r2, [r3, #25]
 288 0128 120A     		lsrs	r2, r2, #8
 289 012a 9A76     		strb	r2, [r3, #26]
 784:main.c        ****         GaiData.TotalEnergyExpenditurePerHour = *SessionID * 10 + *SubSessionID;
 290              		.loc 1 784 0
 291 012c 0588     		ldrh	r5, [r0]
 292 012e 0E88     		ldrh	r6, [r1]
 293 0130 AC00     		lsls	r4, r5, #2
 294 0132 2C19     		adds	r4, r5, r4
 295 0134 6200     		lsls	r2, r4, #1
 296 0136 B218     		adds	r2, r6, r2
 297 0138 92B2     		uxth	r2, r2
 298 013a 1A75     		strb	r2, [r3, #20]
 299 013c 120A     		lsrs	r2, r2, #8
ARM GAS  C:\Users\310309~1\AppData\Local\Temp\ccu8WRKs.s 			page 20


 300 013e 5A75     		strb	r2, [r3, #21]
 785:main.c        ****     }
 786:main.c        ****     //CraiData
 787:main.c        ****     {
 788:main.c        ****         CraiData.SessionID = *SessionID;
 301              		.loc 1 788 0
 302 0140 0288     		ldrh	r2, [r0]
 303 0142 844B     		ldr	r3, .L16+4
 304 0144 DA70     		strb	r2, [r3, #3]
 305 0146 120A     		lsrs	r2, r2, #8
 306 0148 1A71     		strb	r2, [r3, #4]
 789:main.c        ****         CraiData.SubSessionID = *SubSessionID;
 307              		.loc 1 789 0
 308 014a 0A88     		ldrh	r2, [r1]
 309 014c 5A71     		strb	r2, [r3, #5]
 310 014e 120A     		lsrs	r2, r2, #8
 311 0150 9A71     		strb	r2, [r3, #6]
 790:main.c        ****         CraiData.HeartRate = *SessionID * 10 + *SubSessionID;
 312              		.loc 1 790 0
 313 0152 0588     		ldrh	r5, [r0]
 314 0154 0C88     		ldrh	r4, [r1]
 315 0156 AA00     		lsls	r2, r5, #2
 316 0158 AA18     		adds	r2, r5, r2
 317 015a 5500     		lsls	r5, r2, #1
 318 015c 2A19     		adds	r2, r5, r4
 319 015e 1A74     		strb	r2, [r3, #16]
 791:main.c        ****         CraiData.HeartRateVariability = *SessionID * 10 + *SubSessionID;
 320              		.loc 1 791 0
 321 0160 0588     		ldrh	r5, [r0]
 322 0162 0E88     		ldrh	r6, [r1]
 323 0164 AC00     		lsls	r4, r5, #2
 324 0166 2C19     		adds	r4, r5, r4
 325 0168 6200     		lsls	r2, r4, #1
 326 016a B218     		adds	r2, r6, r2
 327 016c 92B2     		uxth	r2, r2
 328 016e 1A75     		strb	r2, [r3, #20]
 329 0170 120A     		lsrs	r2, r2, #8
 330 0172 5A75     		strb	r2, [r3, #21]
 792:main.c        ****         CraiData.PulseInterBeatInterval = *SessionID * 10 + *SubSessionID;
 331              		.loc 1 792 0
 332 0174 0588     		ldrh	r5, [r0]
 333 0176 0E88     		ldrh	r6, [r1]
 334 0178 AC00     		lsls	r4, r5, #2
 335 017a 2C19     		adds	r4, r5, r4
 336 017c 6200     		lsls	r2, r4, #1
 337 017e B218     		adds	r2, r6, r2
 338 0180 92B2     		uxth	r2, r2
 339 0182 5A74     		strb	r2, [r3, #17]
 340 0184 120A     		lsrs	r2, r2, #8
 341 0186 9A74     		strb	r2, [r3, #18]
 793:main.c        ****         CraiData.RelativeTimestamp = *SessionID * 10 + *SubSessionID;
 342              		.loc 1 793 0
 343 0188 0288     		ldrh	r2, [r0]
 344 018a 9400     		lsls	r4, r2, #2
 345 018c A418     		adds	r4, r4, r2
 346 018e 6200     		lsls	r2, r4, #1
 347 0190 0C88     		ldrh	r4, [r1]
ARM GAS  C:\Users\310309~1\AppData\Local\Temp\ccu8WRKs.s 			page 21


 348 0192 A218     		adds	r2, r4, r2
 349 0194 DA71     		strb	r2, [r3, #7]
 350 0196 150A     		lsrs	r5, r2, #8
 351 0198 1D72     		strb	r5, [r3, #8]
 352 019a 150C     		lsrs	r5, r2, #16
 353 019c 5D72     		strb	r5, [r3, #9]
 354 019e 120E     		lsrs	r2, r2, #24
 355 01a0 9A72     		strb	r2, [r3, #10]
 794:main.c        ****         CraiData.RespirationRate = *SessionID * 10 + *SubSessionID;
 356              		.loc 1 794 0
 357 01a2 0588     		ldrh	r5, [r0]
 358 01a4 0C88     		ldrh	r4, [r1]
 359 01a6 AA00     		lsls	r2, r5, #2
 360 01a8 AA18     		adds	r2, r5, r2
 361 01aa 5500     		lsls	r5, r2, #1
 362 01ac 2A19     		adds	r2, r5, r4
 363 01ae 9A75     		strb	r2, [r3, #22]
 795:main.c        ****         CraiData.RestingHeartRate = *SessionID * 10 + *SubSessionID;
 364              		.loc 1 795 0
 365 01b0 0588     		ldrh	r5, [r0]
 366 01b2 0C88     		ldrh	r4, [r1]
 367 01b4 AA00     		lsls	r2, r5, #2
 368 01b6 AA18     		adds	r2, r5, r2
 369 01b8 5500     		lsls	r5, r2, #1
 370 01ba 2A19     		adds	r2, r5, r4
 371 01bc DA74     		strb	r2, [r3, #19]
 796:main.c        ****         CraiData.RestingRespirationRate = *SessionID * 10 + *SubSessionID;
 372              		.loc 1 796 0
 373 01be 0588     		ldrh	r5, [r0]
 374 01c0 0C88     		ldrh	r4, [r1]
 375 01c2 AA00     		lsls	r2, r5, #2
 376 01c4 AA18     		adds	r2, r5, r2
 377 01c6 5500     		lsls	r5, r2, #1
 378 01c8 2A19     		adds	r2, r5, r4
 379 01ca DA75     		strb	r2, [r3, #23]
 797:main.c        ****         CraiData.SequenceNumber = *SessionID * 10 + *SubSessionID;
 380              		.loc 1 797 0
 381 01cc 0288     		ldrh	r2, [r0]
 382 01ce 9400     		lsls	r4, r2, #2
 383 01d0 A418     		adds	r4, r4, r2
 384 01d2 6200     		lsls	r2, r4, #1
 385 01d4 0C88     		ldrh	r4, [r1]
 386 01d6 A218     		adds	r2, r4, r2
 387 01d8 DA72     		strb	r2, [r3, #11]
 388 01da 150A     		lsrs	r5, r2, #8
 389 01dc 1D73     		strb	r5, [r3, #12]
 390 01de 150C     		lsrs	r5, r2, #16
 391 01e0 5D73     		strb	r5, [r3, #13]
 392 01e2 120E     		lsrs	r2, r2, #24
 393 01e4 9A73     		strb	r2, [r3, #14]
 798:main.c        ****         CraiData.VO2Max = *SessionID * 10 + *SubSessionID;
 394              		.loc 1 798 0
 395 01e6 0588     		ldrh	r5, [r0]
 396 01e8 0C88     		ldrh	r4, [r1]
 397 01ea AA00     		lsls	r2, r5, #2
 398 01ec AA18     		adds	r2, r5, r2
 399 01ee 5500     		lsls	r5, r2, #1
ARM GAS  C:\Users\310309~1\AppData\Local\Temp\ccu8WRKs.s 			page 22


 400 01f0 2A19     		adds	r2, r5, r4
 401 01f2 DA73     		strb	r2, [r3, #15]
 799:main.c        ****     }
 800:main.c        ****     //SaiData
 801:main.c        ****     {
 802:main.c        ****         SaiData.SessionID = *SessionID;
 402              		.loc 1 802 0
 403 01f4 0388     		ldrh	r3, [r0]
 404 01f6 584A     		ldr	r2, .L16+8
 405 01f8 D370     		strb	r3, [r2, #3]
 406 01fa 1B0A     		lsrs	r3, r3, #8
 407 01fc 1371     		strb	r3, [r2, #4]
 803:main.c        ****         SaiData.SubSessionID = *SubSessionID;
 408              		.loc 1 803 0
 409 01fe 0A88     		ldrh	r2, [r1]
 410 0200 554B     		ldr	r3, .L16+8
 411 0202 5A71     		strb	r2, [r3, #5]
 412 0204 120A     		lsrs	r2, r2, #8
 413 0206 9A71     		strb	r2, [r3, #6]
 804:main.c        ****         SaiData.IRLightLevel[0] = *SessionID * 10 + *SubSessionID;
 414              		.loc 1 804 0
 415 0208 0588     		ldrh	r5, [r0]
 416 020a 0C88     		ldrh	r4, [r1]
 417 020c AA00     		lsls	r2, r5, #2
 418 020e AA18     		adds	r2, r5, r2
 419 0210 5500     		lsls	r5, r2, #1
 420 0212 2A19     		adds	r2, r5, r4
 421 0214 5A75     		strb	r2, [r3, #21]
 805:main.c        ****         SaiData.IRLightLevel[1] = *SessionID * 10 + *SubSessionID;
 422              		.loc 1 805 0
 423 0216 0588     		ldrh	r5, [r0]
 424 0218 0C88     		ldrh	r4, [r1]
 425 021a AA00     		lsls	r2, r5, #2
 426 021c AA18     		adds	r2, r5, r2
 427 021e 5500     		lsls	r5, r2, #1
 428 0220 2A19     		adds	r2, r5, r4
 429 0222 9A75     		strb	r2, [r3, #22]
 806:main.c        ****         SaiData.IRLightLevel[2] = *SessionID * 10 + *SubSessionID;
 430              		.loc 1 806 0
 431 0224 0588     		ldrh	r5, [r0]
 432 0226 0C88     		ldrh	r4, [r1]
 433 0228 AA00     		lsls	r2, r5, #2
 434 022a AA18     		adds	r2, r5, r2
 435 022c 5500     		lsls	r5, r2, #1
 436 022e 2A19     		adds	r2, r5, r4
 437 0230 DA75     		strb	r2, [r3, #23]
 807:main.c        ****         SaiData.RelativeTimestamp = *SessionID * 10 + *SubSessionID;
 438              		.loc 1 807 0
 439 0232 0288     		ldrh	r2, [r0]
 440 0234 9400     		lsls	r4, r2, #2
 441 0236 A418     		adds	r4, r4, r2
 442 0238 6200     		lsls	r2, r4, #1
 443 023a 0C88     		ldrh	r4, [r1]
 444 023c A218     		adds	r2, r4, r2
 445 023e DA71     		strb	r2, [r3, #7]
 446 0240 150A     		lsrs	r5, r2, #8
 447 0242 1D72     		strb	r5, [r3, #8]
ARM GAS  C:\Users\310309~1\AppData\Local\Temp\ccu8WRKs.s 			page 23


 448 0244 150C     		lsrs	r5, r2, #16
 449 0246 5D72     		strb	r5, [r3, #9]
 450 0248 120E     		lsrs	r2, r2, #24
 451 024a 9A72     		strb	r2, [r3, #10]
 808:main.c        ****         SaiData.SequenceNumber = *SessionID * 10 + *SubSessionID;
 452              		.loc 1 808 0
 453 024c 0288     		ldrh	r2, [r0]
 454 024e 9400     		lsls	r4, r2, #2
 455 0250 A418     		adds	r4, r4, r2
 456 0252 6200     		lsls	r2, r4, #1
 457 0254 0C88     		ldrh	r4, [r1]
 458 0256 A218     		adds	r2, r4, r2
 459 0258 DA72     		strb	r2, [r3, #11]
 460 025a 150A     		lsrs	r5, r2, #8
 461 025c 1D73     		strb	r5, [r3, #12]
 462 025e 150C     		lsrs	r5, r2, #16
 463 0260 5D73     		strb	r5, [r3, #13]
 464 0262 120E     		lsrs	r2, r2, #24
 465 0264 9A73     		strb	r2, [r3, #14]
 809:main.c        ****         SaiData.SleepingHeartRate = *SessionID * 10 + *SubSessionID;
 466              		.loc 1 809 0
 467 0266 0588     		ldrh	r5, [r0]
 468 0268 0C88     		ldrh	r4, [r1]
 469 026a AA00     		lsls	r2, r5, #2
 470 026c AA18     		adds	r2, r5, r2
 471 026e 5500     		lsls	r5, r2, #1
 472 0270 2A19     		adds	r2, r5, r4
 473 0272 5A76     		strb	r2, [r3, #25]
 810:main.c        ****         SaiData.SleepStage = *SessionID * 10 + *SubSessionID;
 474              		.loc 1 810 0
 475 0274 0588     		ldrh	r5, [r0]
 476 0276 0C88     		ldrh	r4, [r1]
 477 0278 AA00     		lsls	r2, r5, #2
 478 027a AA18     		adds	r2, r5, r2
 479 027c 5500     		lsls	r5, r2, #1
 480 027e 2A19     		adds	r2, r5, r4
 481 0280 1A76     		strb	r2, [r3, #24]
 811:main.c        ****         SaiData.UVLightLevel[0] = *SessionID * 10 + *SubSessionID;
 482              		.loc 1 811 0
 483 0282 0588     		ldrh	r5, [r0]
 484 0284 0C88     		ldrh	r4, [r1]
 485 0286 AA00     		lsls	r2, r5, #2
 486 0288 AA18     		adds	r2, r5, r2
 487 028a 5500     		lsls	r5, r2, #1
 488 028c 2A19     		adds	r2, r5, r4
 489 028e 9A74     		strb	r2, [r3, #18]
 812:main.c        ****         SaiData.UVLightLevel[1] = *SessionID * 10 + *SubSessionID;
 490              		.loc 1 812 0
 491 0290 0588     		ldrh	r5, [r0]
 492 0292 0C88     		ldrh	r4, [r1]
 493 0294 AA00     		lsls	r2, r5, #2
 494 0296 AA18     		adds	r2, r5, r2
 495 0298 5500     		lsls	r5, r2, #1
 496 029a 2A19     		adds	r2, r5, r4
 497 029c DA74     		strb	r2, [r3, #19]
 813:main.c        ****         SaiData.UVLightLevel[2] = *SessionID * 10 + *SubSessionID;
 498              		.loc 1 813 0
ARM GAS  C:\Users\310309~1\AppData\Local\Temp\ccu8WRKs.s 			page 24


 499 029e 0588     		ldrh	r5, [r0]
 500 02a0 0C88     		ldrh	r4, [r1]
 501 02a2 AA00     		lsls	r2, r5, #2
 502 02a4 AA18     		adds	r2, r5, r2
 503 02a6 5500     		lsls	r5, r2, #1
 504 02a8 2A19     		adds	r2, r5, r4
 505 02aa 1A75     		strb	r2, [r3, #20]
 814:main.c        ****         SaiData.VisibleLightLevel[0] = *SessionID * 10 + *SubSessionID;
 506              		.loc 1 814 0
 507 02ac 0588     		ldrh	r5, [r0]
 508 02ae 0C88     		ldrh	r4, [r1]
 509 02b0 AA00     		lsls	r2, r5, #2
 510 02b2 AA18     		adds	r2, r5, r2
 511 02b4 5500     		lsls	r5, r2, #1
 512 02b6 2A19     		adds	r2, r5, r4
 513 02b8 DA73     		strb	r2, [r3, #15]
 815:main.c        ****         SaiData.VisibleLightLevel[1] = *SessionID * 10 + *SubSessionID;
 514              		.loc 1 815 0
 515 02ba 0588     		ldrh	r5, [r0]
 516 02bc 0C88     		ldrh	r4, [r1]
 517 02be AA00     		lsls	r2, r5, #2
 518 02c0 AA18     		adds	r2, r5, r2
 519 02c2 5500     		lsls	r5, r2, #1
 520 02c4 2A19     		adds	r2, r5, r4
 521 02c6 1A74     		strb	r2, [r3, #16]
 816:main.c        ****         SaiData.VisibleLightLevel[2] = *SessionID * 10 + *SubSessionID;
 522              		.loc 1 816 0
 523 02c8 0588     		ldrh	r5, [r0]
 524 02ca 0C88     		ldrh	r4, [r1]
 525 02cc AA00     		lsls	r2, r5, #2
 526 02ce AA18     		adds	r2, r5, r2
 527 02d0 5500     		lsls	r5, r2, #1
 528 02d2 2A19     		adds	r2, r5, r4
 529 02d4 5A74     		strb	r2, [r3, #17]
 817:main.c        ****     }
 818:main.c        ****     //GasData
 819:main.c        ****     {
 820:main.c        ****         GasData.SessionID = *SessionID;
 530              		.loc 1 820 0
 531 02d6 0288     		ldrh	r2, [r0]
 532 02d8 204B     		ldr	r3, .L16+12
 533 02da 5A71     		strb	r2, [r3, #5]
 534 02dc 120A     		lsrs	r2, r2, #8
 535 02de 9A71     		strb	r2, [r3, #6]
 821:main.c        ****         GasData.SubSessionID = *SubSessionID;
 536              		.loc 1 821 0
 537 02e0 0A88     		ldrh	r2, [r1]
 538 02e2 DA71     		strb	r2, [r3, #7]
 539 02e4 120A     		lsrs	r2, r2, #8
 540 02e6 1A72     		strb	r2, [r3, #8]
 822:main.c        ****         GasData.ActivityCount = *SessionID * 10 + *SubSessionID;
 541              		.loc 1 822 0
 542 02e8 0288     		ldrh	r2, [r0]
 543 02ea 9400     		lsls	r4, r2, #2
 544 02ec A418     		adds	r4, r4, r2
 545 02ee 6200     		lsls	r2, r4, #1
 546 02f0 0C88     		ldrh	r4, [r1]
ARM GAS  C:\Users\310309~1\AppData\Local\Temp\ccu8WRKs.s 			page 25


 547 02f2 A218     		adds	r2, r4, r2
 548 02f4 1C00     		movs	r4, r3
 549 02f6 3E34     		adds	r4, r4, #62
 550 02f8 2270     		strb	r2, [r4]
 551 02fa 150A     		lsrs	r5, r2, #8
 552 02fc 6570     		strb	r5, [r4, #1]
 553 02fe 150C     		lsrs	r5, r2, #16
 554 0300 A570     		strb	r5, [r4, #2]
 555 0302 120E     		lsrs	r2, r2, #24
 556 0304 E270     		strb	r2, [r4, #3]
 823:main.c        ****         GasData.AverageActivityLevel = *SessionID * 10 + *SubSessionID;
 557              		.loc 1 823 0
 558 0306 0588     		ldrh	r5, [r0]
 559 0308 0E88     		ldrh	r6, [r1]
 560 030a AC00     		lsls	r4, r5, #2
 561 030c 2C19     		adds	r4, r5, r4
 562 030e 6200     		lsls	r2, r4, #1
 563 0310 B218     		adds	r2, r6, r2
 564 0312 92B2     		uxth	r2, r2
 565 0314 4624     		movs	r4, #70
 566 0316 1A55     		strb	r2, [r3, r4]
 567 0318 120A     		lsrs	r2, r2, #8
 568 031a 1C00     		movs	r4, r3
 569 031c 4634     		adds	r4, r4, #70
 570 031e 6270     		strb	r2, [r4, #1]
 824:main.c        ****         GasData.AverageActivityType = ((UserDefinedActivityTypeAllSubSessions[*SessionID][*SubSessi
 571              		.loc 1 824 0
 572 0320 0288     		ldrh	r2, [r0]
 573 0322 0D88     		ldrh	r5, [r1]
 574 0324 9400     		lsls	r4, r2, #2
 575 0326 A218     		adds	r2, r4, r2
 576 0328 9400     		lsls	r4, r2, #2
 577 032a 1219     		adds	r2, r2, r4
 578 032c 0C4C     		ldr	r4, .L16+16
 579 032e A218     		adds	r2, r4, r2
 580 0330 525D     		ldrb	r2, [r2, r5]
 581 0332 1402     		lsls	r4, r2, #8
 582 0334 4826     		movs	r6, #72
 583 0336 9D5D     		ldrb	r5, [r3, r6]
 584 0338 4922     		movs	r2, #73
 585 033a 9A5C     		ldrb	r2, [r3, r2]
 586 033c 1202     		lsls	r2, r2, #8
 587 033e 2A43     		orrs	r2, r5
 588 0340 FF25     		movs	r5, #255
 589 0342 2A40     		ands	r2, r5
 590 0344 2243     		orrs	r2, r4
 591 0346 9A55     		strb	r2, [r3, r6]
 592 0348 120A     		lsrs	r2, r2, #8
 593 034a 1C00     		movs	r4, r3
 594 034c 4834     		adds	r4, r4, #72
 595 034e 09E0     		b	.L17
 596              	.L18:
 597              		.align	2
 598              	.L16:
 599 0350 00000000 		.word	GaiData
 600 0354 00000000 		.word	CraiData
 601 0358 00000000 		.word	SaiData
ARM GAS  C:\Users\310309~1\AppData\Local\Temp\ccu8WRKs.s 			page 26


 602 035c 00000000 		.word	GasData
 603 0360 00000000 		.word	UserDefinedActivityTypeAllSubSessions
 604              	.L17:
 605 0364 6270     		strb	r2, [r4, #1]
 825:main.c        ****         GasData.AverageMetabolicEquivalent = *SessionID * 10 + *SubSessionID;
 606              		.loc 1 825 0
 607 0366 0588     		ldrh	r5, [r0]
 608 0368 0C88     		ldrh	r4, [r1]
 609 036a AA00     		lsls	r2, r5, #2
 610 036c AA18     		adds	r2, r5, r2
 611 036e 5500     		lsls	r5, r2, #1
 612 0370 2A19     		adds	r2, r5, r4
 613 0372 2124     		movs	r4, #33
 614 0374 1A55     		strb	r2, [r3, r4]
 826:main.c        ****         GasData.AverageMotionCadence = *SessionID * 10 + *SubSessionID;
 615              		.loc 1 826 0
 616 0376 0588     		ldrh	r5, [r0]
 617 0378 0E88     		ldrh	r6, [r1]
 618 037a AC00     		lsls	r4, r5, #2
 619 037c 2C19     		adds	r4, r5, r4
 620 037e 6200     		lsls	r2, r4, #1
 621 0380 B218     		adds	r2, r6, r2
 622 0382 1C00     		movs	r4, r3
 623 0384 3534     		adds	r4, r4, #53
 624 0386 92B2     		uxth	r2, r2
 625 0388 2270     		strb	r2, [r4]
 626 038a 120A     		lsrs	r2, r2, #8
 627 038c 6270     		strb	r2, [r4, #1]
 827:main.c        ****         GasData.AverageSpeed = *SessionID * 10 + *SubSessionID;
 628              		.loc 1 827 0
 629 038e 0588     		ldrh	r5, [r0]
 630 0390 0E88     		ldrh	r6, [r1]
 631 0392 AC00     		lsls	r4, r5, #2
 632 0394 2C19     		adds	r4, r5, r4
 633 0396 6200     		lsls	r2, r4, #1
 634 0398 B218     		adds	r2, r6, r2
 635 039a 1C00     		movs	r4, r3
 636 039c 2934     		adds	r4, r4, #41
 637 039e 92B2     		uxth	r2, r2
 638 03a0 2270     		strb	r2, [r4]
 639 03a2 120A     		lsrs	r2, r2, #8
 640 03a4 6270     		strb	r2, [r4, #1]
 828:main.c        ****         GasData.Distance[0] = *SessionID * 10 + *SubSessionID;
 641              		.loc 1 828 0
 642 03a6 0588     		ldrh	r5, [r0]
 643 03a8 0C88     		ldrh	r4, [r1]
 644 03aa AA00     		lsls	r2, r5, #2
 645 03ac AA18     		adds	r2, r5, r2
 646 03ae 5500     		lsls	r5, r2, #1
 647 03b0 2A19     		adds	r2, r5, r4
 648 03b2 2224     		movs	r4, #34
 649 03b4 1A55     		strb	r2, [r3, r4]
 829:main.c        ****         GasData.Distance[1] = *SessionID * 10 + *SubSessionID;
 650              		.loc 1 829 0
 651 03b6 0588     		ldrh	r5, [r0]
 652 03b8 0C88     		ldrh	r4, [r1]
 653 03ba AA00     		lsls	r2, r5, #2
ARM GAS  C:\Users\310309~1\AppData\Local\Temp\ccu8WRKs.s 			page 27


 654 03bc AA18     		adds	r2, r5, r2
 655 03be 5500     		lsls	r5, r2, #1
 656 03c0 2A19     		adds	r2, r5, r4
 657 03c2 2324     		movs	r4, #35
 658 03c4 1A55     		strb	r2, [r3, r4]
 830:main.c        ****         GasData.Distance[2] = *SessionID * 10 + *SubSessionID;
 659              		.loc 1 830 0
 660 03c6 0588     		ldrh	r5, [r0]
 661 03c8 0C88     		ldrh	r4, [r1]
 662 03ca AA00     		lsls	r2, r5, #2
 663 03cc AA18     		adds	r2, r5, r2
 664 03ce 5500     		lsls	r5, r2, #1
 665 03d0 2A19     		adds	r2, r5, r4
 666 03d2 2424     		movs	r4, #36
 667 03d4 1A55     		strb	r2, [r3, r4]
 831:main.c        ****         GasData.DurationOfIntensityWalkingEpisodes[0] = *SessionID * 10 + *SubSessionID;
 668              		.loc 1 831 0
 669 03d6 0588     		ldrh	r5, [r0]
 670 03d8 0C88     		ldrh	r4, [r1]
 671 03da AA00     		lsls	r2, r5, #2
 672 03dc AA18     		adds	r2, r5, r2
 673 03de 5500     		lsls	r5, r2, #1
 674 03e0 2A19     		adds	r2, r5, r4
 675 03e2 2E24     		movs	r4, #46
 676 03e4 1A55     		strb	r2, [r3, r4]
 832:main.c        ****         GasData.DurationOfIntensityWalkingEpisodes[1] = *SessionID * 10 + *SubSessionID;
 677              		.loc 1 832 0
 678 03e6 0588     		ldrh	r5, [r0]
 679 03e8 0C88     		ldrh	r4, [r1]
 680 03ea AA00     		lsls	r2, r5, #2
 681 03ec AA18     		adds	r2, r5, r2
 682 03ee 5500     		lsls	r5, r2, #1
 683 03f0 2A19     		adds	r2, r5, r4
 684 03f2 2F24     		movs	r4, #47
 685 03f4 1A55     		strb	r2, [r3, r4]
 833:main.c        ****         GasData.DurationOfIntensityWalkingEpisodes[2] = *SessionID * 10 + *SubSessionID;
 686              		.loc 1 833 0
 687 03f6 0588     		ldrh	r5, [r0]
 688 03f8 0C88     		ldrh	r4, [r1]
 689 03fa AA00     		lsls	r2, r5, #2
 690 03fc AA18     		adds	r2, r5, r2
 691 03fe 5500     		lsls	r5, r2, #1
 692 0400 2A19     		adds	r2, r5, r4
 693 0402 3024     		movs	r4, #48
 694 0404 1A55     		strb	r2, [r3, r4]
 834:main.c        ****         GasData.DurationOfNormalWalkingEpisodes[0] = *SessionID * 10 + *SubSessionID;
 695              		.loc 1 834 0
 696 0406 0588     		ldrh	r5, [r0]
 697 0408 0C88     		ldrh	r4, [r1]
 698 040a AA00     		lsls	r2, r5, #2
 699 040c AA18     		adds	r2, r5, r2
 700 040e 5500     		lsls	r5, r2, #1
 701 0410 2A19     		adds	r2, r5, r4
 702 0412 2B24     		movs	r4, #43
 703 0414 1A55     		strb	r2, [r3, r4]
 835:main.c        ****         GasData.DurationOfNormalWalkingEpisodes[1] = *SessionID * 10 + *SubSessionID;
 704              		.loc 1 835 0
ARM GAS  C:\Users\310309~1\AppData\Local\Temp\ccu8WRKs.s 			page 28


 705 0416 0588     		ldrh	r5, [r0]
 706 0418 0C88     		ldrh	r4, [r1]
 707 041a AA00     		lsls	r2, r5, #2
 708 041c AA18     		adds	r2, r5, r2
 709 041e 5500     		lsls	r5, r2, #1
 710 0420 2A19     		adds	r2, r5, r4
 711 0422 2C24     		movs	r4, #44
 712 0424 1A55     		strb	r2, [r3, r4]
 836:main.c        ****         GasData.DurationOfNormalWalkingEpisodes[2] = *SessionID * 10 + *SubSessionID;
 713              		.loc 1 836 0
 714 0426 0588     		ldrh	r5, [r0]
 715 0428 0C88     		ldrh	r4, [r1]
 716 042a AA00     		lsls	r2, r5, #2
 717 042c AA18     		adds	r2, r5, r2
 718 042e 5500     		lsls	r5, r2, #1
 719 0430 2A19     		adds	r2, r5, r4
 720 0432 2D24     		movs	r4, #45
 721 0434 1A55     		strb	r2, [r3, r4]
 837:main.c        ****         GasData.FatBurned = *SessionID * 10 + *SubSessionID;
 722              		.loc 1 837 0
 723 0436 0588     		ldrh	r5, [r0]
 724 0438 0E88     		ldrh	r6, [r1]
 725 043a AC00     		lsls	r4, r5, #2
 726 043c 2C19     		adds	r4, r5, r4
 727 043e 6200     		lsls	r2, r4, #1
 728 0440 B218     		adds	r2, r6, r2
 729 0442 92B2     		uxth	r2, r2
 730 0444 5A77     		strb	r2, [r3, #29]
 731 0446 120A     		lsrs	r2, r2, #8
 732 0448 9A77     		strb	r2, [r3, #30]
 838:main.c        ****         GasData.Floors = *SessionID * 10 + *SubSessionID;
 733              		.loc 1 838 0
 734 044a 0588     		ldrh	r5, [r0]
 735 044c 0C88     		ldrh	r4, [r1]
 736 044e AA00     		lsls	r2, r5, #2
 737 0450 AA18     		adds	r2, r5, r2
 738 0452 5500     		lsls	r5, r2, #1
 739 0454 2A19     		adds	r2, r5, r4
 740 0456 3724     		movs	r4, #55
 741 0458 1A55     		strb	r2, [r3, r4]
 839:main.c        ****         GasData.IntensityEnergyExpenditure = *SessionID * 10 + *SubSessionID;
 742              		.loc 1 839 0
 743 045a 0288     		ldrh	r2, [r0]
 744 045c 9400     		lsls	r4, r2, #2
 745 045e A418     		adds	r4, r4, r2
 746 0460 6200     		lsls	r2, r4, #1
 747 0462 0C88     		ldrh	r4, [r1]
 748 0464 A218     		adds	r2, r4, r2
 749 0466 5A75     		strb	r2, [r3, #21]
 750 0468 150A     		lsrs	r5, r2, #8
 751 046a 9D75     		strb	r5, [r3, #22]
 752 046c 150C     		lsrs	r5, r2, #16
 753 046e DD75     		strb	r5, [r3, #23]
 754 0470 120E     		lsrs	r2, r2, #24
 755 0472 1A76     		strb	r2, [r3, #24]
 840:main.c        ****         GasData.MaximumActivityLevel = *SessionID * 10 + *SubSessionID;
 756              		.loc 1 840 0
ARM GAS  C:\Users\310309~1\AppData\Local\Temp\ccu8WRKs.s 			page 29


 757 0474 0588     		ldrh	r5, [r0]
 758 0476 0E88     		ldrh	r6, [r1]
 759 0478 AC00     		lsls	r4, r5, #2
 760 047a 2C19     		adds	r4, r5, r4
 761 047c 6200     		lsls	r2, r4, #1
 762 047e B218     		adds	r2, r6, r2
 763 0480 92B2     		uxth	r2, r2
 764 0482 4424     		movs	r4, #68
 765 0484 1A55     		strb	r2, [r3, r4]
 766 0486 120A     		lsrs	r2, r2, #8
 767 0488 1C00     		movs	r4, r3
 768 048a 4434     		adds	r4, r4, #68
 769 048c 6270     		strb	r2, [r4, #1]
 841:main.c        ****         GasData.MaximumMetabolicEquivalent = *SessionID * 10 + *SubSessionID;
 770              		.loc 1 841 0
 771 048e 0588     		ldrh	r5, [r0]
 772 0490 0C88     		ldrh	r4, [r1]
 773 0492 AA00     		lsls	r2, r5, #2
 774 0494 AA18     		adds	r2, r5, r2
 775 0496 5500     		lsls	r5, r2, #1
 776 0498 2A19     		adds	r2, r5, r4
 777 049a 2024     		movs	r4, #32
 778 049c 1A55     		strb	r2, [r3, r4]
 842:main.c        ****         GasData.MaximumMotionCadence = *SessionID * 10 + *SubSessionID;
 779              		.loc 1 842 0
 780 049e 0588     		ldrh	r5, [r0]
 781 04a0 0E88     		ldrh	r6, [r1]
 782 04a2 AC00     		lsls	r4, r5, #2
 783 04a4 2C19     		adds	r4, r5, r4
 784 04a6 6200     		lsls	r2, r4, #1
 785 04a8 B218     		adds	r2, r6, r2
 786 04aa 3333     		adds	r3, r3, #51
 787 04ac 92B2     		uxth	r2, r2
 788 04ae 1A70     		strb	r2, [r3]
 789 04b0 120A     		lsrs	r2, r2, #8
 790 04b2 5A70     		strb	r2, [r3, #1]
 843:main.c        ****         GasData.MaximumSpeed = *SessionID * 10 + *SubSessionID;
 791              		.loc 1 843 0
 792 04b4 0588     		ldrh	r5, [r0]
 793 04b6 0E88     		ldrh	r6, [r1]
 794 04b8 D24B     		ldr	r3, .L19
 795 04ba AC00     		lsls	r4, r5, #2
 796 04bc 2C19     		adds	r4, r5, r4
 797 04be 6200     		lsls	r2, r4, #1
 798 04c0 B218     		adds	r2, r6, r2
 799 04c2 1C00     		movs	r4, r3
 800 04c4 2734     		adds	r4, r4, #39
 801 04c6 92B2     		uxth	r2, r2
 802 04c8 2270     		strb	r2, [r4]
 803 04ca 120A     		lsrs	r2, r2, #8
 804 04cc 6270     		strb	r2, [r4, #1]
 844:main.c        ****         GasData.MinimumActivityLevel = *SessionID * 10 + *SubSessionID;
 805              		.loc 1 844 0
 806 04ce 0588     		ldrh	r5, [r0]
 807 04d0 0E88     		ldrh	r6, [r1]
 808 04d2 AC00     		lsls	r4, r5, #2
 809 04d4 2C19     		adds	r4, r5, r4
ARM GAS  C:\Users\310309~1\AppData\Local\Temp\ccu8WRKs.s 			page 30


 810 04d6 6200     		lsls	r2, r4, #1
 811 04d8 B218     		adds	r2, r6, r2
 812 04da 92B2     		uxth	r2, r2
 813 04dc 4224     		movs	r4, #66
 814 04de 1A55     		strb	r2, [r3, r4]
 815 04e0 120A     		lsrs	r2, r2, #8
 816 04e2 1C00     		movs	r4, r3
 817 04e4 4234     		adds	r4, r4, #66
 818 04e6 6270     		strb	r2, [r4, #1]
 845:main.c        ****         GasData.MinimumMetabolicEquivalent = *SessionID * 10 + *SubSessionID;
 819              		.loc 1 845 0
 820 04e8 0588     		ldrh	r5, [r0]
 821 04ea 0C88     		ldrh	r4, [r1]
 822 04ec AA00     		lsls	r2, r5, #2
 823 04ee AA18     		adds	r2, r5, r2
 824 04f0 5500     		lsls	r5, r2, #1
 825 04f2 2A19     		adds	r2, r5, r4
 826 04f4 DA77     		strb	r2, [r3, #31]
 846:main.c        ****         GasData.MinimumMotionCadence = *SessionID * 10 + *SubSessionID;
 827              		.loc 1 846 0
 828 04f6 0588     		ldrh	r5, [r0]
 829 04f8 0E88     		ldrh	r6, [r1]
 830 04fa AC00     		lsls	r4, r5, #2
 831 04fc 2C19     		adds	r4, r5, r4
 832 04fe 6200     		lsls	r2, r4, #1
 833 0500 B218     		adds	r2, r6, r2
 834 0502 1C00     		movs	r4, r3
 835 0504 3134     		adds	r4, r4, #49
 836 0506 92B2     		uxth	r2, r2
 837 0508 2270     		strb	r2, [r4]
 838 050a 120A     		lsrs	r2, r2, #8
 839 050c 6270     		strb	r2, [r4, #1]
 847:main.c        ****         GasData.MinimumSpeed = *SessionID * 10 + *SubSessionID;
 840              		.loc 1 847 0
 841 050e 0588     		ldrh	r5, [r0]
 842 0510 0E88     		ldrh	r6, [r1]
 843 0512 AC00     		lsls	r4, r5, #2
 844 0514 2C19     		adds	r4, r5, r4
 845 0516 6200     		lsls	r2, r4, #1
 846 0518 B218     		adds	r2, r6, r2
 847 051a 1C00     		movs	r4, r3
 848 051c 2534     		adds	r4, r4, #37
 849 051e 92B2     		uxth	r2, r2
 850 0520 2270     		strb	r2, [r4]
 851 0522 120A     		lsrs	r2, r2, #8
 852 0524 6270     		strb	r2, [r4, #1]
 848:main.c        ****         GasData.NegativeElevationGain[0] = *SessionID * 10 + *SubSessionID;
 853              		.loc 1 848 0
 854 0526 0588     		ldrh	r5, [r0]
 855 0528 0C88     		ldrh	r4, [r1]
 856 052a AA00     		lsls	r2, r5, #2
 857 052c AA18     		adds	r2, r5, r2
 858 052e 5500     		lsls	r5, r2, #1
 859 0530 2A19     		adds	r2, r5, r4
 860 0532 3B24     		movs	r4, #59
 861 0534 1A55     		strb	r2, [r3, r4]
 849:main.c        ****         GasData.NegativeElevationGain[1] = *SessionID * 10 + *SubSessionID;
ARM GAS  C:\Users\310309~1\AppData\Local\Temp\ccu8WRKs.s 			page 31


 862              		.loc 1 849 0
 863 0536 0588     		ldrh	r5, [r0]
 864 0538 0C88     		ldrh	r4, [r1]
 865 053a AA00     		lsls	r2, r5, #2
 866 053c AA18     		adds	r2, r5, r2
 867 053e 5500     		lsls	r5, r2, #1
 868 0540 2A19     		adds	r2, r5, r4
 869 0542 3C24     		movs	r4, #60
 870 0544 1A55     		strb	r2, [r3, r4]
 850:main.c        ****         GasData.NegativeElevationGain[2] = *SessionID * 10 + *SubSessionID;
 871              		.loc 1 850 0
 872 0546 0588     		ldrh	r5, [r0]
 873 0548 0C88     		ldrh	r4, [r1]
 874 054a AA00     		lsls	r2, r5, #2
 875 054c AA18     		adds	r2, r5, r2
 876 054e 5500     		lsls	r5, r2, #1
 877 0550 2A19     		adds	r2, r5, r4
 878 0552 3D24     		movs	r4, #61
 879 0554 1A55     		strb	r2, [r3, r4]
 851:main.c        ****         GasData.NormalWalkingEnergyExpenditure = *SessionID * 10 + *SubSessionID;
 880              		.loc 1 851 0
 881 0556 0288     		ldrh	r2, [r0]
 882 0558 9400     		lsls	r4, r2, #2
 883 055a A418     		adds	r4, r4, r2
 884 055c 6200     		lsls	r2, r4, #1
 885 055e 0C88     		ldrh	r4, [r1]
 886 0560 A218     		adds	r2, r4, r2
 887 0562 5A74     		strb	r2, [r3, #17]
 888 0564 150A     		lsrs	r5, r2, #8
 889 0566 9D74     		strb	r5, [r3, #18]
 890 0568 150C     		lsrs	r5, r2, #16
 891 056a DD74     		strb	r5, [r3, #19]
 892 056c 120E     		lsrs	r2, r2, #24
 893 056e 1A75     		strb	r2, [r3, #20]
 852:main.c        ****         GasData.PositiveElevationGain[0] = *SessionID * 10 + *SubSessionID;
 894              		.loc 1 852 0
 895 0570 0588     		ldrh	r5, [r0]
 896 0572 0C88     		ldrh	r4, [r1]
 897 0574 AA00     		lsls	r2, r5, #2
 898 0576 AA18     		adds	r2, r5, r2
 899 0578 5500     		lsls	r5, r2, #1
 900 057a 2A19     		adds	r2, r5, r4
 901 057c 3824     		movs	r4, #56
 902 057e 1A55     		strb	r2, [r3, r4]
 853:main.c        ****         GasData.PositiveElevationGain[1] = *SessionID * 10 + *SubSessionID;
 903              		.loc 1 853 0
 904 0580 0588     		ldrh	r5, [r0]
 905 0582 0C88     		ldrh	r4, [r1]
 906 0584 AA00     		lsls	r2, r5, #2
 907 0586 AA18     		adds	r2, r5, r2
 908 0588 5500     		lsls	r5, r2, #1
 909 058a 2A19     		adds	r2, r5, r4
 910 058c 3924     		movs	r4, #57
 911 058e 1A55     		strb	r2, [r3, r4]
 854:main.c        ****         GasData.PositiveElevationGain[2] = *SessionID * 10 + *SubSessionID;
 912              		.loc 1 854 0
 913 0590 0588     		ldrh	r5, [r0]
ARM GAS  C:\Users\310309~1\AppData\Local\Temp\ccu8WRKs.s 			page 32


 914 0592 0C88     		ldrh	r4, [r1]
 915 0594 AA00     		lsls	r2, r5, #2
 916 0596 AA18     		adds	r2, r5, r2
 917 0598 5500     		lsls	r5, r2, #1
 918 059a 2A19     		adds	r2, r5, r4
 919 059c 3A24     		movs	r4, #58
 920 059e 1A55     		strb	r2, [r3, r4]
 855:main.c        ****         GasData.RelativeTimestamp = *SessionID * 10 + *SubSessionID;
 921              		.loc 1 855 0
 922 05a0 0288     		ldrh	r2, [r0]
 923 05a2 9500     		lsls	r5, r2, #2
 924 05a4 AD18     		adds	r5, r5, r2
 925 05a6 6A00     		lsls	r2, r5, #1
 926 05a8 0D88     		ldrh	r5, [r1]
 927 05aa AA18     		adds	r2, r5, r2
 928 05ac 5A72     		strb	r2, [r3, #9]
 929 05ae 160A     		lsrs	r6, r2, #8
 930 05b0 9E72     		strb	r6, [r3, #10]
 931 05b2 160C     		lsrs	r6, r2, #16
 932 05b4 DE72     		strb	r6, [r3, #11]
 933 05b6 120E     		lsrs	r2, r2, #24
 934 05b8 1A73     		strb	r2, [r3, #12]
 856:main.c        ****         GasData.SequenceNumber = *SessionID * 10 + *SubSessionID;
 935              		.loc 1 856 0
 936 05ba 0288     		ldrh	r2, [r0]
 937 05bc 9500     		lsls	r5, r2, #2
 938 05be AD18     		adds	r5, r5, r2
 939 05c0 6A00     		lsls	r2, r5, #1
 940 05c2 0D88     		ldrh	r5, [r1]
 941 05c4 AA18     		adds	r2, r5, r2
 942 05c6 5A73     		strb	r2, [r3, #13]
 943 05c8 160A     		lsrs	r6, r2, #8
 944 05ca 9E73     		strb	r6, [r3, #14]
 945 05cc 160C     		lsrs	r6, r2, #16
 946 05ce DE73     		strb	r6, [r3, #15]
 947 05d0 120E     		lsrs	r2, r2, #24
 948 05d2 1A74     		strb	r2, [r3, #16]
 857:main.c        ****         GasData.TotalEnergyExpenditure = *SessionID * 10 + *SubSessionID;
 949              		.loc 1 857 0
 950 05d4 0288     		ldrh	r2, [r0]
 951 05d6 9500     		lsls	r5, r2, #2
 952 05d8 AD18     		adds	r5, r5, r2
 953 05da 6A00     		lsls	r2, r5, #1
 954 05dc 0D88     		ldrh	r5, [r1]
 955 05de AA18     		adds	r2, r5, r2
 956 05e0 5A76     		strb	r2, [r3, #25]
 957 05e2 160A     		lsrs	r6, r2, #8
 958 05e4 9E76     		strb	r6, [r3, #26]
 959 05e6 160C     		lsrs	r6, r2, #16
 960 05e8 DE76     		strb	r6, [r3, #27]
 961 05ea 120E     		lsrs	r2, r2, #24
 962 05ec 1A77     		strb	r2, [r3, #28]
 858:main.c        ****         GasData.WornDuration[0] = *SessionID * 10 + *SubSessionID;
 963              		.loc 1 858 0
 964 05ee 0688     		ldrh	r6, [r0]
 965 05f0 0D88     		ldrh	r5, [r1]
 966 05f2 B200     		lsls	r2, r6, #2
ARM GAS  C:\Users\310309~1\AppData\Local\Temp\ccu8WRKs.s 			page 33


 967 05f4 B218     		adds	r2, r6, r2
 968 05f6 5600     		lsls	r6, r2, #1
 969 05f8 7219     		adds	r2, r6, r5
 970 05fa 4A25     		movs	r5, #74
 971 05fc 5A55     		strb	r2, [r3, r5]
 859:main.c        ****         GasData.WornDuration[1] = *SessionID * 10 + *SubSessionID;
 972              		.loc 1 859 0
 973 05fe 0688     		ldrh	r6, [r0]
 974 0600 0D88     		ldrh	r5, [r1]
 975 0602 B200     		lsls	r2, r6, #2
 976 0604 B218     		adds	r2, r6, r2
 977 0606 5600     		lsls	r6, r2, #1
 978 0608 7219     		adds	r2, r6, r5
 979 060a 4B25     		movs	r5, #75
 980 060c 5A55     		strb	r2, [r3, r5]
 860:main.c        ****         GasData.WornDuration[2] = *SessionID * 10 + *SubSessionID;
 981              		.loc 1 860 0
 982 060e 0688     		ldrh	r6, [r0]
 983 0610 0D88     		ldrh	r5, [r1]
 984 0612 B200     		lsls	r2, r6, #2
 985 0614 B218     		adds	r2, r6, r2
 986 0616 5600     		lsls	r6, r2, #1
 987 0618 7219     		adds	r2, r6, r5
 988 061a 4C25     		movs	r5, #76
 989 061c 5A55     		strb	r2, [r3, r5]
 861:main.c        ****     }
 862:main.c        ****     //CrasData
 863:main.c        ****     {
 864:main.c        ****         CrasData.SessionID = *SessionID;
 990              		.loc 1 864 0
 991 061e 0288     		ldrh	r2, [r0]
 992 0620 794B     		ldr	r3, .L19+4
 993 0622 5A71     		strb	r2, [r3, #5]
 994 0624 120A     		lsrs	r2, r2, #8
 995 0626 9A71     		strb	r2, [r3, #6]
 865:main.c        ****         CrasData.SubSessionID = *SubSessionID;
 996              		.loc 1 865 0
 997 0628 0A88     		ldrh	r2, [r1]
 998 062a DA71     		strb	r2, [r3, #7]
 999 062c 120A     		lsrs	r2, r2, #8
 1000 062e 1A72     		strb	r2, [r3, #8]
 866:main.c        ****         CrasData.AverageHeartRate = *SessionID * 10 + *SubSessionID;
 1001              		.loc 1 866 0
 1002 0630 0688     		ldrh	r6, [r0]
 1003 0632 0D88     		ldrh	r5, [r1]
 1004 0634 B200     		lsls	r2, r6, #2
 1005 0636 B218     		adds	r2, r6, r2
 1006 0638 5600     		lsls	r6, r2, #1
 1007 063a 7219     		adds	r2, r6, r5
 1008 063c 2525     		movs	r5, #37
 1009 063e 5A55     		strb	r2, [r3, r5]
 867:main.c        ****         CrasData.AverageHeartRateVariability = *SessionID * 10 + *SubSessionID;
 1010              		.loc 1 867 0
 1011 0640 0688     		ldrh	r6, [r0]
 1012 0642 0F88     		ldrh	r7, [r1]
 1013 0644 B500     		lsls	r5, r6, #2
 1014 0646 7519     		adds	r5, r6, r5
ARM GAS  C:\Users\310309~1\AppData\Local\Temp\ccu8WRKs.s 			page 34


 1015 0648 6A00     		lsls	r2, r5, #1
 1016 064a BA18     		adds	r2, r7, r2
 1017 064c 1D00     		movs	r5, r3
 1018 064e 3335     		adds	r5, r5, #51
 1019 0650 92B2     		uxth	r2, r2
 1020 0652 2A70     		strb	r2, [r5]
 1021 0654 120A     		lsrs	r2, r2, #8
 1022 0656 6A70     		strb	r2, [r5, #1]
 868:main.c        ****         CrasData.AveragePulseInterbeatInterval = *SessionID * 10 + *SubSessionID;
 1023              		.loc 1 868 0
 1024 0658 0688     		ldrh	r6, [r0]
 1025 065a 0F88     		ldrh	r7, [r1]
 1026 065c B500     		lsls	r5, r6, #2
 1027 065e 7519     		adds	r5, r6, r5
 1028 0660 6A00     		lsls	r2, r5, #1
 1029 0662 BA18     		adds	r2, r7, r2
 1030 0664 92B2     		uxth	r2, r2
 1031 0666 2A25     		movs	r5, #42
 1032 0668 5A55     		strb	r2, [r3, r5]
 1033 066a 120A     		lsrs	r2, r2, #8
 1034 066c 0135     		adds	r5, r5, #1
 1035 066e 5A55     		strb	r2, [r3, r5]
 869:main.c        ****         CrasData.AverageRespirationRate = *SessionID * 10 + *SubSessionID;
 1036              		.loc 1 869 0
 1037 0670 0688     		ldrh	r6, [r0]
 1038 0672 0D88     		ldrh	r5, [r1]
 1039 0674 B200     		lsls	r2, r6, #2
 1040 0676 B218     		adds	r2, r6, r2
 1041 0678 5600     		lsls	r6, r2, #1
 1042 067a 7219     		adds	r2, r6, r5
 1043 067c 3725     		movs	r5, #55
 1044 067e 5A55     		strb	r2, [r3, r5]
 870:main.c        ****         CrasData.AverageRestingHeartRate = *SessionID * 10 + *SubSessionID;
 1045              		.loc 1 870 0
 1046 0680 0688     		ldrh	r6, [r0]
 1047 0682 0D88     		ldrh	r5, [r1]
 1048 0684 B200     		lsls	r2, r6, #2
 1049 0686 B218     		adds	r2, r6, r2
 1050 0688 5600     		lsls	r6, r2, #1
 1051 068a 7219     		adds	r2, r6, r5
 1052 068c 2E25     		movs	r5, #46
 1053 068e 5A55     		strb	r2, [r3, r5]
 871:main.c        ****         CrasData.AverageRestingRespirationRate = *SessionID * 10 + *SubSessionID;
 1054              		.loc 1 871 0
 1055 0690 0688     		ldrh	r6, [r0]
 1056 0692 0D88     		ldrh	r5, [r1]
 1057 0694 B200     		lsls	r2, r6, #2
 1058 0696 B218     		adds	r2, r6, r2
 1059 0698 5600     		lsls	r6, r2, #1
 1060 069a 7219     		adds	r2, r6, r5
 1061 069c 1A55     		strb	r2, [r3, r4]
 872:main.c        ****         CrasData.AverageVO2Max = *SessionID * 10 + *SubSessionID;
 1062              		.loc 1 872 0
 1063 069e 0588     		ldrh	r5, [r0]
 1064 06a0 0C88     		ldrh	r4, [r1]
 1065 06a2 AA00     		lsls	r2, r5, #2
 1066 06a4 AA18     		adds	r2, r5, r2
ARM GAS  C:\Users\310309~1\AppData\Local\Temp\ccu8WRKs.s 			page 35


 1067 06a6 5500     		lsls	r5, r2, #1
 1068 06a8 2A19     		adds	r2, r5, r4
 1069 06aa 2224     		movs	r4, #34
 1070 06ac 1A55     		strb	r2, [r3, r4]
 873:main.c        ****         CrasData.MaximumHeartRate = *SessionID * 10 + *SubSessionID;
 1071              		.loc 1 873 0
 1072 06ae 0588     		ldrh	r5, [r0]
 1073 06b0 0C88     		ldrh	r4, [r1]
 1074 06b2 AA00     		lsls	r2, r5, #2
 1075 06b4 AA18     		adds	r2, r5, r2
 1076 06b6 5500     		lsls	r5, r2, #1
 1077 06b8 2A19     		adds	r2, r5, r4
 1078 06ba 2424     		movs	r4, #36
 1079 06bc 1A55     		strb	r2, [r3, r4]
 874:main.c        ****         CrasData.MaximumHeartRateVariability = *SessionID * 10 + *SubSessionID;
 1080              		.loc 1 874 0
 1081 06be 0588     		ldrh	r5, [r0]
 1082 06c0 0E88     		ldrh	r6, [r1]
 1083 06c2 AC00     		lsls	r4, r5, #2
 1084 06c4 2C19     		adds	r4, r5, r4
 1085 06c6 6200     		lsls	r2, r4, #1
 1086 06c8 B218     		adds	r2, r6, r2
 1087 06ca 1C00     		movs	r4, r3
 1088 06cc 3134     		adds	r4, r4, #49
 1089 06ce 92B2     		uxth	r2, r2
 1090 06d0 2270     		strb	r2, [r4]
 1091 06d2 120A     		lsrs	r2, r2, #8
 1092 06d4 6270     		strb	r2, [r4, #1]
 875:main.c        ****         CrasData.MaximumPulseInterbeatInterval = *SessionID * 10 + *SubSessionID;
 1093              		.loc 1 875 0
 1094 06d6 0588     		ldrh	r5, [r0]
 1095 06d8 0E88     		ldrh	r6, [r1]
 1096 06da AC00     		lsls	r4, r5, #2
 1097 06dc 2C19     		adds	r4, r5, r4
 1098 06de 6200     		lsls	r2, r4, #1
 1099 06e0 B218     		adds	r2, r6, r2
 1100 06e2 92B2     		uxth	r2, r2
 1101 06e4 2824     		movs	r4, #40
 1102 06e6 1A55     		strb	r2, [r3, r4]
 1103 06e8 120A     		lsrs	r2, r2, #8
 1104 06ea 0134     		adds	r4, r4, #1
 1105 06ec 1A55     		strb	r2, [r3, r4]
 876:main.c        ****         CrasData.MaximumRespirationRate = *SessionID * 10 + *SubSessionID;
 1106              		.loc 1 876 0
 1107 06ee 0588     		ldrh	r5, [r0]
 1108 06f0 0C88     		ldrh	r4, [r1]
 1109 06f2 AA00     		lsls	r2, r5, #2
 1110 06f4 AA18     		adds	r2, r5, r2
 1111 06f6 5500     		lsls	r5, r2, #1
 1112 06f8 2A19     		adds	r2, r5, r4
 1113 06fa 3624     		movs	r4, #54
 1114 06fc 1A55     		strb	r2, [r3, r4]
 877:main.c        ****         CrasData.MaximumRestingHeartRate = *SessionID * 10 + *SubSessionID;
 1115              		.loc 1 877 0
 1116 06fe 0588     		ldrh	r5, [r0]
 1117 0700 0C88     		ldrh	r4, [r1]
 1118 0702 AA00     		lsls	r2, r5, #2
ARM GAS  C:\Users\310309~1\AppData\Local\Temp\ccu8WRKs.s 			page 36


 1119 0704 AA18     		adds	r2, r5, r2
 1120 0706 5500     		lsls	r5, r2, #1
 1121 0708 2A19     		adds	r2, r5, r4
 1122 070a 2D24     		movs	r4, #45
 1123 070c 1A55     		strb	r2, [r3, r4]
 878:main.c        ****         CrasData.MaximumRestingRespirationRate = *SessionID * 10 + *SubSessionID;
 1124              		.loc 1 878 0
 1125 070e 0588     		ldrh	r5, [r0]
 1126 0710 0C88     		ldrh	r4, [r1]
 1127 0712 AA00     		lsls	r2, r5, #2
 1128 0714 AA18     		adds	r2, r5, r2
 1129 0716 5500     		lsls	r5, r2, #1
 1130 0718 2A19     		adds	r2, r5, r4
 1131 071a 3924     		movs	r4, #57
 1132 071c 1A55     		strb	r2, [r3, r4]
 879:main.c        ****         CrasData.MaximumVO2Max = *SessionID * 10 + *SubSessionID;
 1133              		.loc 1 879 0
 1134 071e 0588     		ldrh	r5, [r0]
 1135 0720 0C88     		ldrh	r4, [r1]
 1136 0722 AA00     		lsls	r2, r5, #2
 1137 0724 AA18     		adds	r2, r5, r2
 1138 0726 5500     		lsls	r5, r2, #1
 1139 0728 2A19     		adds	r2, r5, r4
 1140 072a 2124     		movs	r4, #33
 1141 072c 1A55     		strb	r2, [r3, r4]
 880:main.c        ****         CrasData.MinimumHeartRate = *SessionID * 10 + *SubSessionID;
 1142              		.loc 1 880 0
 1143 072e 0588     		ldrh	r5, [r0]
 1144 0730 0C88     		ldrh	r4, [r1]
 1145 0732 AA00     		lsls	r2, r5, #2
 1146 0734 AA18     		adds	r2, r5, r2
 1147 0736 5500     		lsls	r5, r2, #1
 1148 0738 2A19     		adds	r2, r5, r4
 1149 073a 2324     		movs	r4, #35
 1150 073c 1A55     		strb	r2, [r3, r4]
 881:main.c        ****         CrasData.MinimumHeartRateVariability = *SessionID * 10 + *SubSessionID;
 1151              		.loc 1 881 0
 1152 073e 0588     		ldrh	r5, [r0]
 1153 0740 0E88     		ldrh	r6, [r1]
 1154 0742 AC00     		lsls	r4, r5, #2
 1155 0744 2C19     		adds	r4, r5, r4
 1156 0746 6200     		lsls	r2, r4, #1
 1157 0748 B218     		adds	r2, r6, r2
 1158 074a 1C00     		movs	r4, r3
 1159 074c 2F34     		adds	r4, r4, #47
 1160 074e 92B2     		uxth	r2, r2
 1161 0750 2270     		strb	r2, [r4]
 1162 0752 120A     		lsrs	r2, r2, #8
 1163 0754 6270     		strb	r2, [r4, #1]
 882:main.c        ****         CrasData.MinimumPulseInterbeatInterval = *SessionID * 10 + *SubSessionID;
 1164              		.loc 1 882 0
 1165 0756 0588     		ldrh	r5, [r0]
 1166 0758 0E88     		ldrh	r6, [r1]
 1167 075a AC00     		lsls	r4, r5, #2
 1168 075c 2C19     		adds	r4, r5, r4
 1169 075e 6200     		lsls	r2, r4, #1
 1170 0760 B218     		adds	r2, r6, r2
ARM GAS  C:\Users\310309~1\AppData\Local\Temp\ccu8WRKs.s 			page 37


 1171 0762 92B2     		uxth	r2, r2
 1172 0764 2624     		movs	r4, #38
 1173 0766 1A55     		strb	r2, [r3, r4]
 1174 0768 120A     		lsrs	r2, r2, #8
 1175 076a 0134     		adds	r4, r4, #1
 1176 076c 1A55     		strb	r2, [r3, r4]
 883:main.c        ****         CrasData.MinimumRespirationRate = *SessionID * 10 + *SubSessionID;
 1177              		.loc 1 883 0
 1178 076e 0588     		ldrh	r5, [r0]
 1179 0770 0C88     		ldrh	r4, [r1]
 1180 0772 AA00     		lsls	r2, r5, #2
 1181 0774 AA18     		adds	r2, r5, r2
 1182 0776 5500     		lsls	r5, r2, #1
 1183 0778 2A19     		adds	r2, r5, r4
 1184 077a 3524     		movs	r4, #53
 1185 077c 1A55     		strb	r2, [r3, r4]
 884:main.c        ****         CrasData.MinimumRestingHeartRate = *SessionID * 10 + *SubSessionID;
 1186              		.loc 1 884 0
 1187 077e 0588     		ldrh	r5, [r0]
 1188 0780 0C88     		ldrh	r4, [r1]
 1189 0782 AA00     		lsls	r2, r5, #2
 1190 0784 AA18     		adds	r2, r5, r2
 1191 0786 5500     		lsls	r5, r2, #1
 1192 0788 2A19     		adds	r2, r5, r4
 1193 078a 2C24     		movs	r4, #44
 1194 078c 1A55     		strb	r2, [r3, r4]
 885:main.c        ****         CrasData.MinimumRestingRespirationRate = *SessionID * 10 + *SubSessionID;
 1195              		.loc 1 885 0
 1196 078e 0588     		ldrh	r5, [r0]
 1197 0790 0C88     		ldrh	r4, [r1]
 1198 0792 AA00     		lsls	r2, r5, #2
 1199 0794 AA18     		adds	r2, r5, r2
 1200 0796 5500     		lsls	r5, r2, #1
 1201 0798 2A19     		adds	r2, r5, r4
 1202 079a 3824     		movs	r4, #56
 1203 079c 1A55     		strb	r2, [r3, r4]
 886:main.c        ****         CrasData.MinimumVO2Max = *SessionID * 10 + *SubSessionID;
 1204              		.loc 1 886 0
 1205 079e 0588     		ldrh	r5, [r0]
 1206 07a0 0C88     		ldrh	r4, [r1]
 1207 07a2 AA00     		lsls	r2, r5, #2
 1208 07a4 AA18     		adds	r2, r5, r2
 1209 07a6 5500     		lsls	r5, r2, #1
 1210 07a8 2A19     		adds	r2, r5, r4
 1211 07aa 2024     		movs	r4, #32
 1212 07ac 1A55     		strb	r2, [r3, r4]
 887:main.c        ****         CrasData.RelativeTimestamp = *SessionID * 10 + *SubSessionID;
 1213              		.loc 1 887 0
 1214 07ae 0288     		ldrh	r2, [r0]
 1215 07b0 9400     		lsls	r4, r2, #2
 1216 07b2 A418     		adds	r4, r4, r2
 1217 07b4 6200     		lsls	r2, r4, #1
 1218 07b6 0C88     		ldrh	r4, [r1]
 1219 07b8 A218     		adds	r2, r4, r2
 1220 07ba 5A72     		strb	r2, [r3, #9]
 1221 07bc 150A     		lsrs	r5, r2, #8
 1222 07be 9D72     		strb	r5, [r3, #10]
ARM GAS  C:\Users\310309~1\AppData\Local\Temp\ccu8WRKs.s 			page 38


 1223 07c0 150C     		lsrs	r5, r2, #16
 1224 07c2 DD72     		strb	r5, [r3, #11]
 1225 07c4 120E     		lsrs	r2, r2, #24
 1226 07c6 1A73     		strb	r2, [r3, #12]
 888:main.c        ****         CrasData.SequenceNumber = *SessionID * 10 + *SubSessionID;
 1227              		.loc 1 888 0
 1228 07c8 0288     		ldrh	r2, [r0]
 1229 07ca 9400     		lsls	r4, r2, #2
 1230 07cc A418     		adds	r4, r4, r2
 1231 07ce 6200     		lsls	r2, r4, #1
 1232 07d0 0C88     		ldrh	r4, [r1]
 1233 07d2 A218     		adds	r2, r4, r2
 1234 07d4 5A73     		strb	r2, [r3, #13]
 1235 07d6 150A     		lsrs	r5, r2, #8
 1236 07d8 9D73     		strb	r5, [r3, #14]
 1237 07da 150C     		lsrs	r5, r2, #16
 1238 07dc DD73     		strb	r5, [r3, #15]
 1239 07de 120E     		lsrs	r2, r2, #24
 1240 07e0 1A74     		strb	r2, [r3, #16]
 889:main.c        ****         CrasData.TimeInHeartRateZone1[0] = *SessionID * 10 + *SubSessionID;
 1241              		.loc 1 889 0
 1242 07e2 0588     		ldrh	r5, [r0]
 1243 07e4 0C88     		ldrh	r4, [r1]
 1244 07e6 AA00     		lsls	r2, r5, #2
 1245 07e8 AA18     		adds	r2, r5, r2
 1246 07ea 5500     		lsls	r5, r2, #1
 1247 07ec 2A19     		adds	r2, r5, r4
 1248 07ee 5A74     		strb	r2, [r3, #17]
 890:main.c        ****         CrasData.TimeInHeartRateZone1[1] = *SessionID * 10 + *SubSessionID;
 1249              		.loc 1 890 0
 1250 07f0 0588     		ldrh	r5, [r0]
 1251 07f2 0C88     		ldrh	r4, [r1]
 1252 07f4 AA00     		lsls	r2, r5, #2
 1253 07f6 AA18     		adds	r2, r5, r2
 1254 07f8 5500     		lsls	r5, r2, #1
 1255 07fa 2A19     		adds	r2, r5, r4
 1256 07fc 9A74     		strb	r2, [r3, #18]
 891:main.c        ****         CrasData.TimeInHeartRateZone1[2] = *SessionID * 10 + *SubSessionID;
 1257              		.loc 1 891 0
 1258 07fe 0588     		ldrh	r5, [r0]
 1259 0800 04E0     		b	.L20
 1260              	.L21:
 1261 0802 C046     		.align	2
 1262              	.L19:
 1263 0804 00000000 		.word	GasData
 1264 0808 00000000 		.word	CrasData
 1265              	.L20:
 1266 080c 0C88     		ldrh	r4, [r1]
 1267 080e AA00     		lsls	r2, r5, #2
 1268 0810 AA18     		adds	r2, r5, r2
 1269 0812 5500     		lsls	r5, r2, #1
 1270 0814 2A19     		adds	r2, r5, r4
 1271 0816 DA74     		strb	r2, [r3, #19]
 892:main.c        ****         CrasData.TimeInHeartRateZone2[0] = *SessionID * 10 + *SubSessionID;
 1272              		.loc 1 892 0
 1273 0818 0588     		ldrh	r5, [r0]
 1274 081a 0C88     		ldrh	r4, [r1]
ARM GAS  C:\Users\310309~1\AppData\Local\Temp\ccu8WRKs.s 			page 39


 1275 081c AA00     		lsls	r2, r5, #2
 1276 081e AA18     		adds	r2, r5, r2
 1277 0820 5500     		lsls	r5, r2, #1
 1278 0822 2A19     		adds	r2, r5, r4
 1279 0824 1A75     		strb	r2, [r3, #20]
 893:main.c        ****         CrasData.TimeInHeartRateZone2[1] = *SessionID * 10 + *SubSessionID;
 1280              		.loc 1 893 0
 1281 0826 0588     		ldrh	r5, [r0]
 1282 0828 0C88     		ldrh	r4, [r1]
 1283 082a AA00     		lsls	r2, r5, #2
 1284 082c AA18     		adds	r2, r5, r2
 1285 082e 5500     		lsls	r5, r2, #1
 1286 0830 2A19     		adds	r2, r5, r4
 1287 0832 5A75     		strb	r2, [r3, #21]
 894:main.c        ****         CrasData.TimeInHeartRateZone2[2] = *SessionID * 10 + *SubSessionID;
 1288              		.loc 1 894 0
 1289 0834 0588     		ldrh	r5, [r0]
 1290 0836 0C88     		ldrh	r4, [r1]
 1291 0838 AA00     		lsls	r2, r5, #2
 1292 083a AA18     		adds	r2, r5, r2
 1293 083c 5500     		lsls	r5, r2, #1
 1294 083e 2A19     		adds	r2, r5, r4
 1295 0840 9A75     		strb	r2, [r3, #22]
 895:main.c        ****         CrasData.TimeInHeartRateZone3[0] = *SessionID * 10 + *SubSessionID;
 1296              		.loc 1 895 0
 1297 0842 0588     		ldrh	r5, [r0]
 1298 0844 0C88     		ldrh	r4, [r1]
 1299 0846 AA00     		lsls	r2, r5, #2
 1300 0848 AA18     		adds	r2, r5, r2
 1301 084a 5500     		lsls	r5, r2, #1
 1302 084c 2A19     		adds	r2, r5, r4
 1303 084e DA75     		strb	r2, [r3, #23]
 896:main.c        ****         CrasData.TimeInHeartRateZone3[1] = *SessionID * 10 + *SubSessionID;
 1304              		.loc 1 896 0
 1305 0850 0588     		ldrh	r5, [r0]
 1306 0852 0C88     		ldrh	r4, [r1]
 1307 0854 AA00     		lsls	r2, r5, #2
 1308 0856 AA18     		adds	r2, r5, r2
 1309 0858 5500     		lsls	r5, r2, #1
 1310 085a 2A19     		adds	r2, r5, r4
 1311 085c 1A76     		strb	r2, [r3, #24]
 897:main.c        ****         CrasData.TimeInHeartRateZone3[2] = *SessionID * 10 + *SubSessionID;
 1312              		.loc 1 897 0
 1313 085e 0588     		ldrh	r5, [r0]
 1314 0860 0C88     		ldrh	r4, [r1]
 1315 0862 AA00     		lsls	r2, r5, #2
 1316 0864 AA18     		adds	r2, r5, r2
 1317 0866 5500     		lsls	r5, r2, #1
 1318 0868 2A19     		adds	r2, r5, r4
 1319 086a 5A76     		strb	r2, [r3, #25]
 898:main.c        ****         CrasData.TimeInHeartRateZone4[0] = *SessionID * 10 + *SubSessionID;
 1320              		.loc 1 898 0
 1321 086c 0588     		ldrh	r5, [r0]
 1322 086e 0C88     		ldrh	r4, [r1]
 1323 0870 AA00     		lsls	r2, r5, #2
 1324 0872 AA18     		adds	r2, r5, r2
 1325 0874 5500     		lsls	r5, r2, #1
ARM GAS  C:\Users\310309~1\AppData\Local\Temp\ccu8WRKs.s 			page 40


 1326 0876 2A19     		adds	r2, r5, r4
 1327 0878 9A76     		strb	r2, [r3, #26]
 899:main.c        ****         CrasData.TimeInHeartRateZone4[1] = *SessionID * 10 + *SubSessionID;
 1328              		.loc 1 899 0
 1329 087a 0588     		ldrh	r5, [r0]
 1330 087c 0C88     		ldrh	r4, [r1]
 1331 087e AA00     		lsls	r2, r5, #2
 1332 0880 AA18     		adds	r2, r5, r2
 1333 0882 5500     		lsls	r5, r2, #1
 1334 0884 2A19     		adds	r2, r5, r4
 1335 0886 DA76     		strb	r2, [r3, #27]
 900:main.c        ****         CrasData.TimeInHeartRateZone4[2] = *SessionID * 10 + *SubSessionID;
 1336              		.loc 1 900 0
 1337 0888 0588     		ldrh	r5, [r0]
 1338 088a 0C88     		ldrh	r4, [r1]
 1339 088c AA00     		lsls	r2, r5, #2
 1340 088e AA18     		adds	r2, r5, r2
 1341 0890 5500     		lsls	r5, r2, #1
 1342 0892 2A19     		adds	r2, r5, r4
 1343 0894 1A77     		strb	r2, [r3, #28]
 901:main.c        ****         CrasData.TimeInHeartRateZone5[0] = *SessionID * 10 + *SubSessionID;
 1344              		.loc 1 901 0
 1345 0896 0588     		ldrh	r5, [r0]
 1346 0898 0C88     		ldrh	r4, [r1]
 1347 089a AA00     		lsls	r2, r5, #2
 1348 089c AA18     		adds	r2, r5, r2
 1349 089e 5500     		lsls	r5, r2, #1
 1350 08a0 2A19     		adds	r2, r5, r4
 1351 08a2 5A77     		strb	r2, [r3, #29]
 902:main.c        ****         CrasData.TimeInHeartRateZone5[1] = *SessionID * 10 + *SubSessionID;
 1352              		.loc 1 902 0
 1353 08a4 0588     		ldrh	r5, [r0]
 1354 08a6 0C88     		ldrh	r4, [r1]
 1355 08a8 AA00     		lsls	r2, r5, #2
 1356 08aa AA18     		adds	r2, r5, r2
 1357 08ac 5500     		lsls	r5, r2, #1
 1358 08ae 2A19     		adds	r2, r5, r4
 1359 08b0 9A77     		strb	r2, [r3, #30]
 903:main.c        ****         CrasData.TimeInHeartRateZone5[2] = *SessionID * 10 + *SubSessionID;
 1360              		.loc 1 903 0
 1361 08b2 0588     		ldrh	r5, [r0]
 1362 08b4 0C88     		ldrh	r4, [r1]
 1363 08b6 AA00     		lsls	r2, r5, #2
 1364 08b8 AA18     		adds	r2, r5, r2
 1365 08ba 5500     		lsls	r5, r2, #1
 1366 08bc 2A19     		adds	r2, r5, r4
 1367 08be DA77     		strb	r2, [r3, #31]
 904:main.c        ****         CrasData.WornDuration[0] = *SessionID * 10 + *SubSessionID;
 1368              		.loc 1 904 0
 1369 08c0 0588     		ldrh	r5, [r0]
 1370 08c2 0C88     		ldrh	r4, [r1]
 1371 08c4 AA00     		lsls	r2, r5, #2
 1372 08c6 AA18     		adds	r2, r5, r2
 1373 08c8 5500     		lsls	r5, r2, #1
 1374 08ca 2A19     		adds	r2, r5, r4
 1375 08cc 3B24     		movs	r4, #59
 1376 08ce 1A55     		strb	r2, [r3, r4]
ARM GAS  C:\Users\310309~1\AppData\Local\Temp\ccu8WRKs.s 			page 41


 905:main.c        ****         CrasData.WornDuration[1] = *SessionID * 10 + *SubSessionID;
 1377              		.loc 1 905 0
 1378 08d0 0588     		ldrh	r5, [r0]
 1379 08d2 0C88     		ldrh	r4, [r1]
 1380 08d4 AA00     		lsls	r2, r5, #2
 1381 08d6 AA18     		adds	r2, r5, r2
 1382 08d8 5500     		lsls	r5, r2, #1
 1383 08da 2A19     		adds	r2, r5, r4
 1384 08dc 3C24     		movs	r4, #60
 1385 08de 1A55     		strb	r2, [r3, r4]
 906:main.c        ****         CrasData.WornDuration[2] = *SessionID * 10 + *SubSessionID;
 1386              		.loc 1 906 0
 1387 08e0 0588     		ldrh	r5, [r0]
 1388 08e2 0C88     		ldrh	r4, [r1]
 1389 08e4 AA00     		lsls	r2, r5, #2
 1390 08e6 AA18     		adds	r2, r5, r2
 1391 08e8 5500     		lsls	r5, r2, #1
 1392 08ea 2A19     		adds	r2, r5, r4
 1393 08ec 3D24     		movs	r4, #61
 1394 08ee 1A55     		strb	r2, [r3, r4]
 907:main.c        ****     }
 908:main.c        ****     //ScasData
 909:main.c        ****     {
 910:main.c        ****         ScasData.SessionID = *SessionID;
 1395              		.loc 1 910 0
 1396 08f0 0288     		ldrh	r2, [r0]
 1397 08f2 CD4B     		ldr	r3, .L22
 1398 08f4 9A70     		strb	r2, [r3, #2]
 1399 08f6 120A     		lsrs	r2, r2, #8
 1400 08f8 DA70     		strb	r2, [r3, #3]
 911:main.c        ****         ScasData.SubSessionID = *SubSessionID;
 1401              		.loc 1 911 0
 1402 08fa 0A88     		ldrh	r2, [r1]
 1403 08fc 1A71     		strb	r2, [r3, #4]
 1404 08fe 120A     		lsrs	r2, r2, #8
 1405 0900 5A71     		strb	r2, [r3, #5]
 912:main.c        ****         ScasData.Distance[0] = *SessionID * 10 + *SubSessionID;
 1406              		.loc 1 912 0
 1407 0902 0588     		ldrh	r5, [r0]
 1408 0904 0C88     		ldrh	r4, [r1]
 1409 0906 AA00     		lsls	r2, r5, #2
 1410 0908 AA18     		adds	r2, r5, r2
 1411 090a 5500     		lsls	r5, r2, #1
 1412 090c 2A19     		adds	r2, r5, r4
 1413 090e DA75     		strb	r2, [r3, #23]
 913:main.c        ****         ScasData.Distance[1] = *SessionID * 10 + *SubSessionID;
 1414              		.loc 1 913 0
 1415 0910 0588     		ldrh	r5, [r0]
 1416 0912 0C88     		ldrh	r4, [r1]
 1417 0914 AA00     		lsls	r2, r5, #2
 1418 0916 AA18     		adds	r2, r5, r2
 1419 0918 5500     		lsls	r5, r2, #1
 1420 091a 2A19     		adds	r2, r5, r4
 1421 091c 1A76     		strb	r2, [r3, #24]
 914:main.c        ****         ScasData.Distance[2] = *SessionID * 10 + *SubSessionID;
 1422              		.loc 1 914 0
 1423 091e 0588     		ldrh	r5, [r0]
ARM GAS  C:\Users\310309~1\AppData\Local\Temp\ccu8WRKs.s 			page 42


 1424 0920 0C88     		ldrh	r4, [r1]
 1425 0922 AA00     		lsls	r2, r5, #2
 1426 0924 AA18     		adds	r2, r5, r2
 1427 0926 5500     		lsls	r5, r2, #1
 1428 0928 2A19     		adds	r2, r5, r4
 1429 092a 5A76     		strb	r2, [r3, #25]
 915:main.c        ****         ScasData.FloorSteps[0] = *SessionID * 10 + *SubSessionID;
 1430              		.loc 1 915 0
 1431 092c 0588     		ldrh	r5, [r0]
 1432 092e 0C88     		ldrh	r4, [r1]
 1433 0930 AA00     		lsls	r2, r5, #2
 1434 0932 AA18     		adds	r2, r5, r2
 1435 0934 5500     		lsls	r5, r2, #1
 1436 0936 2A19     		adds	r2, r5, r4
 1437 0938 1A75     		strb	r2, [r3, #20]
 916:main.c        ****         ScasData.FloorSteps[1] = *SessionID * 10 + *SubSessionID;
 1438              		.loc 1 916 0
 1439 093a 0588     		ldrh	r5, [r0]
 1440 093c 0C88     		ldrh	r4, [r1]
 1441 093e AA00     		lsls	r2, r5, #2
 1442 0940 AA18     		adds	r2, r5, r2
 1443 0942 5500     		lsls	r5, r2, #1
 1444 0944 2A19     		adds	r2, r5, r4
 1445 0946 5A75     		strb	r2, [r3, #21]
 917:main.c        ****         ScasData.FloorSteps[2] = *SessionID * 10 + *SubSessionID;
 1446              		.loc 1 917 0
 1447 0948 0588     		ldrh	r5, [r0]
 1448 094a 0C88     		ldrh	r4, [r1]
 1449 094c AA00     		lsls	r2, r5, #2
 1450 094e AA18     		adds	r2, r5, r2
 1451 0950 5500     		lsls	r5, r2, #1
 1452 0952 2A19     		adds	r2, r5, r4
 1453 0954 9A75     		strb	r2, [r3, #22]
 918:main.c        ****         ScasData.IntensitySteps[0] = *SessionID * 10 + *SubSessionID;
 1454              		.loc 1 918 0
 1455 0956 0588     		ldrh	r5, [r0]
 1456 0958 0C88     		ldrh	r4, [r1]
 1457 095a AA00     		lsls	r2, r5, #2
 1458 095c AA18     		adds	r2, r5, r2
 1459 095e 5500     		lsls	r5, r2, #1
 1460 0960 2A19     		adds	r2, r5, r4
 1461 0962 5A74     		strb	r2, [r3, #17]
 919:main.c        ****         ScasData.IntensitySteps[1] = *SessionID * 10 + *SubSessionID;
 1462              		.loc 1 919 0
 1463 0964 0588     		ldrh	r5, [r0]
 1464 0966 0C88     		ldrh	r4, [r1]
 1465 0968 AA00     		lsls	r2, r5, #2
 1466 096a AA18     		adds	r2, r5, r2
 1467 096c 5500     		lsls	r5, r2, #1
 1468 096e 2A19     		adds	r2, r5, r4
 1469 0970 9A74     		strb	r2, [r3, #18]
 920:main.c        ****         ScasData.IntensitySteps[2] = *SessionID * 10 + *SubSessionID;
 1470              		.loc 1 920 0
 1471 0972 0588     		ldrh	r5, [r0]
 1472 0974 0C88     		ldrh	r4, [r1]
 1473 0976 AA00     		lsls	r2, r5, #2
 1474 0978 AA18     		adds	r2, r5, r2
ARM GAS  C:\Users\310309~1\AppData\Local\Temp\ccu8WRKs.s 			page 43


 1475 097a 5500     		lsls	r5, r2, #1
 1476 097c 2A19     		adds	r2, r5, r4
 1477 097e DA74     		strb	r2, [r3, #19]
 921:main.c        ****         ScasData.NormalWalkingSteps[0] = *SessionID * 10 + *SubSessionID;
 1478              		.loc 1 921 0
 1479 0980 0588     		ldrh	r5, [r0]
 1480 0982 0C88     		ldrh	r4, [r1]
 1481 0984 AA00     		lsls	r2, r5, #2
 1482 0986 AA18     		adds	r2, r5, r2
 1483 0988 5500     		lsls	r5, r2, #1
 1484 098a 2A19     		adds	r2, r5, r4
 1485 098c 9A73     		strb	r2, [r3, #14]
 922:main.c        ****         ScasData.NormalWalkingSteps[1] = *SessionID * 10 + *SubSessionID;
 1486              		.loc 1 922 0
 1487 098e 0588     		ldrh	r5, [r0]
 1488 0990 0C88     		ldrh	r4, [r1]
 1489 0992 AA00     		lsls	r2, r5, #2
 1490 0994 AA18     		adds	r2, r5, r2
 1491 0996 5500     		lsls	r5, r2, #1
 1492 0998 2A19     		adds	r2, r5, r4
 1493 099a DA73     		strb	r2, [r3, #15]
 923:main.c        ****         ScasData.NormalWalkingSteps[2] = *SessionID * 10 + *SubSessionID;
 1494              		.loc 1 923 0
 1495 099c 0588     		ldrh	r5, [r0]
 1496 099e 0C88     		ldrh	r4, [r1]
 1497 09a0 AA00     		lsls	r2, r5, #2
 1498 09a2 AA18     		adds	r2, r5, r2
 1499 09a4 5500     		lsls	r5, r2, #1
 1500 09a6 2A19     		adds	r2, r5, r4
 1501 09a8 1A74     		strb	r2, [r3, #16]
 924:main.c        ****         ScasData.RelativeTimestamp = *SessionID * 10 + *SubSessionID;
 1502              		.loc 1 924 0
 1503 09aa 0288     		ldrh	r2, [r0]
 1504 09ac 9400     		lsls	r4, r2, #2
 1505 09ae A418     		adds	r4, r4, r2
 1506 09b0 6200     		lsls	r2, r4, #1
 1507 09b2 0C88     		ldrh	r4, [r1]
 1508 09b4 A218     		adds	r2, r4, r2
 1509 09b6 9A71     		strb	r2, [r3, #6]
 1510 09b8 150A     		lsrs	r5, r2, #8
 1511 09ba DD71     		strb	r5, [r3, #7]
 1512 09bc 150C     		lsrs	r5, r2, #16
 1513 09be 1D72     		strb	r5, [r3, #8]
 1514 09c0 120E     		lsrs	r2, r2, #24
 1515 09c2 5A72     		strb	r2, [r3, #9]
 925:main.c        ****         ScasData.SequenceNumber = *SessionID * 10 + *SubSessionID;
 1516              		.loc 1 925 0
 1517 09c4 0288     		ldrh	r2, [r0]
 1518 09c6 9400     		lsls	r4, r2, #2
 1519 09c8 A418     		adds	r4, r4, r2
 1520 09ca 6200     		lsls	r2, r4, #1
 1521 09cc 0C88     		ldrh	r4, [r1]
 1522 09ce A218     		adds	r2, r4, r2
 1523 09d0 9A72     		strb	r2, [r3, #10]
 1524 09d2 150A     		lsrs	r5, r2, #8
 1525 09d4 DD72     		strb	r5, [r3, #11]
 1526 09d6 150C     		lsrs	r5, r2, #16
ARM GAS  C:\Users\310309~1\AppData\Local\Temp\ccu8WRKs.s 			page 44


 1527 09d8 1D73     		strb	r5, [r3, #12]
 1528 09da 120E     		lsrs	r2, r2, #24
 1529 09dc 5A73     		strb	r2, [r3, #13]
 926:main.c        ****         ScasData.WornDuration[0] = *SessionID * 10 + *SubSessionID;
 1530              		.loc 1 926 0
 1531 09de 0588     		ldrh	r5, [r0]
 1532 09e0 0C88     		ldrh	r4, [r1]
 1533 09e2 AA00     		lsls	r2, r5, #2
 1534 09e4 AA18     		adds	r2, r5, r2
 1535 09e6 5500     		lsls	r5, r2, #1
 1536 09e8 2A19     		adds	r2, r5, r4
 1537 09ea 9A76     		strb	r2, [r3, #26]
 927:main.c        ****         ScasData.WornDuration[1] = *SessionID * 10 + *SubSessionID;
 1538              		.loc 1 927 0
 1539 09ec 0588     		ldrh	r5, [r0]
 1540 09ee 0A88     		ldrh	r2, [r1]
 1541 09f0 1C00     		movs	r4, r3
 1542 09f2 AB00     		lsls	r3, r5, #2
 1543 09f4 EB18     		adds	r3, r5, r3
 1544 09f6 5D00     		lsls	r5, r3, #1
 1545 09f8 AB18     		adds	r3, r5, r2
 1546 09fa E376     		strb	r3, [r4, #27]
 928:main.c        ****         ScasData.WornDuration[2] = *SessionID * 10 + *SubSessionID;
 1547              		.loc 1 928 0
 1548 09fc 0588     		ldrh	r5, [r0]
 1549 09fe 0A88     		ldrh	r2, [r1]
 1550 0a00 AB00     		lsls	r3, r5, #2
 1551 0a02 EB18     		adds	r3, r5, r3
 1552 0a04 5D00     		lsls	r5, r3, #1
 1553 0a06 AB18     		adds	r3, r5, r2
 1554 0a08 2377     		strb	r3, [r4, #28]
 929:main.c        ****     }
 930:main.c        ****     //SasData
 931:main.c        ****     {
 932:main.c        ****         SasData.AverageIRLightLevel[0] = *SessionID * 10 + *SubSessionID;
 1555              		.loc 1 932 0
 1556 0a0a 0588     		ldrh	r5, [r0]
 1557 0a0c 0C88     		ldrh	r4, [r1]
 1558 0a0e 874B     		ldr	r3, .L22+4
 1559 0a10 AA00     		lsls	r2, r5, #2
 1560 0a12 AA18     		adds	r2, r5, r2
 1561 0a14 5500     		lsls	r5, r2, #1
 1562 0a16 2A19     		adds	r2, r5, r4
 1563 0a18 3D24     		movs	r4, #61
 1564 0a1a 1A55     		strb	r2, [r3, r4]
 933:main.c        ****         SasData.AverageIRLightLevel[1] = *SessionID * 10 + *SubSessionID;
 1565              		.loc 1 933 0
 1566 0a1c 0588     		ldrh	r5, [r0]
 1567 0a1e 0C88     		ldrh	r4, [r1]
 1568 0a20 AA00     		lsls	r2, r5, #2
 1569 0a22 AA18     		adds	r2, r5, r2
 1570 0a24 5500     		lsls	r5, r2, #1
 1571 0a26 2A19     		adds	r2, r5, r4
 1572 0a28 3E24     		movs	r4, #62
 1573 0a2a 1A55     		strb	r2, [r3, r4]
 934:main.c        ****         SasData.AverageIRLightLevel[2] = *SessionID * 10 + *SubSessionID;
 1574              		.loc 1 934 0
ARM GAS  C:\Users\310309~1\AppData\Local\Temp\ccu8WRKs.s 			page 45


 1575 0a2c 0588     		ldrh	r5, [r0]
 1576 0a2e 0C88     		ldrh	r4, [r1]
 1577 0a30 AA00     		lsls	r2, r5, #2
 1578 0a32 AA18     		adds	r2, r5, r2
 1579 0a34 5500     		lsls	r5, r2, #1
 1580 0a36 2A19     		adds	r2, r5, r4
 1581 0a38 3F24     		movs	r4, #63
 1582 0a3a 1A55     		strb	r2, [r3, r4]
 935:main.c        ****         SasData.AverageSleepingHeartRate = *SessionID * 10 + *SubSessionID;
 1583              		.loc 1 935 0
 1584 0a3c 0588     		ldrh	r5, [r0]
 1585 0a3e 0C88     		ldrh	r4, [r1]
 1586 0a40 AA00     		lsls	r2, r5, #2
 1587 0a42 AA18     		adds	r2, r5, r2
 1588 0a44 5500     		lsls	r5, r2, #1
 1589 0a46 2A19     		adds	r2, r5, r4
 1590 0a48 4024     		movs	r4, #64
 1591 0a4a 1A55     		strb	r2, [r3, r4]
 936:main.c        ****         SasData.AverageUVLightLevel[0] = *SessionID * 10 + *SubSessionID;
 1592              		.loc 1 936 0
 1593 0a4c 0588     		ldrh	r5, [r0]
 1594 0a4e 0C88     		ldrh	r4, [r1]
 1595 0a50 AA00     		lsls	r2, r5, #2
 1596 0a52 AA18     		adds	r2, r5, r2
 1597 0a54 5500     		lsls	r5, r2, #1
 1598 0a56 2A19     		adds	r2, r5, r4
 1599 0a58 3424     		movs	r4, #52
 1600 0a5a 1A55     		strb	r2, [r3, r4]
 937:main.c        ****         SasData.AverageUVLightLevel[1] = *SessionID * 10 + *SubSessionID;
 1601              		.loc 1 937 0
 1602 0a5c 0588     		ldrh	r5, [r0]
 1603 0a5e 0C88     		ldrh	r4, [r1]
 1604 0a60 AA00     		lsls	r2, r5, #2
 1605 0a62 AA18     		adds	r2, r5, r2
 1606 0a64 5500     		lsls	r5, r2, #1
 1607 0a66 2A19     		adds	r2, r5, r4
 1608 0a68 3524     		movs	r4, #53
 1609 0a6a 1A55     		strb	r2, [r3, r4]
 938:main.c        ****         SasData.AverageUVLightLevel[2] = *SessionID * 10 + *SubSessionID;
 1610              		.loc 1 938 0
 1611 0a6c 0588     		ldrh	r5, [r0]
 1612 0a6e 0C88     		ldrh	r4, [r1]
 1613 0a70 AA00     		lsls	r2, r5, #2
 1614 0a72 AA18     		adds	r2, r5, r2
 1615 0a74 5500     		lsls	r5, r2, #1
 1616 0a76 2A19     		adds	r2, r5, r4
 1617 0a78 3624     		movs	r4, #54
 1618 0a7a 1A55     		strb	r2, [r3, r4]
 939:main.c        ****         SasData.AverageVisibleLightLevel[0] = *SessionID * 10 + *SubSessionID;
 1619              		.loc 1 939 0
 1620 0a7c 0588     		ldrh	r5, [r0]
 1621 0a7e 0C88     		ldrh	r4, [r1]
 1622 0a80 AA00     		lsls	r2, r5, #2
 1623 0a82 AA18     		adds	r2, r5, r2
 1624 0a84 5500     		lsls	r5, r2, #1
 1625 0a86 2A19     		adds	r2, r5, r4
 1626 0a88 2B24     		movs	r4, #43
ARM GAS  C:\Users\310309~1\AppData\Local\Temp\ccu8WRKs.s 			page 46


 1627 0a8a 1A55     		strb	r2, [r3, r4]
 940:main.c        ****         SasData.AverageVisibleLightLevel[1] = *SessionID * 10 + *SubSessionID;
 1628              		.loc 1 940 0
 1629 0a8c 0588     		ldrh	r5, [r0]
 1630 0a8e 0C88     		ldrh	r4, [r1]
 1631 0a90 AA00     		lsls	r2, r5, #2
 1632 0a92 AA18     		adds	r2, r5, r2
 1633 0a94 5500     		lsls	r5, r2, #1
 1634 0a96 2A19     		adds	r2, r5, r4
 1635 0a98 2C24     		movs	r4, #44
 1636 0a9a 1A55     		strb	r2, [r3, r4]
 941:main.c        ****         SasData.AverageVisibleLightLevel[2] = *SessionID * 10 + *SubSessionID;
 1637              		.loc 1 941 0
 1638 0a9c 0588     		ldrh	r5, [r0]
 1639 0a9e 0C88     		ldrh	r4, [r1]
 1640 0aa0 AA00     		lsls	r2, r5, #2
 1641 0aa2 AA18     		adds	r2, r5, r2
 1642 0aa4 5500     		lsls	r5, r2, #1
 1643 0aa6 2A19     		adds	r2, r5, r4
 1644 0aa8 2D24     		movs	r4, #45
 1645 0aaa 1A55     		strb	r2, [r3, r4]
 942:main.c        ****         SasData.MaximumIRLightLevel[0] = *SessionID * 10 + *SubSessionID;
 1646              		.loc 1 942 0
 1647 0aac 0588     		ldrh	r5, [r0]
 1648 0aae 0C88     		ldrh	r4, [r1]
 1649 0ab0 AA00     		lsls	r2, r5, #2
 1650 0ab2 AA18     		adds	r2, r5, r2
 1651 0ab4 5500     		lsls	r5, r2, #1
 1652 0ab6 2A19     		adds	r2, r5, r4
 1653 0ab8 3A24     		movs	r4, #58
 1654 0aba 1A55     		strb	r2, [r3, r4]
 943:main.c        ****         SasData.MaximumIRLightLevel[1] = *SessionID * 10 + *SubSessionID;
 1655              		.loc 1 943 0
 1656 0abc 0588     		ldrh	r5, [r0]
 1657 0abe 0C88     		ldrh	r4, [r1]
 1658 0ac0 AA00     		lsls	r2, r5, #2
 1659 0ac2 AA18     		adds	r2, r5, r2
 1660 0ac4 5500     		lsls	r5, r2, #1
 1661 0ac6 2A19     		adds	r2, r5, r4
 1662 0ac8 3B24     		movs	r4, #59
 1663 0aca 1A55     		strb	r2, [r3, r4]
 944:main.c        ****         SasData.MaximumIRLightLevel[2] = *SessionID * 10 + *SubSessionID;
 1664              		.loc 1 944 0
 1665 0acc 0588     		ldrh	r5, [r0]
 1666 0ace 0C88     		ldrh	r4, [r1]
 1667 0ad0 AA00     		lsls	r2, r5, #2
 1668 0ad2 AA18     		adds	r2, r5, r2
 1669 0ad4 5500     		lsls	r5, r2, #1
 1670 0ad6 2A19     		adds	r2, r5, r4
 1671 0ad8 3C24     		movs	r4, #60
 1672 0ada 1A55     		strb	r2, [r3, r4]
 945:main.c        ****         SasData.MaximumUVLightLevel[0] = *SessionID * 10 + *SubSessionID;
 1673              		.loc 1 945 0
 1674 0adc 0588     		ldrh	r5, [r0]
 1675 0ade 0C88     		ldrh	r4, [r1]
 1676 0ae0 AA00     		lsls	r2, r5, #2
 1677 0ae2 AA18     		adds	r2, r5, r2
ARM GAS  C:\Users\310309~1\AppData\Local\Temp\ccu8WRKs.s 			page 47


 1678 0ae4 5500     		lsls	r5, r2, #1
 1679 0ae6 2A19     		adds	r2, r5, r4
 1680 0ae8 3124     		movs	r4, #49
 1681 0aea 1A55     		strb	r2, [r3, r4]
 946:main.c        ****         SasData.MaximumUVLightLevel[1] = *SessionID * 10 + *SubSessionID;
 1682              		.loc 1 946 0
 1683 0aec 0588     		ldrh	r5, [r0]
 1684 0aee 0C88     		ldrh	r4, [r1]
 1685 0af0 AA00     		lsls	r2, r5, #2
 1686 0af2 AA18     		adds	r2, r5, r2
 1687 0af4 5500     		lsls	r5, r2, #1
 1688 0af6 2A19     		adds	r2, r5, r4
 1689 0af8 3224     		movs	r4, #50
 1690 0afa 1A55     		strb	r2, [r3, r4]
 947:main.c        ****         SasData.MaximumUVLightLevel[2] = *SessionID * 10 + *SubSessionID;
 1691              		.loc 1 947 0
 1692 0afc 0588     		ldrh	r5, [r0]
 1693 0afe 0C88     		ldrh	r4, [r1]
 1694 0b00 AA00     		lsls	r2, r5, #2
 1695 0b02 AA18     		adds	r2, r5, r2
 1696 0b04 5500     		lsls	r5, r2, #1
 1697 0b06 2A19     		adds	r2, r5, r4
 1698 0b08 3324     		movs	r4, #51
 1699 0b0a 1A55     		strb	r2, [r3, r4]
 948:main.c        ****         SasData.MaximumVisibleLightLevel[0] = *SessionID * 10 + *SubSessionID;
 1700              		.loc 1 948 0
 1701 0b0c 0588     		ldrh	r5, [r0]
 1702 0b0e 0C88     		ldrh	r4, [r1]
 1703 0b10 AA00     		lsls	r2, r5, #2
 1704 0b12 AA18     		adds	r2, r5, r2
 1705 0b14 5500     		lsls	r5, r2, #1
 1706 0b16 2A19     		adds	r2, r5, r4
 1707 0b18 2824     		movs	r4, #40
 1708 0b1a 1A55     		strb	r2, [r3, r4]
 949:main.c        ****         SasData.MaximumVisibleLightLevel[1] = *SessionID * 10 + *SubSessionID;
 1709              		.loc 1 949 0
 1710 0b1c 0588     		ldrh	r5, [r0]
 1711 0b1e 0C88     		ldrh	r4, [r1]
 1712 0b20 AA00     		lsls	r2, r5, #2
 1713 0b22 AA18     		adds	r2, r5, r2
 1714 0b24 5500     		lsls	r5, r2, #1
 1715 0b26 2A19     		adds	r2, r5, r4
 1716 0b28 2924     		movs	r4, #41
 1717 0b2a 1A55     		strb	r2, [r3, r4]
 950:main.c        ****         SasData.MaximumVisibleLightLevel[2] = *SessionID * 10 + *SubSessionID;
 1718              		.loc 1 950 0
 1719 0b2c 0588     		ldrh	r5, [r0]
 1720 0b2e 0C88     		ldrh	r4, [r1]
 1721 0b30 AA00     		lsls	r2, r5, #2
 1722 0b32 AA18     		adds	r2, r5, r2
 1723 0b34 5500     		lsls	r5, r2, #1
 1724 0b36 2A19     		adds	r2, r5, r4
 1725 0b38 2A24     		movs	r4, #42
 1726 0b3a 1A55     		strb	r2, [r3, r4]
 951:main.c        ****         SasData.MinimumIRLightLevel[0] = *SessionID * 10 + *SubSessionID;
 1727              		.loc 1 951 0
 1728 0b3c 0588     		ldrh	r5, [r0]
ARM GAS  C:\Users\310309~1\AppData\Local\Temp\ccu8WRKs.s 			page 48


 1729 0b3e 0C88     		ldrh	r4, [r1]
 1730 0b40 AA00     		lsls	r2, r5, #2
 1731 0b42 AA18     		adds	r2, r5, r2
 1732 0b44 5500     		lsls	r5, r2, #1
 1733 0b46 2A19     		adds	r2, r5, r4
 1734 0b48 3724     		movs	r4, #55
 1735 0b4a 1A55     		strb	r2, [r3, r4]
 952:main.c        ****         SasData.MinimumIRLightLevel[1] = *SessionID * 10 + *SubSessionID;
 1736              		.loc 1 952 0
 1737 0b4c 0588     		ldrh	r5, [r0]
 1738 0b4e 0C88     		ldrh	r4, [r1]
 1739 0b50 AA00     		lsls	r2, r5, #2
 1740 0b52 AA18     		adds	r2, r5, r2
 1741 0b54 5500     		lsls	r5, r2, #1
 1742 0b56 2A19     		adds	r2, r5, r4
 1743 0b58 3824     		movs	r4, #56
 1744 0b5a 1A55     		strb	r2, [r3, r4]
 953:main.c        ****         SasData.MinimumIRLightLevel[2] = *SessionID * 10 + *SubSessionID;
 1745              		.loc 1 953 0
 1746 0b5c 0588     		ldrh	r5, [r0]
 1747 0b5e 0C88     		ldrh	r4, [r1]
 1748 0b60 AA00     		lsls	r2, r5, #2
 1749 0b62 AA18     		adds	r2, r5, r2
 1750 0b64 5500     		lsls	r5, r2, #1
 1751 0b66 2A19     		adds	r2, r5, r4
 1752 0b68 3924     		movs	r4, #57
 1753 0b6a 1A55     		strb	r2, [r3, r4]
 954:main.c        ****         SasData.MinimumUVLightLevel[0] = *SessionID * 10 + *SubSessionID;
 1754              		.loc 1 954 0
 1755 0b6c 0588     		ldrh	r5, [r0]
 1756 0b6e 0C88     		ldrh	r4, [r1]
 1757 0b70 AA00     		lsls	r2, r5, #2
 1758 0b72 AA18     		adds	r2, r5, r2
 1759 0b74 5500     		lsls	r5, r2, #1
 1760 0b76 2A19     		adds	r2, r5, r4
 1761 0b78 2E24     		movs	r4, #46
 1762 0b7a 1A55     		strb	r2, [r3, r4]
 955:main.c        ****         SasData.MinimumUVLightLevel[1] = *SessionID * 10 + *SubSessionID;
 1763              		.loc 1 955 0
 1764 0b7c 0588     		ldrh	r5, [r0]
 1765 0b7e 0C88     		ldrh	r4, [r1]
 1766 0b80 AA00     		lsls	r2, r5, #2
 1767 0b82 AA18     		adds	r2, r5, r2
 1768 0b84 5500     		lsls	r5, r2, #1
 1769 0b86 2A19     		adds	r2, r5, r4
 1770 0b88 2F24     		movs	r4, #47
 1771 0b8a 1A55     		strb	r2, [r3, r4]
 956:main.c        ****         SasData.MinimumUVLightLevel[2] = *SessionID * 10 + *SubSessionID;
 1772              		.loc 1 956 0
 1773 0b8c 0588     		ldrh	r5, [r0]
 1774 0b8e 0C88     		ldrh	r4, [r1]
 1775 0b90 AA00     		lsls	r2, r5, #2
 1776 0b92 AA18     		adds	r2, r5, r2
 1777 0b94 5500     		lsls	r5, r2, #1
 1778 0b96 2A19     		adds	r2, r5, r4
 1779 0b98 3024     		movs	r4, #48
 1780 0b9a 1A55     		strb	r2, [r3, r4]
ARM GAS  C:\Users\310309~1\AppData\Local\Temp\ccu8WRKs.s 			page 49


 957:main.c        ****         SasData.MinimumVisibleLightLevel[0] = *SessionID * 10 + *SubSessionID;
 1781              		.loc 1 957 0
 1782 0b9c 0588     		ldrh	r5, [r0]
 1783 0b9e 0C88     		ldrh	r4, [r1]
 1784 0ba0 AA00     		lsls	r2, r5, #2
 1785 0ba2 AA18     		adds	r2, r5, r2
 1786 0ba4 5500     		lsls	r5, r2, #1
 1787 0ba6 2A19     		adds	r2, r5, r4
 1788 0ba8 2524     		movs	r4, #37
 1789 0baa 1A55     		strb	r2, [r3, r4]
 958:main.c        ****         SasData.MinimumVisibleLightLevel[1] = *SessionID * 10 + *SubSessionID;
 1790              		.loc 1 958 0
 1791 0bac 0588     		ldrh	r5, [r0]
 1792 0bae 0C88     		ldrh	r4, [r1]
 1793 0bb0 AA00     		lsls	r2, r5, #2
 1794 0bb2 AA18     		adds	r2, r5, r2
 1795 0bb4 5500     		lsls	r5, r2, #1
 1796 0bb6 2A19     		adds	r2, r5, r4
 1797 0bb8 2624     		movs	r4, #38
 1798 0bba 1A55     		strb	r2, [r3, r4]
 959:main.c        ****         SasData.MinimumVisibleLightLevel[2] = *SessionID * 10 + *SubSessionID;
 1799              		.loc 1 959 0
 1800 0bbc 0588     		ldrh	r5, [r0]
 1801 0bbe 0C88     		ldrh	r4, [r1]
 1802 0bc0 AA00     		lsls	r2, r5, #2
 1803 0bc2 AA18     		adds	r2, r5, r2
 1804 0bc4 5500     		lsls	r5, r2, #1
 1805 0bc6 2A19     		adds	r2, r5, r4
 1806 0bc8 2724     		movs	r4, #39
 1807 0bca 1A55     		strb	r2, [r3, r4]
 960:main.c        ****         SasData.NumberOfAwakenings = *SessionID * 10 + *SubSessionID;
 1808              		.loc 1 960 0
 1809 0bcc 0588     		ldrh	r5, [r0]
 1810 0bce 0E88     		ldrh	r6, [r1]
 1811 0bd0 AC00     		lsls	r4, r5, #2
 1812 0bd2 2C19     		adds	r4, r5, r4
 1813 0bd4 6200     		lsls	r2, r4, #1
 1814 0bd6 B218     		adds	r2, r6, r2
 1815 0bd8 92B2     		uxth	r2, r2
 1816 0bda 5A76     		strb	r2, [r3, #25]
 1817 0bdc 120A     		lsrs	r2, r2, #8
 1818 0bde 9A76     		strb	r2, [r3, #26]
 961:main.c        ****         SasData.NumberOfTossNturnEvents = *SessionID * 10 + *SubSessionID;
 1819              		.loc 1 961 0
 1820 0be0 0588     		ldrh	r5, [r0]
 1821 0be2 0E88     		ldrh	r6, [r1]
 1822 0be4 AC00     		lsls	r4, r5, #2
 1823 0be6 2C19     		adds	r4, r5, r4
 1824 0be8 6200     		lsls	r2, r4, #1
 1825 0bea B218     		adds	r2, r6, r2
 1826 0bec 92B2     		uxth	r2, r2
 1827 0bee 2024     		movs	r4, #32
 1828 0bf0 1A55     		strb	r2, [r3, r4]
 1829 0bf2 120A     		lsrs	r2, r2, #8
 1830 0bf4 0134     		adds	r4, r4, #1
 1831 0bf6 1A55     		strb	r2, [r3, r4]
 962:main.c        ****         SasData.RelativeTimestamp = *SessionID * 10 + *SubSessionID;
ARM GAS  C:\Users\310309~1\AppData\Local\Temp\ccu8WRKs.s 			page 50


 1832              		.loc 1 962 0
 1833 0bf8 0288     		ldrh	r2, [r0]
 1834 0bfa 9400     		lsls	r4, r2, #2
 1835 0bfc A418     		adds	r4, r4, r2
 1836 0bfe 6200     		lsls	r2, r4, #1
 1837 0c00 0C88     		ldrh	r4, [r1]
 1838 0c02 A218     		adds	r2, r4, r2
 1839 0c04 1A72     		strb	r2, [r3, #8]
 1840 0c06 140A     		lsrs	r4, r2, #8
 1841 0c08 5C72     		strb	r4, [r3, #9]
 1842 0c0a 140C     		lsrs	r4, r2, #16
 1843 0c0c 9C72     		strb	r4, [r3, #10]
 1844 0c0e 120E     		lsrs	r2, r2, #24
 1845 0c10 DA72     		strb	r2, [r3, #11]
 963:main.c        ****         SasData.SequenceNumber = *SessionID * 10 + *SubSessionID;
 1846              		.loc 1 963 0
 1847 0c12 0288     		ldrh	r2, [r0]
 1848 0c14 9400     		lsls	r4, r2, #2
 1849 0c16 A418     		adds	r4, r4, r2
 1850 0c18 6200     		lsls	r2, r4, #1
 1851 0c1a 0C88     		ldrh	r4, [r1]
 1852 0c1c A218     		adds	r2, r4, r2
 1853 0c1e 1A73     		strb	r2, [r3, #12]
 1854 0c20 140A     		lsrs	r4, r2, #8
 1855 0c22 5C73     		strb	r4, [r3, #13]
 1856 0c24 04E0     		b	.L23
 1857              	.L24:
 1858 0c26 C046     		.align	2
 1859              	.L22:
 1860 0c28 00000000 		.word	ScasData
 1861 0c2c 00000000 		.word	SasData
 1862              	.L23:
 1863 0c30 140C     		lsrs	r4, r2, #16
 1864 0c32 9C73     		strb	r4, [r3, #14]
 1865 0c34 120E     		lsrs	r2, r2, #24
 1866 0c36 DA73     		strb	r2, [r3, #15]
 964:main.c        ****         SasData.SessionID = *SessionID * 10 + *SubSessionID;
 1867              		.loc 1 964 0
 1868 0c38 0588     		ldrh	r5, [r0]
 1869 0c3a 0E88     		ldrh	r6, [r1]
 1870 0c3c AC00     		lsls	r4, r5, #2
 1871 0c3e 2C19     		adds	r4, r5, r4
 1872 0c40 6200     		lsls	r2, r4, #1
 1873 0c42 B218     		adds	r2, r6, r2
 1874 0c44 92B2     		uxth	r2, r2
 1875 0c46 1A71     		strb	r2, [r3, #4]
 1876 0c48 120A     		lsrs	r2, r2, #8
 1877 0c4a 5A71     		strb	r2, [r3, #5]
 965:main.c        ****         SasData.SleepEfficiency = *SessionID * 10 + *SubSessionID;
 1878              		.loc 1 965 0
 1879 0c4c 0588     		ldrh	r5, [r0]
 1880 0c4e 0C88     		ldrh	r4, [r1]
 1881 0c50 AA00     		lsls	r2, r5, #2
 1882 0c52 AA18     		adds	r2, r5, r2
 1883 0c54 5500     		lsls	r5, r2, #1
 1884 0c56 2A19     		adds	r2, r5, r4
 1885 0c58 5A77     		strb	r2, [r3, #29]
ARM GAS  C:\Users\310309~1\AppData\Local\Temp\ccu8WRKs.s 			page 51


 966:main.c        ****         SasData.SleepLatency = *SessionID * 10 + *SubSessionID;
 1886              		.loc 1 966 0
 1887 0c5a 0588     		ldrh	r5, [r0]
 1888 0c5c 0E88     		ldrh	r6, [r1]
 1889 0c5e AC00     		lsls	r4, r5, #2
 1890 0c60 2C19     		adds	r4, r5, r4
 1891 0c62 6200     		lsls	r2, r4, #1
 1892 0c64 B218     		adds	r2, r6, r2
 1893 0c66 92B2     		uxth	r2, r2
 1894 0c68 DA76     		strb	r2, [r3, #27]
 1895 0c6a 120A     		lsrs	r2, r2, #8
 1896 0c6c 1A77     		strb	r2, [r3, #28]
 967:main.c        ****         SasData.SnoozeTime = *SessionID * 10 + *SubSessionID;
 1897              		.loc 1 967 0
 1898 0c6e 0588     		ldrh	r5, [r0]
 1899 0c70 0E88     		ldrh	r6, [r1]
 1900 0c72 AC00     		lsls	r4, r5, #2
 1901 0c74 2C19     		adds	r4, r5, r4
 1902 0c76 6200     		lsls	r2, r4, #1
 1903 0c78 B218     		adds	r2, r6, r2
 1904 0c7a 92B2     		uxth	r2, r2
 1905 0c7c 9A77     		strb	r2, [r3, #30]
 1906 0c7e 120A     		lsrs	r2, r2, #8
 1907 0c80 DA77     		strb	r2, [r3, #31]
 968:main.c        ****         SasData.SubSessionID = *SessionID * 10 + *SubSessionID;
 1908              		.loc 1 968 0
 1909 0c82 0588     		ldrh	r5, [r0]
 1910 0c84 0E88     		ldrh	r6, [r1]
 1911 0c86 AC00     		lsls	r4, r5, #2
 1912 0c88 2C19     		adds	r4, r5, r4
 1913 0c8a 6200     		lsls	r2, r4, #1
 1914 0c8c B218     		adds	r2, r6, r2
 1915 0c8e 92B2     		uxth	r2, r2
 1916 0c90 9A71     		strb	r2, [r3, #6]
 1917 0c92 120A     		lsrs	r2, r2, #8
 1918 0c94 DA71     		strb	r2, [r3, #7]
 969:main.c        ****         SasData.TimeOfAwakeningAfterAlarm[0] = *SessionID * 10 + *SubSessionID;
 1919              		.loc 1 969 0
 1920 0c96 0588     		ldrh	r5, [r0]
 1921 0c98 0C88     		ldrh	r4, [r1]
 1922 0c9a AA00     		lsls	r2, r5, #2
 1923 0c9c AA18     		adds	r2, r5, r2
 1924 0c9e 5500     		lsls	r5, r2, #1
 1925 0ca0 2A19     		adds	r2, r5, r4
 1926 0ca2 2224     		movs	r4, #34
 1927 0ca4 1A55     		strb	r2, [r3, r4]
 970:main.c        ****         SasData.TimeOfAwakeningAfterAlarm[1] = *SessionID * 10 + *SubSessionID;
 1928              		.loc 1 970 0
 1929 0ca6 0588     		ldrh	r5, [r0]
 1930 0ca8 0C88     		ldrh	r4, [r1]
 1931 0caa AA00     		lsls	r2, r5, #2
 1932 0cac AA18     		adds	r2, r5, r2
 1933 0cae 5500     		lsls	r5, r2, #1
 1934 0cb0 2A19     		adds	r2, r5, r4
 1935 0cb2 2324     		movs	r4, #35
 1936 0cb4 1A55     		strb	r2, [r3, r4]
 971:main.c        ****         SasData.TimeOfAwakeningAfterAlarm[2] = *SessionID * 10 + *SubSessionID;
ARM GAS  C:\Users\310309~1\AppData\Local\Temp\ccu8WRKs.s 			page 52


 1937              		.loc 1 971 0
 1938 0cb6 0588     		ldrh	r5, [r0]
 1939 0cb8 0C88     		ldrh	r4, [r1]
 1940 0cba AA00     		lsls	r2, r5, #2
 1941 0cbc AA18     		adds	r2, r5, r2
 1942 0cbe 5500     		lsls	r5, r2, #1
 1943 0cc0 2A19     		adds	r2, r5, r4
 1944 0cc2 2424     		movs	r4, #36
 1945 0cc4 1A55     		strb	r2, [r3, r4]
 972:main.c        ****         SasData.TotalBedTime[0] = *SessionID * 10 + *SubSessionID;
 1946              		.loc 1 972 0
 1947 0cc6 0588     		ldrh	r5, [r0]
 1948 0cc8 0C88     		ldrh	r4, [r1]
 1949 0cca AA00     		lsls	r2, r5, #2
 1950 0ccc AA18     		adds	r2, r5, r2
 1951 0cce 5500     		lsls	r5, r2, #1
 1952 0cd0 2A19     		adds	r2, r5, r4
 1953 0cd2 9A75     		strb	r2, [r3, #22]
 973:main.c        ****         SasData.TotalBedTime[1] = *SessionID * 10 + *SubSessionID;
 1954              		.loc 1 973 0
 1955 0cd4 0588     		ldrh	r5, [r0]
 1956 0cd6 0C88     		ldrh	r4, [r1]
 1957 0cd8 AA00     		lsls	r2, r5, #2
 1958 0cda AA18     		adds	r2, r5, r2
 1959 0cdc 5500     		lsls	r5, r2, #1
 1960 0cde 2A19     		adds	r2, r5, r4
 1961 0ce0 DA75     		strb	r2, [r3, #23]
 974:main.c        ****         SasData.TotalBedTime[2] = *SessionID * 10 + *SubSessionID;
 1962              		.loc 1 974 0
 1963 0ce2 0588     		ldrh	r5, [r0]
 1964 0ce4 0C88     		ldrh	r4, [r1]
 1965 0ce6 AA00     		lsls	r2, r5, #2
 1966 0ce8 AA18     		adds	r2, r5, r2
 1967 0cea 5500     		lsls	r5, r2, #1
 1968 0cec 2A19     		adds	r2, r5, r4
 1969 0cee 1A76     		strb	r2, [r3, #24]
 975:main.c        ****         SasData.TotalSleepTime[0] = *SessionID * 10 + *SubSessionID;
 1970              		.loc 1 975 0
 1971 0cf0 0588     		ldrh	r5, [r0]
 1972 0cf2 0C88     		ldrh	r4, [r1]
 1973 0cf4 AA00     		lsls	r2, r5, #2
 1974 0cf6 AA18     		adds	r2, r5, r2
 1975 0cf8 5500     		lsls	r5, r2, #1
 1976 0cfa 2A19     		adds	r2, r5, r4
 1977 0cfc 1A74     		strb	r2, [r3, #16]
 976:main.c        ****         SasData.TotalSleepTime[1] = *SessionID * 10 + *SubSessionID;
 1978              		.loc 1 976 0
 1979 0cfe 0588     		ldrh	r5, [r0]
 1980 0d00 0C88     		ldrh	r4, [r1]
 1981 0d02 AA00     		lsls	r2, r5, #2
 1982 0d04 AA18     		adds	r2, r5, r2
 1983 0d06 5500     		lsls	r5, r2, #1
 1984 0d08 2A19     		adds	r2, r5, r4
 1985 0d0a 5A74     		strb	r2, [r3, #17]
 977:main.c        ****         SasData.TotalSleepTime[2] = *SessionID * 10 + *SubSessionID;
 1986              		.loc 1 977 0
 1987 0d0c 0588     		ldrh	r5, [r0]
ARM GAS  C:\Users\310309~1\AppData\Local\Temp\ccu8WRKs.s 			page 53


 1988 0d0e 0C88     		ldrh	r4, [r1]
 1989 0d10 AA00     		lsls	r2, r5, #2
 1990 0d12 AA18     		adds	r2, r5, r2
 1991 0d14 5500     		lsls	r5, r2, #1
 1992 0d16 2A19     		adds	r2, r5, r4
 1993 0d18 9A74     		strb	r2, [r3, #18]
 978:main.c        ****         SasData.TotalWakeTime[0] = *SessionID * 10 + *SubSessionID;
 1994              		.loc 1 978 0
 1995 0d1a 0588     		ldrh	r5, [r0]
 1996 0d1c 0C88     		ldrh	r4, [r1]
 1997 0d1e AA00     		lsls	r2, r5, #2
 1998 0d20 AA18     		adds	r2, r5, r2
 1999 0d22 5500     		lsls	r5, r2, #1
 2000 0d24 2A19     		adds	r2, r5, r4
 2001 0d26 DA74     		strb	r2, [r3, #19]
 979:main.c        ****         SasData.TotalWakeTime[1] = *SessionID * 10 + *SubSessionID;
 2002              		.loc 1 979 0
 2003 0d28 0588     		ldrh	r5, [r0]
 2004 0d2a 0C88     		ldrh	r4, [r1]
 2005 0d2c AA00     		lsls	r2, r5, #2
 2006 0d2e AA18     		adds	r2, r5, r2
 2007 0d30 5500     		lsls	r5, r2, #1
 2008 0d32 2A19     		adds	r2, r5, r4
 2009 0d34 1A75     		strb	r2, [r3, #20]
 980:main.c        ****         SasData.TotalWakeTime[2] = *SessionID * 10 + *SubSessionID;
 2010              		.loc 1 980 0
 2011 0d36 0588     		ldrh	r5, [r0]
 2012 0d38 0C88     		ldrh	r4, [r1]
 2013 0d3a AA00     		lsls	r2, r5, #2
 2014 0d3c AA18     		adds	r2, r5, r2
 2015 0d3e 5500     		lsls	r5, r2, #1
 2016 0d40 2A19     		adds	r2, r5, r4
 2017 0d42 5A75     		strb	r2, [r3, #21]
 981:main.c        ****         SasData.WornDuration[0] = *SessionID * 10 + *SubSessionID;
 2018              		.loc 1 981 0
 2019 0d44 0588     		ldrh	r5, [r0]
 2020 0d46 0C88     		ldrh	r4, [r1]
 2021 0d48 AA00     		lsls	r2, r5, #2
 2022 0d4a AA18     		adds	r2, r5, r2
 2023 0d4c 5500     		lsls	r5, r2, #1
 2024 0d4e 2A19     		adds	r2, r5, r4
 2025 0d50 4124     		movs	r4, #65
 2026 0d52 1A55     		strb	r2, [r3, r4]
 982:main.c        ****         SasData.WornDuration[1] = *SessionID * 10 + *SubSessionID;
 2027              		.loc 1 982 0
 2028 0d54 0588     		ldrh	r5, [r0]
 2029 0d56 0C88     		ldrh	r4, [r1]
 2030 0d58 AA00     		lsls	r2, r5, #2
 2031 0d5a AA18     		adds	r2, r5, r2
 2032 0d5c 5500     		lsls	r5, r2, #1
 2033 0d5e 2A19     		adds	r2, r5, r4
 2034 0d60 4224     		movs	r4, #66
 2035 0d62 1A55     		strb	r2, [r3, r4]
 983:main.c        ****         SasData.WornDuration[2] = *SessionID * 10 + *SubSessionID;
 2036              		.loc 1 983 0
 2037 0d64 0088     		ldrh	r0, [r0]
 2038              	.LVL5:
ARM GAS  C:\Users\310309~1\AppData\Local\Temp\ccu8WRKs.s 			page 54


 2039 0d66 0988     		ldrh	r1, [r1]
 2040              	.LVL6:
 2041 0d68 8200     		lsls	r2, r0, #2
 2042 0d6a 8218     		adds	r2, r0, r2
 2043 0d6c 5000     		lsls	r0, r2, #1
 2044 0d6e 4218     		adds	r2, r0, r1
 2045 0d70 4321     		movs	r1, #67
 2046 0d72 5A54     		strb	r2, [r3, r1]
 2047              	.LVL7:
 984:main.c        ****     }
 985:main.c        ****     
 986:main.c        ****     uint32 count = 0;
 987:main.c        ****     
 988:main.c        ****     switch(Get_Ended_Data_Value)
 2048              		.loc 1 988 0
 2049 0d74 124B     		ldr	r3, .L25
 2050 0d76 1A78     		ldrb	r2, [r3]
 2051 0d78 062A     		cmp	r2, #6
 2052 0d7a 1FD8     		bhi	.L15
 2053 0d7c 9300     		lsls	r3, r2, #2
 2054 0d7e 114A     		ldr	r2, .L25+4
 2055 0d80 D358     		ldr	r3, [r2, r3]
 2056 0d82 9F46     		mov	pc, r3
 2057              		.section	.rodata
 2058              		.align	2
 2059              	.L8:
 2060 0000 840D0000 		.word	.L7
 2061 0004 8C0D0000 		.word	.L9
 2062 0008 940D0000 		.word	.L10
 2063 000c 9C0D0000 		.word	.L11
 2064 0010 A40D0000 		.word	.L12
 2065 0014 AC0D0000 		.word	.L13
 2066 0018 B40D0000 		.word	.L14
 2067              		.section	.text.SimulateValues
 2068              	.L7:
 989:main.c        ****     {
 990:main.c        ****         case GENERAL_ACTIVITY_INSTANTANEOUS:
 991:main.c        ****         {
 992:main.c        ****             UpdateGaid();
 2069              		.loc 1 992 0
 2070 0d84 FFF7FEFF 		bl	UpdateGaid
 2071              	.LVL8:
 993:main.c        ****             count++;
 2072              		.loc 1 993 0
 2073 0d88 0120     		movs	r0, #1
 994:main.c        ****             break;
 2074              		.loc 1 994 0
 2075 0d8a 18E0     		b	.L6
 2076              	.LVL9:
 2077              	.L9:
 995:main.c        ****         }
 996:main.c        ****         case GENERAL_ACTIVITY_SUMMARY:
 997:main.c        ****         {
 998:main.c        ****             UpdateGasd();
 2078              		.loc 1 998 0
 2079 0d8c FFF7FEFF 		bl	UpdateGasd
 2080              	.LVL10:
ARM GAS  C:\Users\310309~1\AppData\Local\Temp\ccu8WRKs.s 			page 55


 999:main.c        ****             count++;
 2081              		.loc 1 999 0
 2082 0d90 0120     		movs	r0, #1
1000:main.c        ****             break;
 2083              		.loc 1 1000 0
 2084 0d92 14E0     		b	.L6
 2085              	.LVL11:
 2086              	.L10:
1001:main.c        ****         }
1002:main.c        ****         case CARDIORESPIRATORY_ACTIVITY_INSTANTANEOUS:
1003:main.c        ****         {
1004:main.c        ****             UpdateCraid();
 2087              		.loc 1 1004 0
 2088 0d94 FFF7FEFF 		bl	UpdateCraid
 2089              	.LVL12:
1005:main.c        ****             count++;
 2090              		.loc 1 1005 0
 2091 0d98 0120     		movs	r0, #1
1006:main.c        ****             break;
 2092              		.loc 1 1006 0
 2093 0d9a 10E0     		b	.L6
 2094              	.LVL13:
 2095              	.L11:
1007:main.c        ****         }
1008:main.c        ****         case CARDIORESPIRATORY_ACTIVITY_SUMMARY:
1009:main.c        ****         {
1010:main.c        ****             UpdateCrasd();
 2096              		.loc 1 1010 0
 2097 0d9c FFF7FEFF 		bl	UpdateCrasd
 2098              	.LVL14:
1011:main.c        ****             count++;
 2099              		.loc 1 1011 0
 2100 0da0 0120     		movs	r0, #1
1012:main.c        ****             break;
 2101              		.loc 1 1012 0
 2102 0da2 0CE0     		b	.L6
 2103              	.LVL15:
 2104              	.L12:
1013:main.c        ****         }
1014:main.c        ****         case STEP_COUNTER_ACTIVITY_SUMMARY:
1015:main.c        ****         {
1016:main.c        ****             UpdateScasd();
 2105              		.loc 1 1016 0
 2106 0da4 FFF7FEFF 		bl	UpdateScasd
 2107              	.LVL16:
1017:main.c        ****             count++;
 2108              		.loc 1 1017 0
 2109 0da8 0120     		movs	r0, #1
1018:main.c        ****             break;
 2110              		.loc 1 1018 0
 2111 0daa 08E0     		b	.L6
 2112              	.LVL17:
 2113              	.L13:
1019:main.c        ****         }
1020:main.c        ****         case SLEEP_ACTIVITY_INSTANTANEOUS:
1021:main.c        ****         {
1022:main.c        ****             UpdateSaid();
ARM GAS  C:\Users\310309~1\AppData\Local\Temp\ccu8WRKs.s 			page 56


 2114              		.loc 1 1022 0
 2115 0dac FFF7FEFF 		bl	UpdateSaid
 2116              	.LVL18:
1023:main.c        ****             count++;
 2117              		.loc 1 1023 0
 2118 0db0 0120     		movs	r0, #1
1024:main.c        ****             break;
 2119              		.loc 1 1024 0
 2120 0db2 04E0     		b	.L6
 2121              	.LVL19:
 2122              	.L14:
1025:main.c        ****         }
1026:main.c        ****         case SLEEP_ACTIVITY_SUMMARY:
1027:main.c        ****         {
1028:main.c        ****             UpdateSasd();
 2123              		.loc 1 1028 0
 2124 0db4 FFF7FEFF 		bl	UpdateSasd
 2125              	.LVL20:
1029:main.c        ****             count++;
 2126              		.loc 1 1029 0
 2127 0db8 0120     		movs	r0, #1
1030:main.c        ****             break;
 2128              		.loc 1 1030 0
 2129 0dba 00E0     		b	.L6
 2130              	.LVL21:
 2131              	.L15:
 986:main.c        ****     
 2132              		.loc 1 986 0
 2133 0dbc 0020     		movs	r0, #0
 2134              	.LVL22:
 2135              	.L6:
1031:main.c        ****         }
1032:main.c        ****     }
1033:main.c        ****     return count;
1034:main.c        **** }
 2136              		.loc 1 1034 0
 2137              		@ sp needed
 2138 0dbe F8BD     		pop	{r3, r4, r5, r6, r7, pc}
 2139              	.L26:
 2140              		.align	2
 2141              	.L25:
 2142 0dc0 00000000 		.word	Get_Ended_Data_Value
 2143 0dc4 00000000 		.word	.L8
 2144              		.cfi_endproc
 2145              	.LFE40:
 2146              		.size	SimulateValues, .-SimulateValues
 2147              		.section	.text.InitializePhisicalActivityMonitor,"ax",%progbits
 2148              		.align	2
 2149              		.global	InitializePhisicalActivityMonitor
 2150              		.code	16
 2151              		.thumb_func
 2152              		.type	InitializePhisicalActivityMonitor, %function
 2153              	InitializePhisicalActivityMonitor:
 2154              	.LFB41:
1035:main.c        **** 
1036:main.c        **** void InitializePhisicalActivityMonitor()
1037:main.c        **** {
ARM GAS  C:\Users\310309~1\AppData\Local\Temp\ccu8WRKs.s 			page 57


 2155              		.loc 1 1037 0
 2156              		.cfi_startproc
 2157              		@ args = 0, pretend = 0, frame = 0
 2158              		@ frame_needed = 0, uses_anonymous_args = 0
 2159 0000 10B5     		push	{r4, lr}
 2160              		.cfi_def_cfa_offset 8
 2161              		.cfi_offset 4, -8
 2162              		.cfi_offset 14, -4
1038:main.c        ****     UART_DEB_Start();
 2163              		.loc 1 1038 0
 2164 0002 FFF7FEFF 		bl	UART_DEB_Start
 2165              	.LVL23:
1039:main.c        ****     
1040:main.c        ****     sessionCount = 0;
 2166              		.loc 1 1040 0
 2167 0006 0023     		movs	r3, #0
 2168 0008 224A     		ldr	r2, .L28
 2169 000a 1380     		strh	r3, [r2]
1041:main.c        ****     subsessionCount = 0;
 2170              		.loc 1 1041 0
 2171 000c 224A     		ldr	r2, .L28+4
 2172 000e 1380     		strh	r3, [r2]
1042:main.c        ****     totalSessionCount = 0;
 2173              		.loc 1 1042 0
 2174 0010 224A     		ldr	r2, .L28+8
 2175 0012 1380     		strh	r3, [r2]
1043:main.c        ****     totalSubSessionCount = 0;
 2176              		.loc 1 1043 0
 2177 0014 224A     		ldr	r2, .L28+12
 2178 0016 1380     		strh	r3, [r2]
1044:main.c        ****     totalDeletedSessions = 0;
 2179              		.loc 1 1044 0
 2180 0018 224A     		ldr	r2, .L28+16
 2181 001a 1380     		strh	r3, [r2]
1045:main.c        ****     
1046:main.c        ****     //init features
1047:main.c        ****     //pamFeature = getChosenFeatures();
1048:main.c        ****     
1049:main.c        ****     pamFeature = 0xFFFFFFFFFFFFFFFF;
 2182              		.loc 1 1049 0
 2183 001c 0120     		movs	r0, #1
 2184 001e 4042     		rsbs	r0, r0, #0
 2185 0020 C117     		asrs	r1, r0, #31
 2186 0022 214B     		ldr	r3, .L28+20
 2187 0024 1860     		str	r0, [r3]
 2188 0026 5960     		str	r1, [r3, #4]
1050:main.c        ****     UpdateFeatureList();
 2189              		.loc 1 1050 0
 2190 0028 FFF7FEFF 		bl	UpdateFeatureList
 2191              	.LVL24:
1051:main.c        ****     
1052:main.c        ****         
1053:main.c        ****     //init GAI Data
1054:main.c        ****     GaiData.Flags[0] = 0x02;
 2192              		.loc 1 1054 0
 2193 002c 1F4B     		ldr	r3, .L28+24
 2194 002e 0222     		movs	r2, #2
ARM GAS  C:\Users\310309~1\AppData\Local\Temp\ccu8WRKs.s 			page 58


 2195 0030 5A70     		strb	r2, [r3, #1]
1055:main.c        ****     GaiData.Flags[1] = 0x02;
 2196              		.loc 1 1055 0
 2197 0032 9A70     		strb	r2, [r3, #2]
1056:main.c        ****     GaiData.Flags[2] = 0x02;
 2198              		.loc 1 1056 0
 2199 0034 DA70     		strb	r2, [r3, #3]
1057:main.c        ****     UpdateGaid();
 2200              		.loc 1 1057 0
 2201 0036 FFF7FEFF 		bl	UpdateGaid
 2202              	.LVL25:
1058:main.c        ****    
1059:main.c        ****     //init GAS Data
1060:main.c        ****     GasData.Flags = 0xFFFFFFFF;
 2203              		.loc 1 1060 0
 2204 003a 1D4B     		ldr	r3, .L28+28
 2205 003c 0124     		movs	r4, #1
 2206 003e 6442     		rsbs	r4, r4, #0
 2207 0040 5C70     		strb	r4, [r3, #1]
 2208 0042 9C70     		strb	r4, [r3, #2]
 2209 0044 DC70     		strb	r4, [r3, #3]
 2210 0046 1C71     		strb	r4, [r3, #4]
1061:main.c        ****     GasData.AverageActivityType = 0xAA;
 2211              		.loc 1 1061 0
 2212 0048 5621     		movs	r1, #86
 2213 004a 4942     		rsbs	r1, r1, #0
 2214 004c 4822     		movs	r2, #72
 2215 004e 9954     		strb	r1, [r3, r2]
 2216 0050 4833     		adds	r3, r3, #72
 2217 0052 0022     		movs	r2, #0
 2218 0054 5A70     		strb	r2, [r3, #1]
1062:main.c        ****     UpdateGasd();
 2219              		.loc 1 1062 0
 2220 0056 FFF7FEFF 		bl	UpdateGasd
 2221              	.LVL26:
1063:main.c        **** 
1064:main.c        ****     //init CRAI Data
1065:main.c        ****     //DO NOT CHANGE THE FLAGS BEFORE THE SPECIFICATION FLAGS HAVE BEEN DEFINED AND IMPLEMENTED IN:
1066:main.c        ****     // SERVER -> pamCraid.h & pamCraid.c
1067:main.c        ****     // CLIENT -> HBPhysicalActivityMonitorCraid.java
1068:main.c        ****     // IF YOU CHANGE FLAGS YOU MIGHT GET AN ARRAY OUT OF BOUNDS EXCEPTION
1069:main.c        ****     CraiData.Flags = 0xFFFF;
 2222              		.loc 1 1069 0
 2223 005a 164B     		ldr	r3, .L28+32
 2224 005c 5C70     		strb	r4, [r3, #1]
 2225 005e 9C70     		strb	r4, [r3, #2]
1070:main.c        ****     UpdateCraid();
 2226              		.loc 1 1070 0
 2227 0060 FFF7FEFF 		bl	UpdateCraid
 2228              	.LVL27:
1071:main.c        ****     
1072:main.c        ****     //init CRAS Data
1073:main.c        ****     //DO NOT CHANGE THE FLAGS BEFORE THE SPECIFICATION FLAGS HAVE BEEN DEFINED AND IMPLEMENTED IN:
1074:main.c        ****     // SERVER -> pamCrasd.h & pamCrasd.c
1075:main.c        ****     // CLIENT -> HBPhysicalActivityMonitorCrasd.java
1076:main.c        ****     // IF YOU CHANGE FLAGS YOU MIGHT GET AN ARRAY OUT OF BOUNDS EXCEPTION
1077:main.c        ****     CrasData.Flags = 0xFFFFFFFF;
ARM GAS  C:\Users\310309~1\AppData\Local\Temp\ccu8WRKs.s 			page 59


 2229              		.loc 1 1077 0
 2230 0064 144A     		ldr	r2, .L28+36
 2231 0066 5470     		strb	r4, [r2, #1]
 2232 0068 9470     		strb	r4, [r2, #2]
 2233 006a D470     		strb	r4, [r2, #3]
 2234 006c 1471     		strb	r4, [r2, #4]
1078:main.c        ****     UpdateCrasd();
 2235              		.loc 1 1078 0
 2236 006e FFF7FEFF 		bl	UpdateCrasd
 2237              	.LVL28:
1079:main.c        ****     
1080:main.c        ****     //init SCAS Data
1081:main.c        ****     //DO NOT CHANGE THE FLAGS BEFORE THE SPECIFICATION FLAGS HAVE BEEN DEFINED AND IMPLEMENTED IN:
1082:main.c        ****     // SERVER -> pamScasd.h & pamScasd.c
1083:main.c        ****     // CLIENT -> HBPhysicalActivityMonitorScasd.java
1084:main.c        ****     // IF YOU CHANGE FLAGS YOU MIGHT GET AN ARRAY OUT OF BOUNDS EXCEPTION
1085:main.c        ****     ScasData.Flags = 0xFF;
 2238              		.loc 1 1085 0
 2239 0072 124B     		ldr	r3, .L28+40
 2240 0074 5C70     		strb	r4, [r3, #1]
1086:main.c        ****     UpdateScasd();
 2241              		.loc 1 1086 0
 2242 0076 FFF7FEFF 		bl	UpdateScasd
 2243              	.LVL29:
1087:main.c        ****     
1088:main.c        ****     //init SAI Data
1089:main.c        ****     //DO NOT CHANGE THE FLAGS BEFORE THE SPECIFICATION FLAGS HAVE BEEN DEFINED AND IMPLEMENTED IN:
1090:main.c        ****     // SERVER -> pamSaid.h & pamSaid.c
1091:main.c        ****     // CLIENT -> HBPhysicalActivityMonitorSaid.java
1092:main.c        ****     // IF YOU CHANGE FLAGS YOU MIGHT GET AN ARRAY OUT OF BOUNDS EXCEPTION
1093:main.c        ****     SaiData.Flags = 0xFFFF;
 2244              		.loc 1 1093 0
 2245 007a 114B     		ldr	r3, .L28+44
 2246 007c 5C70     		strb	r4, [r3, #1]
 2247 007e 9C70     		strb	r4, [r3, #2]
1094:main.c        ****     UpdateSaid();
 2248              		.loc 1 1094 0
 2249 0080 FFF7FEFF 		bl	UpdateSaid
 2250              	.LVL30:
1095:main.c        ****     
1096:main.c        ****     //init SAS Data
1097:main.c        ****     //DO NOT CHANGE THE FLAGS BEFORE THE SPECIFICATION FLAGS HAVE BEEN DEFINED AND IMPLEMENTED IN:
1098:main.c        ****     // SERVER -> pamSasd.h & pamSasd.c
1099:main.c        ****     // CLIENT -> HBPhysicalActivityMonitorSasd.java
1100:main.c        ****     // IF YOU CHANGE FLAGS YOU MIGHT GET AN ARRAY OUT OF BOUNDS EXCEPTION
1101:main.c        ****     SasData.Flags[0] = 0xFF;
 2251              		.loc 1 1101 0
 2252 0084 0F4B     		ldr	r3, .L28+48
 2253 0086 5C70     		strb	r4, [r3, #1]
1102:main.c        ****     SasData.Flags[1] = 0xFF;
 2254              		.loc 1 1102 0
 2255 0088 9C70     		strb	r4, [r3, #2]
1103:main.c        ****     SasData.Flags[2] = 0xFF;
 2256              		.loc 1 1103 0
 2257 008a DC70     		strb	r4, [r3, #3]
1104:main.c        ****     UpdateSasd();
 2258              		.loc 1 1104 0
ARM GAS  C:\Users\310309~1\AppData\Local\Temp\ccu8WRKs.s 			page 60


 2259 008c FFF7FEFF 		bl	UpdateSasd
 2260              	.LVL31:
1105:main.c        **** }
 2261              		.loc 1 1105 0
 2262              		@ sp needed
 2263 0090 10BD     		pop	{r4, pc}
 2264              	.L29:
 2265 0092 C046     		.align	2
 2266              	.L28:
 2267 0094 00000000 		.word	sessionCount
 2268 0098 00000000 		.word	subsessionCount
 2269 009c 00000000 		.word	totalSessionCount
 2270 00a0 00000000 		.word	totalSubSessionCount
 2271 00a4 00000000 		.word	totalDeletedSessions
 2272 00a8 00000000 		.word	pamFeature
 2273 00ac 00000000 		.word	GaiData
 2274 00b0 00000000 		.word	GasData
 2275 00b4 00000000 		.word	CraiData
 2276 00b8 00000000 		.word	CrasData
 2277 00bc 00000000 		.word	ScasData
 2278 00c0 00000000 		.word	SaiData
 2279 00c4 00000000 		.word	SasData
 2280              		.cfi_endproc
 2281              	.LFE41:
 2282              		.size	InitializePhisicalActivityMonitor, .-InitializePhisicalActivityMonitor
 2283              		.section	.text.main,"ax",%progbits
 2284              		.align	2
 2285              		.global	main
 2286              		.code	16
 2287              		.thumb_func
 2288              		.type	main, %function
 2289              	main:
 2290              	.LFB39:
 622:main.c        ****     CyGlobalIntEnable; /* Enable global interrupts. */
 2291              		.loc 1 622 0
 2292              		.cfi_startproc
 2293              		@ args = 0, pretend = 0, frame = 8
 2294              		@ frame_needed = 0, uses_anonymous_args = 0
 2295 0000 F0B5     		push	{r4, r5, r6, r7, lr}
 2296              		.cfi_def_cfa_offset 20
 2297              		.cfi_offset 4, -20
 2298              		.cfi_offset 5, -16
 2299              		.cfi_offset 6, -12
 2300              		.cfi_offset 7, -8
 2301              		.cfi_offset 14, -4
 2302 0002 5746     		mov	r7, r10
 2303 0004 4E46     		mov	r6, r9
 2304 0006 4546     		mov	r5, r8
 2305 0008 E0B4     		push	{r5, r6, r7}
 2306              		.cfi_def_cfa_offset 32
 2307              		.cfi_offset 8, -32
 2308              		.cfi_offset 9, -28
 2309              		.cfi_offset 10, -24
 2310 000a 86B0     		sub	sp, sp, #24
 2311              		.cfi_def_cfa_offset 56
 623:main.c        ****     
 2312              		.loc 1 623 0
ARM GAS  C:\Users\310309~1\AppData\Local\Temp\ccu8WRKs.s 			page 61


 2313              		.syntax divided
 2314              	@ 623 "main.c" 1
 2315 000c 62B6     		CPSIE   i
 2316              	@ 0 "" 2
 625:main.c        ****     {
 2317              		.loc 1 625 0
 2318              		.thumb
 2319              		.syntax unified
 2320 000e D14B     		ldr	r3, .L60
 2321 0010 1B88     		ldrh	r3, [r3]
 2322 0012 002B     		cmp	r3, #0
 2323 0014 02D0     		beq	.L31
 628:main.c        ****     }
 2324              		.loc 1 628 0 discriminator 1
 2325 0016 0020     		movs	r0, #0
 2326 0018 FFF7FEFF 		bl	CyHalt
 2327              	.LVL32:
 2328              	.L31:
 633:main.c        ****     TCPWM_Start();
 2329              		.loc 1 633 0
 2330 001c CE48     		ldr	r0, .L60+4
 2331 001e FFF7FEFF 		bl	Pin_SW2_Int_StartEx
 2332              	.LVL33:
 634:main.c        ****     isr_timer_StartEx( isr_timer_Handler );
 2333              		.loc 1 634 0
 2334 0022 FFF7FEFF 		bl	TCPWM_Start
 2335              	.LVL34:
 635:main.c        ****     
 2336              		.loc 1 635 0
 2337 0026 CD48     		ldr	r0, .L60+8
 2338 0028 FFF7FEFF 		bl	isr_timer_StartEx
 2339              	.LVL35:
 639:main.c        ****     
 2340              		.loc 1 639 0
 2341 002c CC48     		ldr	r0, .L60+12
 2342 002e FFF7FEFF 		bl	CyBle_Start
 2343              	.LVL36:
 2344 0032 C84B     		ldr	r3, .L60
 2345 0034 1880     		strh	r0, [r3]
 641:main.c        ****     
 2346              		.loc 1 641 0
 2347 0036 FFF7FEFF 		bl	InitializePhisicalActivityMonitor
 2348              	.LVL37:
 2349              	.L54:
 646:main.c        ****         
 2350              		.loc 1 646 0
 2351 003a FFF7FEFF 		bl	CyBle_ProcessEvents
 2352              	.LVL38:
 648:main.c        ****         //{
 2353              		.loc 1 648 0
 2354 003e C94B     		ldr	r3, .L60+16
 2355 0040 1B78     		ldrb	r3, [r3]
 2356 0042 022B     		cmp	r3, #2
 2357 0044 18D1     		bne	.L32
 669:main.c        ****                ((UART_DEB_SpiUartGetTxBufferSize() + UART_DEB_GET_TX_FIFO_SR_VALID) == 0u))
 2358              		.loc 1 669 0
 2359 0046 C84B     		ldr	r3, .L60+20
ARM GAS  C:\Users\310309~1\AppData\Local\Temp\ccu8WRKs.s 			page 62


 2360 0048 1B78     		ldrb	r3, [r3]
 2361 004a 002B     		cmp	r3, #0
 2362 004c 14D0     		beq	.L32
 670:main.c        ****         #else
 2363              		.loc 1 670 0
 2364 004e FFF7FEFF 		bl	UART_DEB_SpiUartGetTxBufferSize
 2365              	.LVL39:
 2366 0052 C64B     		ldr	r3, .L60+24
 2367 0054 1B68     		ldr	r3, [r3]
 2368 0056 8022     		movs	r2, #128
 2369 0058 1202     		lsls	r2, r2, #8
 2370 005a 1340     		ands	r3, r2
 2371 005c 00D0     		beq	.L33
 2372 005e 0123     		movs	r3, #1
 2373              	.L33:
 670:main.c        ****         #else
 2374              		.loc 1 670 0 is_stmt 0 discriminator 4
 2375 0060 1B18     		adds	r3, r3, r0
 669:main.c        ****                ((UART_DEB_SpiUartGetTxBufferSize() + UART_DEB_GET_TX_FIFO_SR_VALID) == 0u))
 2376              		.loc 1 669 0 is_stmt 1 discriminator 4
 2377 0062 002B     		cmp	r3, #0
 2378 0064 08D1     		bne	.L32
 675:main.c        ****             DBG_PRINTF("Store bonding data, status: %x \r\n", apiResult);
 2379              		.loc 1 675 0
 2380 0066 0020     		movs	r0, #0
 2381 0068 FFF7FEFF 		bl	CyBle_StoreBondingData
 2382              	.LVL40:
 2383 006c 0100     		movs	r1, r0
 2384 006e B94B     		ldr	r3, .L60
 2385 0070 1880     		strh	r0, [r3]
 676:main.c        ****         }
 2386              		.loc 1 676 0
 2387 0072 BF48     		ldr	r0, .L60+28
 2388 0074 FFF7FEFF 		bl	printf
 2389              	.LVL41:
 2390              	.L32:
 682:main.c        ****         {
 2391              		.loc 1 682 0
 2392 0078 BE4B     		ldr	r3, .L60+32
 2393 007a 1B88     		ldrh	r3, [r3]
 2394 007c 002B     		cmp	r3, #0
 2395 007e 44D1     		bne	.L55
 2396 0080 56E0     		b	.L35
 2397              	.LVL42:
 2398              	.L36:
 2399              	.LBB2:
 686:main.c        ****             }
 2400              		.loc 1 686 0 discriminator 3
 2401 0082 BD49     		ldr	r1, .L60+36
 2402 0084 F300     		lsls	r3, r6, #3
 2403 0086 9C1B     		subs	r4, r3, r6
 2404 0088 A400     		lsls	r4, r4, #2
 2405 008a A419     		adds	r4, r4, r6
 2406 008c 605C     		ldrb	r0, [r4, r1]
 2407              	.LVL43:
 2408 008e 0C19     		adds	r4, r1, r4
 2409 0090 6378     		ldrb	r3, [r4, #1]
ARM GAS  C:\Users\310309~1\AppData\Local\Temp\ccu8WRKs.s 			page 63


 2410 0092 1B02     		lsls	r3, r3, #8
 2411 0094 0343     		orrs	r3, r0
 2412 0096 1A00     		movs	r2, r3
 2413 0098 A378     		ldrb	r3, [r4, #2]
 2414 009a 1B04     		lsls	r3, r3, #16
 2415 009c 1343     		orrs	r3, r2
 2416 009e E278     		ldrb	r2, [r4, #3]
 2417 00a0 1206     		lsls	r2, r2, #24
 2418 00a2 1A43     		orrs	r2, r3
 2419 00a4 9146     		mov	r9, r2
 2420 00a6 2179     		ldrb	r1, [r4, #4]
 2421 00a8 6379     		ldrb	r3, [r4, #5]
 2422 00aa 1B02     		lsls	r3, r3, #8
 2423 00ac 0B43     		orrs	r3, r1
 2424 00ae 1A00     		movs	r2, r3
 2425 00b0 A379     		ldrb	r3, [r4, #6]
 2426 00b2 1B04     		lsls	r3, r3, #16
 2427 00b4 1343     		orrs	r3, r2
 2428 00b6 E279     		ldrb	r2, [r4, #7]
 2429 00b8 1206     		lsls	r2, r2, #24
 2430 00ba 1A43     		orrs	r2, r3
 2431 00bc 9046     		mov	r8, r2
 2432 00be 217A     		ldrb	r1, [r4, #8]
 2433 00c0 637A     		ldrb	r3, [r4, #9]
 2434 00c2 1B02     		lsls	r3, r3, #8
 2435 00c4 0B43     		orrs	r3, r1
 2436 00c6 1A00     		movs	r2, r3
 2437 00c8 A77A     		ldrb	r7, [r4, #10]
 2438 00ca 3F04     		lsls	r7, r7, #16
 2439 00cc 3B00     		movs	r3, r7
 2440 00ce 1343     		orrs	r3, r2
 2441 00d0 E77A     		ldrb	r7, [r4, #11]
 2442 00d2 3F06     		lsls	r7, r7, #24
 2443 00d4 1F43     		orrs	r7, r3
 2444 00d6 217B     		ldrb	r1, [r4, #12]
 2445 00d8 637B     		ldrb	r3, [r4, #13]
 2446 00da 1B02     		lsls	r3, r3, #8
 2447 00dc 0B43     		orrs	r3, r1
 2448 00de 1A00     		movs	r2, r3
 2449 00e0 A57B     		ldrb	r5, [r4, #14]
 2450 00e2 2D04     		lsls	r5, r5, #16
 2451 00e4 2B00     		movs	r3, r5
 2452 00e6 1343     		orrs	r3, r2
 2453 00e8 E57B     		ldrb	r5, [r4, #15]
 2454 00ea 2D06     		lsls	r5, r5, #24
 2455 00ec 1D43     		orrs	r5, r3
 2456 00ee 2100     		movs	r1, r4
 2457 00f0 1031     		adds	r1, r1, #16
 2458 00f2 0D22     		movs	r2, #13
 2459 00f4 6846     		mov	r0, sp
 2460 00f6 FFF7FEFF 		bl	memcpy
 2461              	.LVL44:
 2462 00fa 4846     		mov	r0, r9
 2463 00fc 4146     		mov	r1, r8
 2464 00fe 3A00     		movs	r2, r7
 2465 0100 2B00     		movs	r3, r5
 2466 0102 FFF7FEFF 		bl	UpdateSessionDescriptor
ARM GAS  C:\Users\310309~1\AppData\Local\Temp\ccu8WRKs.s 			page 64


 2467              	.LVL45:
 684:main.c        ****             {
 2468              		.loc 1 684 0 discriminator 3
 2469 0106 0136     		adds	r6, r6, #1
 2470              	.LVL46:
 2471 0108 01E0     		b	.L34
 2472              	.LVL47:
 2473              	.L55:
 2474              	.LBE2:
 2475 010a 0026     		movs	r6, #0
 2476 010c 0020     		movs	r0, #0
 2477              	.LVL48:
 2478              	.L34:
 2479              	.LBB3:
 684:main.c        ****             {
 2480              		.loc 1 684 0 is_stmt 0 discriminator 1
 2481 010e 9B4B     		ldr	r3, .L60+40
 2482 0110 1988     		ldrh	r1, [r3]
 2483 0112 8E42     		cmp	r6, r1
 2484 0114 B5DB     		blt	.L36
 2485              	.LBE3:
 688:main.c        ****             { 
 2486              		.loc 1 688 0 is_stmt 1
 2487 0116 0028     		cmp	r0, #0
 2488 0118 04D0     		beq	.L37
 690:main.c        ****             }
 2489              		.loc 1 690 0
 2490 011a FF21     		movs	r1, #255
 2491 011c FF20     		movs	r0, #255
 2492              	.LVL49:
 2493 011e FFF7FEFF 		bl	updateControlPointEnquireSucces
 2494              	.LVL50:
 2495 0122 02E0     		b	.L38
 2496              	.LVL51:
 2497              	.L37:
 694:main.c        ****             }
 2498              		.loc 1 694 0
 2499 0124 FC20     		movs	r0, #252
 2500              	.LVL52:
 2501 0126 FFF7FEFF 		bl	updateControlPointEnquireSucces
 2502              	.LVL53:
 2503              	.L38:
 697:main.c        ****             procedureFailed = FALSE;
 2504              		.loc 1 697 0
 2505 012a 0022     		movs	r2, #0
 2506 012c 914B     		ldr	r3, .L60+32
 2507 012e 1A80     		strh	r2, [r3]
 2508              	.LVL54:
 2509              	.L35:
 702:main.c        ****         {
 2510              		.loc 1 702 0
 2511 0130 934B     		ldr	r3, .L60+44
 2512 0132 1B88     		ldrh	r3, [r3]
 2513 0134 002B     		cmp	r3, #0
 2514 0136 54D1     		bne	.L56
 2515 0138 68E0     		b	.L40
 2516              	.LVL55:
ARM GAS  C:\Users\310309~1\AppData\Local\Temp\ccu8WRKs.s 			page 65


 2517              	.L42:
 2518              	.LBB4:
 2519              	.LBB5:
 707:main.c        ****                 {
 2520              		.loc 1 707 0
 2521 013a E300     		lsls	r3, r4, #3
 2522 013c 1B1B     		subs	r3, r3, r4
 2523 013e 9B00     		lsls	r3, r3, #2
 2524 0140 1B19     		adds	r3, r3, r4
 2525 0142 904A     		ldr	r2, .L60+48
 2526 0144 D318     		adds	r3, r2, r3
 2527 0146 5A78     		ldrb	r2, [r3, #1]
 2528 0148 9B78     		ldrb	r3, [r3, #2]
 2529 014a 1B02     		lsls	r3, r3, #8
 2530 014c 1343     		orrs	r3, r2
 2531 014e 8C4A     		ldr	r2, .L60+44
 2532 0150 1288     		ldrh	r2, [r2]
 2533 0152 9342     		cmp	r3, r2
 2534 0154 43D1     		bne	.L41
 709:main.c        ****                     count++;
 2535              		.loc 1 709 0
 2536 0156 8B49     		ldr	r1, .L60+48
 2537 0158 E300     		lsls	r3, r4, #3
 2538 015a 1E1B     		subs	r6, r3, r4
 2539 015c B600     		lsls	r6, r6, #2
 2540 015e 3619     		adds	r6, r6, r4
 2541 0160 705C     		ldrb	r0, [r6, r1]
 2542              	.LVL56:
 2543 0162 8E19     		adds	r6, r1, r6
 2544 0164 7378     		ldrb	r3, [r6, #1]
 2545 0166 1B02     		lsls	r3, r3, #8
 2546 0168 0343     		orrs	r3, r0
 2547 016a 1A00     		movs	r2, r3
 2548 016c B378     		ldrb	r3, [r6, #2]
 2549 016e 1B04     		lsls	r3, r3, #16
 2550 0170 1343     		orrs	r3, r2
 2551 0172 F278     		ldrb	r2, [r6, #3]
 2552 0174 1206     		lsls	r2, r2, #24
 2553 0176 1A43     		orrs	r2, r3
 2554 0178 9246     		mov	r10, r2
 2555 017a 3179     		ldrb	r1, [r6, #4]
 2556 017c 7379     		ldrb	r3, [r6, #5]
 2557 017e 1B02     		lsls	r3, r3, #8
 2558 0180 0B43     		orrs	r3, r1
 2559 0182 1A00     		movs	r2, r3
 2560 0184 B379     		ldrb	r3, [r6, #6]
 2561 0186 1B04     		lsls	r3, r3, #16
 2562 0188 1343     		orrs	r3, r2
 2563 018a F279     		ldrb	r2, [r6, #7]
 2564 018c 1206     		lsls	r2, r2, #24
 2565 018e 1A43     		orrs	r2, r3
 2566 0190 9146     		mov	r9, r2
 2567 0192 317A     		ldrb	r1, [r6, #8]
 2568 0194 737A     		ldrb	r3, [r6, #9]
 2569 0196 1B02     		lsls	r3, r3, #8
 2570 0198 0B43     		orrs	r3, r1
 2571 019a 1A00     		movs	r2, r3
ARM GAS  C:\Users\310309~1\AppData\Local\Temp\ccu8WRKs.s 			page 66


 2572 019c B37A     		ldrb	r3, [r6, #10]
 2573 019e 1B04     		lsls	r3, r3, #16
 2574 01a0 1343     		orrs	r3, r2
 2575 01a2 F27A     		ldrb	r2, [r6, #11]
 2576 01a4 1206     		lsls	r2, r2, #24
 2577 01a6 1A43     		orrs	r2, r3
 2578 01a8 9046     		mov	r8, r2
 2579 01aa 317B     		ldrb	r1, [r6, #12]
 2580 01ac 737B     		ldrb	r3, [r6, #13]
 2581 01ae 1B02     		lsls	r3, r3, #8
 2582 01b0 0B43     		orrs	r3, r1
 2583 01b2 1A00     		movs	r2, r3
 2584 01b4 B77B     		ldrb	r7, [r6, #14]
 2585 01b6 3F04     		lsls	r7, r7, #16
 2586 01b8 3B00     		movs	r3, r7
 2587 01ba 1343     		orrs	r3, r2
 2588 01bc F77B     		ldrb	r7, [r6, #15]
 2589 01be 3F06     		lsls	r7, r7, #24
 2590 01c0 1F43     		orrs	r7, r3
 2591 01c2 3100     		movs	r1, r6
 2592 01c4 1031     		adds	r1, r1, #16
 2593 01c6 0D22     		movs	r2, #13
 2594 01c8 6846     		mov	r0, sp
 2595 01ca FFF7FEFF 		bl	memcpy
 2596              	.LVL57:
 2597 01ce 5046     		mov	r0, r10
 2598 01d0 4946     		mov	r1, r9
 2599 01d2 4246     		mov	r2, r8
 2600 01d4 3B00     		movs	r3, r7
 2601 01d6 FFF7FEFF 		bl	UpdateSessionDescriptor
 2602              	.LVL58:
 710:main.c        ****                 }
 2603              		.loc 1 710 0
 2604 01da 0135     		adds	r5, r5, #1
 2605              	.LVL59:
 2606 01dc ADB2     		uxth	r5, r5
 2607              	.LVL60:
 2608              	.L41:
 705:main.c        ****             {
 2609              		.loc 1 705 0 discriminator 2
 2610 01de 0134     		adds	r4, r4, #1
 2611              	.LVL61:
 2612 01e0 02E0     		b	.L39
 2613              	.LVL62:
 2614              	.L56:
 2615              	.LBE5:
 2616              	.LBE4:
 2617 01e2 0024     		movs	r4, #0
 2618 01e4 0025     		movs	r5, #0
 2619 01e6 0020     		movs	r0, #0
 2620              	.LVL63:
 2621              	.L39:
 2622              	.LBB7:
 2623              	.LBB6:
 705:main.c        ****             {
 2624              		.loc 1 705 0 is_stmt 0 discriminator 1
 2625 01e8 674B     		ldr	r3, .L60+52
ARM GAS  C:\Users\310309~1\AppData\Local\Temp\ccu8WRKs.s 			page 67


 2626 01ea 1B88     		ldrh	r3, [r3]
 2627 01ec 9C42     		cmp	r4, r3
 2628 01ee A4DB     		blt	.L42
 2629              	.LBE6:
 714:main.c        ****             else                { updateControlPointEnquireSucces(0xFB, count); }
 2630              		.loc 1 714 0 is_stmt 1
 2631 01f0 0028     		cmp	r0, #0
 2632 01f2 04D0     		beq	.L43
 714:main.c        ****             else                { updateControlPointEnquireSucces(0xFB, count); }
 2633              		.loc 1 714 0 is_stmt 0 discriminator 1
 2634 01f4 FF21     		movs	r1, #255
 2635 01f6 FE20     		movs	r0, #254
 2636              	.LVL64:
 2637 01f8 FFF7FEFF 		bl	updateControlPointEnquireSucces
 2638              	.LVL65:
 2639 01fc 03E0     		b	.L44
 2640              	.LVL66:
 2641              	.L43:
 715:main.c        ****             
 2642              		.loc 1 715 0 is_stmt 1
 2643 01fe 2900     		movs	r1, r5
 2644 0200 FB20     		movs	r0, #251
 2645              	.LVL67:
 2646 0202 FFF7FEFF 		bl	updateControlPointEnquireSucces
 2647              	.LVL68:
 2648              	.L44:
 717:main.c        ****             procedureFailed = FALSE;
 2649              		.loc 1 717 0
 2650 0206 0022     		movs	r2, #0
 2651 0208 5D4B     		ldr	r3, .L60+44
 2652 020a 1A80     		strh	r2, [r3]
 2653              	.LVL69:
 2654              	.L40:
 2655              	.LBE7:
 721:main.c        ****         {
 2656              		.loc 1 721 0
 2657 020c 5F4B     		ldr	r3, .L60+56
 2658 020e 1B78     		ldrb	r3, [r3]
 2659 0210 002B     		cmp	r3, #0
 2660 0212 51D1     		bne	.L57
 2661 0214 58E0     		b	.L46
 2662              	.LVL70:
 2663              	.L47:
 2664              	.LBB8:
 725:main.c        ****                 myDeletedSessions[i] = myDeletedSessions[i + 1];
 2665              		.loc 1 725 0 discriminator 3
 2666 0216 5E4E     		ldr	r6, .L60+60
 2667 0218 EC00     		lsls	r4, r5, #3
 2668 021a 641B     		subs	r4, r4, r5
 2669 021c A400     		lsls	r4, r4, #2
 2670 021e 6419     		adds	r4, r4, r5
 2671 0220 A15D     		ldrb	r1, [r4, r6]
 2672 0222 3419     		adds	r4, r6, r4
 2673 0224 6378     		ldrb	r3, [r4, #1]
 2674 0226 1B02     		lsls	r3, r3, #8
 2675 0228 0B43     		orrs	r3, r1
 2676 022a 1A00     		movs	r2, r3
ARM GAS  C:\Users\310309~1\AppData\Local\Temp\ccu8WRKs.s 			page 68


 2677 022c A378     		ldrb	r3, [r4, #2]
 2678 022e 1B04     		lsls	r3, r3, #16
 2679 0230 1343     		orrs	r3, r2
 2680 0232 E278     		ldrb	r2, [r4, #3]
 2681 0234 1206     		lsls	r2, r2, #24
 2682 0236 1A43     		orrs	r2, r3
 2683 0238 9246     		mov	r10, r2
 2684 023a 2179     		ldrb	r1, [r4, #4]
 2685 023c 6379     		ldrb	r3, [r4, #5]
 2686 023e 1B02     		lsls	r3, r3, #8
 2687 0240 0B43     		orrs	r3, r1
 2688 0242 1A00     		movs	r2, r3
 2689 0244 A379     		ldrb	r3, [r4, #6]
 2690 0246 1B04     		lsls	r3, r3, #16
 2691 0248 1343     		orrs	r3, r2
 2692 024a E279     		ldrb	r2, [r4, #7]
 2693 024c 1206     		lsls	r2, r2, #24
 2694 024e 1A43     		orrs	r2, r3
 2695 0250 9146     		mov	r9, r2
 2696 0252 217A     		ldrb	r1, [r4, #8]
 2697 0254 637A     		ldrb	r3, [r4, #9]
 2698 0256 1B02     		lsls	r3, r3, #8
 2699 0258 0B43     		orrs	r3, r1
 2700 025a 1A00     		movs	r2, r3
 2701 025c A37A     		ldrb	r3, [r4, #10]
 2702 025e 1B04     		lsls	r3, r3, #16
 2703 0260 1343     		orrs	r3, r2
 2704 0262 E27A     		ldrb	r2, [r4, #11]
 2705 0264 1206     		lsls	r2, r2, #24
 2706 0266 1A43     		orrs	r2, r3
 2707 0268 9046     		mov	r8, r2
 2708 026a 217B     		ldrb	r1, [r4, #12]
 2709 026c 637B     		ldrb	r3, [r4, #13]
 2710 026e 1B02     		lsls	r3, r3, #8
 2711 0270 0B43     		orrs	r3, r1
 2712 0272 1A00     		movs	r2, r3
 2713 0274 A77B     		ldrb	r7, [r4, #14]
 2714 0276 3F04     		lsls	r7, r7, #16
 2715 0278 3B00     		movs	r3, r7
 2716 027a 1343     		orrs	r3, r2
 2717 027c E77B     		ldrb	r7, [r4, #15]
 2718 027e 3F06     		lsls	r7, r7, #24
 2719 0280 1F43     		orrs	r7, r3
 2720 0282 2100     		movs	r1, r4
 2721 0284 1031     		adds	r1, r1, #16
 2722 0286 0D22     		movs	r2, #13
 2723 0288 6846     		mov	r0, sp
 2724 028a FFF7FEFF 		bl	memcpy
 2725              	.LVL71:
 2726 028e 5046     		mov	r0, r10
 2727 0290 4946     		mov	r1, r9
 2728 0292 4246     		mov	r2, r8
 2729 0294 3B00     		movs	r3, r7
 2730 0296 FFF7FEFF 		bl	UpdateSessionDescriptor
 2731              	.LVL72:
 726:main.c        ****                 totalDeletedSessions -= 1;
 2732              		.loc 1 726 0 discriminator 3
ARM GAS  C:\Users\310309~1\AppData\Local\Temp\ccu8WRKs.s 			page 69


 2733 029a 0135     		adds	r5, r5, #1
 2734              	.LVL73:
 2735 029c E900     		lsls	r1, r5, #3
 2736 029e 491B     		subs	r1, r1, r5
 2737 02a0 8900     		lsls	r1, r1, #2
 2738 02a2 4919     		adds	r1, r1, r5
 2739 02a4 7118     		adds	r1, r6, r1
 2740 02a6 1D22     		movs	r2, #29
 2741 02a8 2000     		movs	r0, r4
 2742 02aa FFF7FEFF 		bl	memcpy
 2743              	.LVL74:
 727:main.c        ****             }
 2744              		.loc 1 727 0 discriminator 3
 2745 02ae 394A     		ldr	r2, .L60+64
 2746 02b0 1388     		ldrh	r3, [r2]
 2747 02b2 013B     		subs	r3, r3, #1
 2748 02b4 1380     		strh	r3, [r2]
 2749              	.LVL75:
 2750 02b6 00E0     		b	.L45
 2751              	.LVL76:
 2752              	.L57:
 2753              	.LBE8:
 2754 02b8 0025     		movs	r5, #0
 2755              	.L45:
 2756              	.LVL77:
 2757              	.LBB9:
 723:main.c        ****             {
 2758              		.loc 1 723 0 discriminator 1
 2759 02ba 364B     		ldr	r3, .L60+64
 2760 02bc 1B88     		ldrh	r3, [r3]
 2761 02be 9D42     		cmp	r5, r3
 2762 02c0 A9DB     		blt	.L47
 2763              	.LBE9:
 729:main.c        ****         }
 2764              		.loc 1 729 0
 2765 02c2 0022     		movs	r2, #0
 2766 02c4 314B     		ldr	r3, .L60+56
 2767 02c6 1A70     		strb	r2, [r3]
 2768              	.LVL78:
 2769              	.L46:
 732:main.c        ****         {
 2770              		.loc 1 732 0
 2771 02c8 334B     		ldr	r3, .L60+68
 2772 02ca 1B88     		ldrh	r3, [r3]
 2773 02cc 002B     		cmp	r3, #0
 2774 02ce 3CD0     		beq	.L48
 2775              	.LVL79:
 2776              	.LBB10:
 735:main.c        ****             {
 2777              		.loc 1 735 0
 2778 02d0 324B     		ldr	r3, .L60+72
 2779 02d2 1A88     		ldrh	r2, [r3]
 2780 02d4 324B     		ldr	r3, .L60+76
 2781 02d6 9A42     		cmp	r2, r3
 2782 02d8 29D1     		bne	.L59
 2783 02da 21E0     		b	.L58
 2784              	.LVL80:
ARM GAS  C:\Users\310309~1\AppData\Local\Temp\ccu8WRKs.s 			page 70


 2785              	.L52:
 2786              	.LBB11:
 739:main.c        ****                     {
 2787              		.loc 1 739 0
 2788 02dc E300     		lsls	r3, r4, #3
 2789 02de 1B1B     		subs	r3, r3, r4
 2790 02e0 9B00     		lsls	r3, r3, #2
 2791 02e2 1B19     		adds	r3, r3, r4
 2792 02e4 274A     		ldr	r2, .L60+48
 2793 02e6 D318     		adds	r3, r2, r3
 2794 02e8 5A78     		ldrb	r2, [r3, #1]
 2795 02ea 9B78     		ldrb	r3, [r3, #2]
 2796 02ec 1B02     		lsls	r3, r3, #8
 2797 02ee 1343     		orrs	r3, r2
 2798 02f0 294A     		ldr	r2, .L60+68
 2799 02f2 1288     		ldrh	r2, [r2]
 2800 02f4 9342     		cmp	r3, r2
 2801 02f6 11D1     		bne	.L51
 2802              	.LBB12:
 741:main.c        ****                         count += SimulateValues(&Get_Ended_Data_SessionID, &subSessionID);
 2803              		.loc 1 741 0
 2804 02f8 E300     		lsls	r3, r4, #3
 2805 02fa 1B1B     		subs	r3, r3, r4
 2806 02fc 9B00     		lsls	r3, r3, #2
 2807 02fe 1B19     		adds	r3, r3, r4
 2808 0300 204A     		ldr	r2, .L60+48
 2809 0302 D318     		adds	r3, r2, r3
 2810 0304 DA7B     		ldrb	r2, [r3, #15]
 2811 0306 0833     		adds	r3, r3, #8
 2812 0308 1B7A     		ldrb	r3, [r3, #8]
 2813 030a 1B02     		lsls	r3, r3, #8
 2814 030c 1343     		orrs	r3, r2
 2815 030e 1621     		movs	r1, #22
 2816 0310 6944     		add	r1, r1, sp
 2817 0312 0B80     		strh	r3, [r1]
 742:main.c        ****                         
 2818              		.loc 1 742 0
 2819 0314 2048     		ldr	r0, .L60+68
 2820 0316 FFF7FEFF 		bl	SimulateValues
 2821              	.LVL81:
 2822 031a 2D18     		adds	r5, r5, r0
 2823              	.LVL82:
 2824              	.L51:
 2825              	.LBE12:
 737:main.c        ****                 {
 2826              		.loc 1 737 0 discriminator 2
 2827 031c 0134     		adds	r4, r4, #1
 2828              	.LVL83:
 2829 031e 01E0     		b	.L49
 2830              	.LVL84:
 2831              	.L58:
 2832              	.LBE11:
 2833 0320 0024     		movs	r4, #0
 2834 0322 0025     		movs	r5, #0
 2835              	.LVL85:
 2836              	.L49:
 2837              	.LBB13:
ARM GAS  C:\Users\310309~1\AppData\Local\Temp\ccu8WRKs.s 			page 71


 737:main.c        ****                 {
 2838              		.loc 1 737 0 is_stmt 0 discriminator 1
 2839 0324 184B     		ldr	r3, .L60+52
 2840 0326 1B88     		ldrh	r3, [r3]
 2841 0328 9C42     		cmp	r4, r3
 2842 032a D7DB     		blt	.L52
 2843 032c 04E0     		b	.L53
 2844              	.LVL86:
 2845              	.L59:
 2846              	.LBE13:
 749:main.c        ****             }
 2847              		.loc 1 749 0 is_stmt 1
 2848 032e 1B49     		ldr	r1, .L60+72
 2849 0330 1948     		ldr	r0, .L60+68
 2850 0332 FFF7FEFF 		bl	SimulateValues
 2851              	.LVL87:
 2852 0336 0500     		movs	r5, r0
 2853              	.LVL88:
 2854              	.L53:
 753:main.c        ****             
 2855              		.loc 1 753 0
 2856 0338 2900     		movs	r1, r5
 2857 033a FA20     		movs	r0, #250
 2858 033c FFF7FEFF 		bl	updateControlPointGetEndedDataSucces
 2859              	.LVL89:
 756:main.c        ****             Get_Ended_Data_Sub_SessionID = 0;
 2860              		.loc 1 756 0
 2861 0340 0023     		movs	r3, #0
 2862 0342 154A     		ldr	r2, .L60+68
 2863 0344 1380     		strh	r3, [r2]
 757:main.c        ****         }
 2864              		.loc 1 757 0
 2865 0346 154A     		ldr	r2, .L60+72
 2866 0348 1380     		strh	r3, [r2]
 2867              	.LVL90:
 2868              	.L48:
 2869              	.LBE10:
 760:main.c        ****     }
 2870              		.loc 1 760 0
 2871 034a 0320     		movs	r0, #3
 2872 034c FFF7FEFF 		bl	CyBle_EnterLPM
 2873              	.LVL91:
 761:main.c        **** }
 2874              		.loc 1 761 0
 2875 0350 73E6     		b	.L54
 2876              	.L61:
 2877 0352 C046     		.align	2
 2878              	.L60:
 2879 0354 00000000 		.word	apiResult
 2880 0358 00000000 		.word	Pin_SW2_Handler
 2881 035c 00000000 		.word	isr_timer_Handler
 2882 0360 00000000 		.word	BleEventHandler
 2883 0364 00000000 		.word	cyBle_state
 2884 0368 00000000 		.word	cyBle_pendingFlashWrite
 2885 036c 08022440 		.word	1076101640
 2886 0370 10000000 		.word	.LC61
 2887 0374 00000000 		.word	Enquire_Sessions_Requested
ARM GAS  C:\Users\310309~1\AppData\Local\Temp\ccu8WRKs.s 			page 72


 2888 0378 00000000 		.word	mySessions
 2889 037c 00000000 		.word	totalSessionCount
 2890 0380 00000000 		.word	Enquire_Sub_Sessions_Requested_For_ID
 2891 0384 00000000 		.word	mySubSessions
 2892 0388 00000000 		.word	totalSubSessionCount
 2893 038c 00000000 		.word	send_Deleted_Sessions
 2894 0390 00000000 		.word	myDeletedSessions
 2895 0394 00000000 		.word	totalDeletedSessions
 2896 0398 00000000 		.word	Get_Ended_Data_SessionID
 2897 039c 00000000 		.word	Get_Ended_Data_Sub_SessionID
 2898 03a0 FFFF0000 		.word	65535
 2899              		.cfi_endproc
 2900              	.LFE39:
 2901              		.size	main, .-main
 2902              		.section	.text.HandleLeds,"ax",%progbits
 2903              		.align	2
 2904              		.global	HandleLeds
 2905              		.code	16
 2906              		.thumb_func
 2907              		.type	HandleLeds, %function
 2908              	HandleLeds:
 2909              	.LFB42:
1106:main.c        **** 
1107:main.c        **** void HandleLeds()
1108:main.c        **** {
 2910              		.loc 1 1108 0
 2911              		.cfi_startproc
 2912              		@ args = 0, pretend = 0, frame = 0
 2913              		@ frame_needed = 0, uses_anonymous_args = 0
 2914 0000 10B5     		push	{r4, lr}
 2915              		.cfi_def_cfa_offset 8
 2916              		.cfi_offset 4, -8
 2917              		.cfi_offset 14, -4
1109:main.c        ****     if(CyBle_GetState() == CYBLE_STATE_DISCONNECTED)
 2918              		.loc 1 1109 0
 2919 0002 114B     		ldr	r3, .L66
 2920 0004 1B78     		ldrb	r3, [r3]
 2921 0006 042B     		cmp	r3, #4
 2922 0008 08D1     		bne	.L63
1110:main.c        ****     {
1111:main.c        ****         pwm_Stop();
 2923              		.loc 1 1111 0
 2924 000a FFF7FEFF 		bl	pwm_Stop
 2925              	.LVL92:
1112:main.c        ****         connected_LED_Write(LED_OFF);
 2926              		.loc 1 1112 0
 2927 000e 0120     		movs	r0, #1
 2928 0010 FFF7FEFF 		bl	connected_LED_Write
 2929              	.LVL93:
1113:main.c        ****         disconnected_LED_Write(LED_ON);
 2930              		.loc 1 1113 0
 2931 0014 0020     		movs	r0, #0
 2932 0016 FFF7FEFF 		bl	disconnected_LED_Write
 2933              	.LVL94:
 2934 001a 14E0     		b	.L62
 2935              	.L63:
1114:main.c        ****     }
ARM GAS  C:\Users\310309~1\AppData\Local\Temp\ccu8WRKs.s 			page 73


1115:main.c        ****     else if(CyBle_GetState() == CYBLE_STATE_ADVERTISING)
 2936              		.loc 1 1115 0
 2937 001c 032B     		cmp	r3, #3
 2938 001e 08D1     		bne	.L65
1116:main.c        ****     {
1117:main.c        ****         connected_LED_Write(LED_OFF);
 2939              		.loc 1 1117 0
 2940 0020 0120     		movs	r0, #1
 2941 0022 FFF7FEFF 		bl	connected_LED_Write
 2942              	.LVL95:
1118:main.c        ****         disconnected_LED_Write(LED_OFF);
 2943              		.loc 1 1118 0
 2944 0026 0120     		movs	r0, #1
 2945 0028 FFF7FEFF 		bl	disconnected_LED_Write
 2946              	.LVL96:
1119:main.c        ****         pwm_Start();
 2947              		.loc 1 1119 0
 2948 002c FFF7FEFF 		bl	pwm_Start
 2949              	.LVL97:
 2950 0030 09E0     		b	.L62
 2951              	.L65:
1120:main.c        ****     }
1121:main.c        ****     else if(CyBle_GetState() == CYBLE_STATE_CONNECTED)
 2952              		.loc 1 1121 0
 2953 0032 022B     		cmp	r3, #2
 2954 0034 07D1     		bne	.L62
1122:main.c        ****     {
1123:main.c        ****         pwm_Stop();
 2955              		.loc 1 1123 0
 2956 0036 FFF7FEFF 		bl	pwm_Stop
 2957              	.LVL98:
1124:main.c        ****         disconnected_LED_Write(LED_OFF);
 2958              		.loc 1 1124 0
 2959 003a 0120     		movs	r0, #1
 2960 003c FFF7FEFF 		bl	disconnected_LED_Write
 2961              	.LVL99:
1125:main.c        ****         connected_LED_Write(LED_ON);
 2962              		.loc 1 1125 0
 2963 0040 0020     		movs	r0, #0
 2964 0042 FFF7FEFF 		bl	connected_LED_Write
 2965              	.LVL100:
 2966              	.L62:
1126:main.c        ****     }
1127:main.c        **** }
 2967              		.loc 1 1127 0
 2968              		@ sp needed
 2969 0046 10BD     		pop	{r4, pc}
 2970              	.L67:
 2971              		.align	2
 2972              	.L66:
 2973 0048 00000000 		.word	cyBle_state
 2974              		.cfi_endproc
 2975              	.LFE42:
 2976              		.size	HandleLeds, .-HandleLeds
 2977              		.section	.text.BleEventHandler,"ax",%progbits
 2978              		.align	2
 2979              		.global	BleEventHandler
ARM GAS  C:\Users\310309~1\AppData\Local\Temp\ccu8WRKs.s 			page 74


 2980              		.code	16
 2981              		.thumb_func
 2982              		.type	BleEventHandler, %function
 2983              	BleEventHandler:
 2984              	.LFB38:
  81:main.c        ****     if(0u != eventParam)
 2985              		.loc 1 81 0
 2986              		.cfi_startproc
 2987              		@ args = 0, pretend = 0, frame = 104
 2988              		@ frame_needed = 0, uses_anonymous_args = 0
 2989              	.LVL101:
 2990 0000 F0B5     		push	{r4, r5, r6, r7, lr}
 2991              		.cfi_def_cfa_offset 20
 2992              		.cfi_offset 4, -20
 2993              		.cfi_offset 5, -16
 2994              		.cfi_offset 6, -12
 2995              		.cfi_offset 7, -8
 2996              		.cfi_offset 14, -4
 2997 0002 4F46     		mov	r7, r9
 2998 0004 4646     		mov	r6, r8
 2999 0006 C0B4     		push	{r6, r7}
 3000              		.cfi_def_cfa_offset 28
 3001              		.cfi_offset 8, -28
 3002              		.cfi_offset 9, -24
 3003 0008 A1B0     		sub	sp, sp, #132
 3004              		.cfi_def_cfa_offset 160
 3005 000a 0C00     		movs	r4, r1
  89:main.c        ****     {
 3006              		.loc 1 89 0
 3007 000c 5428     		cmp	r0, #84
 3008 000e 01D9     		bls	.LCB2907
 3009 0010 00F0A7FD 		bl	.L68	@far jump
 3010              	.LCB2907:
 3011 0014 8000     		lsls	r0, r0, #2
 3012              	.LVL102:
 3013 0016 E14B     		ldr	r3, .L160
 3014 0018 1B58     		ldr	r3, [r3, r0]
 3015 001a 9F46     		mov	pc, r3
 3016              		.section	.rodata
 3017              		.align	2
 3018              	.L71:
 3019 001c 620B0000 		.word	.L68
 3020 0020 1C000000 		.word	.L70
 3021 0024 620B0000 		.word	.L68
 3022 0028 620B0000 		.word	.L68
 3023 002c 620B0000 		.word	.L68
 3024 0030 620B0000 		.word	.L68
 3025 0034 620B0000 		.word	.L68
 3026 0038 620B0000 		.word	.L68
 3027 003c 620B0000 		.word	.L68
 3028 0040 620B0000 		.word	.L68
 3029 0044 620B0000 		.word	.L68
 3030 0048 620B0000 		.word	.L68
 3031 004c 620B0000 		.word	.L68
 3032 0050 620B0000 		.word	.L68
 3033 0054 620B0000 		.word	.L68
 3034 0058 620B0000 		.word	.L68
ARM GAS  C:\Users\310309~1\AppData\Local\Temp\ccu8WRKs.s 			page 75


 3035 005c 620B0000 		.word	.L68
 3036 0060 620B0000 		.word	.L68
 3037 0064 620B0000 		.word	.L68
 3038 0068 620B0000 		.word	.L68
 3039 006c 620B0000 		.word	.L68
 3040 0070 620B0000 		.word	.L68
 3041 0074 620B0000 		.word	.L68
 3042 0078 620B0000 		.word	.L68
 3043 007c 620B0000 		.word	.L68
 3044 0080 620B0000 		.word	.L68
 3045 0084 620B0000 		.word	.L68
 3046 0088 620B0000 		.word	.L68
 3047 008c 620B0000 		.word	.L68
 3048 0090 620B0000 		.word	.L68
 3049 0094 620B0000 		.word	.L68
 3050 0098 620B0000 		.word	.L68
 3051 009c 620B0000 		.word	.L68
 3052 00a0 C2000000 		.word	.L72
 3053 00a4 D6000000 		.word	.L73
 3054 00a8 E6000000 		.word	.L74
 3055 00ac 12010000 		.word	.L75
 3056 00b0 620B0000 		.word	.L68
 3057 00b4 94000000 		.word	.L76
 3058 00b8 86000000 		.word	.L77
 3059 00bc 1C000000 		.word	.L70
 3060 00c0 F8000000 		.word	.L78
 3061 00c4 620B0000 		.word	.L68
 3062 00c8 620B0000 		.word	.L68
 3063 00cc 620B0000 		.word	.L68
 3064 00d0 620B0000 		.word	.L68
 3065 00d4 620B0000 		.word	.L68
 3066 00d8 620B0000 		.word	.L68
 3067 00dc 620B0000 		.word	.L68
 3068 00e0 620B0000 		.word	.L68
 3069 00e4 620B0000 		.word	.L68
 3070 00e8 620B0000 		.word	.L68
 3071 00ec 620B0000 		.word	.L68
 3072 00f0 620B0000 		.word	.L68
 3073 00f4 620B0000 		.word	.L68
 3074 00f8 620B0000 		.word	.L68
 3075 00fc 620B0000 		.word	.L68
 3076 0100 620B0000 		.word	.L68
 3077 0104 620B0000 		.word	.L68
 3078 0108 620B0000 		.word	.L68
 3079 010c 620B0000 		.word	.L68
 3080 0110 620B0000 		.word	.L68
 3081 0114 620B0000 		.word	.L68
 3082 0118 620B0000 		.word	.L68
 3083 011c 620B0000 		.word	.L68
 3084 0120 04010000 		.word	.L79
 3085 0124 620B0000 		.word	.L68
 3086 0128 620B0000 		.word	.L68
 3087 012c 620B0000 		.word	.L68
 3088 0130 620B0000 		.word	.L68
 3089 0134 620B0000 		.word	.L68
 3090 0138 620B0000 		.word	.L68
 3091 013c 620B0000 		.word	.L68
ARM GAS  C:\Users\310309~1\AppData\Local\Temp\ccu8WRKs.s 			page 76


 3092 0140 620B0000 		.word	.L68
 3093 0144 620B0000 		.word	.L68
 3094 0148 620B0000 		.word	.L68
 3095 014c 26010000 		.word	.L80
 3096 0150 620B0000 		.word	.L68
 3097 0154 620B0000 		.word	.L68
 3098 0158 620B0000 		.word	.L68
 3099 015c 620B0000 		.word	.L68
 3100 0160 620B0000 		.word	.L68
 3101 0164 620B0000 		.word	.L68
 3102 0168 620B0000 		.word	.L68
 3103 016c B8000000 		.word	.L81
 3104              		.section	.text.BleEventHandler
 3105              	.L70:
 3106              	.LBB14:
  94:main.c        ****             DBG_PRINTF("Start Advertisement with addr: ");
 3107              		.loc 1 94 0
 3108 001c 0020     		movs	r0, #0
 3109 001e FFF7FEFF 		bl	CyBle_GappStartAdvertisement
 3110              	.LVL103:
  95:main.c        ****             CYBLE_GAP_BD_ADDR_T localAddr;
 3111              		.loc 1 95 0
 3112 0022 DF48     		ldr	r0, .L160+4
 3113 0024 FFF7FEFF 		bl	printf
 3114              	.LVL104:
  97:main.c        ****             CyBle_GetDeviceAddress(&localAddr);
 3115              		.loc 1 97 0
 3116 0028 06A8     		add	r0, sp, #24
 3117 002a 0023     		movs	r3, #0
 3118 002c 8371     		strb	r3, [r0, #6]
  98:main.c        ****             for(uint8 i = CYBLE_GAP_BD_ADDR_SIZE; i > 0u; i--)
 3119              		.loc 1 98 0
 3120 002e FFF7FEFF 		bl	CyBle_GetDeviceAddress
 3121              	.LVL105:
 3122              	.LBB15:
  99:main.c        ****             {
 3123              		.loc 1 99 0
 3124 0032 0623     		movs	r3, #6
 3125 0034 06E0     		b	.L82
 3126              	.LVL106:
 3127              	.L83:
 101:main.c        ****             }
 3128              		.loc 1 101 0 discriminator 3
 3129 0036 5C1E     		subs	r4, r3, #1
 3130 0038 06AB     		add	r3, sp, #24
 3131              	.LVL107:
 3132 003a 195D     		ldrb	r1, [r3, r4]
 3133 003c D948     		ldr	r0, .L160+8
 3134 003e FFF7FEFF 		bl	printf
 3135              	.LVL108:
  99:main.c        ****             {
 3136              		.loc 1 99 0 discriminator 3
 3137 0042 E3B2     		uxtb	r3, r4
 3138              	.LVL109:
 3139              	.L82:
  99:main.c        ****             {
 3140              		.loc 1 99 0 is_stmt 0 discriminator 1
ARM GAS  C:\Users\310309~1\AppData\Local\Temp\ccu8WRKs.s 			page 77


 3141 0044 002B     		cmp	r3, #0
 3142 0046 F6D1     		bne	.L83
 3143              	.LBE15:
 103:main.c        ****             DBG_PRINTF("CYBLE_EVT_GAP_DEVICE_DISCONNECTED \r\n");
 3144              		.loc 1 103 0 is_stmt 1
 3145 0048 D748     		ldr	r0, .L160+12
 3146 004a FFF7FEFF 		bl	puts
 3147              	.LVL110:
 104:main.c        ****             HandleLeds();
 3148              		.loc 1 104 0
 3149 004e D748     		ldr	r0, .L160+16
 3150 0050 FFF7FEFF 		bl	puts
 3151              	.LVL111:
 105:main.c        ****            
 3152              		.loc 1 105 0
 3153 0054 FFF7FEFF 		bl	HandleLeds
 3154              	.LVL112:
 107:main.c        ****             generalsummarydataIndicate = DISABLED;
 3155              		.loc 1 107 0
 3156 0058 0023     		movs	r3, #0
 3157 005a D54A     		ldr	r2, .L160+20
 3158 005c 1360     		str	r3, [r2]
 108:main.c        ****             cardiorespiratoryactivityinstantaneousdataNotify = DISABLED;
 3159              		.loc 1 108 0
 3160 005e D54A     		ldr	r2, .L160+24
 3161 0060 1360     		str	r3, [r2]
 109:main.c        ****             cardiorespiratoryactivitysummarydataIndicate = DISABLED;
 3162              		.loc 1 109 0
 3163 0062 D54A     		ldr	r2, .L160+28
 3164 0064 1360     		str	r3, [r2]
 110:main.c        ****             stepcounteractivitysummarydataIndicate = DISABLED;
 3165              		.loc 1 110 0
 3166 0066 D54A     		ldr	r2, .L160+32
 3167 0068 1360     		str	r3, [r2]
 111:main.c        ****             sleepactivityinstantaneousdataNotify = DISABLED;
 3168              		.loc 1 111 0
 3169 006a D54A     		ldr	r2, .L160+36
 3170 006c 1360     		str	r3, [r2]
 112:main.c        ****             sleepactivitysummarydataIndicate = DISABLED;
 3171              		.loc 1 112 0
 3172 006e D54A     		ldr	r2, .L160+40
 3173 0070 1360     		str	r3, [r2]
 113:main.c        ****             controlpointIndicate = DISABLED;
 3174              		.loc 1 113 0
 3175 0072 D54A     		ldr	r2, .L160+44
 3176 0074 1360     		str	r3, [r2]
 114:main.c        ****             currentsessionIndicate = DISABLED;
 3177              		.loc 1 114 0
 3178 0076 D54A     		ldr	r2, .L160+48
 3179 0078 1360     		str	r3, [r2]
 115:main.c        ****             sessionDescriptorIndicate = DISABLED;
 3180              		.loc 1 115 0
 3181 007a D54A     		ldr	r2, .L160+52
 3182 007c 1360     		str	r3, [r2]
 116:main.c        ****             break;
 3183              		.loc 1 116 0
 3184 007e D54A     		ldr	r2, .L160+56
ARM GAS  C:\Users\310309~1\AppData\Local\Temp\ccu8WRKs.s 			page 78


 3185 0080 1370     		strb	r3, [r2]
 3186 0082 00F06EFD 		bl	.L68	@ far jump
 3187              	.LVL113:
 3188              	.L77:
 3189              	.LBE14:
 122:main.c        ****             HandleLeds();
 3190              		.loc 1 122 0
 3191 0086 D448     		ldr	r0, .L160+60
 3192 0088 FFF7FEFF 		bl	puts
 3193              	.LVL114:
 123:main.c        ****             break;
 3194              		.loc 1 123 0
 3195 008c FFF7FEFF 		bl	HandleLeds
 3196              	.LVL115:
 124:main.c        ****         }
 3197              		.loc 1 124 0
 3198 0090 00F067FD 		bl	.L68	@ far jump
 3199              	.LVL116:
 3200              	.L76:
 128:main.c        ****             DBG_PRINTF("CYBLE_EVT_GAPP_ADVERTISEMENT_START_STOP \r\n");
 3201              		.loc 1 128 0
 3202 0094 FFF7FEFF 		bl	HandleLeds
 3203              	.LVL117:
 129:main.c        ****             if(CyBle_GetState() == CYBLE_STATE_DISCONNECTED)
 3204              		.loc 1 129 0
 3205 0098 D048     		ldr	r0, .L160+64
 3206 009a FFF7FEFF 		bl	puts
 3207              	.LVL118:
 130:main.c        ****             {
 3208              		.loc 1 130 0
 3209 009e D04B     		ldr	r3, .L160+68
 3210 00a0 1B78     		ldrb	r3, [r3]
 3211 00a2 042B     		cmp	r3, #4
 3212 00a4 01D0     		beq	.LCB3015
 3213 00a6 00F05CFD 		bl	.L68	@far jump
 3214              	.LCB3015:
 135:main.c        ****                 CySysPmStop();
 3215              		.loc 1 135 0
 3216 00aa 0120     		movs	r0, #1
 3217 00ac FFF7FEFF 		bl	CySysPmSetWakeupPolarity
 3218              	.LVL119:
 136:main.c        ****             }
 3219              		.loc 1 136 0
 3220 00b0 FFF7FEFF 		bl	CySysPmStop
 3221              	.LVL120:
 3222 00b4 00F055FD 		bl	.L68	@ far jump
 3223              	.LVL121:
 3224              	.L81:
 142:main.c        ****             break;
 3225              		.loc 1 142 0
 3226 00b8 CA48     		ldr	r0, .L160+72
 3227 00ba FFF7FEFF 		bl	puts
 3228              	.LVL122:
 143:main.c        ****         }
 3229              		.loc 1 143 0
 3230 00be 00F050FD 		bl	.L68	@ far jump
 3231              	.LVL123:
ARM GAS  C:\Users\310309~1\AppData\Local\Temp\ccu8WRKs.s 			page 79


 3232              	.L72:
 146:main.c        ****                 (*(CYBLE_GAP_AUTH_INFO_T *)eventParam).security, 
 3233              		.loc 1 146 0
 3234 00c2 0978     		ldrb	r1, [r1]
 3235              	.LVL124:
 3236 00c4 6278     		ldrb	r2, [r4, #1]
 3237 00c6 A378     		ldrb	r3, [r4, #2]
 3238 00c8 E078     		ldrb	r0, [r4, #3]
 3239 00ca 0090     		str	r0, [sp]
 3240 00cc C648     		ldr	r0, .L160+76
 3241 00ce FFF7FEFF 		bl	printf
 3242              	.LVL125:
 151:main.c        ****         case CYBLE_EVT_GAP_PASSKEY_ENTRY_REQUEST:
 3243              		.loc 1 151 0
 3244 00d2 00F046FD 		bl	.L68	@ far jump
 3245              	.LVL126:
 3246              	.L73:
 153:main.c        ****             DBG_PRINTF("CYBLE_EVT_GAP_PASSKEY_ENTRY_REQUEST press 'p' to enter passkey.\r\n");
 3247              		.loc 1 153 0
 3248 00d6 B448     		ldr	r0, .L160+12
 3249 00d8 FFF7FEFF 		bl	puts
 3250              	.LVL127:
 154:main.c        ****             break;
 3251              		.loc 1 154 0
 3252 00dc C348     		ldr	r0, .L160+80
 3253 00de FFF7FEFF 		bl	puts
 3254              	.LVL128:
 155:main.c        ****         case CYBLE_EVT_GAP_PASSKEY_DISPLAY_REQUEST:
 3255              		.loc 1 155 0
 3256 00e2 00F03EFD 		bl	.L68	@ far jump
 3257              	.LVL129:
 3258              	.L74:
 158:main.c        ****             DBG_PRINTF("CYBLE_EVT_GAP_PASSKEY_DISPLAY_REQUEST. Passkey is: %lu.\r\n",
 3259              		.loc 1 158 0
 3260 00e6 B048     		ldr	r0, .L160+12
 3261 00e8 FFF7FEFF 		bl	puts
 3262              	.LVL130:
 159:main.c        ****                 *(uint32 *)eventParam);
 3263              		.loc 1 159 0
 3264 00ec 2168     		ldr	r1, [r4]
 3265 00ee C048     		ldr	r0, .L160+84
 3266 00f0 FFF7FEFF 		bl	printf
 3267              	.LVL131:
 161:main.c        ****         }
 3268              		.loc 1 161 0
 3269 00f4 00F035FD 		bl	.L68	@ far jump
 3270              	.LVL132:
 3271              	.L78:
 165:main.c        ****             break;
 3272              		.loc 1 165 0
 3273 00f8 0978     		ldrb	r1, [r1]
 3274              	.LVL133:
 3275 00fa BE48     		ldr	r0, .L160+88
 3276 00fc FFF7FEFF 		bl	printf
 3277              	.LVL134:
 166:main.c        ****         }
 3278              		.loc 1 166 0
ARM GAS  C:\Users\310309~1\AppData\Local\Temp\ccu8WRKs.s 			page 80


 3279 0100 00F02FFD 		bl	.L68	@ far jump
 3280              	.LVL135:
 3281              	.L79:
 170:main.c        ****                 ((CYBLE_CONN_HANDLE_T *)eventParam)->attId, ((CYBLE_CONN_HANDLE_T *)eventParam)->bd
 3282              		.loc 1 170 0
 3283 0104 4978     		ldrb	r1, [r1, #1]
 3284              	.LVL136:
 3285 0106 2278     		ldrb	r2, [r4]
 3286 0108 BB48     		ldr	r0, .L160+92
 3287 010a FFF7FEFF 		bl	printf
 3288              	.LVL137:
 172:main.c        ****         }
 3289              		.loc 1 172 0
 3290 010e 00F028FD 		bl	.L68	@ far jump
 3291              	.LVL138:
 3292              	.L75:
 176:main.c        ****                         ((CYBLE_GAP_AUTH_INFO_T *)eventParam)->security,
 3293              		.loc 1 176 0
 3294 0112 0978     		ldrb	r1, [r1]
 3295              	.LVL139:
 3296 0114 6278     		ldrb	r2, [r4, #1]
 3297 0116 A378     		ldrb	r3, [r4, #2]
 3298 0118 E078     		ldrb	r0, [r4, #3]
 3299 011a 0090     		str	r0, [sp]
 3300 011c B748     		ldr	r0, .L160+96
 3301 011e FFF7FEFF 		bl	printf
 3302              	.LVL140:
 181:main.c        ****         }
 3303              		.loc 1 181 0
 3304 0122 00F01EFD 		bl	.L68	@ far jump
 3305              	.LVL141:
 3306              	.L80:
 188:main.c        ****                 {
 3307              		.loc 1 188 0
 3308 0126 8B89     		ldrh	r3, [r1, #12]
 3309 0128 172B     		cmp	r3, #23
 3310 012a 15D1     		bne	.L84
 190:main.c        ****                     generalinstantaneousdataNotify = wrReqParam->handleValPair.value.val[0] & 0x01;
 3311              		.loc 1 190 0
 3312 012c B44D     		ldr	r5, .L160+100
 3313 012e 081D     		adds	r0, r1, #4
 3314 0130 2933     		adds	r3, r3, #41
 3315 0132 2A00     		movs	r2, r5
 3316 0134 0021     		movs	r1, #0
 3317              	.LVL142:
 3318 0136 FFF7FEFF 		bl	CyBle_GattsWriteAttributeValue
 3319              	.LVL143:
 191:main.c        ****                     CyBle_GattsWriteRsp(cyBle_connHandle);
 3320              		.loc 1 191 0
 3321 013a 6368     		ldr	r3, [r4, #4]
 3322 013c 1B78     		ldrb	r3, [r3]
 3323 013e 0122     		movs	r2, #1
 3324 0140 1340     		ands	r3, r2
 3325 0142 9B4A     		ldr	r2, .L160+20
 3326 0144 1360     		str	r3, [r2]
 192:main.c        ****                     DBG_PRINTF("Start/stop GENERAL ACTIVITY INSTANTANEOUS DATA Notifications \r\n")
 3327              		.loc 1 192 0
ARM GAS  C:\Users\310309~1\AppData\Local\Temp\ccu8WRKs.s 			page 81


 3328 0146 2B78     		ldrb	r3, [r5]
 3329 0148 6878     		ldrb	r0, [r5, #1]
 3330 014a 0002     		lsls	r0, r0, #8
 3331 014c 1843     		orrs	r0, r3
 3332 014e FFF7FEFF 		bl	CyBle_GattsWriteRsp
 3333              	.LVL144:
 193:main.c        ****                 }
 3334              		.loc 1 193 0
 3335 0152 AC48     		ldr	r0, .L160+104
 3336 0154 FFF7FEFF 		bl	puts
 3337              	.LVL145:
 3338              	.L84:
 196:main.c        ****                 {
 3339              		.loc 1 196 0
 3340 0158 A389     		ldrh	r3, [r4, #12]
 3341 015a 1B2B     		cmp	r3, #27
 3342 015c 15D1     		bne	.L85
 198:main.c        ****                     generalsummarydataIndicate = wrReqParam->handleValPair.value.val[0] & 0x02;
 3343              		.loc 1 198 0
 3344 015e A84D     		ldr	r5, .L160+100
 3345 0160 201D     		adds	r0, r4, #4
 3346 0162 2533     		adds	r3, r3, #37
 3347 0164 2A00     		movs	r2, r5
 3348 0166 0021     		movs	r1, #0
 3349 0168 FFF7FEFF 		bl	CyBle_GattsWriteAttributeValue
 3350              	.LVL146:
 199:main.c        ****                     CyBle_GattsWriteRsp(cyBle_connHandle);
 3351              		.loc 1 199 0
 3352 016c 6368     		ldr	r3, [r4, #4]
 3353 016e 1B78     		ldrb	r3, [r3]
 3354 0170 0222     		movs	r2, #2
 3355 0172 1340     		ands	r3, r2
 3356 0174 8F4A     		ldr	r2, .L160+24
 3357 0176 1360     		str	r3, [r2]
 200:main.c        ****                     DBG_PRINTF("Start/stop GENERAL ACTIVITY SUMMARY DATA Indications \r\n");
 3358              		.loc 1 200 0
 3359 0178 2B78     		ldrb	r3, [r5]
 3360 017a 6878     		ldrb	r0, [r5, #1]
 3361 017c 0002     		lsls	r0, r0, #8
 3362 017e 1843     		orrs	r0, r3
 3363 0180 FFF7FEFF 		bl	CyBle_GattsWriteRsp
 3364              	.LVL147:
 201:main.c        ****                 }
 3365              		.loc 1 201 0
 3366 0184 A048     		ldr	r0, .L160+108
 3367 0186 FFF7FEFF 		bl	puts
 3368              	.LVL148:
 3369              	.L85:
 204:main.c        ****                 {
 3370              		.loc 1 204 0
 3371 018a A389     		ldrh	r3, [r4, #12]
 3372 018c 1F2B     		cmp	r3, #31
 3373 018e 15D1     		bne	.L86
 206:main.c        ****                     cardiorespiratoryactivityinstantaneousdataNotify = wrReqParam->handleValPair.va
 3374              		.loc 1 206 0
 3375 0190 9B4D     		ldr	r5, .L160+100
 3376 0192 201D     		adds	r0, r4, #4
ARM GAS  C:\Users\310309~1\AppData\Local\Temp\ccu8WRKs.s 			page 82


 3377 0194 2133     		adds	r3, r3, #33
 3378 0196 2A00     		movs	r2, r5
 3379 0198 0021     		movs	r1, #0
 3380 019a FFF7FEFF 		bl	CyBle_GattsWriteAttributeValue
 3381              	.LVL149:
 207:main.c        ****                     CyBle_GattsWriteRsp(cyBle_connHandle);
 3382              		.loc 1 207 0
 3383 019e 6368     		ldr	r3, [r4, #4]
 3384 01a0 1B78     		ldrb	r3, [r3]
 3385 01a2 0122     		movs	r2, #1
 3386 01a4 1340     		ands	r3, r2
 3387 01a6 844A     		ldr	r2, .L160+28
 3388 01a8 1360     		str	r3, [r2]
 208:main.c        ****                     DBG_PRINTF("Start/stop CARDIORESPIRATORY ACTIVITY INSTANTANEOUS DATA Notificati
 3389              		.loc 1 208 0
 3390 01aa 2B78     		ldrb	r3, [r5]
 3391 01ac 6878     		ldrb	r0, [r5, #1]
 3392 01ae 0002     		lsls	r0, r0, #8
 3393 01b0 1843     		orrs	r0, r3
 3394 01b2 FFF7FEFF 		bl	CyBle_GattsWriteRsp
 3395              	.LVL150:
 209:main.c        ****                 }
 3396              		.loc 1 209 0
 3397 01b6 9548     		ldr	r0, .L160+112
 3398 01b8 FFF7FEFF 		bl	puts
 3399              	.LVL151:
 3400              	.L86:
 212:main.c        ****                 {
 3401              		.loc 1 212 0
 3402 01bc A389     		ldrh	r3, [r4, #12]
 3403 01be 232B     		cmp	r3, #35
 3404 01c0 15D1     		bne	.L87
 214:main.c        ****                     cardiorespiratoryactivitysummarydataIndicate = wrReqParam->handleValPair.value.
 3405              		.loc 1 214 0
 3406 01c2 8F4D     		ldr	r5, .L160+100
 3407 01c4 201D     		adds	r0, r4, #4
 3408 01c6 1D33     		adds	r3, r3, #29
 3409 01c8 2A00     		movs	r2, r5
 3410 01ca 0021     		movs	r1, #0
 3411 01cc FFF7FEFF 		bl	CyBle_GattsWriteAttributeValue
 3412              	.LVL152:
 215:main.c        ****                     CyBle_GattsWriteRsp(cyBle_connHandle);
 3413              		.loc 1 215 0
 3414 01d0 6368     		ldr	r3, [r4, #4]
 3415 01d2 1B78     		ldrb	r3, [r3]
 3416 01d4 0222     		movs	r2, #2
 3417 01d6 1340     		ands	r3, r2
 3418 01d8 784A     		ldr	r2, .L160+32
 3419 01da 1360     		str	r3, [r2]
 216:main.c        ****                     DBG_PRINTF("Start/stop CARDIORESPIRATORY ACTIVITY SUMMARY DATA Indications \r\n
 3420              		.loc 1 216 0
 3421 01dc 2B78     		ldrb	r3, [r5]
 3422 01de 6878     		ldrb	r0, [r5, #1]
 3423 01e0 0002     		lsls	r0, r0, #8
 3424 01e2 1843     		orrs	r0, r3
 3425 01e4 FFF7FEFF 		bl	CyBle_GattsWriteRsp
 3426              	.LVL153:
ARM GAS  C:\Users\310309~1\AppData\Local\Temp\ccu8WRKs.s 			page 83


 217:main.c        ****                 }
 3427              		.loc 1 217 0
 3428 01e8 8948     		ldr	r0, .L160+116
 3429 01ea FFF7FEFF 		bl	puts
 3430              	.LVL154:
 3431              	.L87:
 220:main.c        ****                 {
 3432              		.loc 1 220 0
 3433 01ee A389     		ldrh	r3, [r4, #12]
 3434 01f0 272B     		cmp	r3, #39
 3435 01f2 15D1     		bne	.L88
 222:main.c        ****                     stepcounteractivitysummarydataIndicate = wrReqParam->handleValPair.value.val[0]
 3436              		.loc 1 222 0
 3437 01f4 824D     		ldr	r5, .L160+100
 3438 01f6 201D     		adds	r0, r4, #4
 3439 01f8 1933     		adds	r3, r3, #25
 3440 01fa 2A00     		movs	r2, r5
 3441 01fc 0021     		movs	r1, #0
 3442 01fe FFF7FEFF 		bl	CyBle_GattsWriteAttributeValue
 3443              	.LVL155:
 223:main.c        ****                     CyBle_GattsWriteRsp(cyBle_connHandle);
 3444              		.loc 1 223 0
 3445 0202 6368     		ldr	r3, [r4, #4]
 3446 0204 1B78     		ldrb	r3, [r3]
 3447 0206 0222     		movs	r2, #2
 3448 0208 1340     		ands	r3, r2
 3449 020a 6D4A     		ldr	r2, .L160+36
 3450 020c 1360     		str	r3, [r2]
 224:main.c        ****                     DBG_PRINTF("Start/stop STEP COUNTER ACTIVITY SUMMARY DATA Indications \r\n");
 3451              		.loc 1 224 0
 3452 020e 2B78     		ldrb	r3, [r5]
 3453 0210 6878     		ldrb	r0, [r5, #1]
 3454 0212 0002     		lsls	r0, r0, #8
 3455 0214 1843     		orrs	r0, r3
 3456 0216 FFF7FEFF 		bl	CyBle_GattsWriteRsp
 3457              	.LVL156:
 225:main.c        ****                 }
 3458              		.loc 1 225 0
 3459 021a 7E48     		ldr	r0, .L160+120
 3460 021c FFF7FEFF 		bl	puts
 3461              	.LVL157:
 3462              	.L88:
 228:main.c        ****                 {
 3463              		.loc 1 228 0
 3464 0220 A389     		ldrh	r3, [r4, #12]
 3465 0222 2B2B     		cmp	r3, #43
 3466 0224 15D1     		bne	.L89
 230:main.c        ****                     sleepactivityinstantaneousdataNotify = wrReqParam->handleValPair.value.val[0] &
 3467              		.loc 1 230 0
 3468 0226 764D     		ldr	r5, .L160+100
 3469 0228 201D     		adds	r0, r4, #4
 3470 022a 1533     		adds	r3, r3, #21
 3471 022c 2A00     		movs	r2, r5
 3472 022e 0021     		movs	r1, #0
 3473 0230 FFF7FEFF 		bl	CyBle_GattsWriteAttributeValue
 3474              	.LVL158:
 231:main.c        ****                     CyBle_GattsWriteRsp(cyBle_connHandle);
ARM GAS  C:\Users\310309~1\AppData\Local\Temp\ccu8WRKs.s 			page 84


 3475              		.loc 1 231 0
 3476 0234 6368     		ldr	r3, [r4, #4]
 3477 0236 1B78     		ldrb	r3, [r3]
 3478 0238 0122     		movs	r2, #1
 3479 023a 1340     		ands	r3, r2
 3480 023c 614A     		ldr	r2, .L160+40
 3481 023e 1360     		str	r3, [r2]
 232:main.c        ****                     DBG_PRINTF("Start/stop SLEEP ACTIVITY INSTANTANEOUS DATA Notifications \r\n");
 3482              		.loc 1 232 0
 3483 0240 2B78     		ldrb	r3, [r5]
 3484 0242 6878     		ldrb	r0, [r5, #1]
 3485 0244 0002     		lsls	r0, r0, #8
 3486 0246 1843     		orrs	r0, r3
 3487 0248 FFF7FEFF 		bl	CyBle_GattsWriteRsp
 3488              	.LVL159:
 233:main.c        ****                 }
 3489              		.loc 1 233 0
 3490 024c 7248     		ldr	r0, .L160+124
 3491 024e FFF7FEFF 		bl	puts
 3492              	.LVL160:
 3493              	.L89:
 236:main.c        ****                 {
 3494              		.loc 1 236 0
 3495 0252 A389     		ldrh	r3, [r4, #12]
 3496 0254 2F2B     		cmp	r3, #47
 3497 0256 15D1     		bne	.L90
 238:main.c        ****                     sleepactivitysummarydataIndicate = wrReqParam->handleValPair.value.val[0] & 0x0
 3498              		.loc 1 238 0
 3499 0258 694D     		ldr	r5, .L160+100
 3500 025a 201D     		adds	r0, r4, #4
 3501 025c 1133     		adds	r3, r3, #17
 3502 025e 2A00     		movs	r2, r5
 3503 0260 0021     		movs	r1, #0
 3504 0262 FFF7FEFF 		bl	CyBle_GattsWriteAttributeValue
 3505              	.LVL161:
 239:main.c        ****                     CyBle_GattsWriteRsp(cyBle_connHandle);
 3506              		.loc 1 239 0
 3507 0266 6368     		ldr	r3, [r4, #4]
 3508 0268 1B78     		ldrb	r3, [r3]
 3509 026a 0222     		movs	r2, #2
 3510 026c 1340     		ands	r3, r2
 3511 026e 564A     		ldr	r2, .L160+44
 3512 0270 1360     		str	r3, [r2]
 240:main.c        ****                     DBG_PRINTF("Start/stop SLEEP ACTIVITY SUMMARY DATA Indications \r\n");
 3513              		.loc 1 240 0
 3514 0272 2B78     		ldrb	r3, [r5]
 3515 0274 6878     		ldrb	r0, [r5, #1]
 3516 0276 0002     		lsls	r0, r0, #8
 3517 0278 1843     		orrs	r0, r3
 3518 027a FFF7FEFF 		bl	CyBle_GattsWriteRsp
 3519              	.LVL162:
 241:main.c        ****                 }
 3520              		.loc 1 241 0
 3521 027e 6748     		ldr	r0, .L160+128
 3522 0280 FFF7FEFF 		bl	puts
 3523              	.LVL163:
 3524              	.L90:
ARM GAS  C:\Users\310309~1\AppData\Local\Temp\ccu8WRKs.s 			page 85


 244:main.c        ****                 {
 3525              		.loc 1 244 0
 3526 0284 A389     		ldrh	r3, [r4, #12]
 3527 0286 332B     		cmp	r3, #51
 3528 0288 15D1     		bne	.L91
 246:main.c        ****                     controlpointIndicate = wrReqParam->handleValPair.value.val[0] & 0x02;
 3529              		.loc 1 246 0
 3530 028a 5D4D     		ldr	r5, .L160+100
 3531 028c 201D     		adds	r0, r4, #4
 3532 028e 0D33     		adds	r3, r3, #13
 3533 0290 2A00     		movs	r2, r5
 3534 0292 0021     		movs	r1, #0
 3535 0294 FFF7FEFF 		bl	CyBle_GattsWriteAttributeValue
 3536              	.LVL164:
 247:main.c        ****                     CyBle_GattsWriteRsp(cyBle_connHandle);
 3537              		.loc 1 247 0
 3538 0298 6368     		ldr	r3, [r4, #4]
 3539 029a 1B78     		ldrb	r3, [r3]
 3540 029c 0222     		movs	r2, #2
 3541 029e 1340     		ands	r3, r2
 3542 02a0 4A4A     		ldr	r2, .L160+48
 3543 02a2 1360     		str	r3, [r2]
 248:main.c        ****                     DBG_PRINTF("Start/stop CONTROL POINT Indications \r\n");
 3544              		.loc 1 248 0
 3545 02a4 2B78     		ldrb	r3, [r5]
 3546 02a6 6878     		ldrb	r0, [r5, #1]
 3547 02a8 0002     		lsls	r0, r0, #8
 3548 02aa 1843     		orrs	r0, r3
 3549 02ac FFF7FEFF 		bl	CyBle_GattsWriteRsp
 3550              	.LVL165:
 249:main.c        ****                 }
 3551              		.loc 1 249 0
 3552 02b0 5B48     		ldr	r0, .L160+132
 3553 02b2 FFF7FEFF 		bl	puts
 3554              	.LVL166:
 3555              	.L91:
 252:main.c        ****                 {
 3556              		.loc 1 252 0
 3557 02b6 A389     		ldrh	r3, [r4, #12]
 3558 02b8 372B     		cmp	r3, #55
 3559 02ba 15D1     		bne	.L92
 254:main.c        ****                     currentsessionIndicate = wrReqParam->handleValPair.value.val[0] & 0x02;
 3560              		.loc 1 254 0
 3561 02bc 504D     		ldr	r5, .L160+100
 3562 02be 201D     		adds	r0, r4, #4
 3563 02c0 0933     		adds	r3, r3, #9
 3564 02c2 2A00     		movs	r2, r5
 3565 02c4 0021     		movs	r1, #0
 3566 02c6 FFF7FEFF 		bl	CyBle_GattsWriteAttributeValue
 3567              	.LVL167:
 255:main.c        ****                     CyBle_GattsWriteRsp(cyBle_connHandle);
 3568              		.loc 1 255 0
 3569 02ca 6368     		ldr	r3, [r4, #4]
 3570 02cc 1B78     		ldrb	r3, [r3]
 3571 02ce 0222     		movs	r2, #2
 3572 02d0 1340     		ands	r3, r2
 3573 02d2 3F4A     		ldr	r2, .L160+52
ARM GAS  C:\Users\310309~1\AppData\Local\Temp\ccu8WRKs.s 			page 86


 3574 02d4 1360     		str	r3, [r2]
 256:main.c        ****                     DBG_PRINTF("Start/stop CURRENT SESSION Indications \r\n");
 3575              		.loc 1 256 0
 3576 02d6 2B78     		ldrb	r3, [r5]
 3577 02d8 6878     		ldrb	r0, [r5, #1]
 3578 02da 0002     		lsls	r0, r0, #8
 3579 02dc 1843     		orrs	r0, r3
 3580 02de FFF7FEFF 		bl	CyBle_GattsWriteRsp
 3581              	.LVL168:
 257:main.c        ****                 }
 3582              		.loc 1 257 0
 3583 02e2 5048     		ldr	r0, .L160+136
 3584 02e4 FFF7FEFF 		bl	puts
 3585              	.LVL169:
 3586              	.L92:
 260:main.c        ****                 {
 3587              		.loc 1 260 0
 3588 02e8 A389     		ldrh	r3, [r4, #12]
 3589 02ea 3B2B     		cmp	r3, #59
 3590 02ec 15D1     		bne	.L93
 262:main.c        ****                     sessionDescriptorIndicate = wrReqParam->handleValPair.value.val[0] & 0x02;
 3591              		.loc 1 262 0
 3592 02ee 444D     		ldr	r5, .L160+100
 3593 02f0 201D     		adds	r0, r4, #4
 3594 02f2 0533     		adds	r3, r3, #5
 3595 02f4 2A00     		movs	r2, r5
 3596 02f6 0021     		movs	r1, #0
 3597 02f8 FFF7FEFF 		bl	CyBle_GattsWriteAttributeValue
 3598              	.LVL170:
 263:main.c        ****                     CyBle_GattsWriteRsp(cyBle_connHandle);
 3599              		.loc 1 263 0
 3600 02fc 6368     		ldr	r3, [r4, #4]
 3601 02fe 1B78     		ldrb	r3, [r3]
 3602 0300 0222     		movs	r2, #2
 3603 0302 1340     		ands	r3, r2
 3604 0304 334A     		ldr	r2, .L160+56
 3605 0306 1370     		strb	r3, [r2]
 264:main.c        ****                     DBG_PRINTF("Start/stop SESSION DESCRIPTOR Indications \r\n");
 3606              		.loc 1 264 0
 3607 0308 2B78     		ldrb	r3, [r5]
 3608 030a 6878     		ldrb	r0, [r5, #1]
 3609 030c 0002     		lsls	r0, r0, #8
 3610 030e 1843     		orrs	r0, r3
 3611 0310 FFF7FEFF 		bl	CyBle_GattsWriteRsp
 3612              	.LVL171:
 265:main.c        ****                 }
 3613              		.loc 1 265 0
 3614 0314 4448     		ldr	r0, .L160+140
 3615 0316 FFF7FEFF 		bl	puts
 3616              	.LVL172:
 3617              	.L93:
 270:main.c        ****                 {
 3618              		.loc 1 270 0
 3619 031a A389     		ldrh	r3, [r4, #12]
 3620 031c 322B     		cmp	r3, #50
 3621 031e 01D0     		beq	.LCB3425
 3622 0320 00F01FFC 		bl	.L68	@far jump
ARM GAS  C:\Users\310309~1\AppData\Local\Temp\ccu8WRKs.s 			page 87


 3623              	.LCB3425:
 3624              	.LBB16:
 272:main.c        ****                     CYBLE_GATTS_ERR_PARAM_T err;
 3625              		.loc 1 272 0
 3626 0324 201D     		adds	r0, r4, #4
 3627 0326 0E33     		adds	r3, r3, #14
 3628 0328 354A     		ldr	r2, .L160+100
 3629 032a 0021     		movs	r1, #0
 3630 032c FFF7FEFF 		bl	CyBle_GattsWriteAttributeValue
 3631              	.LVL173:
 274:main.c        ****                     err.opcode = CYBLE_GATT_WRITE_REQ;
 3632              		.loc 1 274 0
 3633 0330 A289     		ldrh	r2, [r4, #12]
 3634 0332 06AB     		add	r3, sp, #24
 3635 0334 1A80     		strh	r2, [r3]
 275:main.c        ****                     
 3636              		.loc 1 275 0
 3637 0336 1222     		movs	r2, #18
 3638 0338 9A70     		strb	r2, [r3, #2]
 277:main.c        ****                     
 3639              		.loc 1 277 0
 3640 033a 6368     		ldr	r3, [r4, #4]
 3641 033c 1978     		ldrb	r1, [r3]
 3642 033e 3B48     		ldr	r0, .L160+144
 3643 0340 FFF7FEFF 		bl	printf
 3644              	.LVL174:
 279:main.c        ****                     {
 3645              		.loc 1 279 0
 3646 0344 6268     		ldr	r2, [r4, #4]
 3647 0346 1378     		ldrb	r3, [r2]
 3648 0348 072B     		cmp	r3, #7
 3649 034a 00D9     		bls	.LCB3447
 3650 034c B9E3     		b	.L94	@long jump
 3651              	.LCB3447:
 3652 034e 9B00     		lsls	r3, r3, #2
 3653 0350 3749     		ldr	r1, .L160+148
 3654 0352 CB58     		ldr	r3, [r1, r3]
 3655 0354 9F46     		mov	pc, r3
 3656              		.section	.rodata
 3657              		.align	2
 3658              	.L96:
 3659 0170 C20A0000 		.word	.L94
 3660 0174 56030000 		.word	.L95
 3661 0178 60040000 		.word	.L97
 3662 017c 2A050000 		.word	.L98
 3663 0180 8C070000 		.word	.L99
 3664 0184 B6080000 		.word	.L100
 3665 0188 04090000 		.word	.L101
 3666 018c AE090000 		.word	.L102
 3667              		.section	.text.BleEventHandler
 3668              	.L95:
 283:main.c        ****                             if(!controlpointIndicate || !sessionDescriptorIndicate)
 3669              		.loc 1 283 0
 3670 0356 3748     		ldr	r0, .L160+152
 3671 0358 FFF7FEFF 		bl	puts
 3672              	.LVL175:
 284:main.c        ****                             {
ARM GAS  C:\Users\310309~1\AppData\Local\Temp\ccu8WRKs.s 			page 88


 3673              		.loc 1 284 0
 3674 035c 1B4B     		ldr	r3, .L160+48
 3675 035e 1B68     		ldr	r3, [r3]
 3676 0360 002B     		cmp	r3, #0
 3677 0362 03D0     		beq	.L103
 284:main.c        ****                             {
 3678              		.loc 1 284 0 is_stmt 0 discriminator 1
 3679 0364 1B4B     		ldr	r3, .L160+56
 3680 0366 1B78     		ldrb	r3, [r3]
 3681 0368 002B     		cmp	r3, #0
 3682 036a 0ED1     		bne	.L104
 3683              	.L103:
 286:main.c        ****                                 err.errorCode = CYBLE_GATT_ERR_CCCD_IMPROPERLY_CONFIGURED;
 3684              		.loc 1 286 0 is_stmt 1
 3685 036c 3248     		ldr	r0, .L160+156
 3686 036e FFF7FEFF 		bl	puts
 3687              	.LVL176:
 287:main.c        ****                                 (void)CyBle_GattsErrorRsp(cyBle_connHandle, &err);
 3688              		.loc 1 287 0
 3689 0372 06A9     		add	r1, sp, #24
 3690 0374 FD23     		movs	r3, #253
 3691 0376 CB70     		strb	r3, [r1, #3]
 288:main.c        ****                                 return;
 3692              		.loc 1 288 0
 3693 0378 214A     		ldr	r2, .L160+100
 3694 037a 1378     		ldrb	r3, [r2]
 3695 037c 5078     		ldrb	r0, [r2, #1]
 3696 037e 0002     		lsls	r0, r0, #8
 3697 0380 1843     		orrs	r0, r3
 3698 0382 FFF7FEFF 		bl	CyBle_GattsErrorRsp
 3699              	.LVL177:
 289:main.c        ****                                 
 3700              		.loc 1 289 0
 3701 0386 00F0ECFB 		bl	.L68	@ far jump
 3702              	.L104:
 292:main.c        ****                             {
 3703              		.loc 1 292 0
 3704 038a 2C4B     		ldr	r3, .L160+160
 3705 038c 1B88     		ldrh	r3, [r3]
 3706 038e 002B     		cmp	r3, #0
 3707 0390 58D0     		beq	.L106
 294:main.c        ****                             }
 3708              		.loc 1 294 0
 3709 0392 0122     		movs	r2, #1
 3710 0394 2A4B     		ldr	r3, .L160+164
 3711 0396 1A80     		strh	r2, [r3]
 303:main.c        ****                         }
 3712              		.loc 1 303 0
 3713 0398 00F0DCFB 		bl	.L107	@ far jump
 3714              	.L161:
 3715              		.align	2
 3716              	.L160:
 3717 039c 1C000000 		.word	.L71
 3718 03a0 34000000 		.word	.LC76
 3719 03a4 54000000 		.word	.LC78
 3720 03a8 5C000000 		.word	.LC80
 3721 03ac 60000000 		.word	.LC82
ARM GAS  C:\Users\310309~1\AppData\Local\Temp\ccu8WRKs.s 			page 89


 3722 03b0 00000000 		.word	generalinstantaneousdataNotify
 3723 03b4 00000000 		.word	generalsummarydataIndicate
 3724 03b8 00000000 		.word	cardiorespiratoryactivityinstantaneousdataNotify
 3725 03bc 00000000 		.word	cardiorespiratoryactivitysummarydataIndicate
 3726 03c0 00000000 		.word	stepcounteractivitysummarydataIndicate
 3727 03c4 00000000 		.word	sleepactivityinstantaneousdataNotify
 3728 03c8 00000000 		.word	sleepactivitysummarydataIndicate
 3729 03cc 00000000 		.word	controlpointIndicate
 3730 03d0 00000000 		.word	currentsessionIndicate
 3731 03d4 00000000 		.word	sessionDescriptorIndicate
 3732 03d8 84000000 		.word	.LC94
 3733 03dc A8000000 		.word	.LC96
 3734 03e0 00000000 		.word	cyBle_state
 3735 03e4 D4000000 		.word	.LC99
 3736 03e8 F0000000 		.word	.LC101
 3737 03ec 48010000 		.word	.LC103
 3738 03f0 8C010000 		.word	.LC105
 3739 03f4 C8010000 		.word	.LC107
 3740 03f8 EC010000 		.word	.LC109
 3741 03fc 24020000 		.word	.LC111
 3742 0400 00000000 		.word	cyBle_connHandle
 3743 0404 78020000 		.word	.LC114
 3744 0408 B8020000 		.word	.LC116
 3745 040c F0020000 		.word	.LC118
 3746 0410 3C030000 		.word	.LC120
 3747 0414 80030000 		.word	.LC122
 3748 0418 BC030000 		.word	.LC124
 3749 041c FC030000 		.word	.LC126
 3750 0420 34040000 		.word	.LC128
 3751 0424 5C040000 		.word	.LC130
 3752 0428 88040000 		.word	.LC132
 3753 042c B4040000 		.word	.LC134
 3754 0430 70010000 		.word	.L96
 3755 0434 DC040000 		.word	.LC137
 3756 0438 F0040000 		.word	.LC139
 3757 043c 00000000 		.word	totalSessionCount
 3758 0440 00000000 		.word	Enquire_Sessions_Requested
 3759              	.L106:
 298:main.c        ****                                 err.errorCode = ERR_NO_SESSIONS_AVAILABLE;
 3760              		.loc 1 298 0
 3761 0444 B848     		ldr	r0, .L162
 3762 0446 FFF7FEFF 		bl	puts
 3763              	.LVL178:
 299:main.c        ****                                 (void)CyBle_GattsErrorRsp(cyBle_connHandle, &err);
 3764              		.loc 1 299 0
 3765 044a 06A9     		add	r1, sp, #24
 3766 044c 8523     		movs	r3, #133
 3767 044e CB70     		strb	r3, [r1, #3]
 300:main.c        ****                                 return;
 3768              		.loc 1 300 0
 3769 0450 B64A     		ldr	r2, .L162+4
 3770 0452 1378     		ldrb	r3, [r2]
 3771 0454 5078     		ldrb	r0, [r2, #1]
 3772 0456 0002     		lsls	r0, r0, #8
 3773 0458 1843     		orrs	r0, r3
 3774 045a FFF7FEFF 		bl	CyBle_GattsErrorRsp
 3775              	.LVL179:
ARM GAS  C:\Users\310309~1\AppData\Local\Temp\ccu8WRKs.s 			page 90


 301:main.c        ****                             }
 3776              		.loc 1 301 0
 3777 045e 80E3     		b	.L68
 3778              	.L97:
 3779              	.LVL180:
 3780              	.LBB17:
 308:main.c        ****                                 else if(wrReqParam->handleValPair.value.val[1] == 0) { subSessionID
 3781              		.loc 1 308 0
 3782 0460 9378     		ldrb	r3, [r2, #2]
 3783 0462 002B     		cmp	r3, #0
 3784 0464 01D1     		bne	.L108
 308:main.c        ****                                 else if(wrReqParam->handleValPair.value.val[1] == 0) { subSessionID
 3785              		.loc 1 308 0 is_stmt 0 discriminator 1
 3786 0466 5478     		ldrb	r4, [r2, #1]
 3787              	.LVL181:
 3788 0468 08E0     		b	.L109
 3789              	.LVL182:
 3790              	.L108:
 309:main.c        ****                                 else { subSessionIDBuffer = wrReqParam->handleValPair.value.val[2] 
 3791              		.loc 1 309 0 is_stmt 1
 3792 046a 5278     		ldrb	r2, [r2, #1]
 3793 046c 002A     		cmp	r2, #0
 3794 046e 02D1     		bne	.L110
 309:main.c        ****                                 else { subSessionIDBuffer = wrReqParam->handleValPair.value.val[2] 
 3795              		.loc 1 309 0 is_stmt 0 discriminator 1
 3796 0470 FF24     		movs	r4, #255
 3797              	.LVL183:
 3798 0472 5C43     		muls	r4, r3
 3799              	.LVL184:
 3800 0474 02E0     		b	.L109
 3801              	.LVL185:
 3802              	.L110:
 310:main.c        ****                                 
 3803              		.loc 1 310 0 is_stmt 1
 3804 0476 1C02     		lsls	r4, r3, #8
 3805              	.LVL186:
 3806 0478 A418     		adds	r4, r4, r2
 3807 047a A4B2     		uxth	r4, r4
 3808              	.LVL187:
 3809              	.L109:
 312:main.c        ****                             
 3810              		.loc 1 312 0
 3811 047c 2100     		movs	r1, r4
 3812 047e AC48     		ldr	r0, .L162+8
 3813 0480 FFF7FEFF 		bl	printf
 3814              	.LVL188:
 314:main.c        ****                             {
 3815              		.loc 1 314 0
 3816 0484 AB4B     		ldr	r3, .L162+12
 3817 0486 1B68     		ldr	r3, [r3]
 3818 0488 002B     		cmp	r3, #0
 3819 048a 03D0     		beq	.L111
 314:main.c        ****                             {
 3820              		.loc 1 314 0 is_stmt 0 discriminator 1
 3821 048c AA4B     		ldr	r3, .L162+16
 3822 048e 1B78     		ldrb	r3, [r3]
 3823 0490 002B     		cmp	r3, #0
ARM GAS  C:\Users\310309~1\AppData\Local\Temp\ccu8WRKs.s 			page 91


 3824 0492 0DD1     		bne	.L112
 3825              	.L111:
 316:main.c        ****                                 err.errorCode = CYBLE_GATT_ERR_CCCD_IMPROPERLY_CONFIGURED;
 3826              		.loc 1 316 0 is_stmt 1
 3827 0494 A948     		ldr	r0, .L162+20
 3828 0496 FFF7FEFF 		bl	puts
 3829              	.LVL189:
 317:main.c        ****                                 (void)CyBle_GattsErrorRsp(cyBle_connHandle, &err);
 3830              		.loc 1 317 0
 3831 049a 06A9     		add	r1, sp, #24
 3832 049c FD23     		movs	r3, #253
 3833 049e CB70     		strb	r3, [r1, #3]
 318:main.c        ****                                 return;
 3834              		.loc 1 318 0
 3835 04a0 A24A     		ldr	r2, .L162+4
 3836 04a2 1378     		ldrb	r3, [r2]
 3837 04a4 5078     		ldrb	r0, [r2, #1]
 3838 04a6 0002     		lsls	r0, r0, #8
 3839 04a8 1843     		orrs	r0, r3
 3840 04aa FFF7FEFF 		bl	CyBle_GattsErrorRsp
 3841              	.LVL190:
 319:main.c        ****                             }
 3842              		.loc 1 319 0
 3843 04ae 58E3     		b	.L68
 3844              	.L112:
 321:main.c        ****                             {
 3845              		.loc 1 321 0
 3846 04b0 A34B     		ldr	r3, .L162+24
 3847 04b2 1B88     		ldrh	r3, [r3]
 3848 04b4 002B     		cmp	r3, #0
 3849 04b6 0DD1     		bne	.L113
 323:main.c        ****                                 err.errorCode = ERR_NO_SESSIONS_AVAILABLE;
 3850              		.loc 1 323 0
 3851 04b8 9B48     		ldr	r0, .L162
 3852 04ba FFF7FEFF 		bl	puts
 3853              	.LVL191:
 324:main.c        ****                                 (void)CyBle_GattsErrorRsp(cyBle_connHandle, &err);
 3854              		.loc 1 324 0
 3855 04be 06A9     		add	r1, sp, #24
 3856 04c0 8523     		movs	r3, #133
 3857 04c2 CB70     		strb	r3, [r1, #3]
 325:main.c        ****                                 return;
 3858              		.loc 1 325 0
 3859 04c4 994A     		ldr	r2, .L162+4
 3860 04c6 1378     		ldrb	r3, [r2]
 3861 04c8 5078     		ldrb	r0, [r2, #1]
 3862 04ca 0002     		lsls	r0, r0, #8
 3863 04cc 1843     		orrs	r0, r3
 3864 04ce FFF7FEFF 		bl	CyBle_GattsErrorRsp
 3865              	.LVL192:
 326:main.c        ****                             }
 3866              		.loc 1 326 0
 3867 04d2 46E3     		b	.L68
 3868              	.L113:
 3869              	.LBB18:
 330:main.c        ****                                 
 3870              		.loc 1 330 0
ARM GAS  C:\Users\310309~1\AppData\Local\Temp\ccu8WRKs.s 			page 92


 3871 04d4 9B4B     		ldr	r3, .L162+28
 3872 04d6 1C80     		strh	r4, [r3]
 3873              	.LVL193:
 3874              	.LBB19:
 333:main.c        ****                                 {
 3875              		.loc 1 333 0
 3876 04d8 0022     		movs	r2, #0
 3877              	.LBE19:
 332:main.c        ****                                 for(int i = 0; i < totalSubSessionCount; i++)
 3878              		.loc 1 332 0
 3879 04da 1000     		movs	r0, r2
 3880              	.LBB20:
 333:main.c        ****                                 {
 3881              		.loc 1 333 0
 3882 04dc 0DE0     		b	.L114
 3883              	.LVL194:
 3884              	.L116:
 335:main.c        ****                                     {
 3885              		.loc 1 335 0
 3886 04de D300     		lsls	r3, r2, #3
 3887 04e0 9B1A     		subs	r3, r3, r2
 3888 04e2 9B00     		lsls	r3, r3, #2
 3889 04e4 9B18     		adds	r3, r3, r2
 3890 04e6 9849     		ldr	r1, .L162+32
 3891 04e8 CB18     		adds	r3, r1, r3
 3892 04ea 5978     		ldrb	r1, [r3, #1]
 3893 04ec 9B78     		ldrb	r3, [r3, #2]
 3894 04ee 1B02     		lsls	r3, r3, #8
 3895 04f0 0B43     		orrs	r3, r1
 3896 04f2 9C42     		cmp	r4, r3
 3897 04f4 00D1     		bne	.L115
 337:main.c        ****                                     }
 3898              		.loc 1 337 0
 3899 04f6 0120     		movs	r0, #1
 3900              	.LVL195:
 3901              	.L115:
 333:main.c        ****                                 {
 3902              		.loc 1 333 0 discriminator 2
 3903 04f8 0132     		adds	r2, r2, #1
 3904              	.LVL196:
 3905              	.L114:
 333:main.c        ****                                 {
 3906              		.loc 1 333 0 is_stmt 0 discriminator 1
 3907 04fa 944B     		ldr	r3, .L162+36
 3908 04fc 1B88     		ldrh	r3, [r3]
 3909 04fe 9A42     		cmp	r2, r3
 3910 0500 EDDB     		blt	.L116
 3911              	.LBE20:
 340:main.c        ****                                 {
 3912              		.loc 1 340 0 is_stmt 1
 3913 0502 0028     		cmp	r0, #0
 3914 0504 00D0     		beq	.LCB3718
 3915 0506 25E3     		b	.L107	@long jump
 3916              	.LCB3718:
 342:main.c        ****                                     DBG_PRINTF("There are no Sessions with this ID thus no sub sess
 3917              		.loc 1 342 0
 3918 0508 0022     		movs	r2, #0
ARM GAS  C:\Users\310309~1\AppData\Local\Temp\ccu8WRKs.s 			page 93


 3919              	.LVL197:
 3920 050a 8E4B     		ldr	r3, .L162+28
 3921 050c 1A80     		strh	r2, [r3]
 343:main.c        ****                                     err.errorCode = ERR_INVALID_SESSION_ID;
 3922              		.loc 1 343 0
 3923 050e 9048     		ldr	r0, .L162+40
 3924              	.LVL198:
 3925 0510 FFF7FEFF 		bl	puts
 3926              	.LVL199:
 344:main.c        ****                                     (void)CyBle_GattsErrorRsp(cyBle_connHandle, &err);
 3927              		.loc 1 344 0
 3928 0514 06A9     		add	r1, sp, #24
 3929 0516 8123     		movs	r3, #129
 3930 0518 CB70     		strb	r3, [r1, #3]
 345:main.c        ****                                     return;
 3931              		.loc 1 345 0
 3932 051a 844A     		ldr	r2, .L162+4
 3933 051c 1378     		ldrb	r3, [r2]
 3934 051e 5078     		ldrb	r0, [r2, #1]
 3935 0520 0002     		lsls	r0, r0, #8
 3936 0522 1843     		orrs	r0, r3
 3937 0524 FFF7FEFF 		bl	CyBle_GattsErrorRsp
 3938              	.LVL200:
 346:main.c        ****                                 }
 3939              		.loc 1 346 0
 3940 0528 1BE3     		b	.L68
 3941              	.LVL201:
 3942              	.L98:
 3943              	.LBE18:
 3944              	.LBE17:
 353:main.c        ****                         {
 3945              		.loc 1 353 0
 3946 052a 824B     		ldr	r3, .L162+12
 3947 052c 1B68     		ldr	r3, [r3]
 3948 052e 002B     		cmp	r3, #0
 3949 0530 0DD1     		bne	.L117
 355:main.c        ****                             err.errorCode = CYBLE_GATT_ERR_CCCD_IMPROPERLY_CONFIGURED;
 3950              		.loc 1 355 0
 3951 0532 8848     		ldr	r0, .L162+44
 3952 0534 FFF7FEFF 		bl	puts
 3953              	.LVL202:
 356:main.c        ****                             (void)CyBle_GattsErrorRsp(cyBle_connHandle, &err);
 3954              		.loc 1 356 0
 3955 0538 06A9     		add	r1, sp, #24
 3956 053a FD23     		movs	r3, #253
 3957 053c CB70     		strb	r3, [r1, #3]
 357:main.c        ****                             return;
 3958              		.loc 1 357 0
 3959 053e 7B4A     		ldr	r2, .L162+4
 3960 0540 1378     		ldrb	r3, [r2]
 3961 0542 5078     		ldrb	r0, [r2, #1]
 3962 0544 0002     		lsls	r0, r0, #8
 3963 0546 1843     		orrs	r0, r3
 3964 0548 FFF7FEFF 		bl	CyBle_GattsErrorRsp
 3965              	.LVL203:
 358:main.c        ****                         }
 3966              		.loc 1 358 0
ARM GAS  C:\Users\310309~1\AppData\Local\Temp\ccu8WRKs.s 			page 94


 3967 054c 09E3     		b	.L68
 3968              	.L117:
 360:main.c        ****                         {
 3969              		.loc 1 360 0
 3970 054e 7C4B     		ldr	r3, .L162+24
 3971 0550 1888     		ldrh	r0, [r3]
 3972 0552 0028     		cmp	r0, #0
 3973 0554 0DD1     		bne	.L118
 362:main.c        ****                             err.errorCode = ERR_NO_SESSIONS_AVAILABLE;
 3974              		.loc 1 362 0
 3975 0556 7448     		ldr	r0, .L162
 3976 0558 FFF7FEFF 		bl	puts
 3977              	.LVL204:
 363:main.c        ****                             (void)CyBle_GattsErrorRsp(cyBle_connHandle, &err);
 3978              		.loc 1 363 0
 3979 055c 06A9     		add	r1, sp, #24
 3980 055e 8523     		movs	r3, #133
 3981 0560 CB70     		strb	r3, [r1, #3]
 364:main.c        ****                         }
 3982              		.loc 1 364 0
 3983 0562 724A     		ldr	r2, .L162+4
 3984 0564 1378     		ldrb	r3, [r2]
 3985 0566 5078     		ldrb	r0, [r2, #1]
 3986 0568 0002     		lsls	r0, r0, #8
 3987 056a 1843     		orrs	r0, r3
 3988 056c FFF7FEFF 		bl	CyBle_GattsErrorRsp
 3989              	.LVL205:
 3990 0570 F0E2     		b	.L107
 3991              	.L118:
 366:main.c        ****                         {
 3992              		.loc 1 366 0
 3993 0572 5579     		ldrb	r5, [r2, #5]
 3994 0574 062D     		cmp	r5, #6
 3995 0576 0DD9     		bls	.L119
 368:main.c        ****                             err.errorCode = CYBLE_GATT_ERR_OP_CODE_NOT_SUPPORTED;
 3996              		.loc 1 368 0
 3997 0578 7748     		ldr	r0, .L162+48
 3998 057a FFF7FEFF 		bl	puts
 3999              	.LVL206:
 369:main.c        ****                             CyBle_GattsErrorRsp(cyBle_connHandle, &err);
 4000              		.loc 1 369 0
 4001 057e 06A9     		add	r1, sp, #24
 4002 0580 8023     		movs	r3, #128
 4003 0582 CB70     		strb	r3, [r1, #3]
 370:main.c        ****                             return;
 4004              		.loc 1 370 0
 4005 0584 694A     		ldr	r2, .L162+4
 4006 0586 1378     		ldrb	r3, [r2]
 4007 0588 5078     		ldrb	r0, [r2, #1]
 4008 058a 0002     		lsls	r0, r0, #8
 4009 058c 1843     		orrs	r0, r3
 4010 058e FFF7FEFF 		bl	CyBle_GattsErrorRsp
 4011              	.LVL207:
 371:main.c        ****                         }
 4012              		.loc 1 371 0
 4013 0592 E6E2     		b	.L68
 4014              	.L119:
ARM GAS  C:\Users\310309~1\AppData\Local\Temp\ccu8WRKs.s 			page 95


 4015              	.LVL208:
 4016              	.LBB21:
 377:main.c        ****                             else if(wrReqParam->handleValPair.value.val[1] == 0) { Get_Ended_Data_S
 4017              		.loc 1 377 0
 4018 0594 9378     		ldrb	r3, [r2, #2]
 4019 0596 002B     		cmp	r3, #0
 4020 0598 03D1     		bne	.L120
 377:main.c        ****                             else if(wrReqParam->handleValPair.value.val[1] == 0) { Get_Ended_Data_S
 4021              		.loc 1 377 0 is_stmt 0 discriminator 1
 4022 059a 5178     		ldrb	r1, [r2, #1]
 4023 059c 6F4B     		ldr	r3, .L162+52
 4024 059e 1980     		strh	r1, [r3]
 4025 05a0 0BE0     		b	.L121
 4026              	.L120:
 378:main.c        ****                             else { Get_Ended_Data_SessionID = wrReqParam->handleValPair.value.val[2
 4027              		.loc 1 378 0 is_stmt 1
 4028 05a2 5178     		ldrb	r1, [r2, #1]
 4029 05a4 0029     		cmp	r1, #0
 4030 05a6 04D1     		bne	.L122
 378:main.c        ****                             else { Get_Ended_Data_SessionID = wrReqParam->handleValPair.value.val[2
 4031              		.loc 1 378 0 is_stmt 0 discriminator 1
 4032 05a8 FF31     		adds	r1, r1, #255
 4033 05aa 4B43     		muls	r3, r1
 4034 05ac 6B49     		ldr	r1, .L162+52
 4035 05ae 0B80     		strh	r3, [r1]
 4036 05b0 03E0     		b	.L121
 4037              	.L122:
 379:main.c        ****                             
 4038              		.loc 1 379 0 is_stmt 1
 4039 05b2 1B02     		lsls	r3, r3, #8
 4040 05b4 5B18     		adds	r3, r3, r1
 4041 05b6 6949     		ldr	r1, .L162+52
 4042 05b8 0B80     		strh	r3, [r1]
 4043              	.L121:
 381:main.c        ****                             else if(wrReqParam->handleValPair.value.val[3] == 0) { Get_Ended_Data_S
 4044              		.loc 1 381 0
 4045 05ba 1379     		ldrb	r3, [r2, #4]
 4046 05bc 002B     		cmp	r3, #0
 4047 05be 03D1     		bne	.L123
 381:main.c        ****                             else if(wrReqParam->handleValPair.value.val[3] == 0) { Get_Ended_Data_S
 4048              		.loc 1 381 0 is_stmt 0 discriminator 1
 4049 05c0 D278     		ldrb	r2, [r2, #3]
 4050 05c2 674B     		ldr	r3, .L162+56
 4051 05c4 1A80     		strh	r2, [r3]
 4052 05c6 0BE0     		b	.L124
 4053              	.L123:
 382:main.c        ****                             else { Get_Ended_Data_Sub_SessionID = wrReqParam->handleValPair.value.v
 4054              		.loc 1 382 0 is_stmt 1
 4055 05c8 D278     		ldrb	r2, [r2, #3]
 4056 05ca 002A     		cmp	r2, #0
 4057 05cc 04D1     		bne	.L125
 382:main.c        ****                             else { Get_Ended_Data_Sub_SessionID = wrReqParam->handleValPair.value.v
 4058              		.loc 1 382 0 is_stmt 0 discriminator 1
 4059 05ce FF32     		adds	r2, r2, #255
 4060 05d0 5343     		muls	r3, r2
 4061 05d2 634A     		ldr	r2, .L162+56
 4062 05d4 1380     		strh	r3, [r2]
ARM GAS  C:\Users\310309~1\AppData\Local\Temp\ccu8WRKs.s 			page 96


 4063 05d6 03E0     		b	.L124
 4064              	.L125:
 383:main.c        ****                             
 4065              		.loc 1 383 0 is_stmt 1
 4066 05d8 1B02     		lsls	r3, r3, #8
 4067 05da 9B18     		adds	r3, r3, r2
 4068 05dc 604A     		ldr	r2, .L162+56
 4069 05de 1380     		strh	r3, [r2]
 4070              	.L124:
 385:main.c        ****                             
 4071              		.loc 1 385 0
 4072 05e0 604B     		ldr	r3, .L162+60
 4073 05e2 1D70     		strb	r5, [r3]
 4074              	.LVL209:
 4075              	.LBB22:
 387:main.c        ****                             {
 4076              		.loc 1 387 0
 4077 05e4 0022     		movs	r2, #0
 4078              	.LBE22:
 376:main.c        ****                             if(wrReqParam->handleValPair.value.val[2] == 0) { Get_Ended_Data_Sessio
 4079              		.loc 1 376 0
 4080 05e6 1600     		movs	r6, r2
 375:main.c        ****                             CYBIT foundRunningSession = NO;
 4081              		.loc 1 375 0
 4082 05e8 1500     		movs	r5, r2
 4083              	.LBB23:
 387:main.c        ****                             {
 4084              		.loc 1 387 0
 4085 05ea 1AE0     		b	.L126
 4086              	.LVL210:
 4087              	.L128:
 389:main.c        ****                                 {
 4088              		.loc 1 389 0
 4089 05ec D300     		lsls	r3, r2, #3
 4090 05ee 9B1A     		subs	r3, r3, r2
 4091 05f0 9B00     		lsls	r3, r3, #2
 4092 05f2 9B18     		adds	r3, r3, r2
 4093 05f4 5C49     		ldr	r1, .L162+64
 4094 05f6 CB18     		adds	r3, r1, r3
 4095 05f8 5978     		ldrb	r1, [r3, #1]
 4096 05fa 9B78     		ldrb	r3, [r3, #2]
 4097 05fc 1B02     		lsls	r3, r3, #8
 4098 05fe 0B43     		orrs	r3, r1
 4099 0600 5649     		ldr	r1, .L162+52
 4100 0602 0988     		ldrh	r1, [r1]
 4101 0604 8B42     		cmp	r3, r1
 4102 0606 0BD1     		bne	.L127
 4103              	.LVL211:
 392:main.c        ****                                     {
 4104              		.loc 1 392 0
 4105 0608 D300     		lsls	r3, r2, #3
 4106 060a 9B1A     		subs	r3, r3, r2
 4107 060c 9B00     		lsls	r3, r3, #2
 4108 060e 9B18     		adds	r3, r3, r2
 4109 0610 5549     		ldr	r1, .L162+64
 4110 0612 5B5C     		ldrb	r3, [r3, r1]
 4111 0614 9B07     		lsls	r3, r3, #30
ARM GAS  C:\Users\310309~1\AppData\Local\Temp\ccu8WRKs.s 			page 97


 4112 0616 01D4     		bmi	.L154
 391:main.c        ****                                     if(CHECK_BIT(mySessions[i].Flags, SESSION_SUB_SESSION_RUNNING_F
 4113              		.loc 1 391 0
 4114 0618 0125     		movs	r5, #1
 4115 061a 01E0     		b	.L127
 4116              	.L154:
 395:main.c        ****                                     }
 4117              		.loc 1 395 0
 4118 061c 0126     		movs	r6, #1
 4119              	.LVL212:
 394:main.c        ****                                         foundRunningSession = YES;
 4120              		.loc 1 394 0
 4121 061e 0025     		movs	r5, #0
 4122              	.LVL213:
 4123              	.L127:
 387:main.c        ****                             {
 4124              		.loc 1 387 0 discriminator 2
 4125 0620 0132     		adds	r2, r2, #1
 4126              	.LVL214:
 4127              	.L126:
 387:main.c        ****                             {
 4128              		.loc 1 387 0 is_stmt 0 discriminator 1
 4129 0622 8242     		cmp	r2, r0
 4130 0624 E2DB     		blt	.L128
 4131              	.LBE23:
 400:main.c        ****                             {
 4132              		.loc 1 400 0 is_stmt 1
 4133 0626 002E     		cmp	r6, #0
 4134 0628 13D0     		beq	.L129
 402:main.c        ****                                 Get_Ended_Data_SessionID = 0;
 4135              		.loc 1 402 0
 4136 062a 4C4C     		ldr	r4, .L162+52
 4137              	.LVL215:
 4138 062c 2188     		ldrh	r1, [r4]
 4139 062e 4F48     		ldr	r0, .L162+68
 4140 0630 FFF7FEFF 		bl	printf
 4141              	.LVL216:
 403:main.c        ****                                 Get_Ended_Data_Sub_SessionID = 0;
 4142              		.loc 1 403 0
 4143 0634 0023     		movs	r3, #0
 4144 0636 2380     		strh	r3, [r4]
 404:main.c        ****                                 err.errorCode = ERR_SESSION_STILL_RUNNING;
 4145              		.loc 1 404 0
 4146 0638 494A     		ldr	r2, .L162+56
 4147 063a 1380     		strh	r3, [r2]
 405:main.c        ****                                 (void)CyBle_GattsErrorRsp(cyBle_connHandle, &err);
 4148              		.loc 1 405 0
 4149 063c 06A9     		add	r1, sp, #24
 4150 063e 8333     		adds	r3, r3, #131
 4151 0640 CB70     		strb	r3, [r1, #3]
 406:main.c        ****                                 return;
 4152              		.loc 1 406 0
 4153 0642 3A4A     		ldr	r2, .L162+4
 4154 0644 1378     		ldrb	r3, [r2]
 4155 0646 5078     		ldrb	r0, [r2, #1]
 4156 0648 0002     		lsls	r0, r0, #8
 4157 064a 1843     		orrs	r0, r3
ARM GAS  C:\Users\310309~1\AppData\Local\Temp\ccu8WRKs.s 			page 98


 4158 064c FFF7FEFF 		bl	CyBle_GattsErrorRsp
 4159              	.LVL217:
 407:main.c        ****                             }
 4160              		.loc 1 407 0
 4161 0650 87E2     		b	.L68
 4162              	.LVL218:
 4163              	.L129:
 409:main.c        ****                             {
 4164              		.loc 1 409 0
 4165 0652 002D     		cmp	r5, #0
 4166 0654 33D1     		bne	.L155
 411:main.c        ****                                 Get_Ended_Data_SessionID = 0;
 4167              		.loc 1 411 0
 4168 0656 414C     		ldr	r4, .L162+52
 4169              	.LVL219:
 4170 0658 2188     		ldrh	r1, [r4]
 4171 065a 4548     		ldr	r0, .L162+72
 4172 065c FFF7FEFF 		bl	printf
 4173              	.LVL220:
 412:main.c        ****                                 Get_Ended_Data_Sub_SessionID = 0;
 4174              		.loc 1 412 0
 4175 0660 0023     		movs	r3, #0
 4176 0662 2380     		strh	r3, [r4]
 413:main.c        ****                                 err.errorCode = ERR_INVALID_SESSION_ID;
 4177              		.loc 1 413 0
 4178 0664 3E4A     		ldr	r2, .L162+56
 4179 0666 1380     		strh	r3, [r2]
 414:main.c        ****                                 CyBle_GattsErrorRsp(cyBle_connHandle, &err);
 4180              		.loc 1 414 0
 4181 0668 06A9     		add	r1, sp, #24
 4182 066a 8133     		adds	r3, r3, #129
 4183 066c CB70     		strb	r3, [r1, #3]
 415:main.c        ****                                 return;
 4184              		.loc 1 415 0
 4185 066e 2F4A     		ldr	r2, .L162+4
 4186 0670 1378     		ldrb	r3, [r2]
 4187 0672 5078     		ldrb	r0, [r2, #1]
 4188 0674 0002     		lsls	r0, r0, #8
 4189 0676 1843     		orrs	r0, r3
 4190 0678 FFF7FEFF 		bl	CyBle_GattsErrorRsp
 4191              	.LVL221:
 416:main.c        ****                             }
 4192              		.loc 1 416 0
 4193 067c 71E2     		b	.L68
 4194              	.LVL222:
 4195              	.L132:
 4196              	.LBB24:
 422:main.c        ****                                 && Get_Ended_Data_SessionID == mySubSessions[i].SessionID)
 4197              		.loc 1 422 0
 4198 067e D300     		lsls	r3, r2, #3
 4199 0680 9B1A     		subs	r3, r3, r2
 4200 0682 9B00     		lsls	r3, r3, #2
 4201 0684 9B18     		adds	r3, r3, r2
 4202 0686 3049     		ldr	r1, .L162+32
 4203 0688 CB18     		adds	r3, r1, r3
 4204 068a D97B     		ldrb	r1, [r3, #15]
 4205 068c 0833     		adds	r3, r3, #8
ARM GAS  C:\Users\310309~1\AppData\Local\Temp\ccu8WRKs.s 			page 99


 4206 068e 1B7A     		ldrb	r3, [r3, #8]
 4207 0690 1B02     		lsls	r3, r3, #8
 4208 0692 0B43     		orrs	r3, r1
 4209 0694 3249     		ldr	r1, .L162+56
 4210 0696 0988     		ldrh	r1, [r1]
 4211 0698 8B42     		cmp	r3, r1
 4212 069a 0ED1     		bne	.L131
 423:main.c        ****                                 {
 4213              		.loc 1 423 0
 4214 069c D300     		lsls	r3, r2, #3
 4215 069e 9B1A     		subs	r3, r3, r2
 4216 06a0 9B00     		lsls	r3, r3, #2
 4217 06a2 9B18     		adds	r3, r3, r2
 4218 06a4 2849     		ldr	r1, .L162+32
 4219 06a6 CB18     		adds	r3, r1, r3
 4220 06a8 5978     		ldrb	r1, [r3, #1]
 4221 06aa 9B78     		ldrb	r3, [r3, #2]
 4222 06ac 1B02     		lsls	r3, r3, #8
 4223 06ae 0B43     		orrs	r3, r1
 4224 06b0 2A49     		ldr	r1, .L162+52
 4225 06b2 0988     		ldrh	r1, [r1]
 4226 06b4 8B42     		cmp	r3, r1
 4227 06b6 00D1     		bne	.L131
 425:main.c        ****                                 }
 4228              		.loc 1 425 0
 4229 06b8 0120     		movs	r0, #1
 4230              	.LVL223:
 4231              	.L131:
 420:main.c        ****                             {
 4232              		.loc 1 420 0 discriminator 2
 4233 06ba 0132     		adds	r2, r2, #1
 4234              	.LVL224:
 4235 06bc 01E0     		b	.L130
 4236              	.LVL225:
 4237              	.L155:
 4238              	.LBE24:
 4239 06be 0022     		movs	r2, #0
 4240              	.LVL226:
 4241 06c0 1000     		movs	r0, r2
 4242              	.L130:
 4243              	.LVL227:
 4244              	.LBB25:
 420:main.c        ****                             {
 4245              		.loc 1 420 0 is_stmt 0 discriminator 1
 4246 06c2 224B     		ldr	r3, .L162+36
 4247 06c4 1B88     		ldrh	r3, [r3]
 4248 06c6 9A42     		cmp	r2, r3
 4249 06c8 D9DB     		blt	.L132
 4250              	.LBE25:
 429:main.c        ****                             {
 4251              		.loc 1 429 0 is_stmt 1
 4252 06ca 254B     		ldr	r3, .L162+56
 4253 06cc 1988     		ldrh	r1, [r3]
 4254 06ce 294B     		ldr	r3, .L162+76
 4255 06d0 9942     		cmp	r1, r3
 4256 06d2 00D1     		bne	.L133
 431:main.c        ****                             }
ARM GAS  C:\Users\310309~1\AppData\Local\Temp\ccu8WRKs.s 			page 100


 4257              		.loc 1 431 0
 4258 06d4 0120     		movs	r0, #1
 4259              	.LVL228:
 4260              	.L133:
 434:main.c        ****                             {
 4261              		.loc 1 434 0
 4262 06d6 0028     		cmp	r0, #0
 4263 06d8 12D1     		bne	.L134
 436:main.c        ****                                 Get_Ended_Data_SessionID = 0;
 4264              		.loc 1 436 0
 4265 06da 2748     		ldr	r0, .L162+80
 4266              	.LVL229:
 4267 06dc FFF7FEFF 		bl	printf
 4268              	.LVL230:
 437:main.c        ****                                 Get_Ended_Data_Sub_SessionID = 0;
 4269              		.loc 1 437 0
 4270 06e0 0023     		movs	r3, #0
 4271 06e2 1E4A     		ldr	r2, .L162+52
 4272 06e4 1380     		strh	r3, [r2]
 438:main.c        ****                                 err.errorCode = ERR_INVALID_SUB_SESSION_ID;
 4273              		.loc 1 438 0
 4274 06e6 1E4A     		ldr	r2, .L162+56
 4275 06e8 1380     		strh	r3, [r2]
 439:main.c        ****                                 (void)CyBle_GattsErrorRsp(cyBle_connHandle, &err);
 4276              		.loc 1 439 0
 4277 06ea 06A9     		add	r1, sp, #24
 4278 06ec 8233     		adds	r3, r3, #130
 4279 06ee CB70     		strb	r3, [r1, #3]
 440:main.c        ****                                 return;
 4280              		.loc 1 440 0
 4281 06f0 0E4A     		ldr	r2, .L162+4
 4282 06f2 1378     		ldrb	r3, [r2]
 4283 06f4 5078     		ldrb	r0, [r2, #1]
 4284 06f6 0002     		lsls	r0, r0, #8
 4285 06f8 1843     		orrs	r0, r3
 4286 06fa FFF7FEFF 		bl	CyBle_GattsErrorRsp
 4287              	.LVL231:
 441:main.c        ****                             }
 4288              		.loc 1 441 0
 4289 06fe 30E2     		b	.L68
 4290              	.LVL232:
 4291              	.L134:
 445:main.c        ****                                 DBG_PRINTF("SessionID: %i \r\n", Get_Ended_Data_SessionID);
 4292              		.loc 1 445 0
 4293 0700 1E48     		ldr	r0, .L162+84
 4294              	.LVL233:
 4295 0702 FFF7FEFF 		bl	puts
 4296              	.LVL234:
 446:main.c        ****                                 DBG_PRINTF("Sub-SessionID: %i \r\n", Get_Ended_Data_Sub_SessionID);
 4297              		.loc 1 446 0
 4298 0706 154B     		ldr	r3, .L162+52
 4299 0708 1988     		ldrh	r1, [r3]
 4300 070a 1D48     		ldr	r0, .L162+88
 4301 070c FFF7FEFF 		bl	printf
 4302              	.LVL235:
 447:main.c        ****                                 DBG_PRINTF("Characteristic %i (0 = GAI, 1 = GAS, 2 = CRAI, 3 = CRAS
 4303              		.loc 1 447 0
ARM GAS  C:\Users\310309~1\AppData\Local\Temp\ccu8WRKs.s 			page 101


 4304 0710 134B     		ldr	r3, .L162+56
 4305 0712 1988     		ldrh	r1, [r3]
 4306 0714 1B48     		ldr	r0, .L162+92
 4307 0716 FFF7FEFF 		bl	printf
 4308              	.LVL236:
 448:main.c        ****                             }
 4309              		.loc 1 448 0
 4310 071a 6368     		ldr	r3, [r4, #4]
 4311 071c 5979     		ldrb	r1, [r3, #5]
 4312 071e 1A48     		ldr	r0, .L162+96
 4313 0720 FFF7FEFF 		bl	printf
 4314              	.LVL237:
 4315 0724 16E2     		b	.L107
 4316              	.L163:
 4317 0726 C046     		.align	2
 4318              	.L162:
 4319 0728 3C050000 		.word	.LC143
 4320 072c 00000000 		.word	cyBle_connHandle
 4321 0730 64050000 		.word	.LC145
 4322 0734 00000000 		.word	controlpointIndicate
 4323 0738 00000000 		.word	sessionDescriptorIndicate
 4324 073c F0040000 		.word	.LC139
 4325 0740 00000000 		.word	totalSessionCount
 4326 0744 00000000 		.word	Enquire_Sub_Sessions_Requested_For_ID
 4327 0748 00000000 		.word	mySubSessions
 4328 074c 00000000 		.word	totalSubSessionCount
 4329 0750 98050000 		.word	.LC150
 4330 0754 E4050000 		.word	.LC152
 4331 0758 1C060000 		.word	.LC154
 4332 075c 00000000 		.word	Get_Ended_Data_SessionID
 4333 0760 00000000 		.word	Get_Ended_Data_Sub_SessionID
 4334 0764 00000000 		.word	Get_Ended_Data_Value
 4335 0768 00000000 		.word	mySessions
 4336 076c 34060000 		.word	.LC160
 4337 0770 5C060000 		.word	.LC162
 4338 0774 FFFF0000 		.word	65535
 4339 0778 88060000 		.word	.LC164
 4340 077c B8060000 		.word	.LC166
 4341 0780 D0060000 		.word	.LC168
 4342 0784 E4060000 		.word	.LC170
 4343 0788 FC060000 		.word	.LC172
 4344              	.LVL238:
 4345              	.L99:
 4346              	.LBE21:
 455:main.c        ****                         {
 4347              		.loc 1 455 0
 4348 078c 5378     		ldrb	r3, [r2, #1]
 4349 078e 002B     		cmp	r3, #0
 4350 0790 42D1     		bne	.L135
 457:main.c        ****                             add_session(mySessions, buildNewSession(sessionCount, 0), &totalSession
 4351              		.loc 1 457 0
 4352 0792 D34E     		ldr	r6, .L164
 4353 0794 3188     		ldrh	r1, [r6]
 4354 0796 0131     		adds	r1, r1, #1
 4355 0798 89B2     		uxth	r1, r1
 4356 079a 3180     		strh	r1, [r6]
 458:main.c        ****                             subsessionCount = 1;
ARM GAS  C:\Users\310309~1\AppData\Local\Temp\ccu8WRKs.s 			page 102


 4357              		.loc 1 458 0
 4358 079c 0022     		movs	r2, #0
 4359 079e 08A8     		add	r0, sp, #32
 4360 07a0 FFF7FEFF 		bl	buildNewSession
 4361              	.LVL239:
 4362 07a4 CF4F     		ldr	r7, .L164+4
 4363 07a6 0597     		str	r7, [sp, #20]
 4364 07a8 6C46     		mov	r4, sp
 4365              	.LVL240:
 4366 07aa 0BAB     		add	r3, sp, #44
 4367 07ac 07CB     		ldmia	r3!, {r0, r1, r2}
 4368 07ae 07C4     		stmia	r4!, {r0, r1, r2}
 4369 07b0 1A68     		ldr	r2, [r3]
 4370 07b2 2260     		str	r2, [r4]
 4371 07b4 1B79     		ldrb	r3, [r3, #4]
 4372 07b6 2371     		strb	r3, [r4, #4]
 4373 07b8 0899     		ldr	r1, [sp, #32]
 4374 07ba 099A     		ldr	r2, [sp, #36]
 4375 07bc 0A9B     		ldr	r3, [sp, #40]
 4376 07be CA48     		ldr	r0, .L164+8
 4377 07c0 FFF7FEFF 		bl	add_session
 4378              	.LVL241:
 459:main.c        ****                             add_session(mySubSessions, buildNewSession(totalSessionCount, subsessio
 4379              		.loc 1 459 0
 4380 07c4 0122     		movs	r2, #1
 4381 07c6 C94B     		ldr	r3, .L164+12
 4382 07c8 1A80     		strh	r2, [r3]
 460:main.c        ****                             UpdateCurrSession(&mySubSessions[totalSubSessionCount - 1]);
 4383              		.loc 1 460 0
 4384 07ca 3988     		ldrh	r1, [r7]
 4385 07cc 10A8     		add	r0, sp, #64
 4386 07ce FFF7FEFF 		bl	buildNewSession
 4387              	.LVL242:
 4388 07d2 C74B     		ldr	r3, .L164+16
 4389 07d4 9946     		mov	r9, r3
 4390 07d6 C74B     		ldr	r3, .L164+20
 4391 07d8 9846     		mov	r8, r3
 4392 07da 0593     		str	r3, [sp, #20]
 4393 07dc 13AB     		add	r3, sp, #76
 4394 07de 6A46     		mov	r2, sp
 4395 07e0 23CB     		ldmia	r3!, {r0, r1, r5}
 4396 07e2 23C2     		stmia	r2!, {r0, r1, r5}
 4397 07e4 1A68     		ldr	r2, [r3]
 4398 07e6 2260     		str	r2, [r4]
 4399 07e8 1B79     		ldrb	r3, [r3, #4]
 4400 07ea 2371     		strb	r3, [r4, #4]
 4401 07ec 1099     		ldr	r1, [sp, #64]
 4402 07ee 119A     		ldr	r2, [sp, #68]
 4403 07f0 129B     		ldr	r3, [sp, #72]
 4404 07f2 4846     		mov	r0, r9
 4405 07f4 FFF7FEFF 		bl	add_session
 4406              	.LVL243:
 461:main.c        ****                             DBG_PRINTF("Start Session with session ID: %i\r\n Total sessions: %i \r
 4407              		.loc 1 461 0
 4408 07f8 4346     		mov	r3, r8
 4409 07fa 1888     		ldrh	r0, [r3]
 4410 07fc 0138     		subs	r0, r0, #1
ARM GAS  C:\Users\310309~1\AppData\Local\Temp\ccu8WRKs.s 			page 103


 4411 07fe 1D23     		movs	r3, #29
 4412 0800 5843     		muls	r0, r3
 4413 0802 4844     		add	r0, r0, r9
 4414 0804 FFF7FEFF 		bl	UpdateCurrSession
 4415              	.LVL244:
 462:main.c        ****                         }
 4416              		.loc 1 462 0
 4417 0808 4346     		mov	r3, r8
 4418 080a 1B88     		ldrh	r3, [r3]
 4419 080c 3A88     		ldrh	r2, [r7]
 4420 080e 3188     		ldrh	r1, [r6]
 4421 0810 B948     		ldr	r0, .L164+24
 4422 0812 FFF7FEFF 		bl	printf
 4423              	.LVL245:
 4424 0816 9DE1     		b	.L107
 4425              	.LVL246:
 4426              	.L135:
 464:main.c        ****                         {
 4427              		.loc 1 464 0
 4428 0818 012B     		cmp	r3, #1
 4429 081a 3ED1     		bne	.L136
 466:main.c        ****                             {
 4430              		.loc 1 466 0
 4431 081c B14B     		ldr	r3, .L164+4
 4432 081e 1988     		ldrh	r1, [r3]
 4433 0820 0029     		cmp	r1, #0
 4434 0822 2CD0     		beq	.L137
 468:main.c        ****                                 add_session(mySubSessions, buildNewSession(totalSessionCount, subse
 4435              		.loc 1 468 0
 4436 0824 B14E     		ldr	r6, .L164+12
 4437 0826 3288     		ldrh	r2, [r6]
 4438 0828 0132     		adds	r2, r2, #1
 4439 082a 92B2     		uxth	r2, r2
 4440 082c 3280     		strh	r2, [r6]
 469:main.c        ****                                 UpdateCurrSession(&mySubSessions[totalSubSessionCount - 1]);
 4441              		.loc 1 469 0
 4442 082e 18A8     		add	r0, sp, #96
 4443 0830 FFF7FEFF 		bl	buildNewSession
 4444              	.LVL247:
 4445 0834 AE4C     		ldr	r4, .L164+16
 4446              	.LVL248:
 4447 0836 AF4D     		ldr	r5, .L164+20
 4448 0838 0595     		str	r5, [sp, #20]
 4449 083a 6A46     		mov	r2, sp
 4450 083c 1BAB     		add	r3, sp, #108
 4451 083e 83CB     		ldmia	r3!, {r0, r1, r7}
 4452 0840 83C2     		stmia	r2!, {r0, r1, r7}
 4453 0842 1968     		ldr	r1, [r3]
 4454 0844 1160     		str	r1, [r2]
 4455 0846 1B79     		ldrb	r3, [r3, #4]
 4456 0848 1371     		strb	r3, [r2, #4]
 4457 084a 1899     		ldr	r1, [sp, #96]
 4458 084c 199A     		ldr	r2, [sp, #100]
 4459 084e 1A9B     		ldr	r3, [sp, #104]
 4460 0850 2000     		movs	r0, r4
 4461 0852 FFF7FEFF 		bl	add_session
 4462              	.LVL249:
ARM GAS  C:\Users\310309~1\AppData\Local\Temp\ccu8WRKs.s 			page 104


 470:main.c        ****                                 DBG_PRINTF("Start Sub-Session with sub session ID: %i into sessionI
 4463              		.loc 1 470 0
 4464 0856 2888     		ldrh	r0, [r5]
 4465 0858 0138     		subs	r0, r0, #1
 4466 085a 1D23     		movs	r3, #29
 4467 085c 5843     		muls	r0, r3
 4468 085e 0019     		adds	r0, r0, r4
 4469 0860 FFF7FEFF 		bl	UpdateCurrSession
 4470              	.LVL250:
 471:main.c        ****                                 DBG_PRINTF("Total sessions: %i \r\n Total SUB sessions: %i \r\n", t
 4471              		.loc 1 471 0
 4472 0864 9E4B     		ldr	r3, .L164
 4473 0866 1A88     		ldrh	r2, [r3]
 4474 0868 3188     		ldrh	r1, [r6]
 4475 086a A448     		ldr	r0, .L164+28
 4476 086c FFF7FEFF 		bl	printf
 4477              	.LVL251:
 472:main.c        ****                             }
 4478              		.loc 1 472 0
 4479 0870 2A88     		ldrh	r2, [r5]
 4480 0872 9C4B     		ldr	r3, .L164+4
 4481 0874 1988     		ldrh	r1, [r3]
 4482 0876 A248     		ldr	r0, .L164+32
 4483 0878 FFF7FEFF 		bl	printf
 4484              	.LVL252:
 4485 087c 6AE1     		b	.L107
 4486              	.LVL253:
 4487              	.L137:
 476:main.c        ****                                 err.errorCode = ERR_NO_SESSION_RUNNING;
 4488              		.loc 1 476 0
 4489 087e A148     		ldr	r0, .L164+36
 4490 0880 FFF7FEFF 		bl	puts
 4491              	.LVL254:
 477:main.c        ****                                 (void)CyBle_GattsErrorRsp(cyBle_connHandle, &err);
 4492              		.loc 1 477 0
 4493 0884 06A9     		add	r1, sp, #24
 4494 0886 8723     		movs	r3, #135
 4495 0888 CB70     		strb	r3, [r1, #3]
 478:main.c        ****                                 return;
 4496              		.loc 1 478 0
 4497 088a 9F4A     		ldr	r2, .L164+40
 4498 088c 1378     		ldrb	r3, [r2]
 4499 088e 5078     		ldrb	r0, [r2, #1]
 4500 0890 0002     		lsls	r0, r0, #8
 4501 0892 1843     		orrs	r0, r3
 4502 0894 FFF7FEFF 		bl	CyBle_GattsErrorRsp
 4503              	.LVL255:
 479:main.c        ****                             }
 4504              		.loc 1 479 0
 4505 0898 63E1     		b	.L68
 4506              	.L136:
 484:main.c        ****                             err.errorCode = ERR_UNDEFINED_VALUE;
 4507              		.loc 1 484 0
 4508 089a 9C48     		ldr	r0, .L164+44
 4509 089c FFF7FEFF 		bl	puts
 4510              	.LVL256:
 485:main.c        ****                             (void)CyBle_GattsErrorRsp(cyBle_connHandle, &err);
ARM GAS  C:\Users\310309~1\AppData\Local\Temp\ccu8WRKs.s 			page 105


 4511              		.loc 1 485 0
 4512 08a0 06A9     		add	r1, sp, #24
 4513 08a2 8923     		movs	r3, #137
 4514 08a4 CB70     		strb	r3, [r1, #3]
 486:main.c        ****                             return;
 4515              		.loc 1 486 0
 4516 08a6 984A     		ldr	r2, .L164+40
 4517 08a8 1378     		ldrb	r3, [r2]
 4518 08aa 5078     		ldrb	r0, [r2, #1]
 4519 08ac 0002     		lsls	r0, r0, #8
 4520 08ae 1843     		orrs	r0, r3
 4521 08b0 FFF7FEFF 		bl	CyBle_GattsErrorRsp
 4522              	.LVL257:
 487:main.c        ****                         }
 4523              		.loc 1 487 0
 4524 08b4 55E1     		b	.L68
 4525              	.L100:
 493:main.c        ****                         if (stop_session(mySessions, &totalSessionCount))
 4526              		.loc 1 493 0
 4527 08b6 9648     		ldr	r0, .L164+48
 4528 08b8 FFF7FEFF 		bl	puts
 4529              	.LVL258:
 494:main.c        ****                         {
 4530              		.loc 1 494 0
 4531 08bc 8949     		ldr	r1, .L164+4
 4532 08be 8A48     		ldr	r0, .L164+8
 4533 08c0 FFF7FEFF 		bl	stop_session
 4534              	.LVL259:
 4535 08c4 0028     		cmp	r0, #0
 4536 08c6 0FD0     		beq	.L138
 496:main.c        ****                             UpdateCurrSession(&mySubSessions[totalSubSessionCount - 1]);
 4537              		.loc 1 496 0
 4538 08c8 8A4D     		ldr	r5, .L164+20
 4539 08ca 894C     		ldr	r4, .L164+16
 4540              	.LVL260:
 4541 08cc 2900     		movs	r1, r5
 4542 08ce 2000     		movs	r0, r4
 4543 08d0 FFF7FEFF 		bl	stop_sub_session
 4544              	.LVL261:
 497:main.c        ****                         }
 4545              		.loc 1 497 0
 4546 08d4 2B88     		ldrh	r3, [r5]
 4547 08d6 013B     		subs	r3, r3, #1
 4548 08d8 DA00     		lsls	r2, r3, #3
 4549 08da D21A     		subs	r2, r2, r3
 4550 08dc 9200     		lsls	r2, r2, #2
 4551 08de D318     		adds	r3, r2, r3
 4552 08e0 1819     		adds	r0, r3, r4
 4553 08e2 FFF7FEFF 		bl	UpdateCurrSession
 4554              	.LVL262:
 506:main.c        ****                     }
 4555              		.loc 1 506 0
 4556 08e6 35E1     		b	.L107
 4557              	.LVL263:
 4558              	.L138:
 501:main.c        ****                             err.errorCode = ERR_NOTHING_TO_STOP;
 4559              		.loc 1 501 0
ARM GAS  C:\Users\310309~1\AppData\Local\Temp\ccu8WRKs.s 			page 106


 4560 08e8 8A48     		ldr	r0, .L164+52
 4561 08ea FFF7FEFF 		bl	puts
 4562              	.LVL264:
 502:main.c        ****                             (void)CyBle_GattsErrorRsp(cyBle_connHandle, &err);
 4563              		.loc 1 502 0
 4564 08ee 06A9     		add	r1, sp, #24
 4565 08f0 8823     		movs	r3, #136
 4566 08f2 CB70     		strb	r3, [r1, #3]
 503:main.c        ****                             return;
 4567              		.loc 1 503 0
 4568 08f4 844A     		ldr	r2, .L164+40
 4569 08f6 1378     		ldrb	r3, [r2]
 4570 08f8 5078     		ldrb	r0, [r2, #1]
 4571 08fa 0002     		lsls	r0, r0, #8
 4572 08fc 1843     		orrs	r0, r3
 4573 08fe FFF7FEFF 		bl	CyBle_GattsErrorRsp
 4574              	.LVL265:
 504:main.c        ****                         }
 4575              		.loc 1 504 0
 4576 0902 2EE1     		b	.L68
 4577              	.L101:
 4578              	.LVL266:
 4579              	.LBB26:
 511:main.c        ****                             else if(wrReqParam->handleValPair.value.val[1] == 0) { sessionIDBuffer 
 4580              		.loc 1 511 0
 4581 0904 9478     		ldrb	r4, [r2, #2]
 4582              	.LVL267:
 4583 0906 002C     		cmp	r4, #0
 4584 0908 01D1     		bne	.L139
 511:main.c        ****                             else if(wrReqParam->handleValPair.value.val[1] == 0) { sessionIDBuffer 
 4585              		.loc 1 511 0 is_stmt 0 discriminator 1
 4586 090a 5478     		ldrb	r4, [r2, #1]
 4587              	.LVL268:
 4588 090c 08E0     		b	.L140
 4589              	.LVL269:
 4590              	.L139:
 512:main.c        ****                             else { sessionIDBuffer = wrReqParam->handleValPair.value.val[2] * 256 +
 4591              		.loc 1 512 0 is_stmt 1
 4592 090e 5378     		ldrb	r3, [r2, #1]
 4593 0910 002B     		cmp	r3, #0
 4594 0912 02D1     		bne	.L141
 512:main.c        ****                             else { sessionIDBuffer = wrReqParam->handleValPair.value.val[2] * 256 +
 4595              		.loc 1 512 0 is_stmt 0 discriminator 1
 4596 0914 FF22     		movs	r2, #255
 4597 0916 5443     		muls	r4, r2
 4598              	.LVL270:
 4599 0918 02E0     		b	.L140
 4600              	.LVL271:
 4601              	.L141:
 513:main.c        ****                         
 4602              		.loc 1 513 0 is_stmt 1
 4603 091a 2402     		lsls	r4, r4, #8
 4604 091c E418     		adds	r4, r4, r3
 4605 091e A4B2     		uxth	r4, r4
 4606              	.LVL272:
 4607              	.L140:
 515:main.c        ****                         uint16 toDeleteID = sessionIDBuffer;
ARM GAS  C:\Users\310309~1\AppData\Local\Temp\ccu8WRKs.s 			page 107


 4608              		.loc 1 515 0
 4609 0920 2100     		movs	r1, r4
 4610 0922 7D48     		ldr	r0, .L164+56
 4611 0924 FFF7FEFF 		bl	printf
 4612              	.LVL273:
 517:main.c        ****                         switch(deleteStatus)
 4613              		.loc 1 517 0
 4614 0928 2200     		movs	r2, r4
 4615 092a 6E49     		ldr	r1, .L164+4
 4616 092c 6E48     		ldr	r0, .L164+8
 4617 092e FFF7FEFF 		bl	delete_session
 4618              	.LVL274:
 518:main.c        ****                         {
 4619              		.loc 1 518 0
 4620 0932 0128     		cmp	r0, #1
 4621 0934 0FD0     		beq	.L142
 4622 0936 0028     		cmp	r0, #0
 4623 0938 04D0     		beq	.L143
 4624 093a 0228     		cmp	r0, #2
 4625 093c 1AD0     		beq	.L144
 4626 093e 0328     		cmp	r0, #3
 4627 0940 27D0     		beq	.L145
 4628 0942 07E1     		b	.L107
 4629              	.L143:
 522:main.c        ****                                 delete_sub_session(mySubSessions, &totalSubSessionCount, toDeleteID
 4630              		.loc 1 522 0
 4631 0944 7548     		ldr	r0, .L164+60
 4632              	.LVL275:
 4633 0946 FFF7FEFF 		bl	puts
 4634              	.LVL276:
 523:main.c        ****                                 break;
 4635              		.loc 1 523 0
 4636 094a 2200     		movs	r2, r4
 4637 094c 6949     		ldr	r1, .L164+20
 4638 094e 6848     		ldr	r0, .L164+16
 4639 0950 FFF7FEFF 		bl	delete_sub_session
 4640              	.LVL277:
 524:main.c        ****                             }
 4641              		.loc 1 524 0
 4642 0954 FEE0     		b	.L107
 4643              	.LVL278:
 4644              	.L142:
 528:main.c        ****                                 err.errorCode = ERR_INVALID_SESSION_ID;
 4645              		.loc 1 528 0
 4646 0956 2100     		movs	r1, r4
 4647 0958 7148     		ldr	r0, .L164+64
 4648              	.LVL279:
 4649 095a FFF7FEFF 		bl	printf
 4650              	.LVL280:
 529:main.c        ****                                 (void)CyBle_GattsErrorRsp(cyBle_connHandle, &err);
 4651              		.loc 1 529 0
 4652 095e 06A9     		add	r1, sp, #24
 4653 0960 8123     		movs	r3, #129
 4654 0962 CB70     		strb	r3, [r1, #3]
 530:main.c        ****                                 return;
 4655              		.loc 1 530 0
 4656 0964 684A     		ldr	r2, .L164+40
ARM GAS  C:\Users\310309~1\AppData\Local\Temp\ccu8WRKs.s 			page 108


 4657 0966 1378     		ldrb	r3, [r2]
 4658 0968 5078     		ldrb	r0, [r2, #1]
 4659 096a 0002     		lsls	r0, r0, #8
 4660 096c 1843     		orrs	r0, r3
 4661 096e FFF7FEFF 		bl	CyBle_GattsErrorRsp
 4662              	.LVL281:
 531:main.c        ****                             }
 4663              		.loc 1 531 0
 4664 0972 F6E0     		b	.L68
 4665              	.LVL282:
 4666              	.L144:
 535:main.c        ****                                 err.errorCode = ERR_SESSION_STILL_RUNNING;
 4667              		.loc 1 535 0
 4668 0974 2100     		movs	r1, r4
 4669 0976 6B48     		ldr	r0, .L164+68
 4670              	.LVL283:
 4671 0978 FFF7FEFF 		bl	printf
 4672              	.LVL284:
 536:main.c        ****                                 (void)CyBle_GattsErrorRsp(cyBle_connHandle, &err);
 4673              		.loc 1 536 0
 4674 097c 06A9     		add	r1, sp, #24
 4675 097e 8323     		movs	r3, #131
 4676 0980 CB70     		strb	r3, [r1, #3]
 537:main.c        ****                                 return;
 4677              		.loc 1 537 0
 4678 0982 614A     		ldr	r2, .L164+40
 4679 0984 1378     		ldrb	r3, [r2]
 4680 0986 5078     		ldrb	r0, [r2, #1]
 4681 0988 0002     		lsls	r0, r0, #8
 4682 098a 1843     		orrs	r0, r3
 4683 098c FFF7FEFF 		bl	CyBle_GattsErrorRsp
 4684              	.LVL285:
 538:main.c        ****                             }
 4685              		.loc 1 538 0
 4686 0990 E7E0     		b	.L68
 4687              	.LVL286:
 4688              	.L145:
 542:main.c        ****                                 err.errorCode = ERR_NO_SESSIONS_AVAILABLE;
 4689              		.loc 1 542 0
 4690 0992 6548     		ldr	r0, .L164+72
 4691              	.LVL287:
 4692 0994 FFF7FEFF 		bl	puts
 4693              	.LVL288:
 543:main.c        ****                                 (void)CyBle_GattsErrorRsp(cyBle_connHandle, &err);
 4694              		.loc 1 543 0
 4695 0998 06A9     		add	r1, sp, #24
 4696 099a 8523     		movs	r3, #133
 4697 099c CB70     		strb	r3, [r1, #3]
 544:main.c        ****                             }
 4698              		.loc 1 544 0
 4699 099e 5A4A     		ldr	r2, .L164+40
 4700 09a0 1378     		ldrb	r3, [r2]
 4701 09a2 5078     		ldrb	r0, [r2, #1]
 4702 09a4 0002     		lsls	r0, r0, #8
 4703 09a6 1843     		orrs	r0, r3
 4704 09a8 FFF7FEFF 		bl	CyBle_GattsErrorRsp
 4705              	.LVL289:
ARM GAS  C:\Users\310309~1\AppData\Local\Temp\ccu8WRKs.s 			page 109


 4706 09ac D2E0     		b	.L107
 4707              	.LVL290:
 4708              	.L102:
 4709              	.LBE26:
 4710              	.LBB27:
 551:main.c        ****                             if(!controlpointIndicate)
 4711              		.loc 1 551 0
 4712 09ae 5F48     		ldr	r0, .L164+76
 4713 09b0 FFF7FEFF 		bl	puts
 4714              	.LVL291:
 552:main.c        ****                             {
 4715              		.loc 1 552 0
 4716 09b4 5E4B     		ldr	r3, .L164+80
 4717 09b6 1B68     		ldr	r3, [r3]
 4718 09b8 002B     		cmp	r3, #0
 4719 09ba 0DD1     		bne	.L146
 554:main.c        ****                                 err.errorCode = CYBLE_GATT_ERR_CCCD_IMPROPERLY_CONFIGURED;
 4720              		.loc 1 554 0
 4721 09bc 5D48     		ldr	r0, .L164+84
 4722 09be FFF7FEFF 		bl	puts
 4723              	.LVL292:
 555:main.c        ****                                 (void)CyBle_GattsErrorRsp(cyBle_connHandle, &err);
 4724              		.loc 1 555 0
 4725 09c2 06A9     		add	r1, sp, #24
 4726 09c4 FD23     		movs	r3, #253
 4727 09c6 CB70     		strb	r3, [r1, #3]
 556:main.c        ****                                 return;
 4728              		.loc 1 556 0
 4729 09c8 4F4A     		ldr	r2, .L164+40
 4730 09ca 1378     		ldrb	r3, [r2]
 4731 09cc 5078     		ldrb	r0, [r2, #1]
 4732 09ce 0002     		lsls	r0, r0, #8
 4733 09d0 1843     		orrs	r0, r3
 4734 09d2 FFF7FEFF 		bl	CyBle_GattsErrorRsp
 4735              	.LVL293:
 557:main.c        ****                             }
 4736              		.loc 1 557 0
 4737 09d6 C4E0     		b	.L68
 4738              	.L146:
 559:main.c        ****                             {
 4739              		.loc 1 559 0
 4740 09d8 424B     		ldr	r3, .L164+4
 4741 09da 1B88     		ldrh	r3, [r3]
 4742 09dc 002B     		cmp	r3, #0
 4743 09de 0CD1     		bne	.L147
 561:main.c        ****                                 err.errorCode = ERR_NO_SESSIONS_AVAILABLE;
 4744              		.loc 1 561 0
 4745 09e0 5548     		ldr	r0, .L164+88
 4746 09e2 FFF7FEFF 		bl	puts
 4747              	.LVL294:
 562:main.c        ****                                 (void)CyBle_GattsErrorRsp(cyBle_connHandle, &err);
 4748              		.loc 1 562 0
 4749 09e6 06A9     		add	r1, sp, #24
 4750 09e8 8523     		movs	r3, #133
 4751 09ea CB70     		strb	r3, [r1, #3]
 563:main.c        ****                             }
 4752              		.loc 1 563 0
ARM GAS  C:\Users\310309~1\AppData\Local\Temp\ccu8WRKs.s 			page 110


 4753 09ec 464A     		ldr	r2, .L164+40
 4754 09ee 1378     		ldrb	r3, [r2]
 4755 09f0 5078     		ldrb	r0, [r2, #1]
 4756 09f2 0002     		lsls	r0, r0, #8
 4757 09f4 1843     		orrs	r0, r3
 4758 09f6 FFF7FEFF 		bl	CyBle_GattsErrorRsp
 4759              	.LVL295:
 4760              	.L147:
 566:main.c        ****                             uint8 UserDefinedActivityType = wrReqParam->handleValPair.value.val[2];
 4761              		.loc 1 566 0
 4762 09fa 6268     		ldr	r2, [r4, #4]
 4763 09fc 5378     		ldrb	r3, [r2, #1]
 4764              	.LVL296:
 567:main.c        ****                             
 4765              		.loc 1 567 0
 4766 09fe 9578     		ldrb	r5, [r2, #2]
 4767              	.LVL297:
 569:main.c        ****                             {
 4768              		.loc 1 569 0
 4769 0a00 002B     		cmp	r3, #0
 4770 0a02 02D0     		beq	.L149
 4771 0a04 012B     		cmp	r3, #1
 4772 0a06 48D0     		beq	.L158
 4773 0a08 4DE0     		b	.L159
 4774              	.L149:
 573:main.c        ****                                     GasData.AverageActivityType = ((UserDefinedActivityTypeAllSubSe
 4775              		.loc 1 573 0
 4776 0a0a 4C4A     		ldr	r2, .L164+92
 4777 0a0c 5178     		ldrb	r1, [r2, #1]
 4778 0a0e 9378     		ldrb	r3, [r2, #2]
 4779              	.LVL298:
 4780 0a10 1B02     		lsls	r3, r3, #8
 4781 0a12 0B43     		orrs	r3, r1
 4782 0a14 1800     		movs	r0, r3
 4783 0a16 517A     		ldrb	r1, [r2, #9]
 4784 0a18 927A     		ldrb	r2, [r2, #10]
 4785 0a1a 1202     		lsls	r2, r2, #8
 4786 0a1c 0A43     		orrs	r2, r1
 4787 0a1e 1923     		movs	r3, #25
 4788 0a20 4343     		muls	r3, r0
 4789 0a22 4749     		ldr	r1, .L164+96
 4790 0a24 CB18     		adds	r3, r1, r3
 4791 0a26 9D54     		strb	r5, [r3, r2]
 4792              	.LVL299:
 574:main.c        ****                                     break;
 4793              		.loc 1 574 0
 4794 0a28 2D02     		lsls	r5, r5, #8
 4795              	.LVL300:
 4796 0a2a 464B     		ldr	r3, .L164+100
 4797              	.LVL301:
 4798 0a2c 4820     		movs	r0, #72
 4799              	.LVL302:
 4800 0a2e 195C     		ldrb	r1, [r3, r0]
 4801              	.LVL303:
 4802 0a30 4922     		movs	r2, #73
 4803              	.LVL304:
 4804 0a32 9A5C     		ldrb	r2, [r3, r2]
ARM GAS  C:\Users\310309~1\AppData\Local\Temp\ccu8WRKs.s 			page 111


 4805 0a34 1202     		lsls	r2, r2, #8
 4806 0a36 0A43     		orrs	r2, r1
 4807 0a38 FF21     		movs	r1, #255
 4808 0a3a 0A40     		ands	r2, r1
 4809 0a3c 1543     		orrs	r5, r2
 4810 0a3e 2940     		ands	r1, r5
 4811 0a40 1954     		strb	r1, [r3, r0]
 4812 0a42 1B18     		adds	r3, r3, r0
 4813 0a44 2D0A     		lsrs	r5, r5, #8
 4814 0a46 5D70     		strb	r5, [r3, #1]
 575:main.c        ****                                 }
 4815              		.loc 1 575 0
 4816 0a48 84E0     		b	.L107
 4817              	.LVL305:
 4818              	.L152:
 4819              	.LBB28:
 581:main.c        ****                                         {
 4820              		.loc 1 581 0
 4821 0a4a E300     		lsls	r3, r4, #3
 4822 0a4c 1B1B     		subs	r3, r3, r4
 4823 0a4e 9B00     		lsls	r3, r3, #2
 4824 0a50 1B19     		adds	r3, r3, r4
 4825 0a52 274A     		ldr	r2, .L164+16
 4826 0a54 D318     		adds	r3, r2, r3
 4827 0a56 5A78     		ldrb	r2, [r3, #1]
 4828 0a58 9B78     		ldrb	r3, [r3, #2]
 4829 0a5a 1B02     		lsls	r3, r3, #8
 4830 0a5c 1343     		orrs	r3, r2
 4831 0a5e 374A     		ldr	r2, .L164+92
 4832 0a60 5078     		ldrb	r0, [r2, #1]
 4833 0a62 9178     		ldrb	r1, [r2, #2]
 4834 0a64 0902     		lsls	r1, r1, #8
 4835 0a66 0143     		orrs	r1, r0
 4836 0a68 8B42     		cmp	r3, r1
 4837 0a6a 14D1     		bne	.L151
 583:main.c        ****                                             DBG_PRINTF("Value Set for: \r\n Sess ID: %i \r\n Sub Se
 4838              		.loc 1 583 0
 4839 0a6c E300     		lsls	r3, r4, #3
 4840 0a6e 1B1B     		subs	r3, r3, r4
 4841 0a70 9B00     		lsls	r3, r3, #2
 4842 0a72 1B19     		adds	r3, r3, r4
 4843 0a74 1E4A     		ldr	r2, .L164+16
 4844 0a76 D318     		adds	r3, r2, r3
 4845 0a78 D87B     		ldrb	r0, [r3, #15]
 4846 0a7a 1A7C     		ldrb	r2, [r3, #16]
 4847 0a7c 1202     		lsls	r2, r2, #8
 4848 0a7e 0243     		orrs	r2, r0
 4849 0a80 8B00     		lsls	r3, r1, #2
 4850 0a82 5818     		adds	r0, r3, r1
 4851 0a84 8300     		lsls	r3, r0, #2
 4852 0a86 C318     		adds	r3, r0, r3
 4853 0a88 2D48     		ldr	r0, .L164+96
 4854 0a8a C318     		adds	r3, r0, r3
 4855 0a8c 9D54     		strb	r5, [r3, r2]
 584:main.c        ****                                         }
 4856              		.loc 1 584 0
 4857 0a8e 2B00     		movs	r3, r5
ARM GAS  C:\Users\310309~1\AppData\Local\Temp\ccu8WRKs.s 			page 112


 4858 0a90 2D48     		ldr	r0, .L164+104
 4859 0a92 FFF7FEFF 		bl	printf
 4860              	.LVL306:
 4861              	.L151:
 579:main.c        ****                                     {
 4862              		.loc 1 579 0 discriminator 2
 4863 0a96 0134     		adds	r4, r4, #1
 4864              	.LVL307:
 4865 0a98 00E0     		b	.L150
 4866              	.LVL308:
 4867              	.L158:
 4868              	.LBE28:
 569:main.c        ****                             {
 4869              		.loc 1 569 0
 4870 0a9a 0024     		movs	r4, #0
 4871              	.LVL309:
 4872              	.L150:
 4873              	.LBB29:
 579:main.c        ****                                     {
 4874              		.loc 1 579 0 discriminator 1
 4875 0a9c 154B     		ldr	r3, .L164+20
 4876 0a9e 1B88     		ldrh	r3, [r3]
 4877 0aa0 9C42     		cmp	r4, r3
 4878 0aa2 D2DB     		blt	.L152
 4879 0aa4 56E0     		b	.L107
 4880              	.LVL310:
 4881              	.L159:
 4882              	.LBE29:
 591:main.c        ****                                     err.errorCode = ERR_UNDEFINED_VALUE;
 4883              		.loc 1 591 0
 4884 0aa6 2948     		ldr	r0, .L164+108
 4885 0aa8 FFF7FEFF 		bl	puts
 4886              	.LVL311:
 592:main.c        ****                                     (void)CyBle_GattsErrorRsp(cyBle_connHandle, &err);
 4887              		.loc 1 592 0
 4888 0aac 06A9     		add	r1, sp, #24
 4889 0aae 8923     		movs	r3, #137
 4890 0ab0 CB70     		strb	r3, [r1, #3]
 593:main.c        ****                                     return;
 4891              		.loc 1 593 0
 4892 0ab2 154A     		ldr	r2, .L164+40
 4893 0ab4 1378     		ldrb	r3, [r2]
 4894 0ab6 5078     		ldrb	r0, [r2, #1]
 4895 0ab8 0002     		lsls	r0, r0, #8
 4896 0aba 1843     		orrs	r0, r3
 4897 0abc FFF7FEFF 		bl	CyBle_GattsErrorRsp
 4898              	.LVL312:
 594:main.c        ****                                 }
 4899              		.loc 1 594 0
 4900 0ac0 4FE0     		b	.L68
 4901              	.LVL313:
 4902              	.L94:
 4903              	.LBE27:
 601:main.c        ****                             err.errorCode = CYBLE_GATT_ERR_OP_CODE_NOT_SUPPORTED;
 4904              		.loc 1 601 0
 4905 0ac2 2348     		ldr	r0, .L164+112
 4906 0ac4 FFF7FEFF 		bl	puts
ARM GAS  C:\Users\310309~1\AppData\Local\Temp\ccu8WRKs.s 			page 113


 4907              	.LVL314:
 602:main.c        ****                             (void)CyBle_GattsErrorRsp(cyBle_connHandle, &err);
 4908              		.loc 1 602 0
 4909 0ac8 06A9     		add	r1, sp, #24
 4910 0aca 8023     		movs	r3, #128
 4911 0acc CB70     		strb	r3, [r1, #3]
 603:main.c        ****                             return;
 4912              		.loc 1 603 0
 4913 0ace 0E4A     		ldr	r2, .L164+40
 4914 0ad0 1378     		ldrb	r3, [r2]
 4915 0ad2 5078     		ldrb	r0, [r2, #1]
 4916 0ad4 0002     		lsls	r0, r0, #8
 4917 0ad6 1843     		orrs	r0, r3
 4918 0ad8 FFF7FEFF 		bl	CyBle_GattsErrorRsp
 4919              	.LVL315:
 604:main.c        ****                         }
 4920              		.loc 1 604 0
 4921 0adc 41E0     		b	.L68
 4922              	.L165:
 4923 0ade C046     		.align	2
 4924              	.L164:
 4925 0ae0 00000000 		.word	sessionCount
 4926 0ae4 00000000 		.word	totalSessionCount
 4927 0ae8 00000000 		.word	mySessions
 4928 0aec 00000000 		.word	subsessionCount
 4929 0af0 00000000 		.word	mySubSessions
 4930 0af4 00000000 		.word	totalSubSessionCount
 4931 0af8 54070000 		.word	.LC176
 4932 0afc A8070000 		.word	.LC178
 4933 0b00 E8070000 		.word	.LC180
 4934 0b04 18080000 		.word	.LC182
 4935 0b08 00000000 		.word	cyBle_connHandle
 4936 0b0c 54080000 		.word	.LC184
 4937 0b10 AC080000 		.word	.LC186
 4938 0b14 BC080000 		.word	.LC188
 4939 0b18 E4080000 		.word	.LC190
 4940 0b1c 14090000 		.word	.LC192
 4941 0b20 38090000 		.word	.LC194
 4942 0b24 68090000 		.word	.LC196
 4943 0b28 9C090000 		.word	.LC198
 4944 0b2c B4090000 		.word	.LC200
 4945 0b30 00000000 		.word	controlpointIndicate
 4946 0b34 E4050000 		.word	.LC152
 4947 0b38 3C050000 		.word	.LC143
 4948 0b3c 00000000 		.word	CurrSession
 4949 0b40 00000000 		.word	UserDefinedActivityTypeAllSubSessions
 4950 0b44 00000000 		.word	GasData
 4951 0b48 DC090000 		.word	.LC205
 4952 0b4c 240A0000 		.word	.LC207
 4953 0b50 380A0000 		.word	.LC209
 4954              	.LVL316:
 4955              	.L107:
 607:main.c        ****                 }
 4956              		.loc 1 607 0 discriminator 11
 4957 0b54 054A     		ldr	r2, .L166
 4958 0b56 1378     		ldrb	r3, [r2]
 4959 0b58 5078     		ldrb	r0, [r2, #1]
ARM GAS  C:\Users\310309~1\AppData\Local\Temp\ccu8WRKs.s 			page 114


 4960 0b5a 0002     		lsls	r0, r0, #8
 4961 0b5c 1843     		orrs	r0, r3
 4962 0b5e FFF7FEFF 		bl	CyBle_GattsWriteRsp
 4963              	.LVL317:
 4964              	.L68:
 4965              	.LBE16:
 619:main.c        **** 
 4966              		.loc 1 619 0
 4967 0b62 21B0     		add	sp, sp, #132
 4968              		@ sp needed
 4969 0b64 0CBC     		pop	{r2, r3}
 4970 0b66 9046     		mov	r8, r2
 4971 0b68 9946     		mov	r9, r3
 4972 0b6a F0BD     		pop	{r4, r5, r6, r7, pc}
 4973              	.L167:
 4974              		.align	2
 4975              	.L166:
 4976 0b6c 00000000 		.word	cyBle_connHandle
 4977              		.cfi_endproc
 4978              	.LFE38:
 4979              		.size	BleEventHandler, .-BleEventHandler
 4980              		.global	isButtonPressed
 4981              		.comm	apiResult,2,2
 4982              		.comm	currentsessionIndicate,4,4
 4983              		.comm	CurrSession,17,4
 4984              		.comm	controlpointIndicate,4,4
 4985              		.comm	totalDeletedSessions,2,2
 4986              		.comm	totalSubSessionCount,2,2
 4987              		.comm	totalSessionCount,2,2
 4988              		.comm	subsessionCount,2,2
 4989              		.comm	sessionCount,2,2
 4990              		.comm	myDeletedSessions,435,4
 4991              		.comm	mySubSessions,435,4
 4992              		.comm	mySessions,435,4
 4993              		.comm	sleepactivitysummarydataIndicate,4,4
 4994              		.comm	SasData,68,4
 4995              		.comm	sleepactivityinstantaneousdataNotify,4,4
 4996              		.comm	SaiData,26,4
 4997              		.comm	stepcounteractivitysummarydataIndicate,4,4
 4998              		.comm	ScasData,29,4
 4999              		.comm	cardiorespiratoryactivitysummarydataIndicate,4,4
 5000              		.comm	CrasData,62,4
 5001              		.comm	cardiorespiratoryactivityinstantaneousdataNotify,4,4
 5002              		.comm	CraiData,24,4
 5003              		.comm	generalsummarydataIndicate,4,4
 5004              		.comm	GasData,77,4
 5005              		.comm	generalinstantaneousdataNotify,4,4
 5006              		.comm	GaiData,38,4
 5007              		.comm	sessionDescriptorIndicate,1,1
 5008              		.comm	pamFeature,8,8
 5009              		.comm	UserDefinedActivityTypeAllSubSessions,625,4
 5010              		.comm	Update_GASD_With_New_Activity,1,1
 5011              		.comm	send_Deleted_Sessions,1,1
 5012              		.comm	Get_Ended_Data_Value,1,1
 5013              		.comm	Get_Ended_Data_Sub_SessionID,2,2
 5014              		.comm	Get_Ended_Data_SessionID,2,2
 5015              		.comm	Enquire_Sub_Sessions_Requested_For_ID,2,2
ARM GAS  C:\Users\310309~1\AppData\Local\Temp\ccu8WRKs.s 			page 115


 5016              		.comm	Enquire_Sessions_Requested,2,2
 5017              		.section	.rodata.str1.4,"aMS",%progbits,1
 5018              		.align	2
 5019              	.LC0:
 5020 0000 42555454 		.ascii	"BUTTON PRESS \015\000"
 5020      4F4E2050 
 5020      52455353 
 5020      200D00
 5021 000f 00       		.space	1
 5022              	.LC61:
 5023 0010 53746F72 		.ascii	"Store bonding data, status: %x \015\012\000"
 5023      6520626F 
 5023      6E64696E 
 5023      67206461 
 5023      74612C20 
 5024 0032 0000     		.space	2
 5025              	.LC76:
 5026 0034 53746172 		.ascii	"Start Advertisement with addr: \000"
 5026      74204164 
 5026      76657274 
 5026      6973656D 
 5026      656E7420 
 5027              	.LC78:
 5028 0054 25322E32 		.ascii	"%2.2x\000"
 5028      7800
 5029 005a 0000     		.space	2
 5030              	.LC80:
 5031 005c 0D00     		.ascii	"\015\000"
 5032 005e 0000     		.space	2
 5033              	.LC82:
 5034 0060 4359424C 		.ascii	"CYBLE_EVT_GAP_DEVICE_DISCONNECTED \015\000"
 5034      455F4556 
 5034      545F4741 
 5034      505F4445 
 5034      56494345 
 5035              	.LC94:
 5036 0084 4359424C 		.ascii	"CYBLE_EVT_GAP_DEVICE_CONNECTED \015\000"
 5036      455F4556 
 5036      545F4741 
 5036      505F4445 
 5036      56494345 
 5037 00a5 000000   		.space	3
 5038              	.LC96:
 5039 00a8 4359424C 		.ascii	"CYBLE_EVT_GAPP_ADVERTISEMENT_START_STOP \015\000"
 5039      455F4556 
 5039      545F4741 
 5039      50505F41 
 5039      44564552 
 5040 00d2 0000     		.space	2
 5041              	.LC99:
 5042 00d4 696E6469 		.ascii	"indication confirmation \015\000"
 5042      63617469 
 5042      6F6E2063 
 5042      6F6E6669 
 5042      726D6174 
 5043 00ee 0000     		.space	2
 5044              	.LC101:
ARM GAS  C:\Users\310309~1\AppData\Local\Temp\ccu8WRKs.s 			page 116


 5045 00f0 4359424C 		.ascii	"CYBLE_EVT_GAP_AUTH_REQ: security: 0x%x, bonding: 0x"
 5045      455F4556 
 5045      545F4741 
 5045      505F4155 
 5045      54485F52 
 5046 0123 25782C20 		.ascii	"%x, ekeySize: 0x%x, authErr: 0x%x \015\012\000"
 5046      656B6579 
 5046      53697A65 
 5046      3A203078 
 5046      25782C20 
 5047              	.LC103:
 5048 0148 4359424C 		.ascii	"CYBLE_EVT_GAP_PASSKEY_ENTRY_REQUEST press 'p' to en"
 5048      455F4556 
 5048      545F4741 
 5048      505F5041 
 5048      53534B45 
 5049 017b 74657220 		.ascii	"ter passkey.\015\000"
 5049      70617373 
 5049      6B65792E 
 5049      0D00
 5050 0189 000000   		.space	3
 5051              	.LC105:
 5052 018c 4359424C 		.ascii	"CYBLE_EVT_GAP_PASSKEY_DISPLAY_REQUEST. Passkey is: "
 5052      455F4556 
 5052      545F4741 
 5052      505F5041 
 5052      53534B45 
 5053 01bf 256C752E 		.ascii	"%lu.\015\012\000"
 5053      0D0A00
 5054 01c6 0000     		.space	2
 5055              	.LC107:
 5056 01c8 4359424C 		.ascii	"CYBLE_EVT_GAP_ENCRYPT_CHANGE: %d \015\012\000"
 5056      455F4556 
 5056      545F4741 
 5056      505F454E 
 5056      43525950 
 5057              	.LC109:
 5058 01ec 4359424C 		.ascii	"CYBLE_EVT_GATT_CONNECT_IND: attId %x, bdHandle %x \015"
 5058      455F4556 
 5058      545F4741 
 5058      54545F43 
 5058      4F4E4E45 
 5059 021f 0A00     		.ascii	"\012\000"
 5060 0221 000000   		.space	3
 5061              	.LC111:
 5062 0224 4359424C 		.ascii	"CYBLE_EVT_GAP_AUTH_COMPLETE: security:%x, bonding:%"
 5062      455F4556 
 5062      545F4741 
 5062      505F4155 
 5062      54485F43 
 5063 0257 782C2065 		.ascii	"x, ekeySize:%x, authErr %x \015\012\000"
 5063      6B657953 
 5063      697A653A 
 5063      25782C20 
 5063      61757468 
 5064 0275 000000   		.space	3
 5065              	.LC114:
ARM GAS  C:\Users\310309~1\AppData\Local\Temp\ccu8WRKs.s 			page 117


 5066 0278 53746172 		.ascii	"Start/stop GENERAL ACTIVITY INSTANTANEOUS DATA Noti"
 5066      742F7374 
 5066      6F702047 
 5066      454E4552 
 5066      414C2041 
 5067 02ab 66696361 		.ascii	"fications \015\000"
 5067      74696F6E 
 5067      73200D00 
 5068 02b7 00       		.space	1
 5069              	.LC116:
 5070 02b8 53746172 		.ascii	"Start/stop GENERAL ACTIVITY SUMMARY DATA Indication"
 5070      742F7374 
 5070      6F702047 
 5070      454E4552 
 5070      414C2041 
 5071 02eb 73200D00 		.ascii	"s \015\000"
 5072 02ef 00       		.space	1
 5073              	.LC118:
 5074 02f0 53746172 		.ascii	"Start/stop CARDIORESPIRATORY ACTIVITY INSTANTANEOUS"
 5074      742F7374 
 5074      6F702043 
 5074      41524449 
 5074      4F524553 
 5075 0323 20444154 		.ascii	" DATA Notifications \015\000"
 5075      41204E6F 
 5075      74696669 
 5075      63617469 
 5075      6F6E7320 
 5076 0339 000000   		.space	3
 5077              	.LC120:
 5078 033c 53746172 		.ascii	"Start/stop CARDIORESPIRATORY ACTIVITY SUMMARY DATA "
 5078      742F7374 
 5078      6F702043 
 5078      41524449 
 5078      4F524553 
 5079 036f 496E6469 		.ascii	"Indications \015\000"
 5079      63617469 
 5079      6F6E7320 
 5079      0D00
 5080 037d 000000   		.space	3
 5081              	.LC122:
 5082 0380 53746172 		.ascii	"Start/stop STEP COUNTER ACTIVITY SUMMARY DATA Indic"
 5082      742F7374 
 5082      6F702053 
 5082      54455020 
 5082      434F554E 
 5083 03b3 6174696F 		.ascii	"ations \015\000"
 5083      6E73200D 
 5083      00
 5084              	.LC124:
 5085 03bc 53746172 		.ascii	"Start/stop SLEEP ACTIVITY INSTANTANEOUS DATA Notifi"
 5085      742F7374 
 5085      6F702053 
 5085      4C454550 
 5085      20414354 
 5086 03ef 63617469 		.ascii	"cations \015\000"
 5086      6F6E7320 
ARM GAS  C:\Users\310309~1\AppData\Local\Temp\ccu8WRKs.s 			page 118


 5086      0D00
 5087 03f9 000000   		.space	3
 5088              	.LC126:
 5089 03fc 53746172 		.ascii	"Start/stop SLEEP ACTIVITY SUMMARY DATA Indications "
 5089      742F7374 
 5089      6F702053 
 5089      4C454550 
 5089      20414354 
 5090 042f 0D00     		.ascii	"\015\000"
 5091 0431 000000   		.space	3
 5092              	.LC128:
 5093 0434 53746172 		.ascii	"Start/stop CONTROL POINT Indications \015\000"
 5093      742F7374 
 5093      6F702043 
 5093      4F4E5452 
 5093      4F4C2050 
 5094 045b 00       		.space	1
 5095              	.LC130:
 5096 045c 53746172 		.ascii	"Start/stop CURRENT SESSION Indications \015\000"
 5096      742F7374 
 5096      6F702043 
 5096      55525245 
 5096      4E542053 
 5097 0485 000000   		.space	3
 5098              	.LC132:
 5099 0488 53746172 		.ascii	"Start/stop SESSION DESCRIPTOR Indications \015\000"
 5099      742F7374 
 5099      6F702053 
 5099      45535349 
 5099      4F4E2044 
 5100              	.LC134:
 5101 04b4 436F6E74 		.ascii	"Control point write request with: %i \015\012\000"
 5101      726F6C20 
 5101      706F696E 
 5101      74207772 
 5101      69746520 
 5102              	.LC137:
 5103 04dc 456E7175 		.ascii	"Enquire Sessions \015\000"
 5103      69726520 
 5103      53657373 
 5103      696F6E73 
 5103      200D00
 5104 04ef 00       		.space	1
 5105              	.LC139:
 5106 04f0 436C6965 		.ascii	"Client not subscribed to control point or session d"
 5106      6E74206E 
 5106      6F742073 
 5106      75627363 
 5106      72696265 
 5107 0523 65736372 		.ascii	"escriptor indications \015\000"
 5107      6970746F 
 5107      7220696E 
 5107      64696361 
 5107      74696F6E 
 5108 053b 00       		.space	1
 5109              	.LC143:
 5110 053c 54686572 		.ascii	"There are no sessions in the database \015\000"
ARM GAS  C:\Users\310309~1\AppData\Local\Temp\ccu8WRKs.s 			page 119


 5110      65206172 
 5110      65206E6F 
 5110      20736573 
 5110      73696F6E 
 5111              	.LC145:
 5112 0564 456E7175 		.ascii	"Enquire Sub-Sessions with with session ID: %i \015\012"
 5112      69726520 
 5112      5375622D 
 5112      53657373 
 5112      696F6E73 
 5113 0594 00       		.ascii	"\000"
 5114 0595 000000   		.space	3
 5115              	.LC150:
 5116 0598 54686572 		.ascii	"There are no Sessions with this ID thus no sub sess"
 5116      65206172 
 5116      65206E6F 
 5116      20536573 
 5116      73696F6E 
 5117 05cb 696F6E73 		.ascii	"ions can be enquired \015\000"
 5117      2063616E 
 5117      20626520 
 5117      656E7175 
 5117      69726564 
 5118 05e2 0000     		.space	2
 5119              	.LC152:
 5120 05e4 436C6965 		.ascii	"Client not subscribed to control point indications "
 5120      6E74206E 
 5120      6F742073 
 5120      75627363 
 5120      72696265 
 5121 0617 0D00     		.ascii	"\015\000"
 5122 0619 000000   		.space	3
 5123              	.LC154:
 5124 061c 4F50434F 		.ascii	"OPCODE not supported \015\000"
 5124      4445206E 
 5124      6F742073 
 5124      7570706F 
 5124      72746564 
 5125 0633 00       		.space	1
 5126              	.LC160:
 5127 0634 54686973 		.ascii	"This session is still running: %i \015\012\000"
 5127      20736573 
 5127      73696F6E 
 5127      20697320 
 5127      7374696C 
 5128 0659 000000   		.space	3
 5129              	.LC162:
 5130 065c 54686572 		.ascii	"There are no Sessions with this ID: %i \015\012\000"
 5130      65206172 
 5130      65206E6F 
 5130      20536573 
 5130      73696F6E 
 5131 0686 0000     		.space	2
 5132              	.LC164:
 5133 0688 54686572 		.ascii	"There are no Sub-Sessions with this ID: %i \015\012"
 5133      65206172 
 5133      65206E6F 
ARM GAS  C:\Users\310309~1\AppData\Local\Temp\ccu8WRKs.s 			page 120


 5133      20537562 
 5133      2D536573 
 5134 06b5 00       		.ascii	"\000"
 5135 06b6 0000     		.space	2
 5136              	.LC166:
 5137 06b8 47657420 		.ascii	"Get Ended Session Data\015\000"
 5137      456E6465 
 5137      64205365 
 5137      7373696F 
 5137      6E204461 
 5138              	.LC168:
 5139 06d0 53657373 		.ascii	"SessionID: %i \015\012\000"
 5139      696F6E49 
 5139      443A2025 
 5139      69200D0A 
 5139      00
 5140 06e1 000000   		.space	3
 5141              	.LC170:
 5142 06e4 5375622D 		.ascii	"Sub-SessionID: %i \015\012\000"
 5142      53657373 
 5142      696F6E49 
 5142      443A2025 
 5142      69200D0A 
 5143 06f9 000000   		.space	3
 5144              	.LC172:
 5145 06fc 43686172 		.ascii	"Characteristic %i (0 = GAI, 1 = GAS, 2 = CRAI, 3 = "
 5145      61637465 
 5145      72697374 
 5145      69632025 
 5145      69202830 
 5146 072f 43524153 		.ascii	"CRAS, 4 = SCAS, 5 = SAI, 6 = SAS) \015\012\000"
 5146      2C203420 
 5146      3D205343 
 5146      41532C20 
 5146      35203D20 
 5147              	.LC176:
 5148 0754 53746172 		.ascii	"Start Session with session ID: %i\015\012 Total ses"
 5148      74205365 
 5148      7373696F 
 5148      6E207769 
 5148      74682073 
 5149 0781 73696F6E 		.ascii	"sions: %i \015\012 Total SUB sessions: %i \015\012\000"
 5149      733A2025 
 5149      69200D0A 
 5149      20546F74 
 5149      616C2053 
 5150              	.LC178:
 5151 07a8 53746172 		.ascii	"Start Sub-Session with sub session ID: %i into sess"
 5151      74205375 
 5151      622D5365 
 5151      7373696F 
 5151      6E207769 
 5152 07db 696F6E49 		.ascii	"ionID: %i\015\012\000"
 5152      443A2025 
 5152      690D0A00 
 5153 07e7 00       		.space	1
 5154              	.LC180:
ARM GAS  C:\Users\310309~1\AppData\Local\Temp\ccu8WRKs.s 			page 121


 5155 07e8 546F7461 		.ascii	"Total sessions: %i \015\012 Total SUB sessions: %i "
 5155      6C207365 
 5155      7373696F 
 5155      6E733A20 
 5155      2569200D 
 5156 0815 0D0A00   		.ascii	"\015\012\000"
 5157              	.LC182:
 5158 0818 43616E6E 		.ascii	"Cannot start new Sub-Session need to start a sessio"
 5158      6F742073 
 5158      74617274 
 5158      206E6577 
 5158      20537562 
 5159 084b 6E206669 		.ascii	"n first\015\000"
 5159      7273740D 
 5159      00
 5160              	.LC184:
 5161 0854 556E6B6E 		.ascii	"Unknown Command\015\012 Specify '0400' to start a s"
 5161      6F776E20 
 5161      436F6D6D 
 5161      616E640D 
 5161      0A205370 
 5162 0881 65737369 		.ascii	"ession and '0401' to start sub-session \015\000"
 5162      6F6E2061 
 5162      6E642027 
 5162      30343031 
 5162      2720746F 
 5163 08aa 0000     		.space	2
 5164              	.LC186:
 5165 08ac 53746F70 		.ascii	"Stop Session\015\000"
 5165      20536573 
 5165      73696F6E 
 5165      0D00
 5166 08ba 0000     		.space	2
 5167              	.LC188:
 5168 08bc 43616E27 		.ascii	"Can't stop session, No running session\015\000"
 5168      74207374 
 5168      6F702073 
 5168      65737369 
 5168      6F6E2C20 
 5169              	.LC190:
 5170 08e4 44656C65 		.ascii	"Delete Session with parameter: %i requested\015\012"
 5170      74652053 
 5170      65737369 
 5170      6F6E2077 
 5170      69746820 
 5171 0911 00       		.ascii	"\000"
 5172 0912 0000     		.space	2
 5173              	.LC192:
 5174 0914 44656C65 		.ascii	"Deleted Session and sub sessions \015\000"
 5174      74656420 
 5174      53657373 
 5174      696F6E20 
 5174      616E6420 
 5175 0937 00       		.space	1
 5176              	.LC194:
 5177 0938 54686572 		.ascii	"There are no sessions with: \015\012 SessionID: %i "
 5177      65206172 
ARM GAS  C:\Users\310309~1\AppData\Local\Temp\ccu8WRKs.s 			page 122


 5177      65206E6F 
 5177      20736573 
 5177      73696F6E 
 5178 0965 0D0A00   		.ascii	"\015\012\000"
 5179              	.LC196:
 5180 0968 54686973 		.ascii	"This session is still running: \015\012 SessionID: "
 5180      20736573 
 5180      73696F6E 
 5180      20697320 
 5180      7374696C 
 5181 0995 2569200D 		.ascii	"%i \015\012\000"
 5181      0A00
 5182 099b 00       		.space	1
 5183              	.LC198:
 5184 099c 54686572 		.ascii	"There are no sessions\015\000"
 5184      65206172 
 5184      65206E6F 
 5184      20736573 
 5184      73696F6E 
 5185 09b3 00       		.space	1
 5186              	.LC200:
 5187 09b4 53657420 		.ascii	"Set Average Activity Type Requested\015\000"
 5187      41766572 
 5187      61676520 
 5187      41637469 
 5187      76697479 
 5188 09d9 000000   		.space	3
 5189              	.LC205:
 5190 09dc 56616C75 		.ascii	"Value Set for: \015\012 Sess ID: %i \015\012 Sub Se"
 5190      65205365 
 5190      7420666F 
 5190      723A200D 
 5190      0A205365 
 5191 0a03 73204944 		.ascii	"s ID: %i \015\012 Value(HEX): %x \015\012\000"
 5191      3A202569 
 5191      200D0A20 
 5191      56616C75 
 5191      65284845 
 5192 0a21 000000   		.space	3
 5193              	.LC207:
 5194 0a24 496E7661 		.ascii	"Invalid Parameter\015\000"
 5194      6C696420 
 5194      50617261 
 5194      6D657465 
 5194      720D00
 5195 0a37 00       		.space	1
 5196              	.LC209:
 5197 0a38 556E6B6E 		.ascii	"Unknown Command\015\000"
 5197      6F776E20 
 5197      436F6D6D 
 5197      616E640D 
 5197      00
 5198              		.bss
 5199              		.type	isButtonPressed, %object
 5200              		.size	isButtonPressed, 1
 5201              	isButtonPressed:
 5202 0000 00       		.space	1
ARM GAS  C:\Users\310309~1\AppData\Local\Temp\ccu8WRKs.s 			page 123


 5203              		.text
 5204              	.Letext0:
 5205              		.file 2 "Generated_Source\\PSoC4/cytypes.h"
 5206              		.file 3 "Generated_Source\\PSoC4/ble_Stack.h"
 5207              		.file 4 "Generated_Source\\PSoC4/ble_StackGap.h"
 5208              		.file 5 "Generated_Source\\PSoC4/ble_StackGatt.h"
 5209              		.file 6 "Generated_Source\\PSoC4/ble_StackGattServer.h"
 5210              		.file 7 "Generated_Source\\PSoC4/ble_dis.h"
 5211              		.file 8 "Generated_Source\\PSoC4/ble_eventHandler.h"
 5212              		.file 9 "pamSessDescr.h"
 5213              		.file 10 "pamGaid.h"
 5214              		.file 11 "pamGasd.h"
 5215              		.file 12 "pamCraid.h"
 5216              		.file 13 "pamCrasd.h"
 5217              		.file 14 "pamScasd.h"
 5218              		.file 15 "pamSaid.h"
 5219              		.file 16 "pamSasd.h"
 5220              		.file 17 "pamControlPoint.h"
 5221              		.file 18 "pamCurrSess.h"
 5222              		.file 19 "Generated_Source\\PSoC4/ble.h"
 5223              		.file 20 "pams.h"
 5224              		.file 21 "pamFeatures.h"
 5225              		.file 22 "Generated_Source\\PSoC4/TCPWM.h"
 5226              		.file 23 "Generated_Source\\PSoC4/Pin_SW2.h"
 5227              		.file 24 "Generated_Source\\PSoC4/UART_DEB.h"
 5228              		.file 25 "Generated_Source\\PSoC4/CyLib.h"
 5229              		.file 26 "Generated_Source\\PSoC4/Pin_SW2_Int.h"
 5230              		.file 27 "Generated_Source\\PSoC4/isr_timer.h"
 5231              		.file 28 "Generated_Source\\PSoC4/UART_DEB_SPI_UART.h"
 5232              		.file 29 "c:\\program files (x86)\\cypress\\psoc creator\\4.1\\psoc creator\\import\\gnu\\arm\\5.4
 5233              		.file 30 "Generated_Source\\PSoC4/pwm.h"
 5234              		.file 31 "Generated_Source\\PSoC4/connected_LED.h"
 5235              		.file 32 "Generated_Source\\PSoC4/disconnected_LED.h"
 5236              		.file 33 "Generated_Source\\PSoC4/ble_StackGattDb.h"
 5237              		.file 34 "Generated_Source\\PSoC4/cyPm.h"
 5238              		.file 35 "<built-in>"
 5239              		.section	.debug_info,"",%progbits
 5240              	.Ldebug_info0:
 5241 0000 FF260000 		.4byte	0x26ff
 5242 0004 0400     		.2byte	0x4
 5243 0006 00000000 		.4byte	.Ldebug_abbrev0
 5244 000a 04       		.byte	0x4
 5245 000b 01       		.uleb128 0x1
 5246 000c 09070000 		.4byte	.LASF502
 5247 0010 0C       		.byte	0xc
 5248 0011 9B2C0000 		.4byte	.LASF503
 5249 0015 DD100000 		.4byte	.LASF504
 5250 0019 D8000000 		.4byte	.Ldebug_ranges0+0xd8
 5251 001d 00000000 		.4byte	0
 5252 0021 00000000 		.4byte	.Ldebug_line0
 5253 0025 02       		.uleb128 0x2
 5254 0026 01       		.byte	0x1
 5255 0027 06       		.byte	0x6
 5256 0028 F01A0000 		.4byte	.LASF0
 5257 002c 02       		.uleb128 0x2
 5258 002d 01       		.byte	0x1
 5259 002e 08       		.byte	0x8
ARM GAS  C:\Users\310309~1\AppData\Local\Temp\ccu8WRKs.s 			page 124


 5260 002f 180A0000 		.4byte	.LASF1
 5261 0033 02       		.uleb128 0x2
 5262 0034 02       		.byte	0x2
 5263 0035 05       		.byte	0x5
 5264 0036 952F0000 		.4byte	.LASF2
 5265 003a 02       		.uleb128 0x2
 5266 003b 02       		.byte	0x2
 5267 003c 07       		.byte	0x7
 5268 003d DD1A0000 		.4byte	.LASF3
 5269 0041 02       		.uleb128 0x2
 5270 0042 04       		.byte	0x4
 5271 0043 05       		.byte	0x5
 5272 0044 1C1D0000 		.4byte	.LASF4
 5273 0048 02       		.uleb128 0x2
 5274 0049 04       		.byte	0x4
 5275 004a 07       		.byte	0x7
 5276 004b D11F0000 		.4byte	.LASF5
 5277 004f 02       		.uleb128 0x2
 5278 0050 08       		.byte	0x8
 5279 0051 05       		.byte	0x5
 5280 0052 F92A0000 		.4byte	.LASF6
 5281 0056 02       		.uleb128 0x2
 5282 0057 08       		.byte	0x8
 5283 0058 07       		.byte	0x7
 5284 0059 6F270000 		.4byte	.LASF7
 5285 005d 03       		.uleb128 0x3
 5286 005e 04       		.byte	0x4
 5287 005f 05       		.byte	0x5
 5288 0060 696E7400 		.ascii	"int\000"
 5289 0064 02       		.uleb128 0x2
 5290 0065 04       		.byte	0x4
 5291 0066 07       		.byte	0x7
 5292 0067 BE2E0000 		.4byte	.LASF8
 5293 006b 04       		.uleb128 0x4
 5294 006c 41050000 		.4byte	.LASF9
 5295 0070 02       		.byte	0x2
 5296 0071 D201     		.2byte	0x1d2
 5297 0073 2C000000 		.4byte	0x2c
 5298 0077 04       		.uleb128 0x4
 5299 0078 971F0000 		.4byte	.LASF10
 5300 007c 02       		.byte	0x2
 5301 007d D301     		.2byte	0x1d3
 5302 007f 3A000000 		.4byte	0x3a
 5303 0083 04       		.uleb128 0x4
 5304 0084 20210000 		.4byte	.LASF11
 5305 0088 02       		.byte	0x2
 5306 0089 D401     		.2byte	0x1d4
 5307 008b 48000000 		.4byte	0x48
 5308 008f 04       		.uleb128 0x4
 5309 0090 49170000 		.4byte	.LASF12
 5310 0094 02       		.byte	0x2
 5311 0095 D501     		.2byte	0x1d5
 5312 0097 25000000 		.4byte	0x25
 5313 009b 04       		.uleb128 0x4
 5314 009c 86270000 		.4byte	.LASF13
 5315 00a0 02       		.byte	0x2
 5316 00a1 D601     		.2byte	0x1d6
ARM GAS  C:\Users\310309~1\AppData\Local\Temp\ccu8WRKs.s 			page 125


 5317 00a3 33000000 		.4byte	0x33
 5318 00a7 02       		.uleb128 0x2
 5319 00a8 04       		.byte	0x4
 5320 00a9 04       		.byte	0x4
 5321 00aa C50A0000 		.4byte	.LASF14
 5322 00ae 02       		.uleb128 0x2
 5323 00af 08       		.byte	0x8
 5324 00b0 04       		.byte	0x4
 5325 00b1 11240000 		.4byte	.LASF15
 5326 00b5 04       		.uleb128 0x4
 5327 00b6 C8220000 		.4byte	.LASF16
 5328 00ba 02       		.byte	0x2
 5329 00bb DE01     		.2byte	0x1de
 5330 00bd 56000000 		.4byte	0x56
 5331 00c1 02       		.uleb128 0x2
 5332 00c2 01       		.byte	0x1
 5333 00c3 08       		.byte	0x8
 5334 00c4 9C200000 		.4byte	.LASF17
 5335 00c8 04       		.uleb128 0x4
 5336 00c9 781A0000 		.4byte	.LASF18
 5337 00cd 02       		.byte	0x2
 5338 00ce 7E02     		.2byte	0x27e
 5339 00d0 D4000000 		.4byte	0xd4
 5340 00d4 05       		.uleb128 0x5
 5341 00d5 83000000 		.4byte	0x83
 5342 00d9 02       		.uleb128 0x2
 5343 00da 08       		.byte	0x8
 5344 00db 04       		.byte	0x4
 5345 00dc 281F0000 		.4byte	.LASF19
 5346 00e0 02       		.uleb128 0x2
 5347 00e1 04       		.byte	0x4
 5348 00e2 07       		.byte	0x7
 5349 00e3 46250000 		.4byte	.LASF20
 5350 00e7 06       		.uleb128 0x6
 5351 00e8 04       		.byte	0x4
 5352 00e9 07       		.uleb128 0x7
 5353 00ea 01       		.byte	0x1
 5354 00eb 2C000000 		.4byte	0x2c
 5355 00ef 03       		.byte	0x3
 5356 00f0 4D01     		.2byte	0x14d
 5357 00f2 A7020000 		.4byte	0x2a7
 5358 00f6 08       		.uleb128 0x8
 5359 00f7 C61A0000 		.4byte	.LASF21
 5360 00fb 00       		.byte	0
 5361 00fc 08       		.uleb128 0x8
 5362 00fd A9020000 		.4byte	.LASF22
 5363 0101 01       		.byte	0x1
 5364 0102 08       		.uleb128 0x8
 5365 0103 700E0000 		.4byte	.LASF23
 5366 0107 02       		.byte	0x2
 5367 0108 08       		.uleb128 0x8
 5368 0109 7C060000 		.4byte	.LASF24
 5369 010d 03       		.byte	0x3
 5370 010e 08       		.uleb128 0x8
 5371 010f 19030000 		.4byte	.LASF25
 5372 0113 04       		.byte	0x4
 5373 0114 08       		.uleb128 0x8
ARM GAS  C:\Users\310309~1\AppData\Local\Temp\ccu8WRKs.s 			page 126


 5374 0115 081E0000 		.4byte	.LASF26
 5375 0119 05       		.byte	0x5
 5376 011a 08       		.uleb128 0x8
 5377 011b 5B150000 		.4byte	.LASF27
 5378 011f 06       		.byte	0x6
 5379 0120 08       		.uleb128 0x8
 5380 0121 F50D0000 		.4byte	.LASF28
 5381 0125 20       		.byte	0x20
 5382 0126 08       		.uleb128 0x8
 5383 0127 B70C0000 		.4byte	.LASF29
 5384 012b 21       		.byte	0x21
 5385 012c 08       		.uleb128 0x8
 5386 012d 54030000 		.4byte	.LASF30
 5387 0131 22       		.byte	0x22
 5388 0132 08       		.uleb128 0x8
 5389 0133 F92F0000 		.4byte	.LASF31
 5390 0137 23       		.byte	0x23
 5391 0138 08       		.uleb128 0x8
 5392 0139 FB000000 		.4byte	.LASF32
 5393 013d 24       		.byte	0x24
 5394 013e 08       		.uleb128 0x8
 5395 013f 70260000 		.4byte	.LASF33
 5396 0143 25       		.byte	0x25
 5397 0144 08       		.uleb128 0x8
 5398 0145 3B0A0000 		.4byte	.LASF34
 5399 0149 26       		.byte	0x26
 5400 014a 08       		.uleb128 0x8
 5401 014b 55190000 		.4byte	.LASF35
 5402 014f 27       		.byte	0x27
 5403 0150 08       		.uleb128 0x8
 5404 0151 AE1E0000 		.4byte	.LASF36
 5405 0155 28       		.byte	0x28
 5406 0156 08       		.uleb128 0x8
 5407 0157 1E190000 		.4byte	.LASF37
 5408 015b 29       		.byte	0x29
 5409 015c 08       		.uleb128 0x8
 5410 015d AD280000 		.4byte	.LASF38
 5411 0161 2A       		.byte	0x2a
 5412 0162 08       		.uleb128 0x8
 5413 0163 552B0000 		.4byte	.LASF39
 5414 0167 2B       		.byte	0x2b
 5415 0168 08       		.uleb128 0x8
 5416 0169 9E1D0000 		.4byte	.LASF40
 5417 016d 2C       		.byte	0x2c
 5418 016e 08       		.uleb128 0x8
 5419 016f 422A0000 		.4byte	.LASF41
 5420 0173 2D       		.byte	0x2d
 5421 0174 08       		.uleb128 0x8
 5422 0175 AE1C0000 		.4byte	.LASF42
 5423 0179 2E       		.byte	0x2e
 5424 017a 08       		.uleb128 0x8
 5425 017b 6D2D0000 		.4byte	.LASF43
 5426 017f 2F       		.byte	0x2f
 5427 0180 08       		.uleb128 0x8
 5428 0181 AF120000 		.4byte	.LASF44
 5429 0185 30       		.byte	0x30
 5430 0186 08       		.uleb128 0x8
ARM GAS  C:\Users\310309~1\AppData\Local\Temp\ccu8WRKs.s 			page 127


 5431 0187 CB2E0000 		.4byte	.LASF45
 5432 018b 31       		.byte	0x31
 5433 018c 08       		.uleb128 0x8
 5434 018d 0F050000 		.4byte	.LASF46
 5435 0191 32       		.byte	0x32
 5436 0192 08       		.uleb128 0x8
 5437 0193 6A080000 		.4byte	.LASF47
 5438 0197 33       		.byte	0x33
 5439 0198 08       		.uleb128 0x8
 5440 0199 9A240000 		.4byte	.LASF48
 5441 019d 34       		.byte	0x34
 5442 019e 08       		.uleb128 0x8
 5443 019f 6B280000 		.4byte	.LASF49
 5444 01a3 35       		.byte	0x35
 5445 01a4 08       		.uleb128 0x8
 5446 01a5 7C2A0000 		.4byte	.LASF50
 5447 01a9 36       		.byte	0x36
 5448 01aa 08       		.uleb128 0x8
 5449 01ab C3240000 		.4byte	.LASF51
 5450 01af 37       		.byte	0x37
 5451 01b0 08       		.uleb128 0x8
 5452 01b1 9D090000 		.4byte	.LASF52
 5453 01b5 40       		.byte	0x40
 5454 01b6 08       		.uleb128 0x8
 5455 01b7 5A240000 		.4byte	.LASF53
 5456 01bb 41       		.byte	0x41
 5457 01bc 08       		.uleb128 0x8
 5458 01bd 2B170000 		.4byte	.LASF54
 5459 01c1 42       		.byte	0x42
 5460 01c2 08       		.uleb128 0x8
 5461 01c3 49220000 		.4byte	.LASF55
 5462 01c7 43       		.byte	0x43
 5463 01c8 08       		.uleb128 0x8
 5464 01c9 AD030000 		.4byte	.LASF56
 5465 01cd 44       		.byte	0x44
 5466 01ce 08       		.uleb128 0x8
 5467 01cf 241E0000 		.4byte	.LASF57
 5468 01d3 45       		.byte	0x45
 5469 01d4 08       		.uleb128 0x8
 5470 01d5 0C2D0000 		.4byte	.LASF58
 5471 01d9 46       		.byte	0x46
 5472 01da 08       		.uleb128 0x8
 5473 01db 9C0B0000 		.4byte	.LASF59
 5474 01df 47       		.byte	0x47
 5475 01e0 08       		.uleb128 0x8
 5476 01e1 DB1C0000 		.4byte	.LASF60
 5477 01e5 48       		.byte	0x48
 5478 01e6 08       		.uleb128 0x8
 5479 01e7 45040000 		.4byte	.LASF61
 5480 01eb 49       		.byte	0x49
 5481 01ec 08       		.uleb128 0x8
 5482 01ed 0B150000 		.4byte	.LASF62
 5483 01f1 4A       		.byte	0x4a
 5484 01f2 08       		.uleb128 0x8
 5485 01f3 14090000 		.4byte	.LASF63
 5486 01f7 4B       		.byte	0x4b
 5487 01f8 08       		.uleb128 0x8
ARM GAS  C:\Users\310309~1\AppData\Local\Temp\ccu8WRKs.s 			page 128


 5488 01f9 AA2C0000 		.4byte	.LASF64
 5489 01fd 4C       		.byte	0x4c
 5490 01fe 08       		.uleb128 0x8
 5491 01ff 7D1F0000 		.4byte	.LASF65
 5492 0203 4D       		.byte	0x4d
 5493 0204 08       		.uleb128 0x8
 5494 0205 C8080000 		.4byte	.LASF66
 5495 0209 4E       		.byte	0x4e
 5496 020a 08       		.uleb128 0x8
 5497 020b B9210000 		.4byte	.LASF67
 5498 020f 4F       		.byte	0x4f
 5499 0210 08       		.uleb128 0x8
 5500 0211 AD150000 		.4byte	.LASF68
 5501 0215 50       		.byte	0x50
 5502 0216 08       		.uleb128 0x8
 5503 0217 601B0000 		.4byte	.LASF69
 5504 021b 51       		.byte	0x51
 5505 021c 08       		.uleb128 0x8
 5506 021d CC0F0000 		.4byte	.LASF70
 5507 0221 52       		.byte	0x52
 5508 0222 08       		.uleb128 0x8
 5509 0223 B0230000 		.4byte	.LASF71
 5510 0227 53       		.byte	0x53
 5511 0228 08       		.uleb128 0x8
 5512 0229 AB2B0000 		.4byte	.LASF72
 5513 022d 54       		.byte	0x54
 5514 022e 08       		.uleb128 0x8
 5515 022f 42020000 		.4byte	.LASF73
 5516 0233 55       		.byte	0x55
 5517 0234 08       		.uleb128 0x8
 5518 0235 04200000 		.4byte	.LASF74
 5519 0239 56       		.byte	0x56
 5520 023a 08       		.uleb128 0x8
 5521 023b 15270000 		.4byte	.LASF75
 5522 023f 57       		.byte	0x57
 5523 0240 08       		.uleb128 0x8
 5524 0241 C42C0000 		.4byte	.LASF76
 5525 0245 58       		.byte	0x58
 5526 0246 08       		.uleb128 0x8
 5527 0247 49270000 		.4byte	.LASF77
 5528 024b 70       		.byte	0x70
 5529 024c 08       		.uleb128 0x8
 5530 024d BB170000 		.4byte	.LASF78
 5531 0251 71       		.byte	0x71
 5532 0252 08       		.uleb128 0x8
 5533 0253 97070000 		.4byte	.LASF79
 5534 0257 72       		.byte	0x72
 5535 0258 08       		.uleb128 0x8
 5536 0259 CF0B0000 		.4byte	.LASF80
 5537 025d 73       		.byte	0x73
 5538 025e 08       		.uleb128 0x8
 5539 025f E4200000 		.4byte	.LASF81
 5540 0263 74       		.byte	0x74
 5541 0264 08       		.uleb128 0x8
 5542 0265 420C0000 		.4byte	.LASF82
 5543 0269 75       		.byte	0x75
 5544 026a 08       		.uleb128 0x8
ARM GAS  C:\Users\310309~1\AppData\Local\Temp\ccu8WRKs.s 			page 129


 5545 026b 6B210000 		.4byte	.LASF83
 5546 026f 76       		.byte	0x76
 5547 0270 08       		.uleb128 0x8
 5548 0271 18130000 		.4byte	.LASF84
 5549 0275 77       		.byte	0x77
 5550 0276 08       		.uleb128 0x8
 5551 0277 4A2D0000 		.4byte	.LASF85
 5552 027b 78       		.byte	0x78
 5553 027c 08       		.uleb128 0x8
 5554 027d 042E0000 		.4byte	.LASF86
 5555 0281 79       		.byte	0x79
 5556 0282 08       		.uleb128 0x8
 5557 0283 A80F0000 		.4byte	.LASF87
 5558 0287 7A       		.byte	0x7a
 5559 0288 08       		.uleb128 0x8
 5560 0289 7E1A0000 		.4byte	.LASF88
 5561 028d FA       		.byte	0xfa
 5562 028e 08       		.uleb128 0x8
 5563 028f 470F0000 		.4byte	.LASF89
 5564 0293 FB       		.byte	0xfb
 5565 0294 08       		.uleb128 0x8
 5566 0295 F3070000 		.4byte	.LASF90
 5567 0299 FC       		.byte	0xfc
 5568 029a 08       		.uleb128 0x8
 5569 029b 022A0000 		.4byte	.LASF91
 5570 029f FD       		.byte	0xfd
 5571 02a0 08       		.uleb128 0x8
 5572 02a1 7D000000 		.4byte	.LASF92
 5573 02a5 FF       		.byte	0xff
 5574 02a6 00       		.byte	0
 5575 02a7 07       		.uleb128 0x7
 5576 02a8 02       		.byte	0x2
 5577 02a9 3A000000 		.4byte	0x3a
 5578 02ad 03       		.byte	0x3
 5579 02ae 0204     		.2byte	0x402
 5580 02b0 80030000 		.4byte	0x380
 5581 02b4 08       		.uleb128 0x8
 5582 02b5 A2010000 		.4byte	.LASF93
 5583 02b9 00       		.byte	0
 5584 02ba 08       		.uleb128 0x8
 5585 02bb 95060000 		.4byte	.LASF94
 5586 02bf 01       		.byte	0x1
 5587 02c0 08       		.uleb128 0x8
 5588 02c1 02210000 		.4byte	.LASF95
 5589 02c5 02       		.byte	0x2
 5590 02c6 08       		.uleb128 0x8
 5591 02c7 891E0000 		.4byte	.LASF96
 5592 02cb 03       		.byte	0x3
 5593 02cc 08       		.uleb128 0x8
 5594 02cd E51D0000 		.4byte	.LASF97
 5595 02d1 04       		.byte	0x4
 5596 02d2 08       		.uleb128 0x8
 5597 02d3 20260000 		.4byte	.LASF98
 5598 02d7 05       		.byte	0x5
 5599 02d8 08       		.uleb128 0x8
 5600 02d9 451F0000 		.4byte	.LASF99
 5601 02dd 06       		.byte	0x6
ARM GAS  C:\Users\310309~1\AppData\Local\Temp\ccu8WRKs.s 			page 130


 5602 02de 08       		.uleb128 0x8
 5603 02df 4E210000 		.4byte	.LASF100
 5604 02e3 07       		.byte	0x7
 5605 02e4 08       		.uleb128 0x8
 5606 02e5 760F0000 		.4byte	.LASF101
 5607 02e9 08       		.byte	0x8
 5608 02ea 08       		.uleb128 0x8
 5609 02eb 60160000 		.4byte	.LASF102
 5610 02ef 09       		.byte	0x9
 5611 02f0 08       		.uleb128 0x8
 5612 02f1 85220000 		.4byte	.LASF103
 5613 02f5 0A       		.byte	0xa
 5614 02f6 08       		.uleb128 0x8
 5615 02f7 E5010000 		.4byte	.LASF104
 5616 02fb 0B       		.byte	0xb
 5617 02fc 08       		.uleb128 0x8
 5618 02fd 9E1F0000 		.4byte	.LASF105
 5619 0301 0C       		.byte	0xc
 5620 0302 08       		.uleb128 0x8
 5621 0303 CC2B0000 		.4byte	.LASF106
 5622 0307 0D       		.byte	0xd
 5623 0308 08       		.uleb128 0x8
 5624 0309 27000000 		.4byte	.LASF107
 5625 030d 0E       		.byte	0xe
 5626 030e 08       		.uleb128 0x8
 5627 030f 5A1D0000 		.4byte	.LASF108
 5628 0313 0F       		.byte	0xf
 5629 0314 08       		.uleb128 0x8
 5630 0315 32160000 		.4byte	.LASF109
 5631 0319 10       		.byte	0x10
 5632 031a 08       		.uleb128 0x8
 5633 031b DD270000 		.4byte	.LASF110
 5634 031f 11       		.byte	0x11
 5635 0320 08       		.uleb128 0x8
 5636 0321 A10D0000 		.4byte	.LASF111
 5637 0325 12       		.byte	0x12
 5638 0326 08       		.uleb128 0x8
 5639 0327 C4020000 		.4byte	.LASF112
 5640 032b 13       		.byte	0x13
 5641 032c 08       		.uleb128 0x8
 5642 032d 02160000 		.4byte	.LASF113
 5643 0331 27       		.byte	0x27
 5644 0332 08       		.uleb128 0x8
 5645 0333 88280000 		.4byte	.LASF114
 5646 0337 28       		.byte	0x28
 5647 0338 08       		.uleb128 0x8
 5648 0339 4D130000 		.4byte	.LASF115
 5649 033d 29       		.byte	0x29
 5650 033e 08       		.uleb128 0x8
 5651 033f 2D2D0000 		.4byte	.LASF116
 5652 0343 2A       		.byte	0x2a
 5653 0344 08       		.uleb128 0x8
 5654 0345 69300000 		.4byte	.LASF117
 5655 0349 2B       		.byte	0x2b
 5656 034a 08       		.uleb128 0x8
 5657 034b 4B1E0000 		.4byte	.LASF118
 5658 034f 2C       		.byte	0x2c
ARM GAS  C:\Users\310309~1\AppData\Local\Temp\ccu8WRKs.s 			page 131


 5659 0350 08       		.uleb128 0x8
 5660 0351 7E0A0000 		.4byte	.LASF119
 5661 0355 FE       		.byte	0xfe
 5662 0356 08       		.uleb128 0x8
 5663 0357 75220000 		.4byte	.LASF120
 5664 035b FF       		.byte	0xff
 5665 035c 09       		.uleb128 0x9
 5666 035d AA100000 		.4byte	.LASF121
 5667 0361 0001     		.2byte	0x100
 5668 0363 09       		.uleb128 0x9
 5669 0364 17010000 		.4byte	.LASF122
 5670 0368 0101     		.2byte	0x101
 5671 036a 09       		.uleb128 0x9
 5672 036b E7050000 		.4byte	.LASF123
 5673 036f 0201     		.2byte	0x102
 5674 0371 09       		.uleb128 0x9
 5675 0372 021D0000 		.4byte	.LASF124
 5676 0376 0301     		.2byte	0x103
 5677 0378 09       		.uleb128 0x9
 5678 0379 CF0D0000 		.4byte	.LASF125
 5679 037d 0401     		.2byte	0x104
 5680 037f 00       		.byte	0
 5681 0380 04       		.uleb128 0x4
 5682 0381 DD110000 		.4byte	.LASF126
 5683 0385 03       		.byte	0x3
 5684 0386 7104     		.2byte	0x471
 5685 0388 A7020000 		.4byte	0x2a7
 5686 038c 07       		.uleb128 0x7
 5687 038d 01       		.byte	0x1
 5688 038e 2C000000 		.4byte	0x2c
 5689 0392 03       		.byte	0x3
 5690 0393 7504     		.2byte	0x475
 5691 0395 B8030000 		.4byte	0x3b8
 5692 0399 08       		.uleb128 0x8
 5693 039a 49260000 		.4byte	.LASF127
 5694 039e 01       		.byte	0x1
 5695 039f 08       		.uleb128 0x8
 5696 03a0 15000000 		.4byte	.LASF128
 5697 03a4 02       		.byte	0x2
 5698 03a5 08       		.uleb128 0x8
 5699 03a6 37130000 		.4byte	.LASF129
 5700 03aa 03       		.byte	0x3
 5701 03ab 08       		.uleb128 0x8
 5702 03ac 13080000 		.4byte	.LASF130
 5703 03b0 04       		.byte	0x4
 5704 03b1 08       		.uleb128 0x8
 5705 03b2 87120000 		.4byte	.LASF131
 5706 03b6 FF       		.byte	0xff
 5707 03b7 00       		.byte	0
 5708 03b8 0A       		.uleb128 0xa
 5709 03b9 07       		.byte	0x7
 5710 03ba 03       		.byte	0x3
 5711 03bb 3F05     		.2byte	0x53f
 5712 03bd DC030000 		.4byte	0x3dc
 5713 03c1 0B       		.uleb128 0xb
 5714 03c2 ED0F0000 		.4byte	.LASF132
 5715 03c6 03       		.byte	0x3
ARM GAS  C:\Users\310309~1\AppData\Local\Temp\ccu8WRKs.s 			page 132


 5716 03c7 4205     		.2byte	0x542
 5717 03c9 DC030000 		.4byte	0x3dc
 5718 03cd 00       		.byte	0
 5719 03ce 0B       		.uleb128 0xb
 5720 03cf 31080000 		.4byte	.LASF133
 5721 03d3 03       		.byte	0x3
 5722 03d4 4405     		.2byte	0x544
 5723 03d6 6B000000 		.4byte	0x6b
 5724 03da 06       		.byte	0x6
 5725 03db 00       		.byte	0
 5726 03dc 0C       		.uleb128 0xc
 5727 03dd 6B000000 		.4byte	0x6b
 5728 03e1 EC030000 		.4byte	0x3ec
 5729 03e5 0D       		.uleb128 0xd
 5730 03e6 E0000000 		.4byte	0xe0
 5731 03ea 05       		.byte	0x5
 5732 03eb 00       		.byte	0
 5733 03ec 04       		.uleb128 0x4
 5734 03ed FF240000 		.4byte	.LASF134
 5735 03f1 03       		.byte	0x3
 5736 03f2 4505     		.2byte	0x545
 5737 03f4 B8030000 		.4byte	0x3b8
 5738 03f8 0E       		.uleb128 0xe
 5739 03f9 04       		.byte	0x4
 5740 03fa 6B000000 		.4byte	0x6b
 5741 03fe 07       		.uleb128 0x7
 5742 03ff 01       		.byte	0x1
 5743 0400 2C000000 		.4byte	0x2c
 5744 0404 04       		.byte	0x4
 5745 0405 3D01     		.2byte	0x13d
 5746 0407 78040000 		.4byte	0x478
 5747 040b 08       		.uleb128 0x8
 5748 040c C3100000 		.4byte	.LASF135
 5749 0410 00       		.byte	0
 5750 0411 08       		.uleb128 0x8
 5751 0412 16230000 		.4byte	.LASF136
 5752 0416 01       		.byte	0x1
 5753 0417 08       		.uleb128 0x8
 5754 0418 B12D0000 		.4byte	.LASF137
 5755 041c 02       		.byte	0x2
 5756 041d 08       		.uleb128 0x8
 5757 041e 301B0000 		.4byte	.LASF138
 5758 0422 03       		.byte	0x3
 5759 0423 08       		.uleb128 0x8
 5760 0424 111C0000 		.4byte	.LASF139
 5761 0428 04       		.byte	0x4
 5762 0429 08       		.uleb128 0x8
 5763 042a 742B0000 		.4byte	.LASF140
 5764 042e 05       		.byte	0x5
 5765 042f 08       		.uleb128 0x8
 5766 0430 332C0000 		.4byte	.LASF141
 5767 0434 06       		.byte	0x6
 5768 0435 08       		.uleb128 0x8
 5769 0436 F80A0000 		.4byte	.LASF142
 5770 043a 07       		.byte	0x7
 5771 043b 08       		.uleb128 0x8
 5772 043c 7E170000 		.4byte	.LASF143
ARM GAS  C:\Users\310309~1\AppData\Local\Temp\ccu8WRKs.s 			page 133


 5773 0440 08       		.byte	0x8
 5774 0441 08       		.uleb128 0x8
 5775 0442 27210000 		.4byte	.LASF144
 5776 0446 09       		.byte	0x9
 5777 0447 08       		.uleb128 0x8
 5778 0448 48100000 		.4byte	.LASF145
 5779 044c 0A       		.byte	0xa
 5780 044d 08       		.uleb128 0x8
 5781 044e ED260000 		.4byte	.LASF146
 5782 0452 0B       		.byte	0xb
 5783 0453 08       		.uleb128 0x8
 5784 0454 5F140000 		.4byte	.LASF147
 5785 0458 0C       		.byte	0xc
 5786 0459 08       		.uleb128 0x8
 5787 045a 70100000 		.4byte	.LASF148
 5788 045e 0D       		.byte	0xd
 5789 045f 08       		.uleb128 0x8
 5790 0460 D01E0000 		.4byte	.LASF149
 5791 0464 0E       		.byte	0xe
 5792 0465 08       		.uleb128 0x8
 5793 0466 D41B0000 		.4byte	.LASF150
 5794 046a 0F       		.byte	0xf
 5795 046b 08       		.uleb128 0x8
 5796 046c 820E0000 		.4byte	.LASF151
 5797 0470 15       		.byte	0x15
 5798 0471 08       		.uleb128 0x8
 5799 0472 9D270000 		.4byte	.LASF152
 5800 0476 18       		.byte	0x18
 5801 0477 00       		.byte	0
 5802 0478 04       		.uleb128 0x4
 5803 0479 080F0000 		.4byte	.LASF153
 5804 047d 04       		.byte	0x4
 5805 047e 7D01     		.2byte	0x17d
 5806 0480 FE030000 		.4byte	0x3fe
 5807 0484 0A       		.uleb128 0xa
 5808 0485 05       		.byte	0x5
 5809 0486 04       		.byte	0x4
 5810 0487 C601     		.2byte	0x1c6
 5811 0489 CF040000 		.4byte	0x4cf
 5812 048d 0B       		.uleb128 0xb
 5813 048e CC190000 		.4byte	.LASF154
 5814 0492 04       		.byte	0x4
 5815 0493 D001     		.2byte	0x1d0
 5816 0495 6B000000 		.4byte	0x6b
 5817 0499 00       		.byte	0
 5818 049a 0B       		.uleb128 0xb
 5819 049b A22C0000 		.4byte	.LASF155
 5820 049f 04       		.byte	0x4
 5821 04a0 D601     		.2byte	0x1d6
 5822 04a2 6B000000 		.4byte	0x6b
 5823 04a6 01       		.byte	0x1
 5824 04a7 0B       		.uleb128 0xb
 5825 04a8 81150000 		.4byte	.LASF156
 5826 04ac 04       		.byte	0x4
 5827 04ad DD01     		.2byte	0x1dd
 5828 04af 6B000000 		.4byte	0x6b
 5829 04b3 02       		.byte	0x2
ARM GAS  C:\Users\310309~1\AppData\Local\Temp\ccu8WRKs.s 			page 134


 5830 04b4 0B       		.uleb128 0xb
 5831 04b5 232A0000 		.4byte	.LASF157
 5832 04b9 04       		.byte	0x4
 5833 04ba E101     		.2byte	0x1e1
 5834 04bc 78040000 		.4byte	0x478
 5835 04c0 03       		.byte	0x3
 5836 04c1 0B       		.uleb128 0xb
 5837 04c2 FF180000 		.4byte	.LASF158
 5838 04c6 04       		.byte	0x4
 5839 04c7 EB01     		.2byte	0x1eb
 5840 04c9 6B000000 		.4byte	0x6b
 5841 04cd 04       		.byte	0x4
 5842 04ce 00       		.byte	0
 5843 04cf 04       		.uleb128 0x4
 5844 04d0 7F1D0000 		.4byte	.LASF159
 5845 04d4 04       		.byte	0x4
 5846 04d5 ED01     		.2byte	0x1ed
 5847 04d7 84040000 		.4byte	0x484
 5848 04db 0F       		.uleb128 0xf
 5849 04dc 01       		.byte	0x1
 5850 04dd 2C000000 		.4byte	0x2c
 5851 04e1 05       		.byte	0x5
 5852 04e2 49       		.byte	0x49
 5853 04e3 96050000 		.4byte	0x596
 5854 04e7 08       		.uleb128 0x8
 5855 04e8 4A140000 		.4byte	.LASF160
 5856 04ec 01       		.byte	0x1
 5857 04ed 08       		.uleb128 0x8
 5858 04ee F0110000 		.4byte	.LASF161
 5859 04f2 02       		.byte	0x2
 5860 04f3 08       		.uleb128 0x8
 5861 04f4 72050000 		.4byte	.LASF162
 5862 04f8 03       		.byte	0x3
 5863 04f9 08       		.uleb128 0x8
 5864 04fa 94030000 		.4byte	.LASF163
 5865 04fe 04       		.byte	0x4
 5866 04ff 08       		.uleb128 0x8
 5867 0500 570E0000 		.4byte	.LASF164
 5868 0504 05       		.byte	0x5
 5869 0505 08       		.uleb128 0x8
 5870 0506 B0050000 		.4byte	.LASF165
 5871 050a 06       		.byte	0x6
 5872 050b 08       		.uleb128 0x8
 5873 050c F6120000 		.4byte	.LASF166
 5874 0510 07       		.byte	0x7
 5875 0511 08       		.uleb128 0x8
 5876 0512 200D0000 		.4byte	.LASF167
 5877 0516 08       		.byte	0x8
 5878 0517 08       		.uleb128 0x8
 5879 0518 83190000 		.4byte	.LASF168
 5880 051c 09       		.byte	0x9
 5881 051d 08       		.uleb128 0x8
 5882 051e 940F0000 		.4byte	.LASF169
 5883 0522 0A       		.byte	0xa
 5884 0523 08       		.uleb128 0x8
 5885 0524 FD1B0000 		.4byte	.LASF170
 5886 0528 0B       		.byte	0xb
ARM GAS  C:\Users\310309~1\AppData\Local\Temp\ccu8WRKs.s 			page 135


 5887 0529 08       		.uleb128 0x8
 5888 052a B7090000 		.4byte	.LASF171
 5889 052e 0C       		.byte	0xc
 5890 052f 08       		.uleb128 0x8
 5891 0530 E1170000 		.4byte	.LASF172
 5892 0534 0D       		.byte	0xd
 5893 0535 08       		.uleb128 0x8
 5894 0536 26200000 		.4byte	.LASF173
 5895 053a 0E       		.byte	0xe
 5896 053b 08       		.uleb128 0x8
 5897 053c 1A250000 		.4byte	.LASF174
 5898 0540 0F       		.byte	0xf
 5899 0541 08       		.uleb128 0x8
 5900 0542 F7080000 		.4byte	.LASF175
 5901 0546 10       		.byte	0x10
 5902 0547 08       		.uleb128 0x8
 5903 0548 61170000 		.4byte	.LASF176
 5904 054c 11       		.byte	0x11
 5905 054d 08       		.uleb128 0x8
 5906 054e 8F1C0000 		.4byte	.LASF177
 5907 0552 12       		.byte	0x12
 5908 0553 08       		.uleb128 0x8
 5909 0554 0B260000 		.4byte	.LASF178
 5910 0558 13       		.byte	0x13
 5911 0559 08       		.uleb128 0x8
 5912 055a BA0B0000 		.4byte	.LASF179
 5913 055e 52       		.byte	0x52
 5914 055f 08       		.uleb128 0x8
 5915 0560 AB220000 		.4byte	.LASF180
 5916 0564 16       		.byte	0x16
 5917 0565 08       		.uleb128 0x8
 5918 0566 A12E0000 		.4byte	.LASF181
 5919 056a 17       		.byte	0x17
 5920 056b 08       		.uleb128 0x8
 5921 056c CB140000 		.4byte	.LASF182
 5922 0570 18       		.byte	0x18
 5923 0571 08       		.uleb128 0x8
 5924 0572 C21D0000 		.4byte	.LASF183
 5925 0576 19       		.byte	0x19
 5926 0577 08       		.uleb128 0x8
 5927 0578 7F2C0000 		.4byte	.LASF184
 5928 057c 1B       		.byte	0x1b
 5929 057d 08       		.uleb128 0x8
 5930 057e F40F0000 		.4byte	.LASF185
 5931 0582 1D       		.byte	0x1d
 5932 0583 08       		.uleb128 0x8
 5933 0584 D1230000 		.4byte	.LASF186
 5934 0588 1E       		.byte	0x1e
 5935 0589 08       		.uleb128 0x8
 5936 058a D0120000 		.4byte	.LASF187
 5937 058e D2       		.byte	0xd2
 5938 058f 08       		.uleb128 0x8
 5939 0590 E91F0000 		.4byte	.LASF188
 5940 0594 FF       		.byte	0xff
 5941 0595 00       		.byte	0
 5942 0596 0F       		.uleb128 0xf
 5943 0597 01       		.byte	0x1
ARM GAS  C:\Users\310309~1\AppData\Local\Temp\ccu8WRKs.s 			page 136


 5944 0598 2C000000 		.4byte	0x2c
 5945 059c 05       		.byte	0x5
 5946 059d A5       		.byte	0xa5
 5947 059e 8D060000 		.4byte	0x68d
 5948 05a2 08       		.uleb128 0x8
 5949 05a3 7B160000 		.4byte	.LASF189
 5950 05a7 00       		.byte	0
 5951 05a8 08       		.uleb128 0x8
 5952 05a9 9B210000 		.4byte	.LASF190
 5953 05ad 01       		.byte	0x1
 5954 05ae 08       		.uleb128 0x8
 5955 05af D72F0000 		.4byte	.LASF191
 5956 05b3 02       		.byte	0x2
 5957 05b4 08       		.uleb128 0x8
 5958 05b5 251D0000 		.4byte	.LASF192
 5959 05b9 03       		.byte	0x3
 5960 05ba 08       		.uleb128 0x8
 5961 05bb CE0C0000 		.4byte	.LASF193
 5962 05bf 04       		.byte	0x4
 5963 05c0 08       		.uleb128 0x8
 5964 05c1 18240000 		.4byte	.LASF194
 5965 05c5 05       		.byte	0x5
 5966 05c6 08       		.uleb128 0x8
 5967 05c7 7A0C0000 		.4byte	.LASF195
 5968 05cb 06       		.byte	0x6
 5969 05cc 08       		.uleb128 0x8
 5970 05cd DA190000 		.4byte	.LASF196
 5971 05d1 07       		.byte	0x7
 5972 05d2 08       		.uleb128 0x8
 5973 05d3 4E1A0000 		.4byte	.LASF197
 5974 05d7 08       		.byte	0x8
 5975 05d8 08       		.uleb128 0x8
 5976 05d9 4A0D0000 		.4byte	.LASF198
 5977 05dd 09       		.byte	0x9
 5978 05de 08       		.uleb128 0x8
 5979 05df 190E0000 		.4byte	.LASF199
 5980 05e3 0A       		.byte	0xa
 5981 05e4 08       		.uleb128 0x8
 5982 05e5 A7130000 		.4byte	.LASF200
 5983 05e9 0B       		.byte	0xb
 5984 05ea 08       		.uleb128 0x8
 5985 05eb 8B000000 		.4byte	.LASF201
 5986 05ef 0C       		.byte	0xc
 5987 05f0 08       		.uleb128 0x8
 5988 05f1 D42A0000 		.4byte	.LASF202
 5989 05f5 0D       		.byte	0xd
 5990 05f6 08       		.uleb128 0x8
 5991 05f7 8E140000 		.4byte	.LASF203
 5992 05fb 0E       		.byte	0xe
 5993 05fc 08       		.uleb128 0x8
 5994 05fd 5D2F0000 		.4byte	.LASF204
 5995 0601 0F       		.byte	0xf
 5996 0602 08       		.uleb128 0x8
 5997 0603 631E0000 		.4byte	.LASF205
 5998 0607 10       		.byte	0x10
 5999 0608 08       		.uleb128 0x8
 6000 0609 D10E0000 		.4byte	.LASF206
ARM GAS  C:\Users\310309~1\AppData\Local\Temp\ccu8WRKs.s 			page 137


 6001 060d 11       		.byte	0x11
 6002 060e 08       		.uleb128 0x8
 6003 060f 36080000 		.4byte	.LASF207
 6004 0613 80       		.byte	0x80
 6005 0614 08       		.uleb128 0x8
 6006 0615 1C180000 		.4byte	.LASF208
 6007 0619 80       		.byte	0x80
 6008 061a 08       		.uleb128 0x8
 6009 061b F12B0000 		.4byte	.LASF209
 6010 061f 80       		.byte	0x80
 6011 0620 08       		.uleb128 0x8
 6012 0621 ED0B0000 		.4byte	.LASF210
 6013 0625 80       		.byte	0x80
 6014 0626 08       		.uleb128 0x8
 6015 0627 F6280000 		.4byte	.LASF211
 6016 062b 80       		.byte	0x80
 6017 062c 08       		.uleb128 0x8
 6018 062d B0260000 		.4byte	.LASF212
 6019 0631 80       		.byte	0x80
 6020 0632 08       		.uleb128 0x8
 6021 0633 E6250000 		.4byte	.LASF213
 6022 0637 80       		.byte	0x80
 6023 0638 08       		.uleb128 0x8
 6024 0639 962D0000 		.4byte	.LASF214
 6025 063d 80       		.byte	0x80
 6026 063e 08       		.uleb128 0x8
 6027 063f CB030000 		.4byte	.LASF215
 6028 0643 81       		.byte	0x81
 6029 0644 08       		.uleb128 0x8
 6030 0645 55090000 		.4byte	.LASF216
 6031 0649 81       		.byte	0x81
 6032 064a 08       		.uleb128 0x8
 6033 064b 630A0000 		.4byte	.LASF217
 6034 064f 81       		.byte	0x81
 6035 0650 08       		.uleb128 0x8
 6036 0651 CC150000 		.4byte	.LASF218
 6037 0655 81       		.byte	0x81
 6038 0656 08       		.uleb128 0x8
 6039 0657 8A260000 		.4byte	.LASF219
 6040 065b 82       		.byte	0x82
 6041 065c 08       		.uleb128 0x8
 6042 065d 20220000 		.4byte	.LASF220
 6043 0661 A0       		.byte	0xa0
 6044 0662 08       		.uleb128 0x8
 6045 0663 211A0000 		.4byte	.LASF221
 6046 0667 A0       		.byte	0xa0
 6047 0668 08       		.uleb128 0x8
 6048 0669 951B0000 		.4byte	.LASF222
 6049 066d A1       		.byte	0xa1
 6050 066e 08       		.uleb128 0x8
 6051 066f 8C250000 		.4byte	.LASF223
 6052 0673 A2       		.byte	0xa2
 6053 0674 08       		.uleb128 0x8
 6054 0675 FE0C0000 		.4byte	.LASF224
 6055 0679 A3       		.byte	0xa3
 6056 067a 08       		.uleb128 0x8
 6057 067b EE090000 		.4byte	.LASF225
ARM GAS  C:\Users\310309~1\AppData\Local\Temp\ccu8WRKs.s 			page 138


 6058 067f FD       		.byte	0xfd
 6059 0680 08       		.uleb128 0x8
 6060 0681 EC020000 		.4byte	.LASF226
 6061 0685 FE       		.byte	0xfe
 6062 0686 08       		.uleb128 0x8
 6063 0687 141B0000 		.4byte	.LASF227
 6064 068b FF       		.byte	0xff
 6065 068c 00       		.byte	0
 6066 068d 04       		.uleb128 0x4
 6067 068e 2A300000 		.4byte	.LASF228
 6068 0692 05       		.byte	0x5
 6069 0693 5F01     		.2byte	0x15f
 6070 0695 96050000 		.4byte	0x596
 6071 0699 04       		.uleb128 0x4
 6072 069a 562E0000 		.4byte	.LASF229
 6073 069e 05       		.byte	0x5
 6074 069f 8901     		.2byte	0x189
 6075 06a1 77000000 		.4byte	0x77
 6076 06a5 0A       		.uleb128 0xa
 6077 06a6 02       		.byte	0x2
 6078 06a7 05       		.byte	0x5
 6079 06a8 9301     		.2byte	0x193
 6080 06aa C9060000 		.4byte	0x6c9
 6081 06ae 0B       		.uleb128 0xb
 6082 06af 270F0000 		.4byte	.LASF230
 6083 06b3 05       		.byte	0x5
 6084 06b4 9A01     		.2byte	0x19a
 6085 06b6 6B000000 		.4byte	0x6b
 6086 06ba 00       		.byte	0
 6087 06bb 0B       		.uleb128 0xb
 6088 06bc DF1D0000 		.4byte	.LASF231
 6089 06c0 05       		.byte	0x5
 6090 06c1 A001     		.2byte	0x1a0
 6091 06c3 6B000000 		.4byte	0x6b
 6092 06c7 01       		.byte	0x1
 6093 06c8 00       		.byte	0
 6094 06c9 04       		.uleb128 0x4
 6095 06ca 66230000 		.4byte	.LASF232
 6096 06ce 05       		.byte	0x5
 6097 06cf A201     		.2byte	0x1a2
 6098 06d1 A5060000 		.4byte	0x6a5
 6099 06d5 0A       		.uleb128 0xa
 6100 06d6 08       		.byte	0x8
 6101 06d7 05       		.byte	0x5
 6102 06d8 BE01     		.2byte	0x1be
 6103 06da 06070000 		.4byte	0x706
 6104 06de 10       		.uleb128 0x10
 6105 06df 76616C00 		.ascii	"val\000"
 6106 06e3 05       		.byte	0x5
 6107 06e4 C101     		.2byte	0x1c1
 6108 06e6 F8030000 		.4byte	0x3f8
 6109 06ea 00       		.byte	0
 6110 06eb 10       		.uleb128 0x10
 6111 06ec 6C656E00 		.ascii	"len\000"
 6112 06f0 05       		.byte	0x5
 6113 06f1 C401     		.2byte	0x1c4
 6114 06f3 77000000 		.4byte	0x77
ARM GAS  C:\Users\310309~1\AppData\Local\Temp\ccu8WRKs.s 			page 139


 6115 06f7 04       		.byte	0x4
 6116 06f8 0B       		.uleb128 0xb
 6117 06f9 A41C0000 		.4byte	.LASF233
 6118 06fd 05       		.byte	0x5
 6119 06fe CB01     		.2byte	0x1cb
 6120 0700 77000000 		.4byte	0x77
 6121 0704 06       		.byte	0x6
 6122 0705 00       		.byte	0
 6123 0706 04       		.uleb128 0x4
 6124 0707 99080000 		.4byte	.LASF234
 6125 070b 05       		.byte	0x5
 6126 070c CD01     		.2byte	0x1cd
 6127 070e D5060000 		.4byte	0x6d5
 6128 0712 0A       		.uleb128 0xa
 6129 0713 0C       		.byte	0xc
 6130 0714 05       		.byte	0x5
 6131 0715 D001     		.2byte	0x1d0
 6132 0717 36070000 		.4byte	0x736
 6133 071b 0B       		.uleb128 0xb
 6134 071c 75160000 		.4byte	.LASF235
 6135 0720 05       		.byte	0x5
 6136 0721 D301     		.2byte	0x1d3
 6137 0723 06070000 		.4byte	0x706
 6138 0727 00       		.byte	0
 6139 0728 0B       		.uleb128 0xb
 6140 0729 462E0000 		.4byte	.LASF236
 6141 072d 05       		.byte	0x5
 6142 072e D601     		.2byte	0x1d6
 6143 0730 99060000 		.4byte	0x699
 6144 0734 08       		.byte	0x8
 6145 0735 00       		.byte	0
 6146 0736 04       		.uleb128 0x4
 6147 0737 AC140000 		.4byte	.LASF237
 6148 073b 05       		.byte	0x5
 6149 073c D801     		.2byte	0x1d8
 6150 073e 12070000 		.4byte	0x712
 6151 0742 11       		.uleb128 0x11
 6152 0743 04       		.byte	0x4
 6153 0744 06       		.byte	0x6
 6154 0745 3A       		.byte	0x3a
 6155 0746 6F070000 		.4byte	0x76f
 6156 074a 12       		.uleb128 0x12
 6157 074b 462E0000 		.4byte	.LASF236
 6158 074f 06       		.byte	0x6
 6159 0750 3D       		.byte	0x3d
 6160 0751 99060000 		.4byte	0x699
 6161 0755 00       		.byte	0
 6162 0756 12       		.uleb128 0x12
 6163 0757 92040000 		.4byte	.LASF238
 6164 075b 06       		.byte	0x6
 6165 075c 43       		.byte	0x43
 6166 075d 6B000000 		.4byte	0x6b
 6167 0761 02       		.byte	0x2
 6168 0762 12       		.uleb128 0x12
 6169 0763 9F190000 		.4byte	.LASF239
 6170 0767 06       		.byte	0x6
 6171 0768 46       		.byte	0x46
ARM GAS  C:\Users\310309~1\AppData\Local\Temp\ccu8WRKs.s 			page 140


 6172 0769 8D060000 		.4byte	0x68d
 6173 076d 03       		.byte	0x3
 6174 076e 00       		.byte	0
 6175 076f 13       		.uleb128 0x13
 6176 0770 671C0000 		.4byte	.LASF240
 6177 0774 06       		.byte	0x6
 6178 0775 48       		.byte	0x48
 6179 0776 42070000 		.4byte	0x742
 6180 077a 11       		.uleb128 0x11
 6181 077b 10       		.byte	0x10
 6182 077c 06       		.byte	0x6
 6183 077d 8A       		.byte	0x8a
 6184 077e 9B070000 		.4byte	0x79b
 6185 0782 12       		.uleb128 0x12
 6186 0783 88290000 		.4byte	.LASF241
 6187 0787 06       		.byte	0x6
 6188 0788 8D       		.byte	0x8d
 6189 0789 C9060000 		.4byte	0x6c9
 6190 078d 00       		.byte	0
 6191 078e 12       		.uleb128 0x12
 6192 078f 24160000 		.4byte	.LASF242
 6193 0793 06       		.byte	0x6
 6194 0794 90       		.byte	0x90
 6195 0795 36070000 		.4byte	0x736
 6196 0799 04       		.byte	0x4
 6197 079a 00       		.byte	0
 6198 079b 13       		.uleb128 0x13
 6199 079c D0090000 		.4byte	.LASF243
 6200 07a0 06       		.byte	0x6
 6201 07a1 92       		.byte	0x92
 6202 07a2 7A070000 		.4byte	0x77a
 6203 07a6 0E       		.uleb128 0xe
 6204 07a7 04       		.byte	0x4
 6205 07a8 77000000 		.4byte	0x77
 6206 07ac 0F       		.uleb128 0xf
 6207 07ad 01       		.byte	0x1
 6208 07ae 2C000000 		.4byte	0x2c
 6209 07b2 07       		.byte	0x7
 6210 07b3 22       		.byte	0x22
 6211 07b4 F5070000 		.4byte	0x7f5
 6212 07b8 08       		.uleb128 0x8
 6213 07b9 B51F0000 		.4byte	.LASF244
 6214 07bd 00       		.byte	0
 6215 07be 08       		.uleb128 0x8
 6216 07bf 01280000 		.4byte	.LASF245
 6217 07c3 01       		.byte	0x1
 6218 07c4 08       		.uleb128 0x8
 6219 07c5 FC1A0000 		.4byte	.LASF246
 6220 07c9 02       		.byte	0x2
 6221 07ca 08       		.uleb128 0x8
 6222 07cb 3E1C0000 		.4byte	.LASF247
 6223 07cf 03       		.byte	0x3
 6224 07d0 08       		.uleb128 0x8
 6225 07d1 2B2A0000 		.4byte	.LASF248
 6226 07d5 04       		.byte	0x4
 6227 07d6 08       		.uleb128 0x8
 6228 07d7 05180000 		.4byte	.LASF249
ARM GAS  C:\Users\310309~1\AppData\Local\Temp\ccu8WRKs.s 			page 141


 6229 07db 05       		.byte	0x5
 6230 07dc 08       		.uleb128 0x8
 6231 07dd 4F250000 		.4byte	.LASF250
 6232 07e1 06       		.byte	0x6
 6233 07e2 08       		.uleb128 0x8
 6234 07e3 2B060000 		.4byte	.LASF251
 6235 07e7 07       		.byte	0x7
 6236 07e8 08       		.uleb128 0x8
 6237 07e9 8C270000 		.4byte	.LASF252
 6238 07ed 08       		.byte	0x8
 6239 07ee 08       		.uleb128 0x8
 6240 07ef E90C0000 		.4byte	.LASF253
 6241 07f3 09       		.byte	0x9
 6242 07f4 00       		.byte	0
 6243 07f5 07       		.uleb128 0x7
 6244 07f6 01       		.byte	0x1
 6245 07f7 2C000000 		.4byte	0x2c
 6246 07fb 08       		.byte	0x8
 6247 07fc 5008     		.2byte	0x850
 6248 07fe 21080000 		.4byte	0x821
 6249 0802 08       		.uleb128 0x8
 6250 0803 9B120000 		.4byte	.LASF254
 6251 0807 00       		.byte	0
 6252 0808 08       		.uleb128 0x8
 6253 0809 D4290000 		.4byte	.LASF255
 6254 080d 01       		.byte	0x1
 6255 080e 08       		.uleb128 0x8
 6256 080f 8B0D0000 		.4byte	.LASF256
 6257 0813 02       		.byte	0x2
 6258 0814 08       		.uleb128 0x8
 6259 0815 CD010000 		.4byte	.LASF257
 6260 0819 03       		.byte	0x3
 6261 081a 08       		.uleb128 0x8
 6262 081b 12170000 		.4byte	.LASF258
 6263 081f 04       		.byte	0x4
 6264 0820 00       		.byte	0
 6265 0821 04       		.uleb128 0x4
 6266 0822 5D180000 		.4byte	.LASF259
 6267 0826 08       		.byte	0x8
 6268 0827 5E08     		.2byte	0x85e
 6269 0829 F5070000 		.4byte	0x7f5
 6270 082d 11       		.uleb128 0x11
 6271 082e 1D       		.byte	0x1d
 6272 082f 09       		.byte	0x9
 6273 0830 16       		.byte	0x16
 6274 0831 BA080000 		.4byte	0x8ba
 6275 0835 12       		.uleb128 0x12
 6276 0836 3B2F0000 		.4byte	.LASF260
 6277 083a 09       		.byte	0x9
 6278 083b 18       		.byte	0x18
 6279 083c 6B000000 		.4byte	0x6b
 6280 0840 00       		.byte	0
 6281 0841 12       		.uleb128 0x12
 6282 0842 B3070000 		.4byte	.LASF261
 6283 0846 09       		.byte	0x9
 6284 0847 19       		.byte	0x19
 6285 0848 77000000 		.4byte	0x77
ARM GAS  C:\Users\310309~1\AppData\Local\Temp\ccu8WRKs.s 			page 142


 6286 084c 01       		.byte	0x1
 6287 084d 12       		.uleb128 0x12
 6288 084e 260A0000 		.4byte	.LASF262
 6289 0852 09       		.byte	0x9
 6290 0853 1A       		.byte	0x1a
 6291 0854 83000000 		.4byte	0x83
 6292 0858 03       		.byte	0x3
 6293 0859 12       		.uleb128 0x12
 6294 085a 43240000 		.4byte	.LASF263
 6295 085e 09       		.byte	0x9
 6296 085f 1B       		.byte	0x1b
 6297 0860 9B000000 		.4byte	0x9b
 6298 0864 07       		.byte	0x7
 6299 0865 12       		.uleb128 0x12
 6300 0866 37140000 		.4byte	.LASF264
 6301 086a 09       		.byte	0x9
 6302 086b 1C       		.byte	0x1c
 6303 086c 83000000 		.4byte	0x83
 6304 0870 09       		.byte	0x9
 6305 0871 12       		.uleb128 0x12
 6306 0872 50000000 		.4byte	.LASF265
 6307 0876 09       		.byte	0x9
 6308 0877 1D       		.byte	0x1d
 6309 0878 9B000000 		.4byte	0x9b
 6310 087c 0D       		.byte	0xd
 6311 087d 12       		.uleb128 0x12
 6312 087e 11190000 		.4byte	.LASF266
 6313 0882 09       		.byte	0x9
 6314 0883 1E       		.byte	0x1e
 6315 0884 77000000 		.4byte	0x77
 6316 0888 0F       		.byte	0xf
 6317 0889 12       		.uleb128 0x12
 6318 088a 9F0C0000 		.4byte	.LASF267
 6319 088e 09       		.byte	0x9
 6320 088f 1F       		.byte	0x1f
 6321 0890 83000000 		.4byte	0x83
 6322 0894 11       		.byte	0x11
 6323 0895 12       		.uleb128 0x12
 6324 0896 A3160000 		.4byte	.LASF268
 6325 089a 09       		.byte	0x9
 6326 089b 20       		.byte	0x20
 6327 089c 9B000000 		.4byte	0x9b
 6328 08a0 15       		.byte	0x15
 6329 08a1 12       		.uleb128 0x12
 6330 08a2 11020000 		.4byte	.LASF269
 6331 08a6 09       		.byte	0x9
 6332 08a7 21       		.byte	0x21
 6333 08a8 83000000 		.4byte	0x83
 6334 08ac 17       		.byte	0x17
 6335 08ad 12       		.uleb128 0x12
 6336 08ae 42010000 		.4byte	.LASF270
 6337 08b2 09       		.byte	0x9
 6338 08b3 22       		.byte	0x22
 6339 08b4 9B000000 		.4byte	0x9b
 6340 08b8 1B       		.byte	0x1b
 6341 08b9 00       		.byte	0
 6342 08ba 13       		.uleb128 0x13
ARM GAS  C:\Users\310309~1\AppData\Local\Temp\ccu8WRKs.s 			page 143


 6343 08bb 36030000 		.4byte	.LASF271
 6344 08bf 09       		.byte	0x9
 6345 08c0 24       		.byte	0x24
 6346 08c1 2D080000 		.4byte	0x82d
 6347 08c5 11       		.uleb128 0x11
 6348 08c6 26       		.byte	0x26
 6349 08c7 0A       		.byte	0xa
 6350 08c8 27       		.byte	0x27
 6351 08c9 9A090000 		.4byte	0x99a
 6352 08cd 12       		.uleb128 0x12
 6353 08ce B62F0000 		.4byte	.LASF272
 6354 08d2 0A       		.byte	0xa
 6355 08d3 29       		.byte	0x29
 6356 08d4 6B000000 		.4byte	0x6b
 6357 08d8 00       		.byte	0
 6358 08d9 12       		.uleb128 0x12
 6359 08da 3B2F0000 		.4byte	.LASF260
 6360 08de 0A       		.byte	0xa
 6361 08df 2A       		.byte	0x2a
 6362 08e0 9A090000 		.4byte	0x99a
 6363 08e4 01       		.byte	0x1
 6364 08e5 12       		.uleb128 0x12
 6365 08e6 B3070000 		.4byte	.LASF261
 6366 08ea 0A       		.byte	0xa
 6367 08eb 2B       		.byte	0x2b
 6368 08ec 77000000 		.4byte	0x77
 6369 08f0 04       		.byte	0x4
 6370 08f1 12       		.uleb128 0x12
 6371 08f2 11190000 		.4byte	.LASF266
 6372 08f6 0A       		.byte	0xa
 6373 08f7 2C       		.byte	0x2c
 6374 08f8 77000000 		.4byte	0x77
 6375 08fc 06       		.byte	0x6
 6376 08fd 12       		.uleb128 0x12
 6377 08fe 45280000 		.4byte	.LASF273
 6378 0902 0A       		.byte	0xa
 6379 0903 2D       		.byte	0x2d
 6380 0904 83000000 		.4byte	0x83
 6381 0908 08       		.byte	0x8
 6382 0909 12       		.uleb128 0x12
 6383 090a 63050000 		.4byte	.LASF274
 6384 090e 0A       		.byte	0xa
 6385 090f 2E       		.byte	0x2e
 6386 0910 83000000 		.4byte	0x83
 6387 0914 0C       		.byte	0xc
 6388 0915 12       		.uleb128 0x12
 6389 0916 7A230000 		.4byte	.LASF275
 6390 091a 0A       		.byte	0xa
 6391 091b 2F       		.byte	0x2f
 6392 091c 77000000 		.4byte	0x77
 6393 0920 10       		.byte	0x10
 6394 0921 12       		.uleb128 0x12
 6395 0922 10100000 		.4byte	.LASF276
 6396 0926 0A       		.byte	0xa
 6397 0927 30       		.byte	0x30
 6398 0928 77000000 		.4byte	0x77
 6399 092c 12       		.byte	0x12
ARM GAS  C:\Users\310309~1\AppData\Local\Temp\ccu8WRKs.s 			page 144


 6400 092d 12       		.uleb128 0x12
 6401 092e E7160000 		.4byte	.LASF277
 6402 0932 0A       		.byte	0xa
 6403 0933 31       		.byte	0x31
 6404 0934 77000000 		.4byte	0x77
 6405 0938 14       		.byte	0x14
 6406 0939 12       		.uleb128 0x12
 6407 093a 341F0000 		.4byte	.LASF278
 6408 093e 0A       		.byte	0xa
 6409 093f 32       		.byte	0x32
 6410 0940 77000000 		.4byte	0x77
 6411 0944 16       		.byte	0x16
 6412 0945 12       		.uleb128 0x12
 6413 0946 1F2C0000 		.4byte	.LASF279
 6414 094a 0A       		.byte	0xa
 6415 094b 33       		.byte	0x33
 6416 094c 6B000000 		.4byte	0x6b
 6417 0950 18       		.byte	0x18
 6418 0951 12       		.uleb128 0x12
 6419 0952 CB0E0000 		.4byte	.LASF280
 6420 0956 0A       		.byte	0xa
 6421 0957 34       		.byte	0x34
 6422 0958 77000000 		.4byte	0x77
 6423 095c 19       		.byte	0x19
 6424 095d 12       		.uleb128 0x12
 6425 095e 05080000 		.4byte	.LASF281
 6426 0962 0A       		.byte	0xa
 6427 0963 35       		.byte	0x35
 6428 0964 77000000 		.4byte	0x77
 6429 0968 1B       		.byte	0x1b
 6430 0969 12       		.uleb128 0x12
 6431 096a 2D2B0000 		.4byte	.LASF282
 6432 096e 0A       		.byte	0xa
 6433 096f 36       		.byte	0x36
 6434 0970 AA090000 		.4byte	0x9aa
 6435 0974 1D       		.byte	0x1d
 6436 0975 12       		.uleb128 0x12
 6437 0976 630C0000 		.4byte	.LASF283
 6438 097a 0A       		.byte	0xa
 6439 097b 37       		.byte	0x37
 6440 097c 77000000 		.4byte	0x77
 6441 0980 20       		.byte	0x20
 6442 0981 12       		.uleb128 0x12
 6443 0982 33090000 		.4byte	.LASF284
 6444 0986 0A       		.byte	0xa
 6445 0987 38       		.byte	0x38
 6446 0988 77000000 		.4byte	0x77
 6447 098c 22       		.byte	0x22
 6448 098d 12       		.uleb128 0x12
 6449 098e 4E150000 		.4byte	.LASF285
 6450 0992 0A       		.byte	0xa
 6451 0993 39       		.byte	0x39
 6452 0994 77000000 		.4byte	0x77
 6453 0998 24       		.byte	0x24
 6454 0999 00       		.byte	0
 6455 099a 0C       		.uleb128 0xc
 6456 099b 6B000000 		.4byte	0x6b
ARM GAS  C:\Users\310309~1\AppData\Local\Temp\ccu8WRKs.s 			page 145


 6457 099f AA090000 		.4byte	0x9aa
 6458 09a3 0D       		.uleb128 0xd
 6459 09a4 E0000000 		.4byte	0xe0
 6460 09a8 02       		.byte	0x2
 6461 09a9 00       		.byte	0
 6462 09aa 0C       		.uleb128 0xc
 6463 09ab 8F000000 		.4byte	0x8f
 6464 09af BA090000 		.4byte	0x9ba
 6465 09b3 0D       		.uleb128 0xd
 6466 09b4 E0000000 		.4byte	0xe0
 6467 09b8 02       		.byte	0x2
 6468 09b9 00       		.byte	0
 6469 09ba 13       		.uleb128 0x13
 6470 09bb B51A0000 		.4byte	.LASF286
 6471 09bf 0A       		.byte	0xa
 6472 09c0 3B       		.byte	0x3b
 6473 09c1 C5080000 		.4byte	0x8c5
 6474 09c5 11       		.uleb128 0x11
 6475 09c6 4D       		.byte	0x4d
 6476 09c7 0B       		.byte	0xb
 6477 09c8 34       		.byte	0x34
 6478 09c9 420B0000 		.4byte	0xb42
 6479 09cd 12       		.uleb128 0x12
 6480 09ce B62F0000 		.4byte	.LASF272
 6481 09d2 0B       		.byte	0xb
 6482 09d3 36       		.byte	0x36
 6483 09d4 6B000000 		.4byte	0x6b
 6484 09d8 00       		.byte	0
 6485 09d9 12       		.uleb128 0x12
 6486 09da 3B2F0000 		.4byte	.LASF260
 6487 09de 0B       		.byte	0xb
 6488 09df 37       		.byte	0x37
 6489 09e0 83000000 		.4byte	0x83
 6490 09e4 01       		.byte	0x1
 6491 09e5 12       		.uleb128 0x12
 6492 09e6 B3070000 		.4byte	.LASF261
 6493 09ea 0B       		.byte	0xb
 6494 09eb 38       		.byte	0x38
 6495 09ec 77000000 		.4byte	0x77
 6496 09f0 05       		.byte	0x5
 6497 09f1 12       		.uleb128 0x12
 6498 09f2 11190000 		.4byte	.LASF266
 6499 09f6 0B       		.byte	0xb
 6500 09f7 39       		.byte	0x39
 6501 09f8 77000000 		.4byte	0x77
 6502 09fc 07       		.byte	0x7
 6503 09fd 12       		.uleb128 0x12
 6504 09fe 45280000 		.4byte	.LASF273
 6505 0a02 0B       		.byte	0xb
 6506 0a03 3A       		.byte	0x3a
 6507 0a04 83000000 		.4byte	0x83
 6508 0a08 09       		.byte	0x9
 6509 0a09 12       		.uleb128 0x12
 6510 0a0a 63050000 		.4byte	.LASF274
 6511 0a0e 0B       		.byte	0xb
 6512 0a0f 3B       		.byte	0x3b
 6513 0a10 83000000 		.4byte	0x83
ARM GAS  C:\Users\310309~1\AppData\Local\Temp\ccu8WRKs.s 			page 146


 6514 0a14 0D       		.byte	0xd
 6515 0a15 12       		.uleb128 0x12
 6516 0a16 272E0000 		.4byte	.LASF287
 6517 0a1a 0B       		.byte	0xb
 6518 0a1b 3C       		.byte	0x3c
 6519 0a1c 83000000 		.4byte	0x83
 6520 0a20 11       		.byte	0x11
 6521 0a21 12       		.uleb128 0x12
 6522 0a22 B91B0000 		.4byte	.LASF288
 6523 0a26 0B       		.byte	0xb
 6524 0a27 3D       		.byte	0x3d
 6525 0a28 83000000 		.4byte	0x83
 6526 0a2c 15       		.byte	0x15
 6527 0a2d 12       		.uleb128 0x12
 6528 0a2e F2060000 		.4byte	.LASF289
 6529 0a32 0B       		.byte	0xb
 6530 0a33 3E       		.byte	0x3e
 6531 0a34 83000000 		.4byte	0x83
 6532 0a38 19       		.byte	0x19
 6533 0a39 12       		.uleb128 0x12
 6534 0a3a A0100000 		.4byte	.LASF290
 6535 0a3e 0B       		.byte	0xb
 6536 0a3f 3F       		.byte	0x3f
 6537 0a40 77000000 		.4byte	0x77
 6538 0a44 1D       		.byte	0x1d
 6539 0a45 12       		.uleb128 0x12
 6540 0a46 BD070000 		.4byte	.LASF291
 6541 0a4a 0B       		.byte	0xb
 6542 0a4b 40       		.byte	0x40
 6543 0a4c 6B000000 		.4byte	0x6b
 6544 0a50 1F       		.byte	0x1f
 6545 0a51 12       		.uleb128 0x12
 6546 0a52 3C0E0000 		.4byte	.LASF292
 6547 0a56 0B       		.byte	0xb
 6548 0a57 41       		.byte	0x41
 6549 0a58 6B000000 		.4byte	0x6b
 6550 0a5c 20       		.byte	0x20
 6551 0a5d 12       		.uleb128 0x12
 6552 0a5e D8070000 		.4byte	.LASF293
 6553 0a62 0B       		.byte	0xb
 6554 0a63 42       		.byte	0x42
 6555 0a64 6B000000 		.4byte	0x6b
 6556 0a68 21       		.byte	0x21
 6557 0a69 12       		.uleb128 0x12
 6558 0a6a 451A0000 		.4byte	.LASF294
 6559 0a6e 0B       		.byte	0xb
 6560 0a6f 43       		.byte	0x43
 6561 0a70 9A090000 		.4byte	0x99a
 6562 0a74 22       		.byte	0x22
 6563 0a75 12       		.uleb128 0x12
 6564 0a76 09230000 		.4byte	.LASF295
 6565 0a7a 0B       		.byte	0xb
 6566 0a7b 44       		.byte	0x44
 6567 0a7c 77000000 		.4byte	0x77
 6568 0a80 25       		.byte	0x25
 6569 0a81 12       		.uleb128 0x12
 6570 0a82 D6280000 		.4byte	.LASF296
ARM GAS  C:\Users\310309~1\AppData\Local\Temp\ccu8WRKs.s 			page 147


 6571 0a86 0B       		.byte	0xb
 6572 0a87 45       		.byte	0x45
 6573 0a88 77000000 		.4byte	0x77
 6574 0a8c 27       		.byte	0x27
 6575 0a8d 12       		.uleb128 0x12
 6576 0a8e AE180000 		.4byte	.LASF297
 6577 0a92 0B       		.byte	0xb
 6578 0a93 46       		.byte	0x46
 6579 0a94 77000000 		.4byte	0x77
 6580 0a98 29       		.byte	0x29
 6581 0a99 12       		.uleb128 0x12
 6582 0a9a 5E040000 		.4byte	.LASF298
 6583 0a9e 0B       		.byte	0xb
 6584 0a9f 47       		.byte	0x47
 6585 0aa0 9A090000 		.4byte	0x99a
 6586 0aa4 2B       		.byte	0x2b
 6587 0aa5 12       		.uleb128 0x12
 6588 0aa6 3F120000 		.4byte	.LASF299
 6589 0aaa 0B       		.byte	0xb
 6590 0aab 48       		.byte	0x48
 6591 0aac 9A090000 		.4byte	0x99a
 6592 0ab0 2E       		.byte	0x2e
 6593 0ab1 12       		.uleb128 0x12
 6594 0ab2 99040000 		.4byte	.LASF300
 6595 0ab6 0B       		.byte	0xb
 6596 0ab7 49       		.byte	0x49
 6597 0ab8 77000000 		.4byte	0x77
 6598 0abc 31       		.byte	0x31
 6599 0abd 12       		.uleb128 0x12
 6600 0abe 7B180000 		.4byte	.LASF301
 6601 0ac2 0B       		.byte	0xb
 6602 0ac3 4A       		.byte	0x4a
 6603 0ac4 77000000 		.4byte	0x77
 6604 0ac8 33       		.byte	0x33
 6605 0ac9 12       		.uleb128 0x12
 6606 0aca 8C2E0000 		.4byte	.LASF302
 6607 0ace 0B       		.byte	0xb
 6608 0acf 4B       		.byte	0x4b
 6609 0ad0 77000000 		.4byte	0x77
 6610 0ad4 35       		.byte	0x35
 6611 0ad5 12       		.uleb128 0x12
 6612 0ad6 13250000 		.4byte	.LASF303
 6613 0ada 0B       		.byte	0xb
 6614 0adb 4C       		.byte	0x4c
 6615 0adc 8F000000 		.4byte	0x8f
 6616 0ae0 37       		.byte	0x37
 6617 0ae1 12       		.uleb128 0x12
 6618 0ae2 692C0000 		.4byte	.LASF304
 6619 0ae6 0B       		.byte	0xb
 6620 0ae7 4D       		.byte	0x4d
 6621 0ae8 9A090000 		.4byte	0x99a
 6622 0aec 38       		.byte	0x38
 6623 0aed 12       		.uleb128 0x12
 6624 0aee 32100000 		.4byte	.LASF305
 6625 0af2 0B       		.byte	0xb
 6626 0af3 4E       		.byte	0x4e
 6627 0af4 9A090000 		.4byte	0x99a
ARM GAS  C:\Users\310309~1\AppData\Local\Temp\ccu8WRKs.s 			page 148


 6628 0af8 3B       		.byte	0x3b
 6629 0af9 12       		.uleb128 0x12
 6630 0afa 0A060000 		.4byte	.LASF306
 6631 0afe 0B       		.byte	0xb
 6632 0aff 4F       		.byte	0x4f
 6633 0b00 83000000 		.4byte	0x83
 6634 0b04 3E       		.byte	0x3e
 6635 0b05 12       		.uleb128 0x12
 6636 0b06 D2050000 		.4byte	.LASF307
 6637 0b0a 0B       		.byte	0xb
 6638 0b0b 50       		.byte	0x50
 6639 0b0c 77000000 		.4byte	0x77
 6640 0b10 42       		.byte	0x42
 6641 0b11 12       		.uleb128 0x12
 6642 0b12 F8190000 		.4byte	.LASF308
 6643 0b16 0B       		.byte	0xb
 6644 0b17 51       		.byte	0x51
 6645 0b18 77000000 		.4byte	0x77
 6646 0b1c 44       		.byte	0x44
 6647 0b1d 12       		.uleb128 0x12
 6648 0b1e 40300000 		.4byte	.LASF309
 6649 0b22 0B       		.byte	0xb
 6650 0b23 52       		.byte	0x52
 6651 0b24 77000000 		.4byte	0x77
 6652 0b28 46       		.byte	0x46
 6653 0b29 12       		.uleb128 0x12
 6654 0b2a 0D1A0000 		.4byte	.LASF310
 6655 0b2e 0B       		.byte	0xb
 6656 0b2f 53       		.byte	0x53
 6657 0b30 77000000 		.4byte	0x77
 6658 0b34 48       		.byte	0x48
 6659 0b35 12       		.uleb128 0x12
 6660 0b36 63060000 		.4byte	.LASF311
 6661 0b3a 0B       		.byte	0xb
 6662 0b3b 54       		.byte	0x54
 6663 0b3c 9A090000 		.4byte	0x99a
 6664 0b40 4A       		.byte	0x4a
 6665 0b41 00       		.byte	0
 6666 0b42 13       		.uleb128 0x13
 6667 0b43 6B2A0000 		.4byte	.LASF312
 6668 0b47 0B       		.byte	0xb
 6669 0b48 56       		.byte	0x56
 6670 0b49 C5090000 		.4byte	0x9c5
 6671 0b4d 11       		.uleb128 0x11
 6672 0b4e 18       		.byte	0x18
 6673 0b4f 0C       		.byte	0xc
 6674 0b50 1B       		.byte	0x1b
 6675 0b51 F20B0000 		.4byte	0xbf2
 6676 0b55 12       		.uleb128 0x12
 6677 0b56 B62F0000 		.4byte	.LASF272
 6678 0b5a 0C       		.byte	0xc
 6679 0b5b 1D       		.byte	0x1d
 6680 0b5c 6B000000 		.4byte	0x6b
 6681 0b60 00       		.byte	0
 6682 0b61 12       		.uleb128 0x12
 6683 0b62 3B2F0000 		.4byte	.LASF260
 6684 0b66 0C       		.byte	0xc
ARM GAS  C:\Users\310309~1\AppData\Local\Temp\ccu8WRKs.s 			page 149


 6685 0b67 1E       		.byte	0x1e
 6686 0b68 77000000 		.4byte	0x77
 6687 0b6c 01       		.byte	0x1
 6688 0b6d 12       		.uleb128 0x12
 6689 0b6e B3070000 		.4byte	.LASF261
 6690 0b72 0C       		.byte	0xc
 6691 0b73 1F       		.byte	0x1f
 6692 0b74 77000000 		.4byte	0x77
 6693 0b78 03       		.byte	0x3
 6694 0b79 12       		.uleb128 0x12
 6695 0b7a 11190000 		.4byte	.LASF266
 6696 0b7e 0C       		.byte	0xc
 6697 0b7f 20       		.byte	0x20
 6698 0b80 77000000 		.4byte	0x77
 6699 0b84 05       		.byte	0x5
 6700 0b85 12       		.uleb128 0x12
 6701 0b86 45280000 		.4byte	.LASF273
 6702 0b8a 0C       		.byte	0xc
 6703 0b8b 21       		.byte	0x21
 6704 0b8c 83000000 		.4byte	0x83
 6705 0b90 07       		.byte	0x7
 6706 0b91 12       		.uleb128 0x12
 6707 0b92 63050000 		.4byte	.LASF274
 6708 0b96 0C       		.byte	0xc
 6709 0b97 22       		.byte	0x22
 6710 0b98 83000000 		.4byte	0x83
 6711 0b9c 0B       		.byte	0xb
 6712 0b9d 12       		.uleb128 0x12
 6713 0b9e A1200000 		.4byte	.LASF313
 6714 0ba2 0C       		.byte	0xc
 6715 0ba3 23       		.byte	0x23
 6716 0ba4 6B000000 		.4byte	0x6b
 6717 0ba8 0F       		.byte	0xf
 6718 0ba9 12       		.uleb128 0x12
 6719 0baa 35120000 		.4byte	.LASF314
 6720 0bae 0C       		.byte	0xc
 6721 0baf 24       		.byte	0x24
 6722 0bb0 6B000000 		.4byte	0x6b
 6723 0bb4 10       		.byte	0x10
 6724 0bb5 12       		.uleb128 0x12
 6725 0bb6 EF2E0000 		.4byte	.LASF315
 6726 0bba 0C       		.byte	0xc
 6727 0bbb 25       		.byte	0x25
 6728 0bbc 77000000 		.4byte	0x77
 6729 0bc0 11       		.byte	0x11
 6730 0bc1 12       		.uleb128 0x12
 6731 0bc2 D3200000 		.4byte	.LASF316
 6732 0bc6 0C       		.byte	0xc
 6733 0bc7 26       		.byte	0x26
 6734 0bc8 6B000000 		.4byte	0x6b
 6735 0bcc 13       		.byte	0x13
 6736 0bcd 12       		.uleb128 0x12
 6737 0bce A6170000 		.4byte	.LASF317
 6738 0bd2 0C       		.byte	0xc
 6739 0bd3 27       		.byte	0x27
 6740 0bd4 77000000 		.4byte	0x77
 6741 0bd8 14       		.byte	0x14
ARM GAS  C:\Users\310309~1\AppData\Local\Temp\ccu8WRKs.s 			page 150


 6742 0bd9 12       		.uleb128 0x12
 6743 0bda 8C0B0000 		.4byte	.LASF318
 6744 0bde 0C       		.byte	0xc
 6745 0bdf 28       		.byte	0x28
 6746 0be0 6B000000 		.4byte	0x6b
 6747 0be4 16       		.byte	0x16
 6748 0be5 12       		.uleb128 0x12
 6749 0be6 71010000 		.4byte	.LASF319
 6750 0bea 0C       		.byte	0xc
 6751 0beb 29       		.byte	0x29
 6752 0bec 6B000000 		.4byte	0x6b
 6753 0bf0 17       		.byte	0x17
 6754 0bf1 00       		.byte	0
 6755 0bf2 13       		.uleb128 0x13
 6756 0bf3 481D0000 		.4byte	.LASF320
 6757 0bf7 0C       		.byte	0xc
 6758 0bf8 2B       		.byte	0x2b
 6759 0bf9 4D0B0000 		.4byte	0xb4d
 6760 0bfd 11       		.uleb128 0x11
 6761 0bfe 3E       		.byte	0x3e
 6762 0bff 0D       		.byte	0xd
 6763 0c00 1B       		.byte	0x1b
 6764 0c01 920D0000 		.4byte	0xd92
 6765 0c05 12       		.uleb128 0x12
 6766 0c06 B62F0000 		.4byte	.LASF272
 6767 0c0a 0D       		.byte	0xd
 6768 0c0b 1D       		.byte	0x1d
 6769 0c0c 6B000000 		.4byte	0x6b
 6770 0c10 00       		.byte	0
 6771 0c11 12       		.uleb128 0x12
 6772 0c12 3B2F0000 		.4byte	.LASF260
 6773 0c16 0D       		.byte	0xd
 6774 0c17 1E       		.byte	0x1e
 6775 0c18 83000000 		.4byte	0x83
 6776 0c1c 01       		.byte	0x1
 6777 0c1d 12       		.uleb128 0x12
 6778 0c1e B3070000 		.4byte	.LASF261
 6779 0c22 0D       		.byte	0xd
 6780 0c23 1F       		.byte	0x1f
 6781 0c24 77000000 		.4byte	0x77
 6782 0c28 05       		.byte	0x5
 6783 0c29 12       		.uleb128 0x12
 6784 0c2a 11190000 		.4byte	.LASF266
 6785 0c2e 0D       		.byte	0xd
 6786 0c2f 20       		.byte	0x20
 6787 0c30 77000000 		.4byte	0x77
 6788 0c34 07       		.byte	0x7
 6789 0c35 12       		.uleb128 0x12
 6790 0c36 45280000 		.4byte	.LASF273
 6791 0c3a 0D       		.byte	0xd
 6792 0c3b 21       		.byte	0x21
 6793 0c3c 83000000 		.4byte	0x83
 6794 0c40 09       		.byte	0x9
 6795 0c41 12       		.uleb128 0x12
 6796 0c42 63050000 		.4byte	.LASF274
 6797 0c46 0D       		.byte	0xd
 6798 0c47 22       		.byte	0x22
ARM GAS  C:\Users\310309~1\AppData\Local\Temp\ccu8WRKs.s 			page 151


 6799 0c48 83000000 		.4byte	0x83
 6800 0c4c 0D       		.byte	0xd
 6801 0c4d 12       		.uleb128 0x12
 6802 0c4e 230B0000 		.4byte	.LASF321
 6803 0c52 0D       		.byte	0xd
 6804 0c53 23       		.byte	0x23
 6805 0c54 9A090000 		.4byte	0x99a
 6806 0c58 11       		.byte	0x11
 6807 0c59 12       		.uleb128 0x12
 6808 0c5a 380B0000 		.4byte	.LASF322
 6809 0c5e 0D       		.byte	0xd
 6810 0c5f 24       		.byte	0x24
 6811 0c60 9A090000 		.4byte	0x99a
 6812 0c64 14       		.byte	0x14
 6813 0c65 12       		.uleb128 0x12
 6814 0c66 4D0B0000 		.4byte	.LASF323
 6815 0c6a 0D       		.byte	0xd
 6816 0c6b 25       		.byte	0x25
 6817 0c6c 9A090000 		.4byte	0x99a
 6818 0c70 17       		.byte	0x17
 6819 0c71 12       		.uleb128 0x12
 6820 0c72 620B0000 		.4byte	.LASF324
 6821 0c76 0D       		.byte	0xd
 6822 0c77 26       		.byte	0x26
 6823 0c78 9A090000 		.4byte	0x99a
 6824 0c7c 1A       		.byte	0x1a
 6825 0c7d 12       		.uleb128 0x12
 6826 0c7e 770B0000 		.4byte	.LASF325
 6827 0c82 0D       		.byte	0xd
 6828 0c83 27       		.byte	0x27
 6829 0c84 9A090000 		.4byte	0x99a
 6830 0c88 1D       		.byte	0x1d
 6831 0c89 12       		.uleb128 0x12
 6832 0c8a ED230000 		.4byte	.LASF326
 6833 0c8e 0D       		.byte	0xd
 6834 0c8f 28       		.byte	0x28
 6835 0c90 6B000000 		.4byte	0x6b
 6836 0c94 20       		.byte	0x20
 6837 0c95 12       		.uleb128 0x12
 6838 0c96 67220000 		.4byte	.LASF327
 6839 0c9a 0D       		.byte	0xd
 6840 0c9b 29       		.byte	0x29
 6841 0c9c 6B000000 		.4byte	0x6b
 6842 0ca0 21       		.byte	0x21
 6843 0ca1 12       		.uleb128 0x12
 6844 0ca2 3C0D0000 		.4byte	.LASF328
 6845 0ca6 0D       		.byte	0xd
 6846 0ca7 2A       		.byte	0x2a
 6847 0ca8 6B000000 		.4byte	0x6b
 6848 0cac 22       		.byte	0x22
 6849 0cad 12       		.uleb128 0x12
 6850 0cae 98020000 		.4byte	.LASF329
 6851 0cb2 0D       		.byte	0xd
 6852 0cb3 2B       		.byte	0x2b
 6853 0cb4 6B000000 		.4byte	0x6b
 6854 0cb8 23       		.byte	0x23
 6855 0cb9 12       		.uleb128 0x12
ARM GAS  C:\Users\310309~1\AppData\Local\Temp\ccu8WRKs.s 			page 152


 6856 0cba E1060000 		.4byte	.LASF330
 6857 0cbe 0D       		.byte	0xd
 6858 0cbf 2C       		.byte	0x2c
 6859 0cc0 6B000000 		.4byte	0x6b
 6860 0cc4 24       		.byte	0x24
 6861 0cc5 12       		.uleb128 0x12
 6862 0cc6 30050000 		.4byte	.LASF331
 6863 0cca 0D       		.byte	0xd
 6864 0ccb 2D       		.byte	0x2d
 6865 0ccc 6B000000 		.4byte	0x6b
 6866 0cd0 25       		.byte	0x25
 6867 0cd1 12       		.uleb128 0x12
 6868 0cd2 19140000 		.4byte	.LASF332
 6869 0cd6 0D       		.byte	0xd
 6870 0cd7 2E       		.byte	0x2e
 6871 0cd8 77000000 		.4byte	0x77
 6872 0cdc 26       		.byte	0x26
 6873 0cdd 12       		.uleb128 0x12
 6874 0cde 240C0000 		.4byte	.LASF333
 6875 0ce2 0D       		.byte	0xd
 6876 0ce3 2F       		.byte	0x2f
 6877 0ce4 77000000 		.4byte	0x77
 6878 0ce8 28       		.byte	0x28
 6879 0ce9 12       		.uleb128 0x12
 6880 0cea 5F1F0000 		.4byte	.LASF334
 6881 0cee 0D       		.byte	0xd
 6882 0cef 30       		.byte	0x30
 6883 0cf0 77000000 		.4byte	0x77
 6884 0cf4 2A       		.byte	0x2a
 6885 0cf5 12       		.uleb128 0x12
 6886 0cf6 2D280000 		.4byte	.LASF335
 6887 0cfa 0D       		.byte	0xd
 6888 0cfb 31       		.byte	0x31
 6889 0cfc 6B000000 		.4byte	0x6b
 6890 0d00 2C       		.byte	0x2c
 6891 0d01 12       		.uleb128 0x12
 6892 0d02 66020000 		.4byte	.LASF336
 6893 0d06 0D       		.byte	0xd
 6894 0d07 32       		.byte	0x32
 6895 0d08 6B000000 		.4byte	0x6b
 6896 0d0c 2D       		.byte	0x2d
 6897 0d0d 12       		.uleb128 0x12
 6898 0d0e E8140000 		.4byte	.LASF337
 6899 0d12 0D       		.byte	0xd
 6900 0d13 33       		.byte	0x33
 6901 0d14 6B000000 		.4byte	0x6b
 6902 0d18 2E       		.byte	0x2e
 6903 0d19 12       		.uleb128 0x12
 6904 0d1a 412F0000 		.4byte	.LASF338
 6905 0d1e 0D       		.byte	0xd
 6906 0d1f 34       		.byte	0x34
 6907 0d20 77000000 		.4byte	0x77
 6908 0d24 2F       		.byte	0x2f
 6909 0d25 12       		.uleb128 0x12
 6910 0d26 78030000 		.4byte	.LASF339
 6911 0d2a 0D       		.byte	0xd
 6912 0d2b 35       		.byte	0x35
ARM GAS  C:\Users\310309~1\AppData\Local\Temp\ccu8WRKs.s 			page 153


 6913 0d2c 77000000 		.4byte	0x77
 6914 0d30 31       		.byte	0x31
 6915 0d31 12       		.uleb128 0x12
 6916 0d32 C9130000 		.4byte	.LASF340
 6917 0d36 0D       		.byte	0xd
 6918 0d37 36       		.byte	0x36
 6919 0d38 77000000 		.4byte	0x77
 6920 0d3c 33       		.byte	0x33
 6921 0d3d 12       		.uleb128 0x12
 6922 0d3e F8040000 		.4byte	.LASF341
 6923 0d42 0D       		.byte	0xd
 6924 0d43 37       		.byte	0x37
 6925 0d44 6B000000 		.4byte	0x6b
 6926 0d48 35       		.byte	0x35
 6927 0d49 12       		.uleb128 0x12
 6928 0d4a 242F0000 		.4byte	.LASF342
 6929 0d4e 0D       		.byte	0xd
 6930 0d4f 38       		.byte	0x38
 6931 0d50 6B000000 		.4byte	0x6b
 6932 0d54 36       		.byte	0x36
 6933 0d55 12       		.uleb128 0x12
 6934 0d56 69130000 		.4byte	.LASF343
 6935 0d5a 0D       		.byte	0xd
 6936 0d5b 39       		.byte	0x39
 6937 0d5c 6B000000 		.4byte	0x6b
 6938 0d60 37       		.byte	0x37
 6939 0d61 12       		.uleb128 0x12
 6940 0d62 372B0000 		.4byte	.LASF344
 6941 0d66 0D       		.byte	0xd
 6942 0d67 3A       		.byte	0x3a
 6943 0d68 6B000000 		.4byte	0x6b
 6944 0d6c 38       		.byte	0x38
 6945 0d6d 12       		.uleb128 0x12
 6946 0d6e 90180000 		.4byte	.LASF345
 6947 0d72 0D       		.byte	0xd
 6948 0d73 3B       		.byte	0x3b
 6949 0d74 6B000000 		.4byte	0x6b
 6950 0d78 39       		.byte	0x39
 6951 0d79 12       		.uleb128 0x12
 6952 0d7a 93290000 		.4byte	.LASF346
 6953 0d7e 0D       		.byte	0xd
 6954 0d7f 3C       		.byte	0x3c
 6955 0d80 6B000000 		.4byte	0x6b
 6956 0d84 3A       		.byte	0x3a
 6957 0d85 12       		.uleb128 0x12
 6958 0d86 63060000 		.4byte	.LASF311
 6959 0d8a 0D       		.byte	0xd
 6960 0d8b 3D       		.byte	0x3d
 6961 0d8c 9A090000 		.4byte	0x99a
 6962 0d90 3B       		.byte	0x3b
 6963 0d91 00       		.byte	0
 6964 0d92 13       		.uleb128 0x13
 6965 0d93 F0150000 		.4byte	.LASF347
 6966 0d97 0D       		.byte	0xd
 6967 0d98 3F       		.byte	0x3f
 6968 0d99 FD0B0000 		.4byte	0xbfd
 6969 0d9d 11       		.uleb128 0x11
ARM GAS  C:\Users\310309~1\AppData\Local\Temp\ccu8WRKs.s 			page 154


 6970 0d9e 1D       		.byte	0x1d
 6971 0d9f 0E       		.byte	0xe
 6972 0da0 1B       		.byte	0x1b
 6973 0da1 2A0E0000 		.4byte	0xe2a
 6974 0da5 12       		.uleb128 0x12
 6975 0da6 B62F0000 		.4byte	.LASF272
 6976 0daa 0E       		.byte	0xe
 6977 0dab 1D       		.byte	0x1d
 6978 0dac 6B000000 		.4byte	0x6b
 6979 0db0 00       		.byte	0
 6980 0db1 12       		.uleb128 0x12
 6981 0db2 3B2F0000 		.4byte	.LASF260
 6982 0db6 0E       		.byte	0xe
 6983 0db7 1E       		.byte	0x1e
 6984 0db8 6B000000 		.4byte	0x6b
 6985 0dbc 01       		.byte	0x1
 6986 0dbd 12       		.uleb128 0x12
 6987 0dbe B3070000 		.4byte	.LASF261
 6988 0dc2 0E       		.byte	0xe
 6989 0dc3 1F       		.byte	0x1f
 6990 0dc4 77000000 		.4byte	0x77
 6991 0dc8 02       		.byte	0x2
 6992 0dc9 12       		.uleb128 0x12
 6993 0dca 11190000 		.4byte	.LASF266
 6994 0dce 0E       		.byte	0xe
 6995 0dcf 20       		.byte	0x20
 6996 0dd0 77000000 		.4byte	0x77
 6997 0dd4 04       		.byte	0x4
 6998 0dd5 12       		.uleb128 0x12
 6999 0dd6 45280000 		.4byte	.LASF273
 7000 0dda 0E       		.byte	0xe
 7001 0ddb 21       		.byte	0x21
 7002 0ddc 83000000 		.4byte	0x83
 7003 0de0 06       		.byte	0x6
 7004 0de1 12       		.uleb128 0x12
 7005 0de2 63050000 		.4byte	.LASF274
 7006 0de6 0E       		.byte	0xe
 7007 0de7 22       		.byte	0x22
 7008 0de8 83000000 		.4byte	0x83
 7009 0dec 0A       		.byte	0xa
 7010 0ded 12       		.uleb128 0x12
 7011 0dee 4E170000 		.4byte	.LASF348
 7012 0df2 0E       		.byte	0xe
 7013 0df3 23       		.byte	0x23
 7014 0df4 9A090000 		.4byte	0x99a
 7015 0df8 0E       		.byte	0xe
 7016 0df9 12       		.uleb128 0x12
 7017 0dfa DE260000 		.4byte	.LASF349
 7018 0dfe 0E       		.byte	0xe
 7019 0dff 24       		.byte	0x24
 7020 0e00 9A090000 		.4byte	0x99a
 7021 0e04 11       		.byte	0x11
 7022 0e05 12       		.uleb128 0x12
 7023 0e06 DD2D0000 		.4byte	.LASF350
 7024 0e0a 0E       		.byte	0xe
 7025 0e0b 25       		.byte	0x25
 7026 0e0c 9A090000 		.4byte	0x99a
ARM GAS  C:\Users\310309~1\AppData\Local\Temp\ccu8WRKs.s 			page 155


 7027 0e10 14       		.byte	0x14
 7028 0e11 12       		.uleb128 0x12
 7029 0e12 451A0000 		.4byte	.LASF294
 7030 0e16 0E       		.byte	0xe
 7031 0e17 26       		.byte	0x26
 7032 0e18 9A090000 		.4byte	0x99a
 7033 0e1c 17       		.byte	0x17
 7034 0e1d 12       		.uleb128 0x12
 7035 0e1e 63060000 		.4byte	.LASF311
 7036 0e22 0E       		.byte	0xe
 7037 0e23 27       		.byte	0x27
 7038 0e24 9A090000 		.4byte	0x99a
 7039 0e28 1A       		.byte	0x1a
 7040 0e29 00       		.byte	0
 7041 0e2a 13       		.uleb128 0x13
 7042 0e2b 072B0000 		.4byte	.LASF351
 7043 0e2f 0E       		.byte	0xe
 7044 0e30 29       		.byte	0x29
 7045 0e31 9D0D0000 		.4byte	0xd9d
 7046 0e35 11       		.uleb128 0x11
 7047 0e36 1A       		.byte	0x1a
 7048 0e37 0F       		.byte	0xf
 7049 0e38 1B       		.byte	0x1b
 7050 0e39 C20E0000 		.4byte	0xec2
 7051 0e3d 12       		.uleb128 0x12
 7052 0e3e B62F0000 		.4byte	.LASF272
 7053 0e42 0F       		.byte	0xf
 7054 0e43 1D       		.byte	0x1d
 7055 0e44 6B000000 		.4byte	0x6b
 7056 0e48 00       		.byte	0
 7057 0e49 12       		.uleb128 0x12
 7058 0e4a 3B2F0000 		.4byte	.LASF260
 7059 0e4e 0F       		.byte	0xf
 7060 0e4f 1E       		.byte	0x1e
 7061 0e50 77000000 		.4byte	0x77
 7062 0e54 01       		.byte	0x1
 7063 0e55 12       		.uleb128 0x12
 7064 0e56 B3070000 		.4byte	.LASF261
 7065 0e5a 0F       		.byte	0xf
 7066 0e5b 1F       		.byte	0x1f
 7067 0e5c 77000000 		.4byte	0x77
 7068 0e60 03       		.byte	0x3
 7069 0e61 12       		.uleb128 0x12
 7070 0e62 11190000 		.4byte	.LASF266
 7071 0e66 0F       		.byte	0xf
 7072 0e67 20       		.byte	0x20
 7073 0e68 77000000 		.4byte	0x77
 7074 0e6c 05       		.byte	0x5
 7075 0e6d 12       		.uleb128 0x12
 7076 0e6e 45280000 		.4byte	.LASF273
 7077 0e72 0F       		.byte	0xf
 7078 0e73 21       		.byte	0x21
 7079 0e74 83000000 		.4byte	0x83
 7080 0e78 07       		.byte	0x7
 7081 0e79 12       		.uleb128 0x12
 7082 0e7a 63050000 		.4byte	.LASF274
 7083 0e7e 0F       		.byte	0xf
ARM GAS  C:\Users\310309~1\AppData\Local\Temp\ccu8WRKs.s 			page 156


 7084 0e7f 22       		.byte	0x22
 7085 0e80 83000000 		.4byte	0x83
 7086 0e84 0B       		.byte	0xb
 7087 0e85 12       		.uleb128 0x12
 7088 0e86 E5130000 		.4byte	.LASF352
 7089 0e8a 0F       		.byte	0xf
 7090 0e8b 23       		.byte	0x23
 7091 0e8c 9A090000 		.4byte	0x99a
 7092 0e90 0F       		.byte	0xf
 7093 0e91 12       		.uleb128 0x12
 7094 0e92 CA2F0000 		.4byte	.LASF353
 7095 0e96 0F       		.byte	0xf
 7096 0e97 24       		.byte	0x24
 7097 0e98 9A090000 		.4byte	0x99a
 7098 0e9c 12       		.byte	0x12
 7099 0e9d 12       		.uleb128 0x12
 7100 0e9e 98110000 		.4byte	.LASF354
 7101 0ea2 0F       		.byte	0xf
 7102 0ea3 25       		.byte	0x25
 7103 0ea4 9A090000 		.4byte	0x99a
 7104 0ea8 15       		.byte	0x15
 7105 0ea9 12       		.uleb128 0x12
 7106 0eaa 79200000 		.4byte	.LASF355
 7107 0eae 0F       		.byte	0xf
 7108 0eaf 26       		.byte	0x26
 7109 0eb0 6B000000 		.4byte	0x6b
 7110 0eb4 18       		.byte	0x18
 7111 0eb5 12       		.uleb128 0x12
 7112 0eb6 CB110000 		.4byte	.LASF356
 7113 0eba 0F       		.byte	0xf
 7114 0ebb 27       		.byte	0x27
 7115 0ebc 6B000000 		.4byte	0x6b
 7116 0ec0 19       		.byte	0x19
 7117 0ec1 00       		.byte	0
 7118 0ec2 13       		.uleb128 0x13
 7119 0ec3 B2240000 		.4byte	.LASF357
 7120 0ec7 0F       		.byte	0xf
 7121 0ec8 29       		.byte	0x29
 7122 0ec9 350E0000 		.4byte	0xe35
 7123 0ecd 11       		.uleb128 0x11
 7124 0ece 44       		.byte	0x44
 7125 0ecf 10       		.byte	0x10
 7126 0ed0 1B       		.byte	0x1b
 7127 0ed1 0E100000 		.4byte	0x100e
 7128 0ed5 12       		.uleb128 0x12
 7129 0ed6 B62F0000 		.4byte	.LASF272
 7130 0eda 10       		.byte	0x10
 7131 0edb 1D       		.byte	0x1d
 7132 0edc 6B000000 		.4byte	0x6b
 7133 0ee0 00       		.byte	0
 7134 0ee1 12       		.uleb128 0x12
 7135 0ee2 3B2F0000 		.4byte	.LASF260
 7136 0ee6 10       		.byte	0x10
 7137 0ee7 1E       		.byte	0x1e
 7138 0ee8 9A090000 		.4byte	0x99a
 7139 0eec 01       		.byte	0x1
 7140 0eed 12       		.uleb128 0x12
ARM GAS  C:\Users\310309~1\AppData\Local\Temp\ccu8WRKs.s 			page 157


 7141 0eee B3070000 		.4byte	.LASF261
 7142 0ef2 10       		.byte	0x10
 7143 0ef3 1F       		.byte	0x1f
 7144 0ef4 77000000 		.4byte	0x77
 7145 0ef8 04       		.byte	0x4
 7146 0ef9 12       		.uleb128 0x12
 7147 0efa 11190000 		.4byte	.LASF266
 7148 0efe 10       		.byte	0x10
 7149 0eff 20       		.byte	0x20
 7150 0f00 77000000 		.4byte	0x77
 7151 0f04 06       		.byte	0x6
 7152 0f05 12       		.uleb128 0x12
 7153 0f06 45280000 		.4byte	.LASF273
 7154 0f0a 10       		.byte	0x10
 7155 0f0b 21       		.byte	0x21
 7156 0f0c 83000000 		.4byte	0x83
 7157 0f10 08       		.byte	0x8
 7158 0f11 12       		.uleb128 0x12
 7159 0f12 63050000 		.4byte	.LASF274
 7160 0f16 10       		.byte	0x10
 7161 0f17 22       		.byte	0x22
 7162 0f18 83000000 		.4byte	0x83
 7163 0f1c 0C       		.byte	0xc
 7164 0f1d 12       		.uleb128 0x12
 7165 0f1e 37250000 		.4byte	.LASF358
 7166 0f22 10       		.byte	0x10
 7167 0f23 23       		.byte	0x23
 7168 0f24 9A090000 		.4byte	0x99a
 7169 0f28 10       		.byte	0x10
 7170 0f29 12       		.uleb128 0x12
 7171 0f2a 8A150000 		.4byte	.LASF359
 7172 0f2e 10       		.byte	0x10
 7173 0f2f 24       		.byte	0x24
 7174 0f30 9A090000 		.4byte	0x99a
 7175 0f34 13       		.byte	0x13
 7176 0f35 12       		.uleb128 0x12
 7177 0f36 BD2F0000 		.4byte	.LASF360
 7178 0f3a 10       		.byte	0x10
 7179 0f3b 25       		.byte	0x25
 7180 0f3c 9A090000 		.4byte	0x99a
 7181 0f40 16       		.byte	0x16
 7182 0f41 12       		.uleb128 0x12
 7183 0f42 32040000 		.4byte	.LASF361
 7184 0f46 10       		.byte	0x10
 7185 0f47 26       		.byte	0x26
 7186 0f48 77000000 		.4byte	0x77
 7187 0f4c 19       		.byte	0x19
 7188 0f4d 12       		.uleb128 0x12
 7189 0f4e 05170000 		.4byte	.LASF362
 7190 0f52 10       		.byte	0x10
 7191 0f53 27       		.byte	0x27
 7192 0f54 77000000 		.4byte	0x77
 7193 0f58 1B       		.byte	0x1b
 7194 0f59 12       		.uleb128 0x12
 7195 0f5a A0230000 		.4byte	.LASF363
 7196 0f5e 10       		.byte	0x10
 7197 0f5f 28       		.byte	0x28
ARM GAS  C:\Users\310309~1\AppData\Local\Temp\ccu8WRKs.s 			page 158


 7198 0f60 6B000000 		.4byte	0x6b
 7199 0f64 1D       		.byte	0x1d
 7200 0f65 12       		.uleb128 0x12
 7201 0f66 A5050000 		.4byte	.LASF364
 7202 0f6a 10       		.byte	0x10
 7203 0f6b 29       		.byte	0x29
 7204 0f6c 77000000 		.4byte	0x77
 7205 0f70 1E       		.byte	0x1e
 7206 0f71 12       		.uleb128 0x12
 7207 0f72 85090000 		.4byte	.LASF365
 7208 0f76 10       		.byte	0x10
 7209 0f77 2A       		.byte	0x2a
 7210 0f78 77000000 		.4byte	0x77
 7211 0f7c 20       		.byte	0x20
 7212 0f7d 12       		.uleb128 0x12
 7213 0f7e 88010000 		.4byte	.LASF366
 7214 0f82 10       		.byte	0x10
 7215 0f83 2B       		.byte	0x2b
 7216 0f84 9A090000 		.4byte	0x99a
 7217 0f88 22       		.byte	0x22
 7218 0f89 12       		.uleb128 0x12
 7219 0f8a E2000000 		.4byte	.LASF367
 7220 0f8e 10       		.byte	0x10
 7221 0f8f 2C       		.byte	0x2c
 7222 0f90 9A090000 		.4byte	0x99a
 7223 0f94 25       		.byte	0x25
 7224 0f95 12       		.uleb128 0x12
 7225 0f96 720D0000 		.4byte	.LASF368
 7226 0f9a 10       		.byte	0x10
 7227 0f9b 2D       		.byte	0x2d
 7228 0f9c 9A090000 		.4byte	0x99a
 7229 0fa0 28       		.byte	0x28
 7230 0fa1 12       		.uleb128 0x12
 7231 0fa2 C4270000 		.4byte	.LASF369
 7232 0fa6 10       		.byte	0x10
 7233 0fa7 2E       		.byte	0x2e
 7234 0fa8 9A090000 		.4byte	0x99a
 7235 0fac 2B       		.byte	0x2b
 7236 0fad 12       		.uleb128 0x12
 7237 0fae DD040000 		.4byte	.LASF370
 7238 0fb2 10       		.byte	0x10
 7239 0fb3 2F       		.byte	0x2f
 7240 0fb4 9A090000 		.4byte	0x99a
 7241 0fb8 2E       		.byte	0x2e
 7242 0fb9 12       		.uleb128 0x12
 7243 0fba 57280000 		.4byte	.LASF371
 7244 0fbe 10       		.byte	0x10
 7245 0fbf 30       		.byte	0x30
 7246 0fc0 9A090000 		.4byte	0x99a
 7247 0fc4 31       		.byte	0x31
 7248 0fc5 12       		.uleb128 0x12
 7249 0fc6 F6030000 		.4byte	.LASF372
 7250 0fca 10       		.byte	0x10
 7251 0fcb 31       		.byte	0x31
 7252 0fcc 9A090000 		.4byte	0x99a
 7253 0fd0 34       		.byte	0x34
 7254 0fd1 12       		.uleb128 0x12
ARM GAS  C:\Users\310309~1\AppData\Local\Temp\ccu8WRKs.s 			page 159


 7255 0fd2 EB180000 		.4byte	.LASF373
 7256 0fd6 10       		.byte	0x10
 7257 0fd7 32       		.byte	0x32
 7258 0fd8 9A090000 		.4byte	0x99a
 7259 0fdc 37       		.byte	0x37
 7260 0fdd 12       		.uleb128 0x12
 7261 0fde 41090000 		.4byte	.LASF374
 7262 0fe2 10       		.byte	0x10
 7263 0fe3 33       		.byte	0x33
 7264 0fe4 9A090000 		.4byte	0x99a
 7265 0fe8 3A       		.byte	0x3a
 7266 0fe9 12       		.uleb128 0x12
 7267 0fea 192B0000 		.4byte	.LASF375
 7268 0fee 10       		.byte	0x10
 7269 0fef 34       		.byte	0x34
 7270 0ff0 9A090000 		.4byte	0x99a
 7271 0ff4 3D       		.byte	0x3d
 7272 0ff5 12       		.uleb128 0x12
 7273 0ff6 CB0A0000 		.4byte	.LASF376
 7274 0ffa 10       		.byte	0x10
 7275 0ffb 35       		.byte	0x35
 7276 0ffc 6B000000 		.4byte	0x6b
 7277 1000 40       		.byte	0x40
 7278 1001 12       		.uleb128 0x12
 7279 1002 63060000 		.4byte	.LASF311
 7280 1006 10       		.byte	0x10
 7281 1007 36       		.byte	0x36
 7282 1008 9A090000 		.4byte	0x99a
 7283 100c 41       		.byte	0x41
 7284 100d 00       		.byte	0
 7285 100e 13       		.uleb128 0x13
 7286 100f B1290000 		.4byte	.LASF377
 7287 1013 10       		.byte	0x10
 7288 1014 38       		.byte	0x38
 7289 1015 CD0E0000 		.4byte	0xecd
 7290 1019 0F       		.uleb128 0xf
 7291 101a 01       		.byte	0x1
 7292 101b 2C000000 		.4byte	0x2c
 7293 101f 11       		.byte	0x11
 7294 1020 51       		.byte	0x51
 7295 1021 50100000 		.4byte	0x1050
 7296 1025 08       		.uleb128 0x8
 7297 1026 842F0000 		.4byte	.LASF378
 7298 102a 01       		.byte	0x1
 7299 102b 08       		.uleb128 0x8
 7300 102c ED290000 		.4byte	.LASF379
 7301 1030 02       		.byte	0x2
 7302 1031 08       		.uleb128 0x8
 7303 1032 5A010000 		.4byte	.LASF380
 7304 1036 03       		.byte	0x3
 7305 1037 08       		.uleb128 0x8
 7306 1038 7E020000 		.4byte	.LASF381
 7307 103c 04       		.byte	0x4
 7308 103d 08       		.uleb128 0x8
 7309 103e 41150000 		.4byte	.LASF382
 7310 1042 05       		.byte	0x5
 7311 1043 08       		.uleb128 0x8
ARM GAS  C:\Users\310309~1\AppData\Local\Temp\ccu8WRKs.s 			page 160


 7312 1044 74190000 		.4byte	.LASF383
 7313 1048 06       		.byte	0x6
 7314 1049 08       		.uleb128 0x8
 7315 104a 3B190000 		.4byte	.LASF384
 7316 104e 07       		.byte	0x7
 7317 104f 00       		.byte	0
 7318 1050 0F       		.uleb128 0xf
 7319 1051 01       		.byte	0x1
 7320 1052 2C000000 		.4byte	0x2c
 7321 1056 11       		.byte	0x11
 7322 1057 5D       		.byte	0x5d
 7323 1058 87100000 		.4byte	0x1087
 7324 105c 08       		.uleb128 0x8
 7325 105d B3060000 		.4byte	.LASF385
 7326 1061 00       		.byte	0
 7327 1062 08       		.uleb128 0x8
 7328 1063 BB180000 		.4byte	.LASF386
 7329 1067 01       		.byte	0x1
 7330 1068 08       		.uleb128 0x8
 7331 1069 63250000 		.4byte	.LASF387
 7332 106d 02       		.byte	0x2
 7333 106e 08       		.uleb128 0x8
 7334 106f CF220000 		.4byte	.LASF388
 7335 1073 03       		.byte	0x3
 7336 1074 08       		.uleb128 0x8
 7337 1075 062F0000 		.4byte	.LASF389
 7338 1079 04       		.byte	0x4
 7339 107a 08       		.uleb128 0x8
 7340 107b 18120000 		.4byte	.LASF390
 7341 107f 05       		.byte	0x5
 7342 1080 08       		.uleb128 0x8
 7343 1081 F2220000 		.4byte	.LASF391
 7344 1085 06       		.byte	0x6
 7345 1086 00       		.byte	0
 7346 1087 0F       		.uleb128 0xf
 7347 1088 01       		.byte	0x1
 7348 1089 2C000000 		.4byte	0x2c
 7349 108d 11       		.byte	0x11
 7350 108e 69       		.byte	0x69
 7351 108f AC100000 		.4byte	0x10ac
 7352 1093 08       		.uleb128 0x8
 7353 1094 E72C0000 		.4byte	.LASF392
 7354 1098 00       		.byte	0
 7355 1099 08       		.uleb128 0x8
 7356 109a E3280000 		.4byte	.LASF393
 7357 109e 01       		.byte	0x1
 7358 109f 08       		.uleb128 0x8
 7359 10a0 BE2A0000 		.4byte	.LASF394
 7360 10a4 02       		.byte	0x2
 7361 10a5 08       		.uleb128 0x8
 7362 10a6 E4210000 		.4byte	.LASF395
 7363 10aa 03       		.byte	0x3
 7364 10ab 00       		.byte	0
 7365 10ac 0F       		.uleb128 0xf
 7366 10ad 01       		.byte	0x1
 7367 10ae 2C000000 		.4byte	0x2c
 7368 10b2 11       		.byte	0x11
ARM GAS  C:\Users\310309~1\AppData\Local\Temp\ccu8WRKs.s 			page 161


 7369 10b3 72       		.byte	0x72
 7370 10b4 C5100000 		.4byte	0x10c5
 7371 10b8 08       		.uleb128 0x8
 7372 10b9 B10A0000 		.4byte	.LASF396
 7373 10bd 00       		.byte	0
 7374 10be 08       		.uleb128 0x8
 7375 10bf 47050000 		.4byte	.LASF397
 7376 10c3 01       		.byte	0x1
 7377 10c4 00       		.byte	0
 7378 10c5 11       		.uleb128 0x11
 7379 10c6 11       		.byte	0x11
 7380 10c7 12       		.byte	0x12
 7381 10c8 14       		.byte	0x14
 7382 10c9 22110000 		.4byte	0x1122
 7383 10cd 12       		.uleb128 0x12
 7384 10ce 3B2F0000 		.4byte	.LASF260
 7385 10d2 12       		.byte	0x12
 7386 10d3 16       		.byte	0x16
 7387 10d4 6B000000 		.4byte	0x6b
 7388 10d8 00       		.byte	0
 7389 10d9 12       		.uleb128 0x12
 7390 10da B3070000 		.4byte	.LASF261
 7391 10de 12       		.byte	0x12
 7392 10df 17       		.byte	0x17
 7393 10e0 77000000 		.4byte	0x77
 7394 10e4 01       		.byte	0x1
 7395 10e5 12       		.uleb128 0x12
 7396 10e6 260A0000 		.4byte	.LASF262
 7397 10ea 12       		.byte	0x12
 7398 10eb 18       		.byte	0x18
 7399 10ec 83000000 		.4byte	0x83
 7400 10f0 03       		.byte	0x3
 7401 10f1 12       		.uleb128 0x12
 7402 10f2 43240000 		.4byte	.LASF263
 7403 10f6 12       		.byte	0x12
 7404 10f7 19       		.byte	0x19
 7405 10f8 9B000000 		.4byte	0x9b
 7406 10fc 07       		.byte	0x7
 7407 10fd 12       		.uleb128 0x12
 7408 10fe 11190000 		.4byte	.LASF266
 7409 1102 12       		.byte	0x12
 7410 1103 1A       		.byte	0x1a
 7411 1104 77000000 		.4byte	0x77
 7412 1108 09       		.byte	0x9
 7413 1109 12       		.uleb128 0x12
 7414 110a 9F0C0000 		.4byte	.LASF267
 7415 110e 12       		.byte	0x12
 7416 110f 1B       		.byte	0x1b
 7417 1110 83000000 		.4byte	0x83
 7418 1114 0B       		.byte	0xb
 7419 1115 12       		.uleb128 0x12
 7420 1116 A3160000 		.4byte	.LASF268
 7421 111a 12       		.byte	0x12
 7422 111b 1C       		.byte	0x1c
 7423 111c 9B000000 		.4byte	0x9b
 7424 1120 0F       		.byte	0xf
 7425 1121 00       		.byte	0
ARM GAS  C:\Users\310309~1\AppData\Local\Temp\ccu8WRKs.s 			page 162


 7426 1122 13       		.uleb128 0x13
 7427 1123 B4190000 		.4byte	.LASF398
 7428 1127 12       		.byte	0x12
 7429 1128 1E       		.byte	0x1e
 7430 1129 C5100000 		.4byte	0x10c5
 7431 112d 14       		.uleb128 0x14
 7432 112e E82D0000 		.4byte	.LASF399
 7433 1132 01       		.byte	0x1
 7434 1133 1F       		.byte	0x1f
 7435 1134 00000000 		.4byte	.LFB36
 7436 1138 0A000000 		.4byte	.LFE36-.LFB36
 7437 113c 01       		.uleb128 0x1
 7438 113d 9C       		.byte	0x9c
 7439 113e 52110000 		.4byte	0x1152
 7440 1142 15       		.uleb128 0x15
 7441 1143 08000000 		.4byte	.LVL0
 7442 1147 10250000 		.4byte	0x2510
 7443 114b 16       		.uleb128 0x16
 7444 114c 01       		.uleb128 0x1
 7445 114d 50       		.byte	0x50
 7446 114e 01       		.uleb128 0x1
 7447 114f 31       		.byte	0x31
 7448 1150 00       		.byte	0
 7449 1151 00       		.byte	0
 7450 1152 14       		.uleb128 0x14
 7451 1153 BD010000 		.4byte	.LASF400
 7452 1157 01       		.byte	0x1
 7453 1158 27       		.byte	0x27
 7454 1159 00000000 		.4byte	.LFB37
 7455 115d 44000000 		.4byte	.LFE37-.LFB37
 7456 1161 01       		.uleb128 0x1
 7457 1162 9C       		.byte	0x9c
 7458 1163 91110000 		.4byte	0x1191
 7459 1167 17       		.uleb128 0x17
 7460 1168 08000000 		.4byte	.LVL1
 7461 116c 1C250000 		.4byte	0x251c
 7462 1170 7E110000 		.4byte	0x117e
 7463 1174 16       		.uleb128 0x16
 7464 1175 01       		.uleb128 0x1
 7465 1176 50       		.byte	0x50
 7466 1177 05       		.uleb128 0x5
 7467 1178 03       		.byte	0x3
 7468 1179 00000000 		.4byte	.LC0
 7469 117d 00       		.byte	0
 7470 117e 18       		.uleb128 0x18
 7471 117f 34000000 		.4byte	.LVL2
 7472 1183 2B250000 		.4byte	0x252b
 7473 1187 18       		.uleb128 0x18
 7474 1188 38000000 		.4byte	.LVL3
 7475 118c 36250000 		.4byte	0x2536
 7476 1190 00       		.byte	0
 7477 1191 19       		.uleb128 0x19
 7478 1192 09120000 		.4byte	.LASF505
 7479 1196 01       		.byte	0x1
 7480 1197 FC02     		.2byte	0x2fc
 7481 1199 83000000 		.4byte	0x83
 7482 119d 00000000 		.4byte	.LFB40
ARM GAS  C:\Users\310309~1\AppData\Local\Temp\ccu8WRKs.s 			page 163


 7483 11a1 C80D0000 		.4byte	.LFE40-.LFB40
 7484 11a5 01       		.uleb128 0x1
 7485 11a6 9C       		.byte	0x9c
 7486 11a7 1B120000 		.4byte	0x121b
 7487 11ab 1A       		.uleb128 0x1a
 7488 11ac B3070000 		.4byte	.LASF261
 7489 11b0 01       		.byte	0x1
 7490 11b1 FC02     		.2byte	0x2fc
 7491 11b3 A6070000 		.4byte	0x7a6
 7492 11b7 00000000 		.4byte	.LLST0
 7493 11bb 1A       		.uleb128 0x1a
 7494 11bc 11190000 		.4byte	.LASF266
 7495 11c0 01       		.byte	0x1
 7496 11c1 FC02     		.2byte	0x2fc
 7497 11c3 A6070000 		.4byte	0x7a6
 7498 11c7 21000000 		.4byte	.LLST1
 7499 11cb 1B       		.uleb128 0x1b
 7500 11cc 7F1B0000 		.4byte	.LASF402
 7501 11d0 01       		.byte	0x1
 7502 11d1 DA03     		.2byte	0x3da
 7503 11d3 83000000 		.4byte	0x83
 7504 11d7 42000000 		.4byte	.LLST2
 7505 11db 18       		.uleb128 0x18
 7506 11dc 880D0000 		.4byte	.LVL8
 7507 11e0 2B250000 		.4byte	0x252b
 7508 11e4 18       		.uleb128 0x18
 7509 11e5 900D0000 		.4byte	.LVL10
 7510 11e9 41250000 		.4byte	0x2541
 7511 11ed 18       		.uleb128 0x18
 7512 11ee 980D0000 		.4byte	.LVL12
 7513 11f2 4C250000 		.4byte	0x254c
 7514 11f6 18       		.uleb128 0x18
 7515 11f7 A00D0000 		.4byte	.LVL14
 7516 11fb 57250000 		.4byte	0x2557
 7517 11ff 18       		.uleb128 0x18
 7518 1200 A80D0000 		.4byte	.LVL16
 7519 1204 62250000 		.4byte	0x2562
 7520 1208 18       		.uleb128 0x18
 7521 1209 B00D0000 		.4byte	.LVL18
 7522 120d 6D250000 		.4byte	0x256d
 7523 1211 18       		.uleb128 0x18
 7524 1212 B80D0000 		.4byte	.LVL20
 7525 1216 78250000 		.4byte	0x2578
 7526 121a 00       		.byte	0
 7527 121b 1C       		.uleb128 0x1c
 7528 121c F7130000 		.4byte	.LASF401
 7529 1220 01       		.byte	0x1
 7530 1221 0C04     		.2byte	0x40c
 7531 1223 00000000 		.4byte	.LFB41
 7532 1227 C8000000 		.4byte	.LFE41-.LFB41
 7533 122b 01       		.uleb128 0x1
 7534 122c 9C       		.byte	0x9c
 7535 122d 83120000 		.4byte	0x1283
 7536 1231 18       		.uleb128 0x18
 7537 1232 06000000 		.4byte	.LVL23
 7538 1236 83250000 		.4byte	0x2583
 7539 123a 18       		.uleb128 0x18
ARM GAS  C:\Users\310309~1\AppData\Local\Temp\ccu8WRKs.s 			page 164


 7540 123b 2C000000 		.4byte	.LVL24
 7541 123f 8E250000 		.4byte	0x258e
 7542 1243 18       		.uleb128 0x18
 7543 1244 3A000000 		.4byte	.LVL25
 7544 1248 2B250000 		.4byte	0x252b
 7545 124c 18       		.uleb128 0x18
 7546 124d 5A000000 		.4byte	.LVL26
 7547 1251 41250000 		.4byte	0x2541
 7548 1255 18       		.uleb128 0x18
 7549 1256 64000000 		.4byte	.LVL27
 7550 125a 4C250000 		.4byte	0x254c
 7551 125e 18       		.uleb128 0x18
 7552 125f 72000000 		.4byte	.LVL28
 7553 1263 57250000 		.4byte	0x2557
 7554 1267 18       		.uleb128 0x18
 7555 1268 7A000000 		.4byte	.LVL29
 7556 126c 62250000 		.4byte	0x2562
 7557 1270 18       		.uleb128 0x18
 7558 1271 84000000 		.4byte	.LVL30
 7559 1275 6D250000 		.4byte	0x256d
 7560 1279 18       		.uleb128 0x18
 7561 127a 90000000 		.4byte	.LVL31
 7562 127e 78250000 		.4byte	0x2578
 7563 1282 00       		.byte	0
 7564 1283 1D       		.uleb128 0x1d
 7565 1284 512E0000 		.4byte	.LASF506
 7566 1288 01       		.byte	0x1
 7567 1289 6D02     		.2byte	0x26d
 7568 128b 5D000000 		.4byte	0x5d
 7569 128f 00000000 		.4byte	.LFB39
 7570 1293 A4030000 		.4byte	.LFE39-.LFB39
 7571 1297 01       		.uleb128 0x1
 7572 1298 9C       		.byte	0x9c
 7573 1299 61150000 		.4byte	0x1561
 7574 129d 1B       		.uleb128 0x1b
 7575 129e 6B180000 		.4byte	.LASF403
 7576 12a2 01       		.byte	0x1
 7577 12a3 7D02     		.2byte	0x27d
 7578 12a5 6B000000 		.4byte	0x6b
 7579 12a9 09010000 		.4byte	.LLST3
 7580 12ad 1E       		.uleb128 0x1e
 7581 12ae 00000000 		.4byte	.Ldebug_ranges0+0
 7582 12b2 ED120000 		.4byte	0x12ed
 7583 12b6 1F       		.uleb128 0x1f
 7584 12b7 6900     		.ascii	"i\000"
 7585 12b9 01       		.byte	0x1
 7586 12ba AC02     		.2byte	0x2ac
 7587 12bc 5D000000 		.4byte	0x5d
 7588 12c0 A5010000 		.4byte	.LLST4
 7589 12c4 17       		.uleb128 0x17
 7590 12c5 FA000000 		.4byte	.LVL44
 7591 12c9 99250000 		.4byte	0x2599
 7592 12cd E3120000 		.4byte	0x12e3
 7593 12d1 16       		.uleb128 0x16
 7594 12d2 01       		.uleb128 0x1
 7595 12d3 50       		.byte	0x50
 7596 12d4 02       		.uleb128 0x2
ARM GAS  C:\Users\310309~1\AppData\Local\Temp\ccu8WRKs.s 			page 165


 7597 12d5 7D       		.byte	0x7d
 7598 12d6 00       		.sleb128 0
 7599 12d7 16       		.uleb128 0x16
 7600 12d8 01       		.uleb128 0x1
 7601 12d9 51       		.byte	0x51
 7602 12da 02       		.uleb128 0x2
 7603 12db 74       		.byte	0x74
 7604 12dc 10       		.sleb128 16
 7605 12dd 16       		.uleb128 0x16
 7606 12de 01       		.uleb128 0x1
 7607 12df 52       		.byte	0x52
 7608 12e0 01       		.uleb128 0x1
 7609 12e1 3D       		.byte	0x3d
 7610 12e2 00       		.byte	0
 7611 12e3 18       		.uleb128 0x18
 7612 12e4 06010000 		.4byte	.LVL45
 7613 12e8 A2250000 		.4byte	0x25a2
 7614 12ec 00       		.byte	0
 7615 12ed 1E       		.uleb128 0x1e
 7616 12ee 18000000 		.4byte	.Ldebug_ranges0+0x18
 7617 12f2 77130000 		.4byte	0x1377
 7618 12f6 1B       		.uleb128 0x1b
 7619 12f7 7F1B0000 		.4byte	.LASF402
 7620 12fb 01       		.byte	0x1
 7621 12fc C002     		.2byte	0x2c0
 7622 12fe 77000000 		.4byte	0x77
 7623 1302 C3010000 		.4byte	.LLST5
 7624 1306 1E       		.uleb128 0x1e
 7625 1307 30000000 		.4byte	.Ldebug_ranges0+0x30
 7626 130b 46130000 		.4byte	0x1346
 7627 130f 1F       		.uleb128 0x1f
 7628 1310 6900     		.ascii	"i\000"
 7629 1312 01       		.byte	0x1
 7630 1313 C102     		.2byte	0x2c1
 7631 1315 5D000000 		.4byte	0x5d
 7632 1319 EC010000 		.4byte	.LLST6
 7633 131d 17       		.uleb128 0x17
 7634 131e CE010000 		.4byte	.LVL57
 7635 1322 99250000 		.4byte	0x2599
 7636 1326 3C130000 		.4byte	0x133c
 7637 132a 16       		.uleb128 0x16
 7638 132b 01       		.uleb128 0x1
 7639 132c 50       		.byte	0x50
 7640 132d 02       		.uleb128 0x2
 7641 132e 7D       		.byte	0x7d
 7642 132f 00       		.sleb128 0
 7643 1330 16       		.uleb128 0x16
 7644 1331 01       		.uleb128 0x1
 7645 1332 51       		.byte	0x51
 7646 1333 02       		.uleb128 0x2
 7647 1334 76       		.byte	0x76
 7648 1335 10       		.sleb128 16
 7649 1336 16       		.uleb128 0x16
 7650 1337 01       		.uleb128 0x1
 7651 1338 52       		.byte	0x52
 7652 1339 01       		.uleb128 0x1
 7653 133a 3D       		.byte	0x3d
ARM GAS  C:\Users\310309~1\AppData\Local\Temp\ccu8WRKs.s 			page 166


 7654 133b 00       		.byte	0
 7655 133c 18       		.uleb128 0x18
 7656 133d DA010000 		.4byte	.LVL58
 7657 1341 A2250000 		.4byte	0x25a2
 7658 1345 00       		.byte	0
 7659 1346 17       		.uleb128 0x17
 7660 1347 FC010000 		.4byte	.LVL65
 7661 134b AD250000 		.4byte	0x25ad
 7662 134f 60130000 		.4byte	0x1360
 7663 1353 16       		.uleb128 0x16
 7664 1354 01       		.uleb128 0x1
 7665 1355 50       		.byte	0x50
 7666 1356 02       		.uleb128 0x2
 7667 1357 09       		.byte	0x9
 7668 1358 FE       		.byte	0xfe
 7669 1359 16       		.uleb128 0x16
 7670 135a 01       		.uleb128 0x1
 7671 135b 51       		.byte	0x51
 7672 135c 02       		.uleb128 0x2
 7673 135d 08       		.byte	0x8
 7674 135e FF       		.byte	0xff
 7675 135f 00       		.byte	0
 7676 1360 15       		.uleb128 0x15
 7677 1361 06020000 		.4byte	.LVL68
 7678 1365 AD250000 		.4byte	0x25ad
 7679 1369 16       		.uleb128 0x16
 7680 136a 01       		.uleb128 0x1
 7681 136b 50       		.byte	0x50
 7682 136c 02       		.uleb128 0x2
 7683 136d 09       		.byte	0x9
 7684 136e FB       		.byte	0xfb
 7685 136f 16       		.uleb128 0x16
 7686 1370 01       		.uleb128 0x1
 7687 1371 51       		.byte	0x51
 7688 1372 02       		.uleb128 0x2
 7689 1373 75       		.byte	0x75
 7690 1374 00       		.sleb128 0
 7691 1375 00       		.byte	0
 7692 1376 00       		.byte	0
 7693 1377 1E       		.uleb128 0x1e
 7694 1378 48000000 		.4byte	.Ldebug_ranges0+0x48
 7695 137c DF130000 		.4byte	0x13df
 7696 1380 1F       		.uleb128 0x1f
 7697 1381 6900     		.ascii	"i\000"
 7698 1383 01       		.byte	0x1
 7699 1384 D302     		.2byte	0x2d3
 7700 1386 5D000000 		.4byte	0x5d
 7701 138a 0A020000 		.4byte	.LLST7
 7702 138e 17       		.uleb128 0x17
 7703 138f 8E020000 		.4byte	.LVL71
 7704 1393 99250000 		.4byte	0x2599
 7705 1397 AD130000 		.4byte	0x13ad
 7706 139b 16       		.uleb128 0x16
 7707 139c 01       		.uleb128 0x1
 7708 139d 50       		.byte	0x50
 7709 139e 02       		.uleb128 0x2
 7710 139f 7D       		.byte	0x7d
ARM GAS  C:\Users\310309~1\AppData\Local\Temp\ccu8WRKs.s 			page 167


 7711 13a0 00       		.sleb128 0
 7712 13a1 16       		.uleb128 0x16
 7713 13a2 01       		.uleb128 0x1
 7714 13a3 51       		.byte	0x51
 7715 13a4 02       		.uleb128 0x2
 7716 13a5 74       		.byte	0x74
 7717 13a6 10       		.sleb128 16
 7718 13a7 16       		.uleb128 0x16
 7719 13a8 01       		.uleb128 0x1
 7720 13a9 52       		.byte	0x52
 7721 13aa 01       		.uleb128 0x1
 7722 13ab 3D       		.byte	0x3d
 7723 13ac 00       		.byte	0
 7724 13ad 18       		.uleb128 0x18
 7725 13ae 9A020000 		.4byte	.LVL72
 7726 13b2 A2250000 		.4byte	0x25a2
 7727 13b6 15       		.uleb128 0x15
 7728 13b7 AE020000 		.4byte	.LVL74
 7729 13bb 99250000 		.4byte	0x2599
 7730 13bf 16       		.uleb128 0x16
 7731 13c0 01       		.uleb128 0x1
 7732 13c1 50       		.byte	0x50
 7733 13c2 02       		.uleb128 0x2
 7734 13c3 74       		.byte	0x74
 7735 13c4 00       		.sleb128 0
 7736 13c5 16       		.uleb128 0x16
 7737 13c6 01       		.uleb128 0x1
 7738 13c7 51       		.byte	0x51
 7739 13c8 0F       		.uleb128 0xf
 7740 13c9 75       		.byte	0x75
 7741 13ca 00       		.sleb128 0
 7742 13cb 33       		.byte	0x33
 7743 13cc 24       		.byte	0x24
 7744 13cd 75       		.byte	0x75
 7745 13ce 00       		.sleb128 0
 7746 13cf 1C       		.byte	0x1c
 7747 13d0 32       		.byte	0x32
 7748 13d1 24       		.byte	0x24
 7749 13d2 76       		.byte	0x76
 7750 13d3 00       		.sleb128 0
 7751 13d4 22       		.byte	0x22
 7752 13d5 75       		.byte	0x75
 7753 13d6 00       		.sleb128 0
 7754 13d7 22       		.byte	0x22
 7755 13d8 16       		.uleb128 0x16
 7756 13d9 01       		.uleb128 0x1
 7757 13da 52       		.byte	0x52
 7758 13db 01       		.uleb128 0x1
 7759 13dc 4D       		.byte	0x4d
 7760 13dd 00       		.byte	0
 7761 13de 00       		.byte	0
 7762 13df 20       		.uleb128 0x20
 7763 13e0 D0020000 		.4byte	.LBB10
 7764 13e4 7A000000 		.4byte	.LBE10-.LBB10
 7765 13e8 7D140000 		.4byte	0x147d
 7766 13ec 1B       		.uleb128 0x1b
 7767 13ed 7F1B0000 		.4byte	.LASF402
ARM GAS  C:\Users\310309~1\AppData\Local\Temp\ccu8WRKs.s 			page 168


 7768 13f1 01       		.byte	0x1
 7769 13f2 DE02     		.2byte	0x2de
 7770 13f4 83000000 		.4byte	0x83
 7771 13f8 40020000 		.4byte	.LLST8
 7772 13fc 1E       		.uleb128 0x1e
 7773 13fd 60000000 		.4byte	.Ldebug_ranges0+0x60
 7774 1401 46140000 		.4byte	0x1446
 7775 1405 1F       		.uleb128 0x1f
 7776 1406 6900     		.ascii	"i\000"
 7777 1408 01       		.byte	0x1
 7778 1409 E102     		.2byte	0x2e1
 7779 140b 5D000000 		.4byte	0x5d
 7780 140f 8D020000 		.4byte	.LLST9
 7781 1413 21       		.uleb128 0x21
 7782 1414 F8020000 		.4byte	.LBB12
 7783 1418 24000000 		.4byte	.LBE12-.LBB12
 7784 141c 22       		.uleb128 0x22
 7785 141d 84200000 		.4byte	.LASF404
 7786 1421 01       		.byte	0x1
 7787 1422 E502     		.2byte	0x2e5
 7788 1424 77000000 		.4byte	0x77
 7789 1428 02       		.uleb128 0x2
 7790 1429 91       		.byte	0x91
 7791 142a 5E       		.sleb128 -34
 7792 142b 15       		.uleb128 0x15
 7793 142c 1A030000 		.4byte	.LVL81
 7794 1430 91110000 		.4byte	0x1191
 7795 1434 16       		.uleb128 0x16
 7796 1435 01       		.uleb128 0x1
 7797 1436 50       		.byte	0x50
 7798 1437 05       		.uleb128 0x5
 7799 1438 03       		.byte	0x3
 7800 1439 00000000 		.4byte	Get_Ended_Data_SessionID
 7801 143d 16       		.uleb128 0x16
 7802 143e 01       		.uleb128 0x1
 7803 143f 51       		.byte	0x51
 7804 1440 02       		.uleb128 0x2
 7805 1441 91       		.byte	0x91
 7806 1442 5E       		.sleb128 -34
 7807 1443 00       		.byte	0
 7808 1444 00       		.byte	0
 7809 1445 00       		.byte	0
 7810 1446 17       		.uleb128 0x17
 7811 1447 36030000 		.4byte	.LVL87
 7812 144b 91110000 		.4byte	0x1191
 7813 144f 66140000 		.4byte	0x1466
 7814 1453 16       		.uleb128 0x16
 7815 1454 01       		.uleb128 0x1
 7816 1455 50       		.byte	0x50
 7817 1456 05       		.uleb128 0x5
 7818 1457 03       		.byte	0x3
 7819 1458 00000000 		.4byte	Get_Ended_Data_SessionID
 7820 145c 16       		.uleb128 0x16
 7821 145d 01       		.uleb128 0x1
 7822 145e 51       		.byte	0x51
 7823 145f 05       		.uleb128 0x5
 7824 1460 03       		.byte	0x3
ARM GAS  C:\Users\310309~1\AppData\Local\Temp\ccu8WRKs.s 			page 169


 7825 1461 00000000 		.4byte	Get_Ended_Data_Sub_SessionID
 7826 1465 00       		.byte	0
 7827 1466 15       		.uleb128 0x15
 7828 1467 40030000 		.4byte	.LVL89
 7829 146b B8250000 		.4byte	0x25b8
 7830 146f 16       		.uleb128 0x16
 7831 1470 01       		.uleb128 0x1
 7832 1471 50       		.byte	0x50
 7833 1472 02       		.uleb128 0x2
 7834 1473 09       		.byte	0x9
 7835 1474 FA       		.byte	0xfa
 7836 1475 16       		.uleb128 0x16
 7837 1476 01       		.uleb128 0x1
 7838 1477 51       		.byte	0x51
 7839 1478 02       		.uleb128 0x2
 7840 1479 75       		.byte	0x75
 7841 147a 00       		.sleb128 0
 7842 147b 00       		.byte	0
 7843 147c 00       		.byte	0
 7844 147d 17       		.uleb128 0x17
 7845 147e 1C000000 		.4byte	.LVL32
 7846 1482 C3250000 		.4byte	0x25c3
 7847 1486 90140000 		.4byte	0x1490
 7848 148a 16       		.uleb128 0x16
 7849 148b 01       		.uleb128 0x1
 7850 148c 50       		.byte	0x50
 7851 148d 01       		.uleb128 0x1
 7852 148e 30       		.byte	0x30
 7853 148f 00       		.byte	0
 7854 1490 17       		.uleb128 0x17
 7855 1491 22000000 		.4byte	.LVL33
 7856 1495 CE250000 		.4byte	0x25ce
 7857 1499 A7140000 		.4byte	0x14a7
 7858 149d 16       		.uleb128 0x16
 7859 149e 01       		.uleb128 0x1
 7860 149f 50       		.byte	0x50
 7861 14a0 05       		.uleb128 0x5
 7862 14a1 03       		.byte	0x3
 7863 14a2 00000000 		.4byte	Pin_SW2_Handler
 7864 14a6 00       		.byte	0
 7865 14a7 18       		.uleb128 0x18
 7866 14a8 26000000 		.4byte	.LVL34
 7867 14ac D9250000 		.4byte	0x25d9
 7868 14b0 17       		.uleb128 0x17
 7869 14b1 2C000000 		.4byte	.LVL35
 7870 14b5 E5250000 		.4byte	0x25e5
 7871 14b9 C7140000 		.4byte	0x14c7
 7872 14bd 16       		.uleb128 0x16
 7873 14be 01       		.uleb128 0x1
 7874 14bf 50       		.byte	0x50
 7875 14c0 05       		.uleb128 0x5
 7876 14c1 03       		.byte	0x3
 7877 14c2 00000000 		.4byte	isr_timer_Handler
 7878 14c6 00       		.byte	0
 7879 14c7 17       		.uleb128 0x17
 7880 14c8 32000000 		.4byte	.LVL36
 7881 14cc F0250000 		.4byte	0x25f0
ARM GAS  C:\Users\310309~1\AppData\Local\Temp\ccu8WRKs.s 			page 170


 7882 14d0 DE140000 		.4byte	0x14de
 7883 14d4 16       		.uleb128 0x16
 7884 14d5 01       		.uleb128 0x1
 7885 14d6 50       		.byte	0x50
 7886 14d7 05       		.uleb128 0x5
 7887 14d8 03       		.byte	0x3
 7888 14d9 00000000 		.4byte	BleEventHandler
 7889 14dd 00       		.byte	0
 7890 14de 18       		.uleb128 0x18
 7891 14df 3A000000 		.4byte	.LVL37
 7892 14e3 1B120000 		.4byte	0x121b
 7893 14e7 18       		.uleb128 0x18
 7894 14e8 3E000000 		.4byte	.LVL38
 7895 14ec FC250000 		.4byte	0x25fc
 7896 14f0 18       		.uleb128 0x18
 7897 14f1 52000000 		.4byte	.LVL39
 7898 14f5 08260000 		.4byte	0x2608
 7899 14f9 17       		.uleb128 0x17
 7900 14fa 6C000000 		.4byte	.LVL40
 7901 14fe 14260000 		.4byte	0x2614
 7902 1502 0C150000 		.4byte	0x150c
 7903 1506 16       		.uleb128 0x16
 7904 1507 01       		.uleb128 0x1
 7905 1508 50       		.byte	0x50
 7906 1509 01       		.uleb128 0x1
 7907 150a 30       		.byte	0x30
 7908 150b 00       		.byte	0
 7909 150c 17       		.uleb128 0x17
 7910 150d 78000000 		.4byte	.LVL41
 7911 1511 20260000 		.4byte	0x2620
 7912 1515 23150000 		.4byte	0x1523
 7913 1519 16       		.uleb128 0x16
 7914 151a 01       		.uleb128 0x1
 7915 151b 50       		.byte	0x50
 7916 151c 05       		.uleb128 0x5
 7917 151d 03       		.byte	0x3
 7918 151e 10000000 		.4byte	.LC61
 7919 1522 00       		.byte	0
 7920 1523 17       		.uleb128 0x17
 7921 1524 22010000 		.4byte	.LVL50
 7922 1528 AD250000 		.4byte	0x25ad
 7923 152c 3D150000 		.4byte	0x153d
 7924 1530 16       		.uleb128 0x16
 7925 1531 01       		.uleb128 0x1
 7926 1532 50       		.byte	0x50
 7927 1533 02       		.uleb128 0x2
 7928 1534 09       		.byte	0x9
 7929 1535 FF       		.byte	0xff
 7930 1536 16       		.uleb128 0x16
 7931 1537 01       		.uleb128 0x1
 7932 1538 51       		.byte	0x51
 7933 1539 02       		.uleb128 0x2
 7934 153a 08       		.byte	0x8
 7935 153b FF       		.byte	0xff
 7936 153c 00       		.byte	0
 7937 153d 17       		.uleb128 0x17
 7938 153e 2A010000 		.4byte	.LVL53
ARM GAS  C:\Users\310309~1\AppData\Local\Temp\ccu8WRKs.s 			page 171


 7939 1542 AD250000 		.4byte	0x25ad
 7940 1546 51150000 		.4byte	0x1551
 7941 154a 16       		.uleb128 0x16
 7942 154b 01       		.uleb128 0x1
 7943 154c 50       		.byte	0x50
 7944 154d 02       		.uleb128 0x2
 7945 154e 09       		.byte	0x9
 7946 154f FC       		.byte	0xfc
 7947 1550 00       		.byte	0
 7948 1551 15       		.uleb128 0x15
 7949 1552 50030000 		.4byte	.LVL91
 7950 1556 2B260000 		.4byte	0x262b
 7951 155a 16       		.uleb128 0x16
 7952 155b 01       		.uleb128 0x1
 7953 155c 50       		.byte	0x50
 7954 155d 01       		.uleb128 0x1
 7955 155e 33       		.byte	0x33
 7956 155f 00       		.byte	0
 7957 1560 00       		.byte	0
 7958 1561 1C       		.uleb128 0x1c
 7959 1562 3E270000 		.4byte	.LASF405
 7960 1566 01       		.byte	0x1
 7961 1567 5304     		.2byte	0x453
 7962 1569 00000000 		.4byte	.LFB42
 7963 156d 4C000000 		.4byte	.LFE42-.LFB42
 7964 1571 01       		.uleb128 0x1
 7965 1572 9C       		.byte	0x9c
 7966 1573 01160000 		.4byte	0x1601
 7967 1577 18       		.uleb128 0x18
 7968 1578 0E000000 		.4byte	.LVL92
 7969 157c 37260000 		.4byte	0x2637
 7970 1580 17       		.uleb128 0x17
 7971 1581 14000000 		.4byte	.LVL93
 7972 1585 42260000 		.4byte	0x2642
 7973 1589 93150000 		.4byte	0x1593
 7974 158d 16       		.uleb128 0x16
 7975 158e 01       		.uleb128 0x1
 7976 158f 50       		.byte	0x50
 7977 1590 01       		.uleb128 0x1
 7978 1591 31       		.byte	0x31
 7979 1592 00       		.byte	0
 7980 1593 17       		.uleb128 0x17
 7981 1594 1A000000 		.4byte	.LVL94
 7982 1598 4D260000 		.4byte	0x264d
 7983 159c A6150000 		.4byte	0x15a6
 7984 15a0 16       		.uleb128 0x16
 7985 15a1 01       		.uleb128 0x1
 7986 15a2 50       		.byte	0x50
 7987 15a3 01       		.uleb128 0x1
 7988 15a4 30       		.byte	0x30
 7989 15a5 00       		.byte	0
 7990 15a6 17       		.uleb128 0x17
 7991 15a7 26000000 		.4byte	.LVL95
 7992 15ab 42260000 		.4byte	0x2642
 7993 15af B9150000 		.4byte	0x15b9
 7994 15b3 16       		.uleb128 0x16
 7995 15b4 01       		.uleb128 0x1
ARM GAS  C:\Users\310309~1\AppData\Local\Temp\ccu8WRKs.s 			page 172


 7996 15b5 50       		.byte	0x50
 7997 15b6 01       		.uleb128 0x1
 7998 15b7 31       		.byte	0x31
 7999 15b8 00       		.byte	0
 8000 15b9 17       		.uleb128 0x17
 8001 15ba 2C000000 		.4byte	.LVL96
 8002 15be 4D260000 		.4byte	0x264d
 8003 15c2 CC150000 		.4byte	0x15cc
 8004 15c6 16       		.uleb128 0x16
 8005 15c7 01       		.uleb128 0x1
 8006 15c8 50       		.byte	0x50
 8007 15c9 01       		.uleb128 0x1
 8008 15ca 31       		.byte	0x31
 8009 15cb 00       		.byte	0
 8010 15cc 18       		.uleb128 0x18
 8011 15cd 30000000 		.4byte	.LVL97
 8012 15d1 58260000 		.4byte	0x2658
 8013 15d5 18       		.uleb128 0x18
 8014 15d6 3A000000 		.4byte	.LVL98
 8015 15da 37260000 		.4byte	0x2637
 8016 15de 17       		.uleb128 0x17
 8017 15df 40000000 		.4byte	.LVL99
 8018 15e3 4D260000 		.4byte	0x264d
 8019 15e7 F1150000 		.4byte	0x15f1
 8020 15eb 16       		.uleb128 0x16
 8021 15ec 01       		.uleb128 0x1
 8022 15ed 50       		.byte	0x50
 8023 15ee 01       		.uleb128 0x1
 8024 15ef 31       		.byte	0x31
 8025 15f0 00       		.byte	0
 8026 15f1 15       		.uleb128 0x15
 8027 15f2 46000000 		.4byte	.LVL100
 8028 15f6 42260000 		.4byte	0x2642
 8029 15fa 16       		.uleb128 0x16
 8030 15fb 01       		.uleb128 0x1
 8031 15fc 50       		.byte	0x50
 8032 15fd 01       		.uleb128 0x1
 8033 15fe 30       		.byte	0x30
 8034 15ff 00       		.byte	0
 8035 1600 00       		.byte	0
 8036 1601 14       		.uleb128 0x14
 8037 1602 CD040000 		.4byte	.LASF406
 8038 1606 01       		.byte	0x1
 8039 1607 50       		.byte	0x50
 8040 1608 00000000 		.4byte	.LFB38
 8041 160c 700B0000 		.4byte	.LFE38-.LFB38
 8042 1610 01       		.uleb128 0x1
 8043 1611 9C       		.byte	0x9c
 8044 1612 4B220000 		.4byte	0x224b
 8045 1616 23       		.uleb128 0x23
 8046 1617 77000000 		.4byte	.LASF407
 8047 161b 01       		.byte	0x1
 8048 161c 50       		.byte	0x50
 8049 161d 83000000 		.4byte	0x83
 8050 1621 AB020000 		.4byte	.LLST10
 8051 1625 23       		.uleb128 0x23
 8052 1626 C8200000 		.4byte	.LASF408
ARM GAS  C:\Users\310309~1\AppData\Local\Temp\ccu8WRKs.s 			page 173


 8053 162a 01       		.byte	0x1
 8054 162b 50       		.byte	0x50
 8055 162c E7000000 		.4byte	0xe7
 8056 1630 CC020000 		.4byte	.LLST11
 8057 1634 24       		.uleb128 0x24
 8058 1635 1F300000 		.4byte	.LASF409
 8059 1639 01       		.byte	0x1
 8060 163a 57       		.byte	0x57
 8061 163b 4B220000 		.4byte	0x224b
 8062 163f F5040000 		.4byte	.LLST12
 8063 1643 20       		.uleb128 0x20
 8064 1644 1C000000 		.4byte	.LBB14
 8065 1648 6A000000 		.4byte	.LBE14-.LBB14
 8066 164c 04170000 		.4byte	0x1704
 8067 1650 25       		.uleb128 0x25
 8068 1651 FA2D0000 		.4byte	.LASF410
 8069 1655 01       		.byte	0x1
 8070 1656 60       		.byte	0x60
 8071 1657 EC030000 		.4byte	0x3ec
 8072 165b 03       		.uleb128 0x3
 8073 165c 91       		.byte	0x91
 8074 165d F87E     		.sleb128 -136
 8075 165f 20       		.uleb128 0x20
 8076 1660 32000000 		.4byte	.LBB15
 8077 1664 16000000 		.4byte	.LBE15-.LBB15
 8078 1668 8D160000 		.4byte	0x168d
 8079 166c 26       		.uleb128 0x26
 8080 166d 6900     		.ascii	"i\000"
 8081 166f 01       		.byte	0x1
 8082 1670 63       		.byte	0x63
 8083 1671 6B000000 		.4byte	0x6b
 8084 1675 34060000 		.4byte	.LLST13
 8085 1679 15       		.uleb128 0x15
 8086 167a 42000000 		.4byte	.LVL108
 8087 167e 20260000 		.4byte	0x2620
 8088 1682 16       		.uleb128 0x16
 8089 1683 01       		.uleb128 0x1
 8090 1684 50       		.byte	0x50
 8091 1685 05       		.uleb128 0x5
 8092 1686 03       		.byte	0x3
 8093 1687 54000000 		.4byte	.LC78
 8094 168b 00       		.byte	0
 8095 168c 00       		.byte	0
 8096 168d 17       		.uleb128 0x17
 8097 168e 22000000 		.4byte	.LVL103
 8098 1692 63260000 		.4byte	0x2663
 8099 1696 A0160000 		.4byte	0x16a0
 8100 169a 16       		.uleb128 0x16
 8101 169b 01       		.uleb128 0x1
 8102 169c 50       		.byte	0x50
 8103 169d 01       		.uleb128 0x1
 8104 169e 30       		.byte	0x30
 8105 169f 00       		.byte	0
 8106 16a0 17       		.uleb128 0x17
 8107 16a1 28000000 		.4byte	.LVL104
 8108 16a5 20260000 		.4byte	0x2620
 8109 16a9 B7160000 		.4byte	0x16b7
ARM GAS  C:\Users\310309~1\AppData\Local\Temp\ccu8WRKs.s 			page 174


 8110 16ad 16       		.uleb128 0x16
 8111 16ae 01       		.uleb128 0x1
 8112 16af 50       		.byte	0x50
 8113 16b0 05       		.uleb128 0x5
 8114 16b1 03       		.byte	0x3
 8115 16b2 34000000 		.4byte	.LC76
 8116 16b6 00       		.byte	0
 8117 16b7 17       		.uleb128 0x17
 8118 16b8 32000000 		.4byte	.LVL105
 8119 16bc 6F260000 		.4byte	0x266f
 8120 16c0 CC160000 		.4byte	0x16cc
 8121 16c4 16       		.uleb128 0x16
 8122 16c5 01       		.uleb128 0x1
 8123 16c6 50       		.byte	0x50
 8124 16c7 03       		.uleb128 0x3
 8125 16c8 91       		.byte	0x91
 8126 16c9 F87E     		.sleb128 -136
 8127 16cb 00       		.byte	0
 8128 16cc 17       		.uleb128 0x17
 8129 16cd 4E000000 		.4byte	.LVL110
 8130 16d1 1C250000 		.4byte	0x251c
 8131 16d5 E3160000 		.4byte	0x16e3
 8132 16d9 16       		.uleb128 0x16
 8133 16da 01       		.uleb128 0x1
 8134 16db 50       		.byte	0x50
 8135 16dc 05       		.uleb128 0x5
 8136 16dd 03       		.byte	0x3
 8137 16de 5C000000 		.4byte	.LC80
 8138 16e2 00       		.byte	0
 8139 16e3 17       		.uleb128 0x17
 8140 16e4 54000000 		.4byte	.LVL111
 8141 16e8 1C250000 		.4byte	0x251c
 8142 16ec FA160000 		.4byte	0x16fa
 8143 16f0 16       		.uleb128 0x16
 8144 16f1 01       		.uleb128 0x1
 8145 16f2 50       		.byte	0x50
 8146 16f3 05       		.uleb128 0x5
 8147 16f4 03       		.byte	0x3
 8148 16f5 60000000 		.4byte	.LC82
 8149 16f9 00       		.byte	0
 8150 16fa 18       		.uleb128 0x18
 8151 16fb 58000000 		.4byte	.LVL112
 8152 16ff 61150000 		.4byte	0x1561
 8153 1703 00       		.byte	0
 8154 1704 20       		.uleb128 0x20
 8155 1705 24030000 		.4byte	.LBB16
 8156 1709 3E080000 		.4byte	.LBE16-.LBB16
 8157 170d AD1E0000 		.4byte	0x1ead
 8158 1711 27       		.uleb128 0x27
 8159 1712 65727200 		.ascii	"err\000"
 8160 1716 01       		.byte	0x1
 8161 1717 1101     		.2byte	0x111
 8162 1719 6F070000 		.4byte	0x76f
 8163 171d 03       		.uleb128 0x3
 8164 171e 91       		.byte	0x91
 8165 171f F87E     		.sleb128 -136
 8166 1721 20       		.uleb128 0x20
ARM GAS  C:\Users\310309~1\AppData\Local\Temp\ccu8WRKs.s 			page 175


 8167 1722 60040000 		.4byte	.LBB17
 8168 1726 CA000000 		.4byte	.LBE17-.LBB17
 8169 172a 0E180000 		.4byte	0x180e
 8170 172e 1B       		.uleb128 0x1b
 8171 172f 1F040000 		.4byte	.LASF411
 8172 1733 01       		.byte	0x1
 8173 1734 3301     		.2byte	0x133
 8174 1736 77000000 		.4byte	0x77
 8175 173a 5E060000 		.4byte	.LLST14
 8176 173e 20       		.uleb128 0x20
 8177 173f D4040000 		.4byte	.LBB18
 8178 1743 56000000 		.4byte	.LBE18-.LBB18
 8179 1747 9C170000 		.4byte	0x179c
 8180 174b 1B       		.uleb128 0x1b
 8181 174c 660F0000 		.4byte	.LASF412
 8182 1750 01       		.byte	0x1
 8183 1751 4C01     		.2byte	0x14c
 8184 1753 6B000000 		.4byte	0x6b
 8185 1757 AB060000 		.4byte	.LLST15
 8186 175b 1E       		.uleb128 0x1e
 8187 175c 78000000 		.4byte	.Ldebug_ranges0+0x78
 8188 1760 73170000 		.4byte	0x1773
 8189 1764 1F       		.uleb128 0x1f
 8190 1765 6900     		.ascii	"i\000"
 8191 1767 01       		.byte	0x1
 8192 1768 4D01     		.2byte	0x14d
 8193 176a 5D000000 		.4byte	0x5d
 8194 176e CA060000 		.4byte	.LLST16
 8195 1772 00       		.byte	0
 8196 1773 17       		.uleb128 0x17
 8197 1774 14050000 		.4byte	.LVL199
 8198 1778 1C250000 		.4byte	0x251c
 8199 177c 8A170000 		.4byte	0x178a
 8200 1780 16       		.uleb128 0x16
 8201 1781 01       		.uleb128 0x1
 8202 1782 50       		.byte	0x50
 8203 1783 05       		.uleb128 0x5
 8204 1784 03       		.byte	0x3
 8205 1785 98050000 		.4byte	.LC150
 8206 1789 00       		.byte	0
 8207 178a 15       		.uleb128 0x15
 8208 178b 28050000 		.4byte	.LVL200
 8209 178f 7B260000 		.4byte	0x267b
 8210 1793 16       		.uleb128 0x16
 8211 1794 01       		.uleb128 0x1
 8212 1795 51       		.byte	0x51
 8213 1796 03       		.uleb128 0x3
 8214 1797 91       		.byte	0x91
 8215 1798 F87E     		.sleb128 -136
 8216 179a 00       		.byte	0
 8217 179b 00       		.byte	0
 8218 179c 17       		.uleb128 0x17
 8219 179d 84040000 		.4byte	.LVL188
 8220 17a1 20260000 		.4byte	0x2620
 8221 17a5 B9170000 		.4byte	0x17b9
 8222 17a9 16       		.uleb128 0x16
 8223 17aa 01       		.uleb128 0x1
ARM GAS  C:\Users\310309~1\AppData\Local\Temp\ccu8WRKs.s 			page 176


 8224 17ab 50       		.byte	0x50
 8225 17ac 05       		.uleb128 0x5
 8226 17ad 03       		.byte	0x3
 8227 17ae 64050000 		.4byte	.LC145
 8228 17b2 16       		.uleb128 0x16
 8229 17b3 01       		.uleb128 0x1
 8230 17b4 51       		.byte	0x51
 8231 17b5 02       		.uleb128 0x2
 8232 17b6 74       		.byte	0x74
 8233 17b7 00       		.sleb128 0
 8234 17b8 00       		.byte	0
 8235 17b9 17       		.uleb128 0x17
 8236 17ba 9A040000 		.4byte	.LVL189
 8237 17be 1C250000 		.4byte	0x251c
 8238 17c2 D0170000 		.4byte	0x17d0
 8239 17c6 16       		.uleb128 0x16
 8240 17c7 01       		.uleb128 0x1
 8241 17c8 50       		.byte	0x50
 8242 17c9 05       		.uleb128 0x5
 8243 17ca 03       		.byte	0x3
 8244 17cb F0040000 		.4byte	.LC139
 8245 17cf 00       		.byte	0
 8246 17d0 17       		.uleb128 0x17
 8247 17d1 AE040000 		.4byte	.LVL190
 8248 17d5 7B260000 		.4byte	0x267b
 8249 17d9 E5170000 		.4byte	0x17e5
 8250 17dd 16       		.uleb128 0x16
 8251 17de 01       		.uleb128 0x1
 8252 17df 51       		.byte	0x51
 8253 17e0 03       		.uleb128 0x3
 8254 17e1 91       		.byte	0x91
 8255 17e2 F87E     		.sleb128 -136
 8256 17e4 00       		.byte	0
 8257 17e5 17       		.uleb128 0x17
 8258 17e6 BE040000 		.4byte	.LVL191
 8259 17ea 1C250000 		.4byte	0x251c
 8260 17ee FC170000 		.4byte	0x17fc
 8261 17f2 16       		.uleb128 0x16
 8262 17f3 01       		.uleb128 0x1
 8263 17f4 50       		.byte	0x50
 8264 17f5 05       		.uleb128 0x5
 8265 17f6 03       		.byte	0x3
 8266 17f7 3C050000 		.4byte	.LC143
 8267 17fb 00       		.byte	0
 8268 17fc 15       		.uleb128 0x15
 8269 17fd D2040000 		.4byte	.LVL192
 8270 1801 7B260000 		.4byte	0x267b
 8271 1805 16       		.uleb128 0x16
 8272 1806 01       		.uleb128 0x1
 8273 1807 51       		.byte	0x51
 8274 1808 03       		.uleb128 0x3
 8275 1809 91       		.byte	0x91
 8276 180a F87E     		.sleb128 -136
 8277 180c 00       		.byte	0
 8278 180d 00       		.byte	0
 8279 180e 20       		.uleb128 0x20
 8280 180f 94050000 		.4byte	.LBB21
ARM GAS  C:\Users\310309~1\AppData\Local\Temp\ccu8WRKs.s 			page 177


 8281 1813 F8010000 		.4byte	.LBE21-.LBB21
 8282 1817 58190000 		.4byte	0x1958
 8283 181b 1B       		.uleb128 0x1b
 8284 181c 722E0000 		.4byte	.LASF413
 8285 1820 01       		.byte	0x1
 8286 1821 7701     		.2byte	0x177
 8287 1823 6B000000 		.4byte	0x6b
 8288 1827 E9060000 		.4byte	.LLST17
 8289 182b 1B       		.uleb128 0x1b
 8290 182c 7E040000 		.4byte	.LASF414
 8291 1830 01       		.byte	0x1
 8292 1831 7801     		.2byte	0x178
 8293 1833 6B000000 		.4byte	0x6b
 8294 1837 1F070000 		.4byte	.LLST18
 8295 183b 1B       		.uleb128 0x1b
 8296 183c 660F0000 		.4byte	.LASF412
 8297 1840 01       		.byte	0x1
 8298 1841 A301     		.2byte	0x1a3
 8299 1843 6B000000 		.4byte	0x6b
 8300 1847 49070000 		.4byte	.LLST19
 8301 184b 1E       		.uleb128 0x1e
 8302 184c 90000000 		.4byte	.Ldebug_ranges0+0x90
 8303 1850 63180000 		.4byte	0x1863
 8304 1854 1F       		.uleb128 0x1f
 8305 1855 6900     		.ascii	"i\000"
 8306 1857 01       		.byte	0x1
 8307 1858 8301     		.2byte	0x183
 8308 185a 5D000000 		.4byte	0x5d
 8309 185e 72070000 		.4byte	.LLST20
 8310 1862 00       		.byte	0
 8311 1863 1E       		.uleb128 0x1e
 8312 1864 A8000000 		.4byte	.Ldebug_ranges0+0xa8
 8313 1868 7B180000 		.4byte	0x187b
 8314 186c 1F       		.uleb128 0x1f
 8315 186d 6900     		.ascii	"i\000"
 8316 186f 01       		.byte	0x1
 8317 1870 A401     		.2byte	0x1a4
 8318 1872 5D000000 		.4byte	0x5d
 8319 1876 A7070000 		.4byte	.LLST21
 8320 187a 00       		.byte	0
 8321 187b 17       		.uleb128 0x17
 8322 187c 34060000 		.4byte	.LVL216
 8323 1880 20260000 		.4byte	0x2620
 8324 1884 92180000 		.4byte	0x1892
 8325 1888 16       		.uleb128 0x16
 8326 1889 01       		.uleb128 0x1
 8327 188a 50       		.byte	0x50
 8328 188b 05       		.uleb128 0x5
 8329 188c 03       		.byte	0x3
 8330 188d 34060000 		.4byte	.LC160
 8331 1891 00       		.byte	0
 8332 1892 17       		.uleb128 0x17
 8333 1893 50060000 		.4byte	.LVL217
 8334 1897 7B260000 		.4byte	0x267b
 8335 189b A7180000 		.4byte	0x18a7
 8336 189f 16       		.uleb128 0x16
 8337 18a0 01       		.uleb128 0x1
ARM GAS  C:\Users\310309~1\AppData\Local\Temp\ccu8WRKs.s 			page 178


 8338 18a1 51       		.byte	0x51
 8339 18a2 03       		.uleb128 0x3
 8340 18a3 91       		.byte	0x91
 8341 18a4 F87E     		.sleb128 -136
 8342 18a6 00       		.byte	0
 8343 18a7 17       		.uleb128 0x17
 8344 18a8 60060000 		.4byte	.LVL220
 8345 18ac 20260000 		.4byte	0x2620
 8346 18b0 BE180000 		.4byte	0x18be
 8347 18b4 16       		.uleb128 0x16
 8348 18b5 01       		.uleb128 0x1
 8349 18b6 50       		.byte	0x50
 8350 18b7 05       		.uleb128 0x5
 8351 18b8 03       		.byte	0x3
 8352 18b9 5C060000 		.4byte	.LC162
 8353 18bd 00       		.byte	0
 8354 18be 17       		.uleb128 0x17
 8355 18bf 7C060000 		.4byte	.LVL221
 8356 18c3 7B260000 		.4byte	0x267b
 8357 18c7 D3180000 		.4byte	0x18d3
 8358 18cb 16       		.uleb128 0x16
 8359 18cc 01       		.uleb128 0x1
 8360 18cd 51       		.byte	0x51
 8361 18ce 03       		.uleb128 0x3
 8362 18cf 91       		.byte	0x91
 8363 18d0 F87E     		.sleb128 -136
 8364 18d2 00       		.byte	0
 8365 18d3 17       		.uleb128 0x17
 8366 18d4 E0060000 		.4byte	.LVL230
 8367 18d8 20260000 		.4byte	0x2620
 8368 18dc EA180000 		.4byte	0x18ea
 8369 18e0 16       		.uleb128 0x16
 8370 18e1 01       		.uleb128 0x1
 8371 18e2 50       		.byte	0x50
 8372 18e3 05       		.uleb128 0x5
 8373 18e4 03       		.byte	0x3
 8374 18e5 88060000 		.4byte	.LC164
 8375 18e9 00       		.byte	0
 8376 18ea 17       		.uleb128 0x17
 8377 18eb FE060000 		.4byte	.LVL231
 8378 18ef 7B260000 		.4byte	0x267b
 8379 18f3 FF180000 		.4byte	0x18ff
 8380 18f7 16       		.uleb128 0x16
 8381 18f8 01       		.uleb128 0x1
 8382 18f9 51       		.byte	0x51
 8383 18fa 03       		.uleb128 0x3
 8384 18fb 91       		.byte	0x91
 8385 18fc F87E     		.sleb128 -136
 8386 18fe 00       		.byte	0
 8387 18ff 17       		.uleb128 0x17
 8388 1900 06070000 		.4byte	.LVL234
 8389 1904 1C250000 		.4byte	0x251c
 8390 1908 16190000 		.4byte	0x1916
 8391 190c 16       		.uleb128 0x16
 8392 190d 01       		.uleb128 0x1
 8393 190e 50       		.byte	0x50
 8394 190f 05       		.uleb128 0x5
ARM GAS  C:\Users\310309~1\AppData\Local\Temp\ccu8WRKs.s 			page 179


 8395 1910 03       		.byte	0x3
 8396 1911 B8060000 		.4byte	.LC166
 8397 1915 00       		.byte	0
 8398 1916 17       		.uleb128 0x17
 8399 1917 10070000 		.4byte	.LVL235
 8400 191b 20260000 		.4byte	0x2620
 8401 191f 2D190000 		.4byte	0x192d
 8402 1923 16       		.uleb128 0x16
 8403 1924 01       		.uleb128 0x1
 8404 1925 50       		.byte	0x50
 8405 1926 05       		.uleb128 0x5
 8406 1927 03       		.byte	0x3
 8407 1928 D0060000 		.4byte	.LC168
 8408 192c 00       		.byte	0
 8409 192d 17       		.uleb128 0x17
 8410 192e 1A070000 		.4byte	.LVL236
 8411 1932 20260000 		.4byte	0x2620
 8412 1936 44190000 		.4byte	0x1944
 8413 193a 16       		.uleb128 0x16
 8414 193b 01       		.uleb128 0x1
 8415 193c 50       		.byte	0x50
 8416 193d 05       		.uleb128 0x5
 8417 193e 03       		.byte	0x3
 8418 193f E4060000 		.4byte	.LC170
 8419 1943 00       		.byte	0
 8420 1944 15       		.uleb128 0x15
 8421 1945 24070000 		.4byte	.LVL237
 8422 1949 20260000 		.4byte	0x2620
 8423 194d 16       		.uleb128 0x16
 8424 194e 01       		.uleb128 0x1
 8425 194f 50       		.byte	0x50
 8426 1950 05       		.uleb128 0x5
 8427 1951 03       		.byte	0x3
 8428 1952 FC060000 		.4byte	.LC172
 8429 1956 00       		.byte	0
 8430 1957 00       		.byte	0
 8431 1958 20       		.uleb128 0x20
 8432 1959 04090000 		.4byte	.LBB26
 8433 195d AA000000 		.4byte	.LBE26-.LBB26
 8434 1961 A21A0000 		.4byte	0x1aa2
 8435 1965 1B       		.uleb128 0x1b
 8436 1966 7F1C0000 		.4byte	.LASF415
 8437 196a 01       		.byte	0x1
 8438 196b FE01     		.2byte	0x1fe
 8439 196d 77000000 		.4byte	0x77
 8440 1971 D0070000 		.4byte	.LLST22
 8441 1975 1B       		.uleb128 0x1b
 8442 1976 00150000 		.4byte	.LASF416
 8443 197a 01       		.byte	0x1
 8444 197b 0402     		.2byte	0x204
 8445 197d 77000000 		.4byte	0x77
 8446 1981 1D080000 		.4byte	.LLST23
 8447 1985 1B       		.uleb128 0x1b
 8448 1986 74150000 		.4byte	.LASF417
 8449 198a 01       		.byte	0x1
 8450 198b 0502     		.2byte	0x205
 8451 198d 6B000000 		.4byte	0x6b
ARM GAS  C:\Users\310309~1\AppData\Local\Temp\ccu8WRKs.s 			page 180


 8452 1991 30080000 		.4byte	.LLST24
 8453 1995 17       		.uleb128 0x17
 8454 1996 28090000 		.4byte	.LVL273
 8455 199a 20260000 		.4byte	0x2620
 8456 199e B2190000 		.4byte	0x19b2
 8457 19a2 16       		.uleb128 0x16
 8458 19a3 01       		.uleb128 0x1
 8459 19a4 50       		.byte	0x50
 8460 19a5 05       		.uleb128 0x5
 8461 19a6 03       		.byte	0x3
 8462 19a7 E4080000 		.4byte	.LC190
 8463 19ab 16       		.uleb128 0x16
 8464 19ac 01       		.uleb128 0x1
 8465 19ad 51       		.byte	0x51
 8466 19ae 02       		.uleb128 0x2
 8467 19af 74       		.byte	0x74
 8468 19b0 00       		.sleb128 0
 8469 19b1 00       		.byte	0
 8470 19b2 17       		.uleb128 0x17
 8471 19b3 32090000 		.4byte	.LVL274
 8472 19b7 87260000 		.4byte	0x2687
 8473 19bb D8190000 		.4byte	0x19d8
 8474 19bf 16       		.uleb128 0x16
 8475 19c0 01       		.uleb128 0x1
 8476 19c1 50       		.byte	0x50
 8477 19c2 05       		.uleb128 0x5
 8478 19c3 03       		.byte	0x3
 8479 19c4 00000000 		.4byte	mySessions
 8480 19c8 16       		.uleb128 0x16
 8481 19c9 01       		.uleb128 0x1
 8482 19ca 51       		.byte	0x51
 8483 19cb 05       		.uleb128 0x5
 8484 19cc 03       		.byte	0x3
 8485 19cd 00000000 		.4byte	totalSessionCount
 8486 19d1 16       		.uleb128 0x16
 8487 19d2 01       		.uleb128 0x1
 8488 19d3 52       		.byte	0x52
 8489 19d4 02       		.uleb128 0x2
 8490 19d5 74       		.byte	0x74
 8491 19d6 00       		.sleb128 0
 8492 19d7 00       		.byte	0
 8493 19d8 17       		.uleb128 0x17
 8494 19d9 4A090000 		.4byte	.LVL276
 8495 19dd 1C250000 		.4byte	0x251c
 8496 19e1 EF190000 		.4byte	0x19ef
 8497 19e5 16       		.uleb128 0x16
 8498 19e6 01       		.uleb128 0x1
 8499 19e7 50       		.byte	0x50
 8500 19e8 05       		.uleb128 0x5
 8501 19e9 03       		.byte	0x3
 8502 19ea 14090000 		.4byte	.LC192
 8503 19ee 00       		.byte	0
 8504 19ef 17       		.uleb128 0x17
 8505 19f0 54090000 		.4byte	.LVL277
 8506 19f4 92260000 		.4byte	0x2692
 8507 19f8 151A0000 		.4byte	0x1a15
 8508 19fc 16       		.uleb128 0x16
ARM GAS  C:\Users\310309~1\AppData\Local\Temp\ccu8WRKs.s 			page 181


 8509 19fd 01       		.uleb128 0x1
 8510 19fe 50       		.byte	0x50
 8511 19ff 05       		.uleb128 0x5
 8512 1a00 03       		.byte	0x3
 8513 1a01 00000000 		.4byte	mySubSessions
 8514 1a05 16       		.uleb128 0x16
 8515 1a06 01       		.uleb128 0x1
 8516 1a07 51       		.byte	0x51
 8517 1a08 05       		.uleb128 0x5
 8518 1a09 03       		.byte	0x3
 8519 1a0a 00000000 		.4byte	totalSubSessionCount
 8520 1a0e 16       		.uleb128 0x16
 8521 1a0f 01       		.uleb128 0x1
 8522 1a10 52       		.byte	0x52
 8523 1a11 02       		.uleb128 0x2
 8524 1a12 74       		.byte	0x74
 8525 1a13 00       		.sleb128 0
 8526 1a14 00       		.byte	0
 8527 1a15 17       		.uleb128 0x17
 8528 1a16 5E090000 		.4byte	.LVL280
 8529 1a1a 20260000 		.4byte	0x2620
 8530 1a1e 321A0000 		.4byte	0x1a32
 8531 1a22 16       		.uleb128 0x16
 8532 1a23 01       		.uleb128 0x1
 8533 1a24 50       		.byte	0x50
 8534 1a25 05       		.uleb128 0x5
 8535 1a26 03       		.byte	0x3
 8536 1a27 38090000 		.4byte	.LC194
 8537 1a2b 16       		.uleb128 0x16
 8538 1a2c 01       		.uleb128 0x1
 8539 1a2d 51       		.byte	0x51
 8540 1a2e 02       		.uleb128 0x2
 8541 1a2f 74       		.byte	0x74
 8542 1a30 00       		.sleb128 0
 8543 1a31 00       		.byte	0
 8544 1a32 17       		.uleb128 0x17
 8545 1a33 72090000 		.4byte	.LVL281
 8546 1a37 7B260000 		.4byte	0x267b
 8547 1a3b 471A0000 		.4byte	0x1a47
 8548 1a3f 16       		.uleb128 0x16
 8549 1a40 01       		.uleb128 0x1
 8550 1a41 51       		.byte	0x51
 8551 1a42 03       		.uleb128 0x3
 8552 1a43 91       		.byte	0x91
 8553 1a44 F87E     		.sleb128 -136
 8554 1a46 00       		.byte	0
 8555 1a47 17       		.uleb128 0x17
 8556 1a48 7C090000 		.4byte	.LVL284
 8557 1a4c 20260000 		.4byte	0x2620
 8558 1a50 641A0000 		.4byte	0x1a64
 8559 1a54 16       		.uleb128 0x16
 8560 1a55 01       		.uleb128 0x1
 8561 1a56 50       		.byte	0x50
 8562 1a57 05       		.uleb128 0x5
 8563 1a58 03       		.byte	0x3
 8564 1a59 68090000 		.4byte	.LC196
 8565 1a5d 16       		.uleb128 0x16
ARM GAS  C:\Users\310309~1\AppData\Local\Temp\ccu8WRKs.s 			page 182


 8566 1a5e 01       		.uleb128 0x1
 8567 1a5f 51       		.byte	0x51
 8568 1a60 02       		.uleb128 0x2
 8569 1a61 74       		.byte	0x74
 8570 1a62 00       		.sleb128 0
 8571 1a63 00       		.byte	0
 8572 1a64 17       		.uleb128 0x17
 8573 1a65 90090000 		.4byte	.LVL285
 8574 1a69 7B260000 		.4byte	0x267b
 8575 1a6d 791A0000 		.4byte	0x1a79
 8576 1a71 16       		.uleb128 0x16
 8577 1a72 01       		.uleb128 0x1
 8578 1a73 51       		.byte	0x51
 8579 1a74 03       		.uleb128 0x3
 8580 1a75 91       		.byte	0x91
 8581 1a76 F87E     		.sleb128 -136
 8582 1a78 00       		.byte	0
 8583 1a79 17       		.uleb128 0x17
 8584 1a7a 98090000 		.4byte	.LVL288
 8585 1a7e 1C250000 		.4byte	0x251c
 8586 1a82 901A0000 		.4byte	0x1a90
 8587 1a86 16       		.uleb128 0x16
 8588 1a87 01       		.uleb128 0x1
 8589 1a88 50       		.byte	0x50
 8590 1a89 05       		.uleb128 0x5
 8591 1a8a 03       		.byte	0x3
 8592 1a8b 9C090000 		.4byte	.LC198
 8593 1a8f 00       		.byte	0
 8594 1a90 15       		.uleb128 0x15
 8595 1a91 AC090000 		.4byte	.LVL289
 8596 1a95 7B260000 		.4byte	0x267b
 8597 1a99 16       		.uleb128 0x16
 8598 1a9a 01       		.uleb128 0x1
 8599 1a9b 51       		.byte	0x51
 8600 1a9c 03       		.uleb128 0x3
 8601 1a9d 91       		.byte	0x91
 8602 1a9e F87E     		.sleb128 -136
 8603 1aa0 00       		.byte	0
 8604 1aa1 00       		.byte	0
 8605 1aa2 20       		.uleb128 0x20
 8606 1aa3 AE090000 		.4byte	.LBB27
 8607 1aa7 14010000 		.4byte	.LBE27-.LBB27
 8608 1aab 981B0000 		.4byte	0x1b98
 8609 1aaf 1B       		.uleb128 0x1b
 8610 1ab0 E31F0000 		.4byte	.LASF418
 8611 1ab4 01       		.byte	0x1
 8612 1ab5 3602     		.2byte	0x236
 8613 1ab7 5D000000 		.4byte	0x5d
 8614 1abb 64080000 		.4byte	.LLST25
 8615 1abf 1B       		.uleb128 0x1b
 8616 1ac0 B2250000 		.4byte	.LASF419
 8617 1ac4 01       		.byte	0x1
 8618 1ac5 3702     		.2byte	0x237
 8619 1ac7 6B000000 		.4byte	0x6b
 8620 1acb B1080000 		.4byte	.LLST26
 8621 1acf 1E       		.uleb128 0x1e
 8622 1ad0 C0000000 		.4byte	.Ldebug_ranges0+0xc0
ARM GAS  C:\Users\310309~1\AppData\Local\Temp\ccu8WRKs.s 			page 183


 8623 1ad4 001B0000 		.4byte	0x1b00
 8624 1ad8 1F       		.uleb128 0x1f
 8625 1ad9 6900     		.ascii	"i\000"
 8626 1adb 01       		.byte	0x1
 8627 1adc 4302     		.2byte	0x243
 8628 1ade 5D000000 		.4byte	0x5d
 8629 1ae2 88090000 		.4byte	.LLST27
 8630 1ae6 15       		.uleb128 0x15
 8631 1ae7 960A0000 		.4byte	.LVL306
 8632 1aeb 20260000 		.4byte	0x2620
 8633 1aef 16       		.uleb128 0x16
 8634 1af0 01       		.uleb128 0x1
 8635 1af1 50       		.byte	0x50
 8636 1af2 05       		.uleb128 0x5
 8637 1af3 03       		.byte	0x3
 8638 1af4 DC090000 		.4byte	.LC205
 8639 1af8 16       		.uleb128 0x16
 8640 1af9 01       		.uleb128 0x1
 8641 1afa 53       		.byte	0x53
 8642 1afb 02       		.uleb128 0x2
 8643 1afc 75       		.byte	0x75
 8644 1afd 00       		.sleb128 0
 8645 1afe 00       		.byte	0
 8646 1aff 00       		.byte	0
 8647 1b00 17       		.uleb128 0x17
 8648 1b01 B4090000 		.4byte	.LVL291
 8649 1b05 1C250000 		.4byte	0x251c
 8650 1b09 171B0000 		.4byte	0x1b17
 8651 1b0d 16       		.uleb128 0x16
 8652 1b0e 01       		.uleb128 0x1
 8653 1b0f 50       		.byte	0x50
 8654 1b10 05       		.uleb128 0x5
 8655 1b11 03       		.byte	0x3
 8656 1b12 B4090000 		.4byte	.LC200
 8657 1b16 00       		.byte	0
 8658 1b17 17       		.uleb128 0x17
 8659 1b18 C2090000 		.4byte	.LVL292
 8660 1b1c 1C250000 		.4byte	0x251c
 8661 1b20 2E1B0000 		.4byte	0x1b2e
 8662 1b24 16       		.uleb128 0x16
 8663 1b25 01       		.uleb128 0x1
 8664 1b26 50       		.byte	0x50
 8665 1b27 05       		.uleb128 0x5
 8666 1b28 03       		.byte	0x3
 8667 1b29 E4050000 		.4byte	.LC152
 8668 1b2d 00       		.byte	0
 8669 1b2e 17       		.uleb128 0x17
 8670 1b2f D6090000 		.4byte	.LVL293
 8671 1b33 7B260000 		.4byte	0x267b
 8672 1b37 431B0000 		.4byte	0x1b43
 8673 1b3b 16       		.uleb128 0x16
 8674 1b3c 01       		.uleb128 0x1
 8675 1b3d 51       		.byte	0x51
 8676 1b3e 03       		.uleb128 0x3
 8677 1b3f 91       		.byte	0x91
 8678 1b40 F87E     		.sleb128 -136
 8679 1b42 00       		.byte	0
ARM GAS  C:\Users\310309~1\AppData\Local\Temp\ccu8WRKs.s 			page 184


 8680 1b43 17       		.uleb128 0x17
 8681 1b44 E6090000 		.4byte	.LVL294
 8682 1b48 1C250000 		.4byte	0x251c
 8683 1b4c 5A1B0000 		.4byte	0x1b5a
 8684 1b50 16       		.uleb128 0x16
 8685 1b51 01       		.uleb128 0x1
 8686 1b52 50       		.byte	0x50
 8687 1b53 05       		.uleb128 0x5
 8688 1b54 03       		.byte	0x3
 8689 1b55 3C050000 		.4byte	.LC143
 8690 1b59 00       		.byte	0
 8691 1b5a 17       		.uleb128 0x17
 8692 1b5b FA090000 		.4byte	.LVL295
 8693 1b5f 7B260000 		.4byte	0x267b
 8694 1b63 6F1B0000 		.4byte	0x1b6f
 8695 1b67 16       		.uleb128 0x16
 8696 1b68 01       		.uleb128 0x1
 8697 1b69 51       		.byte	0x51
 8698 1b6a 03       		.uleb128 0x3
 8699 1b6b 91       		.byte	0x91
 8700 1b6c F87E     		.sleb128 -136
 8701 1b6e 00       		.byte	0
 8702 1b6f 17       		.uleb128 0x17
 8703 1b70 AC0A0000 		.4byte	.LVL311
 8704 1b74 1C250000 		.4byte	0x251c
 8705 1b78 861B0000 		.4byte	0x1b86
 8706 1b7c 16       		.uleb128 0x16
 8707 1b7d 01       		.uleb128 0x1
 8708 1b7e 50       		.byte	0x50
 8709 1b7f 05       		.uleb128 0x5
 8710 1b80 03       		.byte	0x3
 8711 1b81 240A0000 		.4byte	.LC207
 8712 1b85 00       		.byte	0
 8713 1b86 15       		.uleb128 0x15
 8714 1b87 C00A0000 		.4byte	.LVL312
 8715 1b8b 7B260000 		.4byte	0x267b
 8716 1b8f 16       		.uleb128 0x16
 8717 1b90 01       		.uleb128 0x1
 8718 1b91 51       		.byte	0x51
 8719 1b92 03       		.uleb128 0x3
 8720 1b93 91       		.byte	0x91
 8721 1b94 F87E     		.sleb128 -136
 8722 1b96 00       		.byte	0
 8723 1b97 00       		.byte	0
 8724 1b98 17       		.uleb128 0x17
 8725 1b99 30030000 		.4byte	.LVL173
 8726 1b9d 9D260000 		.4byte	0x269d
 8727 1ba1 B11B0000 		.4byte	0x1bb1
 8728 1ba5 16       		.uleb128 0x16
 8729 1ba6 01       		.uleb128 0x1
 8730 1ba7 50       		.byte	0x50
 8731 1ba8 02       		.uleb128 0x2
 8732 1ba9 74       		.byte	0x74
 8733 1baa 04       		.sleb128 4
 8734 1bab 16       		.uleb128 0x16
 8735 1bac 01       		.uleb128 0x1
 8736 1bad 51       		.byte	0x51
ARM GAS  C:\Users\310309~1\AppData\Local\Temp\ccu8WRKs.s 			page 185


 8737 1bae 01       		.uleb128 0x1
 8738 1baf 30       		.byte	0x30
 8739 1bb0 00       		.byte	0
 8740 1bb1 17       		.uleb128 0x17
 8741 1bb2 44030000 		.4byte	.LVL174
 8742 1bb6 20260000 		.4byte	0x2620
 8743 1bba C81B0000 		.4byte	0x1bc8
 8744 1bbe 16       		.uleb128 0x16
 8745 1bbf 01       		.uleb128 0x1
 8746 1bc0 50       		.byte	0x50
 8747 1bc1 05       		.uleb128 0x5
 8748 1bc2 03       		.byte	0x3
 8749 1bc3 B4040000 		.4byte	.LC134
 8750 1bc7 00       		.byte	0
 8751 1bc8 17       		.uleb128 0x17
 8752 1bc9 5C030000 		.4byte	.LVL175
 8753 1bcd 1C250000 		.4byte	0x251c
 8754 1bd1 DF1B0000 		.4byte	0x1bdf
 8755 1bd5 16       		.uleb128 0x16
 8756 1bd6 01       		.uleb128 0x1
 8757 1bd7 50       		.byte	0x50
 8758 1bd8 05       		.uleb128 0x5
 8759 1bd9 03       		.byte	0x3
 8760 1bda DC040000 		.4byte	.LC137
 8761 1bde 00       		.byte	0
 8762 1bdf 17       		.uleb128 0x17
 8763 1be0 72030000 		.4byte	.LVL176
 8764 1be4 1C250000 		.4byte	0x251c
 8765 1be8 F61B0000 		.4byte	0x1bf6
 8766 1bec 16       		.uleb128 0x16
 8767 1bed 01       		.uleb128 0x1
 8768 1bee 50       		.byte	0x50
 8769 1bef 05       		.uleb128 0x5
 8770 1bf0 03       		.byte	0x3
 8771 1bf1 F0040000 		.4byte	.LC139
 8772 1bf5 00       		.byte	0
 8773 1bf6 17       		.uleb128 0x17
 8774 1bf7 86030000 		.4byte	.LVL177
 8775 1bfb 7B260000 		.4byte	0x267b
 8776 1bff 0B1C0000 		.4byte	0x1c0b
 8777 1c03 16       		.uleb128 0x16
 8778 1c04 01       		.uleb128 0x1
 8779 1c05 51       		.byte	0x51
 8780 1c06 03       		.uleb128 0x3
 8781 1c07 91       		.byte	0x91
 8782 1c08 F87E     		.sleb128 -136
 8783 1c0a 00       		.byte	0
 8784 1c0b 17       		.uleb128 0x17
 8785 1c0c 4A040000 		.4byte	.LVL178
 8786 1c10 1C250000 		.4byte	0x251c
 8787 1c14 221C0000 		.4byte	0x1c22
 8788 1c18 16       		.uleb128 0x16
 8789 1c19 01       		.uleb128 0x1
 8790 1c1a 50       		.byte	0x50
 8791 1c1b 05       		.uleb128 0x5
 8792 1c1c 03       		.byte	0x3
 8793 1c1d 3C050000 		.4byte	.LC143
ARM GAS  C:\Users\310309~1\AppData\Local\Temp\ccu8WRKs.s 			page 186


 8794 1c21 00       		.byte	0
 8795 1c22 17       		.uleb128 0x17
 8796 1c23 5E040000 		.4byte	.LVL179
 8797 1c27 7B260000 		.4byte	0x267b
 8798 1c2b 371C0000 		.4byte	0x1c37
 8799 1c2f 16       		.uleb128 0x16
 8800 1c30 01       		.uleb128 0x1
 8801 1c31 51       		.byte	0x51
 8802 1c32 03       		.uleb128 0x3
 8803 1c33 91       		.byte	0x91
 8804 1c34 F87E     		.sleb128 -136
 8805 1c36 00       		.byte	0
 8806 1c37 17       		.uleb128 0x17
 8807 1c38 38050000 		.4byte	.LVL202
 8808 1c3c 1C250000 		.4byte	0x251c
 8809 1c40 4E1C0000 		.4byte	0x1c4e
 8810 1c44 16       		.uleb128 0x16
 8811 1c45 01       		.uleb128 0x1
 8812 1c46 50       		.byte	0x50
 8813 1c47 05       		.uleb128 0x5
 8814 1c48 03       		.byte	0x3
 8815 1c49 E4050000 		.4byte	.LC152
 8816 1c4d 00       		.byte	0
 8817 1c4e 17       		.uleb128 0x17
 8818 1c4f 4C050000 		.4byte	.LVL203
 8819 1c53 7B260000 		.4byte	0x267b
 8820 1c57 631C0000 		.4byte	0x1c63
 8821 1c5b 16       		.uleb128 0x16
 8822 1c5c 01       		.uleb128 0x1
 8823 1c5d 51       		.byte	0x51
 8824 1c5e 03       		.uleb128 0x3
 8825 1c5f 91       		.byte	0x91
 8826 1c60 F87E     		.sleb128 -136
 8827 1c62 00       		.byte	0
 8828 1c63 17       		.uleb128 0x17
 8829 1c64 5C050000 		.4byte	.LVL204
 8830 1c68 1C250000 		.4byte	0x251c
 8831 1c6c 7A1C0000 		.4byte	0x1c7a
 8832 1c70 16       		.uleb128 0x16
 8833 1c71 01       		.uleb128 0x1
 8834 1c72 50       		.byte	0x50
 8835 1c73 05       		.uleb128 0x5
 8836 1c74 03       		.byte	0x3
 8837 1c75 3C050000 		.4byte	.LC143
 8838 1c79 00       		.byte	0
 8839 1c7a 17       		.uleb128 0x17
 8840 1c7b 70050000 		.4byte	.LVL205
 8841 1c7f 7B260000 		.4byte	0x267b
 8842 1c83 8F1C0000 		.4byte	0x1c8f
 8843 1c87 16       		.uleb128 0x16
 8844 1c88 01       		.uleb128 0x1
 8845 1c89 51       		.byte	0x51
 8846 1c8a 03       		.uleb128 0x3
 8847 1c8b 91       		.byte	0x91
 8848 1c8c F87E     		.sleb128 -136
 8849 1c8e 00       		.byte	0
 8850 1c8f 17       		.uleb128 0x17
ARM GAS  C:\Users\310309~1\AppData\Local\Temp\ccu8WRKs.s 			page 187


 8851 1c90 7E050000 		.4byte	.LVL206
 8852 1c94 1C250000 		.4byte	0x251c
 8853 1c98 A61C0000 		.4byte	0x1ca6
 8854 1c9c 16       		.uleb128 0x16
 8855 1c9d 01       		.uleb128 0x1
 8856 1c9e 50       		.byte	0x50
 8857 1c9f 05       		.uleb128 0x5
 8858 1ca0 03       		.byte	0x3
 8859 1ca1 1C060000 		.4byte	.LC154
 8860 1ca5 00       		.byte	0
 8861 1ca6 17       		.uleb128 0x17
 8862 1ca7 92050000 		.4byte	.LVL207
 8863 1cab 7B260000 		.4byte	0x267b
 8864 1caf BB1C0000 		.4byte	0x1cbb
 8865 1cb3 16       		.uleb128 0x16
 8866 1cb4 01       		.uleb128 0x1
 8867 1cb5 51       		.byte	0x51
 8868 1cb6 03       		.uleb128 0x3
 8869 1cb7 91       		.byte	0x91
 8870 1cb8 F87E     		.sleb128 -136
 8871 1cba 00       		.byte	0
 8872 1cbb 17       		.uleb128 0x17
 8873 1cbc A4070000 		.4byte	.LVL239
 8874 1cc0 A9260000 		.4byte	0x26a9
 8875 1cc4 D51C0000 		.4byte	0x1cd5
 8876 1cc8 16       		.uleb128 0x16
 8877 1cc9 01       		.uleb128 0x1
 8878 1cca 50       		.byte	0x50
 8879 1ccb 03       		.uleb128 0x3
 8880 1ccc 91       		.byte	0x91
 8881 1ccd 807F     		.sleb128 -128
 8882 1ccf 16       		.uleb128 0x16
 8883 1cd0 01       		.uleb128 0x1
 8884 1cd1 52       		.byte	0x52
 8885 1cd2 01       		.uleb128 0x1
 8886 1cd3 30       		.byte	0x30
 8887 1cd4 00       		.byte	0
 8888 1cd5 17       		.uleb128 0x17
 8889 1cd6 C4070000 		.4byte	.LVL241
 8890 1cda B4260000 		.4byte	0x26b4
 8891 1cde EC1C0000 		.4byte	0x1cec
 8892 1ce2 16       		.uleb128 0x16
 8893 1ce3 01       		.uleb128 0x1
 8894 1ce4 50       		.byte	0x50
 8895 1ce5 05       		.uleb128 0x5
 8896 1ce6 03       		.byte	0x3
 8897 1ce7 00000000 		.4byte	mySessions
 8898 1ceb 00       		.byte	0
 8899 1cec 17       		.uleb128 0x17
 8900 1ced D2070000 		.4byte	.LVL242
 8901 1cf1 A9260000 		.4byte	0x26a9
 8902 1cf5 061D0000 		.4byte	0x1d06
 8903 1cf9 16       		.uleb128 0x16
 8904 1cfa 01       		.uleb128 0x1
 8905 1cfb 50       		.byte	0x50
 8906 1cfc 03       		.uleb128 0x3
 8907 1cfd 91       		.byte	0x91
ARM GAS  C:\Users\310309~1\AppData\Local\Temp\ccu8WRKs.s 			page 188


 8908 1cfe A07F     		.sleb128 -96
 8909 1d00 16       		.uleb128 0x16
 8910 1d01 01       		.uleb128 0x1
 8911 1d02 52       		.byte	0x52
 8912 1d03 01       		.uleb128 0x1
 8913 1d04 31       		.byte	0x31
 8914 1d05 00       		.byte	0
 8915 1d06 17       		.uleb128 0x17
 8916 1d07 F8070000 		.4byte	.LVL243
 8917 1d0b B4260000 		.4byte	0x26b4
 8918 1d0f 1A1D0000 		.4byte	0x1d1a
 8919 1d13 16       		.uleb128 0x16
 8920 1d14 01       		.uleb128 0x1
 8921 1d15 50       		.byte	0x50
 8922 1d16 02       		.uleb128 0x2
 8923 1d17 79       		.byte	0x79
 8924 1d18 00       		.sleb128 0
 8925 1d19 00       		.byte	0
 8926 1d1a 18       		.uleb128 0x18
 8927 1d1b 08080000 		.4byte	.LVL244
 8928 1d1f BF260000 		.4byte	0x26bf
 8929 1d23 17       		.uleb128 0x17
 8930 1d24 16080000 		.4byte	.LVL245
 8931 1d28 20260000 		.4byte	0x2620
 8932 1d2c 3A1D0000 		.4byte	0x1d3a
 8933 1d30 16       		.uleb128 0x16
 8934 1d31 01       		.uleb128 0x1
 8935 1d32 50       		.byte	0x50
 8936 1d33 05       		.uleb128 0x5
 8937 1d34 03       		.byte	0x3
 8938 1d35 54070000 		.4byte	.LC176
 8939 1d39 00       		.byte	0
 8940 1d3a 17       		.uleb128 0x17
 8941 1d3b 34080000 		.4byte	.LVL247
 8942 1d3f A9260000 		.4byte	0x26a9
 8943 1d43 4E1D0000 		.4byte	0x1d4e
 8944 1d47 16       		.uleb128 0x16
 8945 1d48 01       		.uleb128 0x1
 8946 1d49 50       		.byte	0x50
 8947 1d4a 02       		.uleb128 0x2
 8948 1d4b 91       		.byte	0x91
 8949 1d4c 40       		.sleb128 -64
 8950 1d4d 00       		.byte	0
 8951 1d4e 17       		.uleb128 0x17
 8952 1d4f 56080000 		.4byte	.LVL249
 8953 1d53 B4260000 		.4byte	0x26b4
 8954 1d57 621D0000 		.4byte	0x1d62
 8955 1d5b 16       		.uleb128 0x16
 8956 1d5c 01       		.uleb128 0x1
 8957 1d5d 50       		.byte	0x50
 8958 1d5e 02       		.uleb128 0x2
 8959 1d5f 74       		.byte	0x74
 8960 1d60 00       		.sleb128 0
 8961 1d61 00       		.byte	0
 8962 1d62 18       		.uleb128 0x18
 8963 1d63 64080000 		.4byte	.LVL250
 8964 1d67 BF260000 		.4byte	0x26bf
ARM GAS  C:\Users\310309~1\AppData\Local\Temp\ccu8WRKs.s 			page 189


 8965 1d6b 17       		.uleb128 0x17
 8966 1d6c 70080000 		.4byte	.LVL251
 8967 1d70 20260000 		.4byte	0x2620
 8968 1d74 821D0000 		.4byte	0x1d82
 8969 1d78 16       		.uleb128 0x16
 8970 1d79 01       		.uleb128 0x1
 8971 1d7a 50       		.byte	0x50
 8972 1d7b 05       		.uleb128 0x5
 8973 1d7c 03       		.byte	0x3
 8974 1d7d A8070000 		.4byte	.LC178
 8975 1d81 00       		.byte	0
 8976 1d82 17       		.uleb128 0x17
 8977 1d83 7C080000 		.4byte	.LVL252
 8978 1d87 20260000 		.4byte	0x2620
 8979 1d8b 991D0000 		.4byte	0x1d99
 8980 1d8f 16       		.uleb128 0x16
 8981 1d90 01       		.uleb128 0x1
 8982 1d91 50       		.byte	0x50
 8983 1d92 05       		.uleb128 0x5
 8984 1d93 03       		.byte	0x3
 8985 1d94 E8070000 		.4byte	.LC180
 8986 1d98 00       		.byte	0
 8987 1d99 17       		.uleb128 0x17
 8988 1d9a 84080000 		.4byte	.LVL254
 8989 1d9e 1C250000 		.4byte	0x251c
 8990 1da2 B01D0000 		.4byte	0x1db0
 8991 1da6 16       		.uleb128 0x16
 8992 1da7 01       		.uleb128 0x1
 8993 1da8 50       		.byte	0x50
 8994 1da9 05       		.uleb128 0x5
 8995 1daa 03       		.byte	0x3
 8996 1dab 18080000 		.4byte	.LC182
 8997 1daf 00       		.byte	0
 8998 1db0 17       		.uleb128 0x17
 8999 1db1 98080000 		.4byte	.LVL255
 9000 1db5 7B260000 		.4byte	0x267b
 9001 1db9 C51D0000 		.4byte	0x1dc5
 9002 1dbd 16       		.uleb128 0x16
 9003 1dbe 01       		.uleb128 0x1
 9004 1dbf 51       		.byte	0x51
 9005 1dc0 03       		.uleb128 0x3
 9006 1dc1 91       		.byte	0x91
 9007 1dc2 F87E     		.sleb128 -136
 9008 1dc4 00       		.byte	0
 9009 1dc5 17       		.uleb128 0x17
 9010 1dc6 A0080000 		.4byte	.LVL256
 9011 1dca 1C250000 		.4byte	0x251c
 9012 1dce DC1D0000 		.4byte	0x1ddc
 9013 1dd2 16       		.uleb128 0x16
 9014 1dd3 01       		.uleb128 0x1
 9015 1dd4 50       		.byte	0x50
 9016 1dd5 05       		.uleb128 0x5
 9017 1dd6 03       		.byte	0x3
 9018 1dd7 54080000 		.4byte	.LC184
 9019 1ddb 00       		.byte	0
 9020 1ddc 17       		.uleb128 0x17
 9021 1ddd B4080000 		.4byte	.LVL257
ARM GAS  C:\Users\310309~1\AppData\Local\Temp\ccu8WRKs.s 			page 190


 9022 1de1 7B260000 		.4byte	0x267b
 9023 1de5 F11D0000 		.4byte	0x1df1
 9024 1de9 16       		.uleb128 0x16
 9025 1dea 01       		.uleb128 0x1
 9026 1deb 51       		.byte	0x51
 9027 1dec 03       		.uleb128 0x3
 9028 1ded 91       		.byte	0x91
 9029 1dee F87E     		.sleb128 -136
 9030 1df0 00       		.byte	0
 9031 1df1 17       		.uleb128 0x17
 9032 1df2 BC080000 		.4byte	.LVL258
 9033 1df6 1C250000 		.4byte	0x251c
 9034 1dfa 081E0000 		.4byte	0x1e08
 9035 1dfe 16       		.uleb128 0x16
 9036 1dff 01       		.uleb128 0x1
 9037 1e00 50       		.byte	0x50
 9038 1e01 05       		.uleb128 0x5
 9039 1e02 03       		.byte	0x3
 9040 1e03 AC080000 		.4byte	.LC186
 9041 1e07 00       		.byte	0
 9042 1e08 17       		.uleb128 0x17
 9043 1e09 C4080000 		.4byte	.LVL259
 9044 1e0d CA260000 		.4byte	0x26ca
 9045 1e11 281E0000 		.4byte	0x1e28
 9046 1e15 16       		.uleb128 0x16
 9047 1e16 01       		.uleb128 0x1
 9048 1e17 50       		.byte	0x50
 9049 1e18 05       		.uleb128 0x5
 9050 1e19 03       		.byte	0x3
 9051 1e1a 00000000 		.4byte	mySessions
 9052 1e1e 16       		.uleb128 0x16
 9053 1e1f 01       		.uleb128 0x1
 9054 1e20 51       		.byte	0x51
 9055 1e21 05       		.uleb128 0x5
 9056 1e22 03       		.byte	0x3
 9057 1e23 00000000 		.4byte	totalSessionCount
 9058 1e27 00       		.byte	0
 9059 1e28 17       		.uleb128 0x17
 9060 1e29 D4080000 		.4byte	.LVL261
 9061 1e2d D5260000 		.4byte	0x26d5
 9062 1e31 421E0000 		.4byte	0x1e42
 9063 1e35 16       		.uleb128 0x16
 9064 1e36 01       		.uleb128 0x1
 9065 1e37 50       		.byte	0x50
 9066 1e38 02       		.uleb128 0x2
 9067 1e39 74       		.byte	0x74
 9068 1e3a 00       		.sleb128 0
 9069 1e3b 16       		.uleb128 0x16
 9070 1e3c 01       		.uleb128 0x1
 9071 1e3d 51       		.byte	0x51
 9072 1e3e 02       		.uleb128 0x2
 9073 1e3f 75       		.byte	0x75
 9074 1e40 00       		.sleb128 0
 9075 1e41 00       		.byte	0
 9076 1e42 18       		.uleb128 0x18
 9077 1e43 E6080000 		.4byte	.LVL262
 9078 1e47 BF260000 		.4byte	0x26bf
ARM GAS  C:\Users\310309~1\AppData\Local\Temp\ccu8WRKs.s 			page 191


 9079 1e4b 17       		.uleb128 0x17
 9080 1e4c EE080000 		.4byte	.LVL264
 9081 1e50 1C250000 		.4byte	0x251c
 9082 1e54 621E0000 		.4byte	0x1e62
 9083 1e58 16       		.uleb128 0x16
 9084 1e59 01       		.uleb128 0x1
 9085 1e5a 50       		.byte	0x50
 9086 1e5b 05       		.uleb128 0x5
 9087 1e5c 03       		.byte	0x3
 9088 1e5d BC080000 		.4byte	.LC188
 9089 1e61 00       		.byte	0
 9090 1e62 17       		.uleb128 0x17
 9091 1e63 02090000 		.4byte	.LVL265
 9092 1e67 7B260000 		.4byte	0x267b
 9093 1e6b 771E0000 		.4byte	0x1e77
 9094 1e6f 16       		.uleb128 0x16
 9095 1e70 01       		.uleb128 0x1
 9096 1e71 51       		.byte	0x51
 9097 1e72 03       		.uleb128 0x3
 9098 1e73 91       		.byte	0x91
 9099 1e74 F87E     		.sleb128 -136
 9100 1e76 00       		.byte	0
 9101 1e77 17       		.uleb128 0x17
 9102 1e78 C80A0000 		.4byte	.LVL314
 9103 1e7c 1C250000 		.4byte	0x251c
 9104 1e80 8E1E0000 		.4byte	0x1e8e
 9105 1e84 16       		.uleb128 0x16
 9106 1e85 01       		.uleb128 0x1
 9107 1e86 50       		.byte	0x50
 9108 1e87 05       		.uleb128 0x5
 9109 1e88 03       		.byte	0x3
 9110 1e89 380A0000 		.4byte	.LC209
 9111 1e8d 00       		.byte	0
 9112 1e8e 17       		.uleb128 0x17
 9113 1e8f DC0A0000 		.4byte	.LVL315
 9114 1e93 7B260000 		.4byte	0x267b
 9115 1e97 A31E0000 		.4byte	0x1ea3
 9116 1e9b 16       		.uleb128 0x16
 9117 1e9c 01       		.uleb128 0x1
 9118 1e9d 51       		.byte	0x51
 9119 1e9e 03       		.uleb128 0x3
 9120 1e9f 91       		.byte	0x91
 9121 1ea0 F87E     		.sleb128 -136
 9122 1ea2 00       		.byte	0
 9123 1ea3 18       		.uleb128 0x18
 9124 1ea4 620B0000 		.4byte	.LVL317
 9125 1ea8 E0260000 		.4byte	0x26e0
 9126 1eac 00       		.byte	0
 9127 1ead 17       		.uleb128 0x17
 9128 1eae 8C000000 		.4byte	.LVL114
 9129 1eb2 1C250000 		.4byte	0x251c
 9130 1eb6 C41E0000 		.4byte	0x1ec4
 9131 1eba 16       		.uleb128 0x16
 9132 1ebb 01       		.uleb128 0x1
 9133 1ebc 50       		.byte	0x50
 9134 1ebd 05       		.uleb128 0x5
 9135 1ebe 03       		.byte	0x3
ARM GAS  C:\Users\310309~1\AppData\Local\Temp\ccu8WRKs.s 			page 192


 9136 1ebf 84000000 		.4byte	.LC94
 9137 1ec3 00       		.byte	0
 9138 1ec4 18       		.uleb128 0x18
 9139 1ec5 90000000 		.4byte	.LVL115
 9140 1ec9 61150000 		.4byte	0x1561
 9141 1ecd 18       		.uleb128 0x18
 9142 1ece 98000000 		.4byte	.LVL117
 9143 1ed2 61150000 		.4byte	0x1561
 9144 1ed6 17       		.uleb128 0x17
 9145 1ed7 9E000000 		.4byte	.LVL118
 9146 1edb 1C250000 		.4byte	0x251c
 9147 1edf ED1E0000 		.4byte	0x1eed
 9148 1ee3 16       		.uleb128 0x16
 9149 1ee4 01       		.uleb128 0x1
 9150 1ee5 50       		.byte	0x50
 9151 1ee6 05       		.uleb128 0x5
 9152 1ee7 03       		.byte	0x3
 9153 1ee8 A8000000 		.4byte	.LC96
 9154 1eec 00       		.byte	0
 9155 1eed 17       		.uleb128 0x17
 9156 1eee B0000000 		.4byte	.LVL119
 9157 1ef2 EC260000 		.4byte	0x26ec
 9158 1ef6 001F0000 		.4byte	0x1f00
 9159 1efa 16       		.uleb128 0x16
 9160 1efb 01       		.uleb128 0x1
 9161 1efc 50       		.byte	0x50
 9162 1efd 01       		.uleb128 0x1
 9163 1efe 31       		.byte	0x31
 9164 1eff 00       		.byte	0
 9165 1f00 18       		.uleb128 0x18
 9166 1f01 B4000000 		.4byte	.LVL120
 9167 1f05 F7260000 		.4byte	0x26f7
 9168 1f09 17       		.uleb128 0x17
 9169 1f0a BE000000 		.4byte	.LVL122
 9170 1f0e 1C250000 		.4byte	0x251c
 9171 1f12 201F0000 		.4byte	0x1f20
 9172 1f16 16       		.uleb128 0x16
 9173 1f17 01       		.uleb128 0x1
 9174 1f18 50       		.byte	0x50
 9175 1f19 05       		.uleb128 0x5
 9176 1f1a 03       		.byte	0x3
 9177 1f1b D4000000 		.4byte	.LC99
 9178 1f1f 00       		.byte	0
 9179 1f20 17       		.uleb128 0x17
 9180 1f21 D2000000 		.4byte	.LVL125
 9181 1f25 20260000 		.4byte	0x2620
 9182 1f29 371F0000 		.4byte	0x1f37
 9183 1f2d 16       		.uleb128 0x16
 9184 1f2e 01       		.uleb128 0x1
 9185 1f2f 50       		.byte	0x50
 9186 1f30 05       		.uleb128 0x5
 9187 1f31 03       		.byte	0x3
 9188 1f32 F0000000 		.4byte	.LC101
 9189 1f36 00       		.byte	0
 9190 1f37 17       		.uleb128 0x17
 9191 1f38 DC000000 		.4byte	.LVL127
 9192 1f3c 1C250000 		.4byte	0x251c
ARM GAS  C:\Users\310309~1\AppData\Local\Temp\ccu8WRKs.s 			page 193


 9193 1f40 4E1F0000 		.4byte	0x1f4e
 9194 1f44 16       		.uleb128 0x16
 9195 1f45 01       		.uleb128 0x1
 9196 1f46 50       		.byte	0x50
 9197 1f47 05       		.uleb128 0x5
 9198 1f48 03       		.byte	0x3
 9199 1f49 5C000000 		.4byte	.LC80
 9200 1f4d 00       		.byte	0
 9201 1f4e 17       		.uleb128 0x17
 9202 1f4f E2000000 		.4byte	.LVL128
 9203 1f53 1C250000 		.4byte	0x251c
 9204 1f57 651F0000 		.4byte	0x1f65
 9205 1f5b 16       		.uleb128 0x16
 9206 1f5c 01       		.uleb128 0x1
 9207 1f5d 50       		.byte	0x50
 9208 1f5e 05       		.uleb128 0x5
 9209 1f5f 03       		.byte	0x3
 9210 1f60 48010000 		.4byte	.LC103
 9211 1f64 00       		.byte	0
 9212 1f65 17       		.uleb128 0x17
 9213 1f66 EC000000 		.4byte	.LVL130
 9214 1f6a 1C250000 		.4byte	0x251c
 9215 1f6e 7C1F0000 		.4byte	0x1f7c
 9216 1f72 16       		.uleb128 0x16
 9217 1f73 01       		.uleb128 0x1
 9218 1f74 50       		.byte	0x50
 9219 1f75 05       		.uleb128 0x5
 9220 1f76 03       		.byte	0x3
 9221 1f77 5C000000 		.4byte	.LC80
 9222 1f7b 00       		.byte	0
 9223 1f7c 17       		.uleb128 0x17
 9224 1f7d F4000000 		.4byte	.LVL131
 9225 1f81 20260000 		.4byte	0x2620
 9226 1f85 931F0000 		.4byte	0x1f93
 9227 1f89 16       		.uleb128 0x16
 9228 1f8a 01       		.uleb128 0x1
 9229 1f8b 50       		.byte	0x50
 9230 1f8c 05       		.uleb128 0x5
 9231 1f8d 03       		.byte	0x3
 9232 1f8e 8C010000 		.4byte	.LC105
 9233 1f92 00       		.byte	0
 9234 1f93 17       		.uleb128 0x17
 9235 1f94 00010000 		.4byte	.LVL134
 9236 1f98 20260000 		.4byte	0x2620
 9237 1f9c AA1F0000 		.4byte	0x1faa
 9238 1fa0 16       		.uleb128 0x16
 9239 1fa1 01       		.uleb128 0x1
 9240 1fa2 50       		.byte	0x50
 9241 1fa3 05       		.uleb128 0x5
 9242 1fa4 03       		.byte	0x3
 9243 1fa5 C8010000 		.4byte	.LC107
 9244 1fa9 00       		.byte	0
 9245 1faa 17       		.uleb128 0x17
 9246 1fab 0E010000 		.4byte	.LVL137
 9247 1faf 20260000 		.4byte	0x2620
 9248 1fb3 C11F0000 		.4byte	0x1fc1
 9249 1fb7 16       		.uleb128 0x16
ARM GAS  C:\Users\310309~1\AppData\Local\Temp\ccu8WRKs.s 			page 194


 9250 1fb8 01       		.uleb128 0x1
 9251 1fb9 50       		.byte	0x50
 9252 1fba 05       		.uleb128 0x5
 9253 1fbb 03       		.byte	0x3
 9254 1fbc EC010000 		.4byte	.LC109
 9255 1fc0 00       		.byte	0
 9256 1fc1 17       		.uleb128 0x17
 9257 1fc2 22010000 		.4byte	.LVL140
 9258 1fc6 20260000 		.4byte	0x2620
 9259 1fca D81F0000 		.4byte	0x1fd8
 9260 1fce 16       		.uleb128 0x16
 9261 1fcf 01       		.uleb128 0x1
 9262 1fd0 50       		.byte	0x50
 9263 1fd1 05       		.uleb128 0x5
 9264 1fd2 03       		.byte	0x3
 9265 1fd3 24020000 		.4byte	.LC111
 9266 1fd7 00       		.byte	0
 9267 1fd8 17       		.uleb128 0x17
 9268 1fd9 3A010000 		.4byte	.LVL143
 9269 1fdd 9D260000 		.4byte	0x269d
 9270 1fe1 F71F0000 		.4byte	0x1ff7
 9271 1fe5 16       		.uleb128 0x16
 9272 1fe6 01       		.uleb128 0x1
 9273 1fe7 50       		.byte	0x50
 9274 1fe8 02       		.uleb128 0x2
 9275 1fe9 74       		.byte	0x74
 9276 1fea 04       		.sleb128 4
 9277 1feb 16       		.uleb128 0x16
 9278 1fec 01       		.uleb128 0x1
 9279 1fed 51       		.byte	0x51
 9280 1fee 01       		.uleb128 0x1
 9281 1fef 30       		.byte	0x30
 9282 1ff0 16       		.uleb128 0x16
 9283 1ff1 01       		.uleb128 0x1
 9284 1ff2 52       		.byte	0x52
 9285 1ff3 02       		.uleb128 0x2
 9286 1ff4 75       		.byte	0x75
 9287 1ff5 00       		.sleb128 0
 9288 1ff6 00       		.byte	0
 9289 1ff7 18       		.uleb128 0x18
 9290 1ff8 52010000 		.4byte	.LVL144
 9291 1ffc E0260000 		.4byte	0x26e0
 9292 2000 17       		.uleb128 0x17
 9293 2001 58010000 		.4byte	.LVL145
 9294 2005 1C250000 		.4byte	0x251c
 9295 2009 17200000 		.4byte	0x2017
 9296 200d 16       		.uleb128 0x16
 9297 200e 01       		.uleb128 0x1
 9298 200f 50       		.byte	0x50
 9299 2010 05       		.uleb128 0x5
 9300 2011 03       		.byte	0x3
 9301 2012 78020000 		.4byte	.LC114
 9302 2016 00       		.byte	0
 9303 2017 17       		.uleb128 0x17
 9304 2018 6C010000 		.4byte	.LVL146
 9305 201c 9D260000 		.4byte	0x269d
 9306 2020 36200000 		.4byte	0x2036
ARM GAS  C:\Users\310309~1\AppData\Local\Temp\ccu8WRKs.s 			page 195


 9307 2024 16       		.uleb128 0x16
 9308 2025 01       		.uleb128 0x1
 9309 2026 50       		.byte	0x50
 9310 2027 02       		.uleb128 0x2
 9311 2028 74       		.byte	0x74
 9312 2029 04       		.sleb128 4
 9313 202a 16       		.uleb128 0x16
 9314 202b 01       		.uleb128 0x1
 9315 202c 51       		.byte	0x51
 9316 202d 01       		.uleb128 0x1
 9317 202e 30       		.byte	0x30
 9318 202f 16       		.uleb128 0x16
 9319 2030 01       		.uleb128 0x1
 9320 2031 52       		.byte	0x52
 9321 2032 02       		.uleb128 0x2
 9322 2033 75       		.byte	0x75
 9323 2034 00       		.sleb128 0
 9324 2035 00       		.byte	0
 9325 2036 18       		.uleb128 0x18
 9326 2037 84010000 		.4byte	.LVL147
 9327 203b E0260000 		.4byte	0x26e0
 9328 203f 17       		.uleb128 0x17
 9329 2040 8A010000 		.4byte	.LVL148
 9330 2044 1C250000 		.4byte	0x251c
 9331 2048 56200000 		.4byte	0x2056
 9332 204c 16       		.uleb128 0x16
 9333 204d 01       		.uleb128 0x1
 9334 204e 50       		.byte	0x50
 9335 204f 05       		.uleb128 0x5
 9336 2050 03       		.byte	0x3
 9337 2051 B8020000 		.4byte	.LC116
 9338 2055 00       		.byte	0
 9339 2056 17       		.uleb128 0x17
 9340 2057 9E010000 		.4byte	.LVL149
 9341 205b 9D260000 		.4byte	0x269d
 9342 205f 75200000 		.4byte	0x2075
 9343 2063 16       		.uleb128 0x16
 9344 2064 01       		.uleb128 0x1
 9345 2065 50       		.byte	0x50
 9346 2066 02       		.uleb128 0x2
 9347 2067 74       		.byte	0x74
 9348 2068 04       		.sleb128 4
 9349 2069 16       		.uleb128 0x16
 9350 206a 01       		.uleb128 0x1
 9351 206b 51       		.byte	0x51
 9352 206c 01       		.uleb128 0x1
 9353 206d 30       		.byte	0x30
 9354 206e 16       		.uleb128 0x16
 9355 206f 01       		.uleb128 0x1
 9356 2070 52       		.byte	0x52
 9357 2071 02       		.uleb128 0x2
 9358 2072 75       		.byte	0x75
 9359 2073 00       		.sleb128 0
 9360 2074 00       		.byte	0
 9361 2075 18       		.uleb128 0x18
 9362 2076 B6010000 		.4byte	.LVL150
 9363 207a E0260000 		.4byte	0x26e0
ARM GAS  C:\Users\310309~1\AppData\Local\Temp\ccu8WRKs.s 			page 196


 9364 207e 17       		.uleb128 0x17
 9365 207f BC010000 		.4byte	.LVL151
 9366 2083 1C250000 		.4byte	0x251c
 9367 2087 95200000 		.4byte	0x2095
 9368 208b 16       		.uleb128 0x16
 9369 208c 01       		.uleb128 0x1
 9370 208d 50       		.byte	0x50
 9371 208e 05       		.uleb128 0x5
 9372 208f 03       		.byte	0x3
 9373 2090 F0020000 		.4byte	.LC118
 9374 2094 00       		.byte	0
 9375 2095 17       		.uleb128 0x17
 9376 2096 D0010000 		.4byte	.LVL152
 9377 209a 9D260000 		.4byte	0x269d
 9378 209e B4200000 		.4byte	0x20b4
 9379 20a2 16       		.uleb128 0x16
 9380 20a3 01       		.uleb128 0x1
 9381 20a4 50       		.byte	0x50
 9382 20a5 02       		.uleb128 0x2
 9383 20a6 74       		.byte	0x74
 9384 20a7 04       		.sleb128 4
 9385 20a8 16       		.uleb128 0x16
 9386 20a9 01       		.uleb128 0x1
 9387 20aa 51       		.byte	0x51
 9388 20ab 01       		.uleb128 0x1
 9389 20ac 30       		.byte	0x30
 9390 20ad 16       		.uleb128 0x16
 9391 20ae 01       		.uleb128 0x1
 9392 20af 52       		.byte	0x52
 9393 20b0 02       		.uleb128 0x2
 9394 20b1 75       		.byte	0x75
 9395 20b2 00       		.sleb128 0
 9396 20b3 00       		.byte	0
 9397 20b4 18       		.uleb128 0x18
 9398 20b5 E8010000 		.4byte	.LVL153
 9399 20b9 E0260000 		.4byte	0x26e0
 9400 20bd 17       		.uleb128 0x17
 9401 20be EE010000 		.4byte	.LVL154
 9402 20c2 1C250000 		.4byte	0x251c
 9403 20c6 D4200000 		.4byte	0x20d4
 9404 20ca 16       		.uleb128 0x16
 9405 20cb 01       		.uleb128 0x1
 9406 20cc 50       		.byte	0x50
 9407 20cd 05       		.uleb128 0x5
 9408 20ce 03       		.byte	0x3
 9409 20cf 3C030000 		.4byte	.LC120
 9410 20d3 00       		.byte	0
 9411 20d4 17       		.uleb128 0x17
 9412 20d5 02020000 		.4byte	.LVL155
 9413 20d9 9D260000 		.4byte	0x269d
 9414 20dd F3200000 		.4byte	0x20f3
 9415 20e1 16       		.uleb128 0x16
 9416 20e2 01       		.uleb128 0x1
 9417 20e3 50       		.byte	0x50
 9418 20e4 02       		.uleb128 0x2
 9419 20e5 74       		.byte	0x74
 9420 20e6 04       		.sleb128 4
ARM GAS  C:\Users\310309~1\AppData\Local\Temp\ccu8WRKs.s 			page 197


 9421 20e7 16       		.uleb128 0x16
 9422 20e8 01       		.uleb128 0x1
 9423 20e9 51       		.byte	0x51
 9424 20ea 01       		.uleb128 0x1
 9425 20eb 30       		.byte	0x30
 9426 20ec 16       		.uleb128 0x16
 9427 20ed 01       		.uleb128 0x1
 9428 20ee 52       		.byte	0x52
 9429 20ef 02       		.uleb128 0x2
 9430 20f0 75       		.byte	0x75
 9431 20f1 00       		.sleb128 0
 9432 20f2 00       		.byte	0
 9433 20f3 18       		.uleb128 0x18
 9434 20f4 1A020000 		.4byte	.LVL156
 9435 20f8 E0260000 		.4byte	0x26e0
 9436 20fc 17       		.uleb128 0x17
 9437 20fd 20020000 		.4byte	.LVL157
 9438 2101 1C250000 		.4byte	0x251c
 9439 2105 13210000 		.4byte	0x2113
 9440 2109 16       		.uleb128 0x16
 9441 210a 01       		.uleb128 0x1
 9442 210b 50       		.byte	0x50
 9443 210c 05       		.uleb128 0x5
 9444 210d 03       		.byte	0x3
 9445 210e 80030000 		.4byte	.LC122
 9446 2112 00       		.byte	0
 9447 2113 17       		.uleb128 0x17
 9448 2114 34020000 		.4byte	.LVL158
 9449 2118 9D260000 		.4byte	0x269d
 9450 211c 32210000 		.4byte	0x2132
 9451 2120 16       		.uleb128 0x16
 9452 2121 01       		.uleb128 0x1
 9453 2122 50       		.byte	0x50
 9454 2123 02       		.uleb128 0x2
 9455 2124 74       		.byte	0x74
 9456 2125 04       		.sleb128 4
 9457 2126 16       		.uleb128 0x16
 9458 2127 01       		.uleb128 0x1
 9459 2128 51       		.byte	0x51
 9460 2129 01       		.uleb128 0x1
 9461 212a 30       		.byte	0x30
 9462 212b 16       		.uleb128 0x16
 9463 212c 01       		.uleb128 0x1
 9464 212d 52       		.byte	0x52
 9465 212e 02       		.uleb128 0x2
 9466 212f 75       		.byte	0x75
 9467 2130 00       		.sleb128 0
 9468 2131 00       		.byte	0
 9469 2132 18       		.uleb128 0x18
 9470 2133 4C020000 		.4byte	.LVL159
 9471 2137 E0260000 		.4byte	0x26e0
 9472 213b 17       		.uleb128 0x17
 9473 213c 52020000 		.4byte	.LVL160
 9474 2140 1C250000 		.4byte	0x251c
 9475 2144 52210000 		.4byte	0x2152
 9476 2148 16       		.uleb128 0x16
 9477 2149 01       		.uleb128 0x1
ARM GAS  C:\Users\310309~1\AppData\Local\Temp\ccu8WRKs.s 			page 198


 9478 214a 50       		.byte	0x50
 9479 214b 05       		.uleb128 0x5
 9480 214c 03       		.byte	0x3
 9481 214d BC030000 		.4byte	.LC124
 9482 2151 00       		.byte	0
 9483 2152 17       		.uleb128 0x17
 9484 2153 66020000 		.4byte	.LVL161
 9485 2157 9D260000 		.4byte	0x269d
 9486 215b 71210000 		.4byte	0x2171
 9487 215f 16       		.uleb128 0x16
 9488 2160 01       		.uleb128 0x1
 9489 2161 50       		.byte	0x50
 9490 2162 02       		.uleb128 0x2
 9491 2163 74       		.byte	0x74
 9492 2164 04       		.sleb128 4
 9493 2165 16       		.uleb128 0x16
 9494 2166 01       		.uleb128 0x1
 9495 2167 51       		.byte	0x51
 9496 2168 01       		.uleb128 0x1
 9497 2169 30       		.byte	0x30
 9498 216a 16       		.uleb128 0x16
 9499 216b 01       		.uleb128 0x1
 9500 216c 52       		.byte	0x52
 9501 216d 02       		.uleb128 0x2
 9502 216e 75       		.byte	0x75
 9503 216f 00       		.sleb128 0
 9504 2170 00       		.byte	0
 9505 2171 18       		.uleb128 0x18
 9506 2172 7E020000 		.4byte	.LVL162
 9507 2176 E0260000 		.4byte	0x26e0
 9508 217a 17       		.uleb128 0x17
 9509 217b 84020000 		.4byte	.LVL163
 9510 217f 1C250000 		.4byte	0x251c
 9511 2183 91210000 		.4byte	0x2191
 9512 2187 16       		.uleb128 0x16
 9513 2188 01       		.uleb128 0x1
 9514 2189 50       		.byte	0x50
 9515 218a 05       		.uleb128 0x5
 9516 218b 03       		.byte	0x3
 9517 218c FC030000 		.4byte	.LC126
 9518 2190 00       		.byte	0
 9519 2191 17       		.uleb128 0x17
 9520 2192 98020000 		.4byte	.LVL164
 9521 2196 9D260000 		.4byte	0x269d
 9522 219a B0210000 		.4byte	0x21b0
 9523 219e 16       		.uleb128 0x16
 9524 219f 01       		.uleb128 0x1
 9525 21a0 50       		.byte	0x50
 9526 21a1 02       		.uleb128 0x2
 9527 21a2 74       		.byte	0x74
 9528 21a3 04       		.sleb128 4
 9529 21a4 16       		.uleb128 0x16
 9530 21a5 01       		.uleb128 0x1
 9531 21a6 51       		.byte	0x51
 9532 21a7 01       		.uleb128 0x1
 9533 21a8 30       		.byte	0x30
 9534 21a9 16       		.uleb128 0x16
ARM GAS  C:\Users\310309~1\AppData\Local\Temp\ccu8WRKs.s 			page 199


 9535 21aa 01       		.uleb128 0x1
 9536 21ab 52       		.byte	0x52
 9537 21ac 02       		.uleb128 0x2
 9538 21ad 75       		.byte	0x75
 9539 21ae 00       		.sleb128 0
 9540 21af 00       		.byte	0
 9541 21b0 18       		.uleb128 0x18
 9542 21b1 B0020000 		.4byte	.LVL165
 9543 21b5 E0260000 		.4byte	0x26e0
 9544 21b9 17       		.uleb128 0x17
 9545 21ba B6020000 		.4byte	.LVL166
 9546 21be 1C250000 		.4byte	0x251c
 9547 21c2 D0210000 		.4byte	0x21d0
 9548 21c6 16       		.uleb128 0x16
 9549 21c7 01       		.uleb128 0x1
 9550 21c8 50       		.byte	0x50
 9551 21c9 05       		.uleb128 0x5
 9552 21ca 03       		.byte	0x3
 9553 21cb 34040000 		.4byte	.LC128
 9554 21cf 00       		.byte	0
 9555 21d0 17       		.uleb128 0x17
 9556 21d1 CA020000 		.4byte	.LVL167
 9557 21d5 9D260000 		.4byte	0x269d
 9558 21d9 EF210000 		.4byte	0x21ef
 9559 21dd 16       		.uleb128 0x16
 9560 21de 01       		.uleb128 0x1
 9561 21df 50       		.byte	0x50
 9562 21e0 02       		.uleb128 0x2
 9563 21e1 74       		.byte	0x74
 9564 21e2 04       		.sleb128 4
 9565 21e3 16       		.uleb128 0x16
 9566 21e4 01       		.uleb128 0x1
 9567 21e5 51       		.byte	0x51
 9568 21e6 01       		.uleb128 0x1
 9569 21e7 30       		.byte	0x30
 9570 21e8 16       		.uleb128 0x16
 9571 21e9 01       		.uleb128 0x1
 9572 21ea 52       		.byte	0x52
 9573 21eb 02       		.uleb128 0x2
 9574 21ec 75       		.byte	0x75
 9575 21ed 00       		.sleb128 0
 9576 21ee 00       		.byte	0
 9577 21ef 18       		.uleb128 0x18
 9578 21f0 E2020000 		.4byte	.LVL168
 9579 21f4 E0260000 		.4byte	0x26e0
 9580 21f8 17       		.uleb128 0x17
 9581 21f9 E8020000 		.4byte	.LVL169
 9582 21fd 1C250000 		.4byte	0x251c
 9583 2201 0F220000 		.4byte	0x220f
 9584 2205 16       		.uleb128 0x16
 9585 2206 01       		.uleb128 0x1
 9586 2207 50       		.byte	0x50
 9587 2208 05       		.uleb128 0x5
 9588 2209 03       		.byte	0x3
 9589 220a 5C040000 		.4byte	.LC130
 9590 220e 00       		.byte	0
 9591 220f 17       		.uleb128 0x17
ARM GAS  C:\Users\310309~1\AppData\Local\Temp\ccu8WRKs.s 			page 200


 9592 2210 FC020000 		.4byte	.LVL170
 9593 2214 9D260000 		.4byte	0x269d
 9594 2218 2E220000 		.4byte	0x222e
 9595 221c 16       		.uleb128 0x16
 9596 221d 01       		.uleb128 0x1
 9597 221e 50       		.byte	0x50
 9598 221f 02       		.uleb128 0x2
 9599 2220 74       		.byte	0x74
 9600 2221 04       		.sleb128 4
 9601 2222 16       		.uleb128 0x16
 9602 2223 01       		.uleb128 0x1
 9603 2224 51       		.byte	0x51
 9604 2225 01       		.uleb128 0x1
 9605 2226 30       		.byte	0x30
 9606 2227 16       		.uleb128 0x16
 9607 2228 01       		.uleb128 0x1
 9608 2229 52       		.byte	0x52
 9609 222a 02       		.uleb128 0x2
 9610 222b 75       		.byte	0x75
 9611 222c 00       		.sleb128 0
 9612 222d 00       		.byte	0
 9613 222e 18       		.uleb128 0x18
 9614 222f 14030000 		.4byte	.LVL171
 9615 2233 E0260000 		.4byte	0x26e0
 9616 2237 15       		.uleb128 0x15
 9617 2238 1A030000 		.4byte	.LVL172
 9618 223c 1C250000 		.4byte	0x251c
 9619 2240 16       		.uleb128 0x16
 9620 2241 01       		.uleb128 0x1
 9621 2242 50       		.byte	0x50
 9622 2243 05       		.uleb128 0x5
 9623 2244 03       		.byte	0x3
 9624 2245 88040000 		.4byte	.LC132
 9625 2249 00       		.byte	0
 9626 224a 00       		.byte	0
 9627 224b 0E       		.uleb128 0xe
 9628 224c 04       		.byte	0x4
 9629 224d 9B070000 		.4byte	0x79b
 9630 2251 28       		.uleb128 0x28
 9631 2252 70290000 		.4byte	.LASF420
 9632 2256 13       		.byte	0x13
 9633 2257 C402     		.2byte	0x2c4
 9634 2259 6B000000 		.4byte	0x6b
 9635 225d 28       		.uleb128 0x28
 9636 225e B1010000 		.4byte	.LASF421
 9637 2262 08       		.byte	0x8
 9638 2263 A90A     		.2byte	0xaa9
 9639 2265 21080000 		.4byte	0x821
 9640 2269 28       		.uleb128 0x28
 9641 226a 0F220000 		.4byte	.LASF422
 9642 226e 08       		.byte	0x8
 9643 226f AA0A     		.2byte	0xaaa
 9644 2271 C9060000 		.4byte	0x6c9
 9645 2275 29       		.uleb128 0x29
 9646 2276 0D1F0000 		.4byte	.LASF423
 9647 227a 14       		.byte	0x14
 9648 227b 37       		.byte	0x37
ARM GAS  C:\Users\310309~1\AppData\Local\Temp\ccu8WRKs.s 			page 201


 9649 227c 77000000 		.4byte	0x77
 9650 2280 05       		.uleb128 0x5
 9651 2281 03       		.byte	0x3
 9652 2282 00000000 		.4byte	Enquire_Sessions_Requested
 9653 2286 29       		.uleb128 0x29
 9654 2287 40230000 		.4byte	.LASF424
 9655 228b 14       		.byte	0x14
 9656 228c 38       		.byte	0x38
 9657 228d 77000000 		.4byte	0x77
 9658 2291 05       		.uleb128 0x5
 9659 2292 03       		.byte	0x3
 9660 2293 00000000 		.4byte	Enquire_Sub_Sessions_Requested_For_ID
 9661 2297 29       		.uleb128 0x29
 9662 2298 9C1A0000 		.4byte	.LASF425
 9663 229c 14       		.byte	0x14
 9664 229d 39       		.byte	0x39
 9665 229e 77000000 		.4byte	0x77
 9666 22a2 05       		.uleb128 0x5
 9667 22a3 03       		.byte	0x3
 9668 22a4 00000000 		.4byte	Get_Ended_Data_SessionID
 9669 22a8 29       		.uleb128 0x29
 9670 22a9 43200000 		.4byte	.LASF426
 9671 22ad 14       		.byte	0x14
 9672 22ae 3A       		.byte	0x3a
 9673 22af 77000000 		.4byte	0x77
 9674 22b3 05       		.uleb128 0x5
 9675 22b4 03       		.byte	0x3
 9676 22b5 00000000 		.4byte	Get_Ended_Data_Sub_SessionID
 9677 22b9 29       		.uleb128 0x29
 9678 22ba 98150000 		.4byte	.LASF427
 9679 22be 14       		.byte	0x14
 9680 22bf 3B       		.byte	0x3b
 9681 22c0 6B000000 		.4byte	0x6b
 9682 22c4 05       		.uleb128 0x5
 9683 22c5 03       		.byte	0x3
 9684 22c6 00000000 		.4byte	Get_Ended_Data_Value
 9685 22ca 29       		.uleb128 0x29
 9686 22cb FB230000 		.4byte	.LASF428
 9687 22cf 14       		.byte	0x14
 9688 22d0 3C       		.byte	0x3c
 9689 22d1 6B000000 		.4byte	0x6b
 9690 22d5 05       		.uleb128 0x5
 9691 22d6 03       		.byte	0x3
 9692 22d7 00000000 		.4byte	send_Deleted_Sessions
 9693 22db 29       		.uleb128 0x29
 9694 22dc EE2C0000 		.4byte	.LASF429
 9695 22e0 14       		.byte	0x14
 9696 22e1 3D       		.byte	0x3d
 9697 22e2 6B000000 		.4byte	0x6b
 9698 22e6 05       		.uleb128 0x5
 9699 22e7 03       		.byte	0x3
 9700 22e8 00000000 		.4byte	Update_GASD_With_New_Activity
 9701 22ec 0C       		.uleb128 0xc
 9702 22ed 6B000000 		.4byte	0x6b
 9703 22f1 02230000 		.4byte	0x2302
 9704 22f5 0D       		.uleb128 0xd
 9705 22f6 E0000000 		.4byte	0xe0
ARM GAS  C:\Users\310309~1\AppData\Local\Temp\ccu8WRKs.s 			page 202


 9706 22fa 18       		.byte	0x18
 9707 22fb 0D       		.uleb128 0xd
 9708 22fc E0000000 		.4byte	0xe0
 9709 2300 18       		.byte	0x18
 9710 2301 00       		.byte	0
 9711 2302 29       		.uleb128 0x29
 9712 2303 A5110000 		.4byte	.LASF430
 9713 2307 14       		.byte	0x14
 9714 2308 3E       		.byte	0x3e
 9715 2309 EC220000 		.4byte	0x22ec
 9716 230d 05       		.uleb128 0x5
 9717 230e 03       		.byte	0x3
 9718 230f 00000000 		.4byte	UserDefinedActivityTypeAllSubSessions
 9719 2313 29       		.uleb128 0x29
 9720 2314 52180000 		.4byte	.LASF431
 9721 2318 15       		.byte	0x15
 9722 2319 5D       		.byte	0x5d
 9723 231a B5000000 		.4byte	0xb5
 9724 231e 05       		.uleb128 0x5
 9725 231f 03       		.byte	0x3
 9726 2320 00000000 		.4byte	pamFeature
 9727 2324 29       		.uleb128 0x29
 9728 2325 8B050000 		.4byte	.LASF432
 9729 2329 09       		.byte	0x9
 9730 232a 27       		.byte	0x27
 9731 232b 6B000000 		.4byte	0x6b
 9732 232f 05       		.uleb128 0x5
 9733 2330 03       		.byte	0x3
 9734 2331 00000000 		.4byte	sessionDescriptorIndicate
 9735 2335 29       		.uleb128 0x29
 9736 2336 EC120000 		.4byte	.LASF433
 9737 233a 01       		.byte	0x1
 9738 233b 1B       		.byte	0x1b
 9739 233c 80030000 		.4byte	0x380
 9740 2340 05       		.uleb128 0x5
 9741 2341 03       		.byte	0x3
 9742 2342 00000000 		.4byte	apiResult
 9743 2346 29       		.uleb128 0x29
 9744 2347 2E030000 		.4byte	.LASF434
 9745 234b 0A       		.byte	0xa
 9746 234c 43       		.byte	0x43
 9747 234d BA090000 		.4byte	0x9ba
 9748 2351 05       		.uleb128 0x5
 9749 2352 03       		.byte	0x3
 9750 2353 00000000 		.4byte	GaiData
 9751 2357 29       		.uleb128 0x29
 9752 2358 F0210000 		.4byte	.LASF435
 9753 235c 0A       		.byte	0xa
 9754 235d 45       		.byte	0x45
 9755 235e 5D000000 		.4byte	0x5d
 9756 2362 05       		.uleb128 0x5
 9757 2363 03       		.byte	0x3
 9758 2364 00000000 		.4byte	generalinstantaneousdataNotify
 9759 2368 29       		.uleb128 0x29
 9760 2369 91080000 		.4byte	.LASF436
 9761 236d 0B       		.byte	0xb
 9762 236e 5E       		.byte	0x5e
ARM GAS  C:\Users\310309~1\AppData\Local\Temp\ccu8WRKs.s 			page 203


 9763 236f 420B0000 		.4byte	0xb42
 9764 2373 05       		.uleb128 0x5
 9765 2374 03       		.byte	0x3
 9766 2375 00000000 		.4byte	GasData
 9767 2379 29       		.uleb128 0x29
 9768 237a 27020000 		.4byte	.LASF437
 9769 237e 0B       		.byte	0xb
 9770 237f 60       		.byte	0x60
 9771 2380 5D000000 		.4byte	0x5d
 9772 2384 05       		.uleb128 0x5
 9773 2385 03       		.byte	0x3
 9774 2386 00000000 		.4byte	generalsummarydataIndicate
 9775 238a 29       		.uleb128 0x29
 9776 238b 1A2A0000 		.4byte	.LASF438
 9777 238f 0C       		.byte	0xc
 9778 2390 35       		.byte	0x35
 9779 2391 F20B0000 		.4byte	0xbf2
 9780 2395 05       		.uleb128 0x5
 9781 2396 03       		.byte	0x3
 9782 2397 00000000 		.4byte	CraiData
 9783 239b 29       		.uleb128 0x29
 9784 239c 33290000 		.4byte	.LASF439
 9785 23a0 0C       		.byte	0xc
 9786 23a1 37       		.byte	0x37
 9787 23a2 5D000000 		.4byte	0x5d
 9788 23a6 05       		.uleb128 0x5
 9789 23a7 03       		.byte	0x3
 9790 23a8 00000000 		.4byte	cardiorespiratoryactivityinstantaneousdataNotify
 9791 23ac 29       		.uleb128 0x29
 9792 23ad D9000000 		.4byte	.LASF440
 9793 23b1 0D       		.byte	0xd
 9794 23b2 47       		.byte	0x47
 9795 23b3 920D0000 		.4byte	0xd92
 9796 23b7 05       		.uleb128 0x5
 9797 23b8 03       		.byte	0x3
 9798 23b9 00000000 		.4byte	CrasData
 9799 23bd 29       		.uleb128 0x29
 9800 23be 6B110000 		.4byte	.LASF441
 9801 23c2 0D       		.byte	0xd
 9802 23c3 49       		.byte	0x49
 9803 23c4 5D000000 		.4byte	0x5d
 9804 23c8 05       		.uleb128 0x5
 9805 23c9 03       		.byte	0x3
 9806 23ca 00000000 		.4byte	cardiorespiratoryactivitysummarydataIndicate
 9807 23ce 29       		.uleb128 0x29
 9808 23cf 951D0000 		.4byte	.LASF442
 9809 23d3 0E       		.byte	0xe
 9810 23d4 31       		.byte	0x31
 9811 23d5 2A0E0000 		.4byte	0xe2a
 9812 23d9 05       		.uleb128 0x5
 9813 23da 03       		.byte	0x3
 9814 23db 00000000 		.4byte	ScasData
 9815 23df 29       		.uleb128 0x29
 9816 23e0 80130000 		.4byte	.LASF443
 9817 23e4 0E       		.byte	0xe
 9818 23e5 33       		.byte	0x33
 9819 23e6 5D000000 		.4byte	0x5d
ARM GAS  C:\Users\310309~1\AppData\Local\Temp\ccu8WRKs.s 			page 204


 9820 23ea 05       		.uleb128 0x5
 9821 23eb 03       		.byte	0x3
 9822 23ec 00000000 		.4byte	stepcounteractivitysummarydataIndicate
 9823 23f0 29       		.uleb128 0x29
 9824 23f1 BC020000 		.4byte	.LASF444
 9825 23f5 0F       		.byte	0xf
 9826 23f6 31       		.byte	0x31
 9827 23f7 C20E0000 		.4byte	0xec2
 9828 23fb 05       		.uleb128 0x5
 9829 23fc 03       		.byte	0x3
 9830 23fd 00000000 		.4byte	SaiData
 9831 2401 29       		.uleb128 0x29
 9832 2402 B4000000 		.4byte	.LASF445
 9833 2406 0F       		.byte	0xf
 9834 2407 33       		.byte	0x33
 9835 2408 5D000000 		.4byte	0x5d
 9836 240c 05       		.uleb128 0x5
 9837 240d 03       		.byte	0x3
 9838 240e 00000000 		.4byte	sleepactivityinstantaneousdataNotify
 9839 2412 29       		.uleb128 0x29
 9840 2413 29080000 		.4byte	.LASF446
 9841 2417 10       		.byte	0x10
 9842 2418 40       		.byte	0x40
 9843 2419 0E100000 		.4byte	0x100e
 9844 241d 05       		.uleb128 0x5
 9845 241e 03       		.byte	0x3
 9846 241f 00000000 		.4byte	SasData
 9847 2423 29       		.uleb128 0x29
 9848 2424 9D2A0000 		.4byte	.LASF447
 9849 2428 10       		.byte	0x10
 9850 2429 42       		.byte	0x42
 9851 242a 5D000000 		.4byte	0x5d
 9852 242e 05       		.uleb128 0x5
 9853 242f 03       		.byte	0x3
 9854 2430 00000000 		.4byte	sleepactivitysummarydataIndicate
 9855 2434 0C       		.uleb128 0xc
 9856 2435 BA080000 		.4byte	0x8ba
 9857 2439 44240000 		.4byte	0x2444
 9858 243d 0D       		.uleb128 0xd
 9859 243e E0000000 		.4byte	0xe0
 9860 2442 0E       		.byte	0xe
 9861 2443 00       		.byte	0
 9862 2444 29       		.uleb128 0x29
 9863 2445 3E260000 		.4byte	.LASF448
 9864 2449 11       		.byte	0x11
 9865 244a 25       		.byte	0x25
 9866 244b 34240000 		.4byte	0x2434
 9867 244f 05       		.uleb128 0x5
 9868 2450 03       		.byte	0x3
 9869 2451 00000000 		.4byte	mySessions
 9870 2455 29       		.uleb128 0x29
 9871 2456 75240000 		.4byte	.LASF449
 9872 245a 11       		.byte	0x11
 9873 245b 26       		.byte	0x26
 9874 245c 34240000 		.4byte	0x2434
 9875 2460 05       		.uleb128 0x5
 9876 2461 03       		.byte	0x3
ARM GAS  C:\Users\310309~1\AppData\Local\Temp\ccu8WRKs.s 			page 205


 9877 2462 00000000 		.4byte	mySubSessions
 9878 2466 29       		.uleb128 0x29
 9879 2467 30010000 		.4byte	.LASF450
 9880 246b 11       		.byte	0x11
 9881 246c 27       		.byte	0x27
 9882 246d 34240000 		.4byte	0x2434
 9883 2471 05       		.uleb128 0x5
 9884 2472 03       		.byte	0x3
 9885 2473 00000000 		.4byte	myDeletedSessions
 9886 2477 29       		.uleb128 0x29
 9887 2478 7F2E0000 		.4byte	.LASF451
 9888 247c 11       		.byte	0x11
 9889 247d 28       		.byte	0x28
 9890 247e 77000000 		.4byte	0x77
 9891 2482 05       		.uleb128 0x5
 9892 2483 03       		.byte	0x3
 9893 2484 00000000 		.4byte	sessionCount
 9894 2488 29       		.uleb128 0x29
 9895 2489 CA250000 		.4byte	.LASF452
 9896 248d 11       		.byte	0x11
 9897 248e 29       		.byte	0x29
 9898 248f 77000000 		.4byte	0x77
 9899 2493 05       		.uleb128 0x5
 9900 2494 03       		.byte	0x3
 9901 2495 00000000 		.4byte	subsessionCount
 9902 2499 29       		.uleb128 0x29
 9903 249a F60E0000 		.4byte	.LASF453
 9904 249e 11       		.byte	0x11
 9905 249f 2A       		.byte	0x2a
 9906 24a0 77000000 		.4byte	0x77
 9907 24a4 05       		.uleb128 0x5
 9908 24a5 03       		.byte	0x3
 9909 24a6 00000000 		.4byte	totalSessionCount
 9910 24aa 29       		.uleb128 0x29
 9911 24ab 0A040000 		.4byte	.LASF454
 9912 24af 11       		.byte	0x11
 9913 24b0 2B       		.byte	0x2b
 9914 24b1 77000000 		.4byte	0x77
 9915 24b5 05       		.uleb128 0x5
 9916 24b6 03       		.byte	0x3
 9917 24b7 00000000 		.4byte	totalSubSessionCount
 9918 24bb 29       		.uleb128 0x29
 9919 24bc 00000000 		.4byte	.LASF455
 9920 24c0 11       		.byte	0x11
 9921 24c1 2C       		.byte	0x2c
 9922 24c2 77000000 		.4byte	0x77
 9923 24c6 05       		.uleb128 0x5
 9924 24c7 03       		.byte	0x3
 9925 24c8 00000000 		.4byte	totalDeletedSessions
 9926 24cc 29       		.uleb128 0x29
 9927 24cd B3080000 		.4byte	.LASF456
 9928 24d1 11       		.byte	0x11
 9929 24d2 2D       		.byte	0x2d
 9930 24d3 5D000000 		.4byte	0x5d
 9931 24d7 05       		.uleb128 0x5
 9932 24d8 03       		.byte	0x3
 9933 24d9 00000000 		.4byte	controlpointIndicate
ARM GAS  C:\Users\310309~1\AppData\Local\Temp\ccu8WRKs.s 			page 206


 9934 24dd 29       		.uleb128 0x29
 9935 24de DA250000 		.4byte	.LASF457
 9936 24e2 12       		.byte	0x12
 9937 24e3 21       		.byte	0x21
 9938 24e4 22110000 		.4byte	0x1122
 9939 24e8 05       		.uleb128 0x5
 9940 24e9 03       		.byte	0x3
 9941 24ea 00000000 		.4byte	CurrSession
 9942 24ee 29       		.uleb128 0x29
 9943 24ef 9A0A0000 		.4byte	.LASF458
 9944 24f3 12       		.byte	0x12
 9945 24f4 22       		.byte	0x22
 9946 24f5 5D000000 		.4byte	0x5d
 9947 24f9 05       		.uleb128 0x5
 9948 24fa 03       		.byte	0x3
 9949 24fb 00000000 		.4byte	currentsessionIndicate
 9950 24ff 29       		.uleb128 0x29
 9951 2500 16290000 		.4byte	.LASF459
 9952 2504 01       		.byte	0x1
 9953 2505 1C       		.byte	0x1c
 9954 2506 6B000000 		.4byte	0x6b
 9955 250a 05       		.uleb128 0x5
 9956 250b 03       		.byte	0x3
 9957 250c 00000000 		.4byte	isButtonPressed
 9958 2510 2A       		.uleb128 0x2a
 9959 2511 18280000 		.4byte	.LASF460
 9960 2515 18280000 		.4byte	.LASF460
 9961 2519 16       		.byte	0x16
 9962 251a 4701     		.2byte	0x147
 9963 251c 2B       		.uleb128 0x2b
 9964 251d D5190000 		.4byte	.LASF507
 9965 2521 E60D0000 		.4byte	.LASF508
 9966 2525 23       		.byte	0x23
 9967 2526 00       		.byte	0
 9968 2527 D5190000 		.4byte	.LASF507
 9969 252b 2C       		.uleb128 0x2c
 9970 252c A9190000 		.4byte	.LASF461
 9971 2530 A9190000 		.4byte	.LASF461
 9972 2534 0A       		.byte	0xa
 9973 2535 40       		.byte	0x40
 9974 2536 2C       		.uleb128 0x2c
 9975 2537 83240000 		.4byte	.LASF462
 9976 253b 83240000 		.4byte	.LASF462
 9977 253f 17       		.byte	0x17
 9978 2540 39       		.byte	0x39
 9979 2541 2C       		.uleb128 0x2c
 9980 2542 91200000 		.4byte	.LASF463
 9981 2546 91200000 		.4byte	.LASF463
 9982 254a 0B       		.byte	0xb
 9983 254b 5B       		.byte	0x5b
 9984 254c 2C       		.uleb128 0x2c
 9985 254d D8210000 		.4byte	.LASF464
 9986 2551 D8210000 		.4byte	.LASF464
 9987 2555 0C       		.byte	0xc
 9988 2556 32       		.byte	0x32
 9989 2557 2C       		.uleb128 0x2c
 9990 2558 64290000 		.4byte	.LASF465
ARM GAS  C:\Users\310309~1\AppData\Local\Temp\ccu8WRKs.s 			page 207


 9991 255c 64290000 		.4byte	.LASF465
 9992 2560 0D       		.byte	0xd
 9993 2561 44       		.byte	0x44
 9994 2562 2C       		.uleb128 0x2c
 9995 2563 A8200000 		.4byte	.LASF466
 9996 2567 A8200000 		.4byte	.LASF466
 9997 256b 0E       		.byte	0xe
 9998 256c 2E       		.byte	0x2e
 9999 256d 2C       		.uleb128 0x2c
 10000 256e C40D0000 		.4byte	.LASF467
 10001 2572 C40D0000 		.4byte	.LASF467
 10002 2576 0F       		.byte	0xf
 10003 2577 2E       		.byte	0x2e
 10004 2578 2C       		.uleb128 0x2c
 10005 2579 FA170000 		.4byte	.LASF468
 10006 257d FA170000 		.4byte	.LASF468
 10007 2581 10       		.byte	0x10
 10008 2582 3D       		.byte	0x3d
 10009 2583 2C       		.uleb128 0x2c
 10010 2584 76090000 		.4byte	.LASF469
 10011 2588 76090000 		.4byte	.LASF469
 10012 258c 18       		.byte	0x18
 10013 258d 6E       		.byte	0x6e
 10014 258e 2C       		.uleb128 0x2c
 10015 258f C2290000 		.4byte	.LASF470
 10016 2593 C2290000 		.4byte	.LASF470
 10017 2597 15       		.byte	0x15
 10018 2598 5A       		.byte	0x5a
 10019 2599 2D       		.uleb128 0x2d
 10020 259a F1040000 		.4byte	.LASF509
 10021 259e F1040000 		.4byte	.LASF509
 10022 25a2 2C       		.uleb128 0x2c
 10023 25a3 29150000 		.4byte	.LASF471
 10024 25a7 29150000 		.4byte	.LASF471
 10025 25ab 09       		.byte	0x9
 10026 25ac 26       		.byte	0x26
 10027 25ad 2C       		.uleb128 0x2c
 10028 25ae C7160000 		.4byte	.LASF472
 10029 25b2 C7160000 		.4byte	.LASF472
 10030 25b6 11       		.byte	0x11
 10031 25b7 30       		.byte	0x30
 10032 25b8 2C       		.uleb128 0x2c
 10033 25b9 62120000 		.4byte	.LASF473
 10034 25bd 62120000 		.4byte	.LASF473
 10035 25c1 11       		.byte	0x11
 10036 25c2 31       		.byte	0x31
 10037 25c3 2C       		.uleb128 0x2c
 10038 25c4 AC080000 		.4byte	.LASF474
 10039 25c8 AC080000 		.4byte	.LASF474
 10040 25cc 19       		.byte	0x19
 10041 25cd E7       		.byte	0xe7
 10042 25ce 2C       		.uleb128 0x2c
 10043 25cf E40A0000 		.4byte	.LASF475
 10044 25d3 E40A0000 		.4byte	.LASF475
 10045 25d7 1A       		.byte	0x1a
 10046 25d8 18       		.byte	0x18
 10047 25d9 2A       		.uleb128 0x2a
ARM GAS  C:\Users\310309~1\AppData\Local\Temp\ccu8WRKs.s 			page 208


 10048 25da 9F2B0000 		.4byte	.LASF476
 10049 25de 9F2B0000 		.4byte	.LASF476
 10050 25e2 16       		.byte	0x16
 10051 25e3 3201     		.2byte	0x132
 10052 25e5 2C       		.uleb128 0x2c
 10053 25e6 65000000 		.4byte	.LASF477
 10054 25ea 65000000 		.4byte	.LASF477
 10055 25ee 1B       		.byte	0x1b
 10056 25ef 18       		.byte	0x18
 10057 25f0 2A       		.uleb128 0x2a
 10058 25f1 05020000 		.4byte	.LASF478
 10059 25f5 05020000 		.4byte	.LASF478
 10060 25f9 13       		.byte	0x13
 10061 25fa 7202     		.2byte	0x272
 10062 25fc 2A       		.uleb128 0x2a
 10063 25fd 55300000 		.4byte	.LASF479
 10064 2601 55300000 		.4byte	.LASF479
 10065 2605 03       		.byte	0x3
 10066 2606 E107     		.2byte	0x7e1
 10067 2608 2A       		.uleb128 0x2a
 10068 2609 43060000 		.4byte	.LASF480
 10069 260d 43060000 		.4byte	.LASF480
 10070 2611 1C       		.byte	0x1c
 10071 2612 3C03     		.2byte	0x33c
 10072 2614 2A       		.uleb128 0x2a
 10073 2615 D4180000 		.4byte	.LASF481
 10074 2619 D4180000 		.4byte	.LASF481
 10075 261d 13       		.byte	0x13
 10076 261e 7602     		.2byte	0x276
 10077 2620 2C       		.uleb128 0x2c
 10078 2621 F8240000 		.4byte	.LASF482
 10079 2625 F8240000 		.4byte	.LASF482
 10080 2629 1D       		.byte	0x1d
 10081 262a BB       		.byte	0xbb
 10082 262b 2A       		.uleb128 0x2a
 10083 262c 8C210000 		.4byte	.LASF483
 10084 2630 8C210000 		.4byte	.LASF483
 10085 2634 03       		.byte	0x3
 10086 2635 AA07     		.2byte	0x7aa
 10087 2637 2C       		.uleb128 0x2c
 10088 2638 D21C0000 		.4byte	.LASF484
 10089 263c D21C0000 		.4byte	.LASF484
 10090 2640 1E       		.byte	0x1e
 10091 2641 93       		.byte	0x93
 10092 2642 2C       		.uleb128 0x2c
 10093 2643 B4200000 		.4byte	.LASF485
 10094 2647 B4200000 		.4byte	.LASF485
 10095 264b 1F       		.byte	0x1f
 10096 264c 33       		.byte	0x33
 10097 264d 2C       		.uleb128 0x2c
 10098 264e 9F2F0000 		.4byte	.LASF486
 10099 2652 9F2F0000 		.4byte	.LASF486
 10100 2656 20       		.byte	0x20
 10101 2657 33       		.byte	0x33
 10102 2658 2C       		.uleb128 0x2c
 10103 2659 BD160000 		.4byte	.LASF487
 10104 265d BD160000 		.4byte	.LASF487
ARM GAS  C:\Users\310309~1\AppData\Local\Temp\ccu8WRKs.s 			page 209


 10105 2661 1E       		.byte	0x1e
 10106 2662 92       		.byte	0x92
 10107 2663 2A       		.uleb128 0x2a
 10108 2664 AE0E0000 		.4byte	.LASF488
 10109 2668 AE0E0000 		.4byte	.LASF488
 10110 266c 13       		.byte	0x13
 10111 266d 8202     		.2byte	0x282
 10112 266f 2A       		.uleb128 0x2a
 10113 2670 300F0000 		.4byte	.LASF489
 10114 2674 300F0000 		.4byte	.LASF489
 10115 2678 03       		.byte	0x3
 10116 2679 2608     		.2byte	0x826
 10117 267b 2A       		.uleb128 0x2a
 10118 267c 8F160000 		.4byte	.LASF490
 10119 2680 8F160000 		.4byte	.LASF490
 10120 2684 06       		.byte	0x6
 10121 2685 4001     		.2byte	0x140
 10122 2687 2C       		.uleb128 0x2c
 10123 2688 D2060000 		.4byte	.LASF491
 10124 268c D2060000 		.4byte	.LASF491
 10125 2690 11       		.byte	0x11
 10126 2691 33       		.byte	0x33
 10127 2692 2C       		.uleb128 0x2c
 10128 2693 18060000 		.4byte	.LASF492
 10129 2697 18060000 		.4byte	.LASF492
 10130 269b 11       		.byte	0x11
 10131 269c 34       		.byte	0x34
 10132 269d 2A       		.uleb128 0x2a
 10133 269e AE040000 		.4byte	.LASF493
 10134 26a2 AE040000 		.4byte	.LASF493
 10135 26a6 21       		.byte	0x21
 10136 26a7 7E01     		.2byte	0x17e
 10137 26a9 2C       		.uleb128 0x2c
 10138 26aa 851B0000 		.4byte	.LASF494
 10139 26ae 851B0000 		.4byte	.LASF494
 10140 26b2 11       		.byte	0x11
 10141 26b3 37       		.byte	0x37
 10142 26b4 2C       		.uleb128 0x2c
 10143 26b5 70060000 		.4byte	.LASF495
 10144 26b9 70060000 		.4byte	.LASF495
 10145 26bd 11       		.byte	0x11
 10146 26be 32       		.byte	0x32
 10147 26bf 2C       		.uleb128 0x2c
 10148 26c0 551C0000 		.4byte	.LASF496
 10149 26c4 551C0000 		.4byte	.LASF496
 10150 26c8 12       		.byte	0x12
 10151 26c9 20       		.byte	0x20
 10152 26ca 2C       		.uleb128 0x2c
 10153 26cb 26290000 		.4byte	.LASF497
 10154 26cf 26290000 		.4byte	.LASF497
 10155 26d3 11       		.byte	0x11
 10156 26d4 35       		.byte	0x35
 10157 26d5 2C       		.uleb128 0x2c
 10158 26d6 E6080000 		.4byte	.LASF498
 10159 26da E6080000 		.4byte	.LASF498
 10160 26de 11       		.byte	0x11
 10161 26df 36       		.byte	0x36
ARM GAS  C:\Users\310309~1\AppData\Local\Temp\ccu8WRKs.s 			page 210


 10162 26e0 2A       		.uleb128 0x2a
 10163 26e1 5C260000 		.4byte	.LASF499
 10164 26e5 5C260000 		.4byte	.LASF499
 10165 26e9 06       		.byte	0x6
 10166 26ea C201     		.2byte	0x1c2
 10167 26ec 2C       		.uleb128 0x2c
 10168 26ed 60200000 		.4byte	.LASF500
 10169 26f1 60200000 		.4byte	.LASF500
 10170 26f5 22       		.byte	0x22
 10171 26f6 5F       		.byte	0x5f
 10172 26f7 2C       		.uleb128 0x2c
 10173 26f8 9F220000 		.4byte	.LASF501
 10174 26fc 9F220000 		.4byte	.LASF501
 10175 2700 22       		.byte	0x22
 10176 2701 5E       		.byte	0x5e
 10177 2702 00       		.byte	0
 10178              		.section	.debug_abbrev,"",%progbits
 10179              	.Ldebug_abbrev0:
 10180 0000 01       		.uleb128 0x1
 10181 0001 11       		.uleb128 0x11
 10182 0002 01       		.byte	0x1
 10183 0003 25       		.uleb128 0x25
 10184 0004 0E       		.uleb128 0xe
 10185 0005 13       		.uleb128 0x13
 10186 0006 0B       		.uleb128 0xb
 10187 0007 03       		.uleb128 0x3
 10188 0008 0E       		.uleb128 0xe
 10189 0009 1B       		.uleb128 0x1b
 10190 000a 0E       		.uleb128 0xe
 10191 000b 55       		.uleb128 0x55
 10192 000c 17       		.uleb128 0x17
 10193 000d 11       		.uleb128 0x11
 10194 000e 01       		.uleb128 0x1
 10195 000f 10       		.uleb128 0x10
 10196 0010 17       		.uleb128 0x17
 10197 0011 00       		.byte	0
 10198 0012 00       		.byte	0
 10199 0013 02       		.uleb128 0x2
 10200 0014 24       		.uleb128 0x24
 10201 0015 00       		.byte	0
 10202 0016 0B       		.uleb128 0xb
 10203 0017 0B       		.uleb128 0xb
 10204 0018 3E       		.uleb128 0x3e
 10205 0019 0B       		.uleb128 0xb
 10206 001a 03       		.uleb128 0x3
 10207 001b 0E       		.uleb128 0xe
 10208 001c 00       		.byte	0
 10209 001d 00       		.byte	0
 10210 001e 03       		.uleb128 0x3
 10211 001f 24       		.uleb128 0x24
 10212 0020 00       		.byte	0
 10213 0021 0B       		.uleb128 0xb
 10214 0022 0B       		.uleb128 0xb
 10215 0023 3E       		.uleb128 0x3e
 10216 0024 0B       		.uleb128 0xb
 10217 0025 03       		.uleb128 0x3
 10218 0026 08       		.uleb128 0x8
ARM GAS  C:\Users\310309~1\AppData\Local\Temp\ccu8WRKs.s 			page 211


 10219 0027 00       		.byte	0
 10220 0028 00       		.byte	0
 10221 0029 04       		.uleb128 0x4
 10222 002a 16       		.uleb128 0x16
 10223 002b 00       		.byte	0
 10224 002c 03       		.uleb128 0x3
 10225 002d 0E       		.uleb128 0xe
 10226 002e 3A       		.uleb128 0x3a
 10227 002f 0B       		.uleb128 0xb
 10228 0030 3B       		.uleb128 0x3b
 10229 0031 05       		.uleb128 0x5
 10230 0032 49       		.uleb128 0x49
 10231 0033 13       		.uleb128 0x13
 10232 0034 00       		.byte	0
 10233 0035 00       		.byte	0
 10234 0036 05       		.uleb128 0x5
 10235 0037 35       		.uleb128 0x35
 10236 0038 00       		.byte	0
 10237 0039 49       		.uleb128 0x49
 10238 003a 13       		.uleb128 0x13
 10239 003b 00       		.byte	0
 10240 003c 00       		.byte	0
 10241 003d 06       		.uleb128 0x6
 10242 003e 0F       		.uleb128 0xf
 10243 003f 00       		.byte	0
 10244 0040 0B       		.uleb128 0xb
 10245 0041 0B       		.uleb128 0xb
 10246 0042 00       		.byte	0
 10247 0043 00       		.byte	0
 10248 0044 07       		.uleb128 0x7
 10249 0045 04       		.uleb128 0x4
 10250 0046 01       		.byte	0x1
 10251 0047 0B       		.uleb128 0xb
 10252 0048 0B       		.uleb128 0xb
 10253 0049 49       		.uleb128 0x49
 10254 004a 13       		.uleb128 0x13
 10255 004b 3A       		.uleb128 0x3a
 10256 004c 0B       		.uleb128 0xb
 10257 004d 3B       		.uleb128 0x3b
 10258 004e 05       		.uleb128 0x5
 10259 004f 01       		.uleb128 0x1
 10260 0050 13       		.uleb128 0x13
 10261 0051 00       		.byte	0
 10262 0052 00       		.byte	0
 10263 0053 08       		.uleb128 0x8
 10264 0054 28       		.uleb128 0x28
 10265 0055 00       		.byte	0
 10266 0056 03       		.uleb128 0x3
 10267 0057 0E       		.uleb128 0xe
 10268 0058 1C       		.uleb128 0x1c
 10269 0059 0B       		.uleb128 0xb
 10270 005a 00       		.byte	0
 10271 005b 00       		.byte	0
 10272 005c 09       		.uleb128 0x9
 10273 005d 28       		.uleb128 0x28
 10274 005e 00       		.byte	0
 10275 005f 03       		.uleb128 0x3
ARM GAS  C:\Users\310309~1\AppData\Local\Temp\ccu8WRKs.s 			page 212


 10276 0060 0E       		.uleb128 0xe
 10277 0061 1C       		.uleb128 0x1c
 10278 0062 05       		.uleb128 0x5
 10279 0063 00       		.byte	0
 10280 0064 00       		.byte	0
 10281 0065 0A       		.uleb128 0xa
 10282 0066 13       		.uleb128 0x13
 10283 0067 01       		.byte	0x1
 10284 0068 0B       		.uleb128 0xb
 10285 0069 0B       		.uleb128 0xb
 10286 006a 3A       		.uleb128 0x3a
 10287 006b 0B       		.uleb128 0xb
 10288 006c 3B       		.uleb128 0x3b
 10289 006d 05       		.uleb128 0x5
 10290 006e 01       		.uleb128 0x1
 10291 006f 13       		.uleb128 0x13
 10292 0070 00       		.byte	0
 10293 0071 00       		.byte	0
 10294 0072 0B       		.uleb128 0xb
 10295 0073 0D       		.uleb128 0xd
 10296 0074 00       		.byte	0
 10297 0075 03       		.uleb128 0x3
 10298 0076 0E       		.uleb128 0xe
 10299 0077 3A       		.uleb128 0x3a
 10300 0078 0B       		.uleb128 0xb
 10301 0079 3B       		.uleb128 0x3b
 10302 007a 05       		.uleb128 0x5
 10303 007b 49       		.uleb128 0x49
 10304 007c 13       		.uleb128 0x13
 10305 007d 38       		.uleb128 0x38
 10306 007e 0B       		.uleb128 0xb
 10307 007f 00       		.byte	0
 10308 0080 00       		.byte	0
 10309 0081 0C       		.uleb128 0xc
 10310 0082 01       		.uleb128 0x1
 10311 0083 01       		.byte	0x1
 10312 0084 49       		.uleb128 0x49
 10313 0085 13       		.uleb128 0x13
 10314 0086 01       		.uleb128 0x1
 10315 0087 13       		.uleb128 0x13
 10316 0088 00       		.byte	0
 10317 0089 00       		.byte	0
 10318 008a 0D       		.uleb128 0xd
 10319 008b 21       		.uleb128 0x21
 10320 008c 00       		.byte	0
 10321 008d 49       		.uleb128 0x49
 10322 008e 13       		.uleb128 0x13
 10323 008f 2F       		.uleb128 0x2f
 10324 0090 0B       		.uleb128 0xb
 10325 0091 00       		.byte	0
 10326 0092 00       		.byte	0
 10327 0093 0E       		.uleb128 0xe
 10328 0094 0F       		.uleb128 0xf
 10329 0095 00       		.byte	0
 10330 0096 0B       		.uleb128 0xb
 10331 0097 0B       		.uleb128 0xb
 10332 0098 49       		.uleb128 0x49
ARM GAS  C:\Users\310309~1\AppData\Local\Temp\ccu8WRKs.s 			page 213


 10333 0099 13       		.uleb128 0x13
 10334 009a 00       		.byte	0
 10335 009b 00       		.byte	0
 10336 009c 0F       		.uleb128 0xf
 10337 009d 04       		.uleb128 0x4
 10338 009e 01       		.byte	0x1
 10339 009f 0B       		.uleb128 0xb
 10340 00a0 0B       		.uleb128 0xb
 10341 00a1 49       		.uleb128 0x49
 10342 00a2 13       		.uleb128 0x13
 10343 00a3 3A       		.uleb128 0x3a
 10344 00a4 0B       		.uleb128 0xb
 10345 00a5 3B       		.uleb128 0x3b
 10346 00a6 0B       		.uleb128 0xb
 10347 00a7 01       		.uleb128 0x1
 10348 00a8 13       		.uleb128 0x13
 10349 00a9 00       		.byte	0
 10350 00aa 00       		.byte	0
 10351 00ab 10       		.uleb128 0x10
 10352 00ac 0D       		.uleb128 0xd
 10353 00ad 00       		.byte	0
 10354 00ae 03       		.uleb128 0x3
 10355 00af 08       		.uleb128 0x8
 10356 00b0 3A       		.uleb128 0x3a
 10357 00b1 0B       		.uleb128 0xb
 10358 00b2 3B       		.uleb128 0x3b
 10359 00b3 05       		.uleb128 0x5
 10360 00b4 49       		.uleb128 0x49
 10361 00b5 13       		.uleb128 0x13
 10362 00b6 38       		.uleb128 0x38
 10363 00b7 0B       		.uleb128 0xb
 10364 00b8 00       		.byte	0
 10365 00b9 00       		.byte	0
 10366 00ba 11       		.uleb128 0x11
 10367 00bb 13       		.uleb128 0x13
 10368 00bc 01       		.byte	0x1
 10369 00bd 0B       		.uleb128 0xb
 10370 00be 0B       		.uleb128 0xb
 10371 00bf 3A       		.uleb128 0x3a
 10372 00c0 0B       		.uleb128 0xb
 10373 00c1 3B       		.uleb128 0x3b
 10374 00c2 0B       		.uleb128 0xb
 10375 00c3 01       		.uleb128 0x1
 10376 00c4 13       		.uleb128 0x13
 10377 00c5 00       		.byte	0
 10378 00c6 00       		.byte	0
 10379 00c7 12       		.uleb128 0x12
 10380 00c8 0D       		.uleb128 0xd
 10381 00c9 00       		.byte	0
 10382 00ca 03       		.uleb128 0x3
 10383 00cb 0E       		.uleb128 0xe
 10384 00cc 3A       		.uleb128 0x3a
 10385 00cd 0B       		.uleb128 0xb
 10386 00ce 3B       		.uleb128 0x3b
 10387 00cf 0B       		.uleb128 0xb
 10388 00d0 49       		.uleb128 0x49
 10389 00d1 13       		.uleb128 0x13
ARM GAS  C:\Users\310309~1\AppData\Local\Temp\ccu8WRKs.s 			page 214


 10390 00d2 38       		.uleb128 0x38
 10391 00d3 0B       		.uleb128 0xb
 10392 00d4 00       		.byte	0
 10393 00d5 00       		.byte	0
 10394 00d6 13       		.uleb128 0x13
 10395 00d7 16       		.uleb128 0x16
 10396 00d8 00       		.byte	0
 10397 00d9 03       		.uleb128 0x3
 10398 00da 0E       		.uleb128 0xe
 10399 00db 3A       		.uleb128 0x3a
 10400 00dc 0B       		.uleb128 0xb
 10401 00dd 3B       		.uleb128 0x3b
 10402 00de 0B       		.uleb128 0xb
 10403 00df 49       		.uleb128 0x49
 10404 00e0 13       		.uleb128 0x13
 10405 00e1 00       		.byte	0
 10406 00e2 00       		.byte	0
 10407 00e3 14       		.uleb128 0x14
 10408 00e4 2E       		.uleb128 0x2e
 10409 00e5 01       		.byte	0x1
 10410 00e6 3F       		.uleb128 0x3f
 10411 00e7 19       		.uleb128 0x19
 10412 00e8 03       		.uleb128 0x3
 10413 00e9 0E       		.uleb128 0xe
 10414 00ea 3A       		.uleb128 0x3a
 10415 00eb 0B       		.uleb128 0xb
 10416 00ec 3B       		.uleb128 0x3b
 10417 00ed 0B       		.uleb128 0xb
 10418 00ee 27       		.uleb128 0x27
 10419 00ef 19       		.uleb128 0x19
 10420 00f0 11       		.uleb128 0x11
 10421 00f1 01       		.uleb128 0x1
 10422 00f2 12       		.uleb128 0x12
 10423 00f3 06       		.uleb128 0x6
 10424 00f4 40       		.uleb128 0x40
 10425 00f5 18       		.uleb128 0x18
 10426 00f6 9742     		.uleb128 0x2117
 10427 00f8 19       		.uleb128 0x19
 10428 00f9 01       		.uleb128 0x1
 10429 00fa 13       		.uleb128 0x13
 10430 00fb 00       		.byte	0
 10431 00fc 00       		.byte	0
 10432 00fd 15       		.uleb128 0x15
 10433 00fe 898201   		.uleb128 0x4109
 10434 0101 01       		.byte	0x1
 10435 0102 11       		.uleb128 0x11
 10436 0103 01       		.uleb128 0x1
 10437 0104 31       		.uleb128 0x31
 10438 0105 13       		.uleb128 0x13
 10439 0106 00       		.byte	0
 10440 0107 00       		.byte	0
 10441 0108 16       		.uleb128 0x16
 10442 0109 8A8201   		.uleb128 0x410a
 10443 010c 00       		.byte	0
 10444 010d 02       		.uleb128 0x2
 10445 010e 18       		.uleb128 0x18
 10446 010f 9142     		.uleb128 0x2111
ARM GAS  C:\Users\310309~1\AppData\Local\Temp\ccu8WRKs.s 			page 215


 10447 0111 18       		.uleb128 0x18
 10448 0112 00       		.byte	0
 10449 0113 00       		.byte	0
 10450 0114 17       		.uleb128 0x17
 10451 0115 898201   		.uleb128 0x4109
 10452 0118 01       		.byte	0x1
 10453 0119 11       		.uleb128 0x11
 10454 011a 01       		.uleb128 0x1
 10455 011b 31       		.uleb128 0x31
 10456 011c 13       		.uleb128 0x13
 10457 011d 01       		.uleb128 0x1
 10458 011e 13       		.uleb128 0x13
 10459 011f 00       		.byte	0
 10460 0120 00       		.byte	0
 10461 0121 18       		.uleb128 0x18
 10462 0122 898201   		.uleb128 0x4109
 10463 0125 00       		.byte	0
 10464 0126 11       		.uleb128 0x11
 10465 0127 01       		.uleb128 0x1
 10466 0128 31       		.uleb128 0x31
 10467 0129 13       		.uleb128 0x13
 10468 012a 00       		.byte	0
 10469 012b 00       		.byte	0
 10470 012c 19       		.uleb128 0x19
 10471 012d 2E       		.uleb128 0x2e
 10472 012e 01       		.byte	0x1
 10473 012f 3F       		.uleb128 0x3f
 10474 0130 19       		.uleb128 0x19
 10475 0131 03       		.uleb128 0x3
 10476 0132 0E       		.uleb128 0xe
 10477 0133 3A       		.uleb128 0x3a
 10478 0134 0B       		.uleb128 0xb
 10479 0135 3B       		.uleb128 0x3b
 10480 0136 05       		.uleb128 0x5
 10481 0137 27       		.uleb128 0x27
 10482 0138 19       		.uleb128 0x19
 10483 0139 49       		.uleb128 0x49
 10484 013a 13       		.uleb128 0x13
 10485 013b 11       		.uleb128 0x11
 10486 013c 01       		.uleb128 0x1
 10487 013d 12       		.uleb128 0x12
 10488 013e 06       		.uleb128 0x6
 10489 013f 40       		.uleb128 0x40
 10490 0140 18       		.uleb128 0x18
 10491 0141 9742     		.uleb128 0x2117
 10492 0143 19       		.uleb128 0x19
 10493 0144 01       		.uleb128 0x1
 10494 0145 13       		.uleb128 0x13
 10495 0146 00       		.byte	0
 10496 0147 00       		.byte	0
 10497 0148 1A       		.uleb128 0x1a
 10498 0149 05       		.uleb128 0x5
 10499 014a 00       		.byte	0
 10500 014b 03       		.uleb128 0x3
 10501 014c 0E       		.uleb128 0xe
 10502 014d 3A       		.uleb128 0x3a
 10503 014e 0B       		.uleb128 0xb
ARM GAS  C:\Users\310309~1\AppData\Local\Temp\ccu8WRKs.s 			page 216


 10504 014f 3B       		.uleb128 0x3b
 10505 0150 05       		.uleb128 0x5
 10506 0151 49       		.uleb128 0x49
 10507 0152 13       		.uleb128 0x13
 10508 0153 02       		.uleb128 0x2
 10509 0154 17       		.uleb128 0x17
 10510 0155 00       		.byte	0
 10511 0156 00       		.byte	0
 10512 0157 1B       		.uleb128 0x1b
 10513 0158 34       		.uleb128 0x34
 10514 0159 00       		.byte	0
 10515 015a 03       		.uleb128 0x3
 10516 015b 0E       		.uleb128 0xe
 10517 015c 3A       		.uleb128 0x3a
 10518 015d 0B       		.uleb128 0xb
 10519 015e 3B       		.uleb128 0x3b
 10520 015f 05       		.uleb128 0x5
 10521 0160 49       		.uleb128 0x49
 10522 0161 13       		.uleb128 0x13
 10523 0162 02       		.uleb128 0x2
 10524 0163 17       		.uleb128 0x17
 10525 0164 00       		.byte	0
 10526 0165 00       		.byte	0
 10527 0166 1C       		.uleb128 0x1c
 10528 0167 2E       		.uleb128 0x2e
 10529 0168 01       		.byte	0x1
 10530 0169 3F       		.uleb128 0x3f
 10531 016a 19       		.uleb128 0x19
 10532 016b 03       		.uleb128 0x3
 10533 016c 0E       		.uleb128 0xe
 10534 016d 3A       		.uleb128 0x3a
 10535 016e 0B       		.uleb128 0xb
 10536 016f 3B       		.uleb128 0x3b
 10537 0170 05       		.uleb128 0x5
 10538 0171 27       		.uleb128 0x27
 10539 0172 19       		.uleb128 0x19
 10540 0173 11       		.uleb128 0x11
 10541 0174 01       		.uleb128 0x1
 10542 0175 12       		.uleb128 0x12
 10543 0176 06       		.uleb128 0x6
 10544 0177 40       		.uleb128 0x40
 10545 0178 18       		.uleb128 0x18
 10546 0179 9742     		.uleb128 0x2117
 10547 017b 19       		.uleb128 0x19
 10548 017c 01       		.uleb128 0x1
 10549 017d 13       		.uleb128 0x13
 10550 017e 00       		.byte	0
 10551 017f 00       		.byte	0
 10552 0180 1D       		.uleb128 0x1d
 10553 0181 2E       		.uleb128 0x2e
 10554 0182 01       		.byte	0x1
 10555 0183 3F       		.uleb128 0x3f
 10556 0184 19       		.uleb128 0x19
 10557 0185 03       		.uleb128 0x3
 10558 0186 0E       		.uleb128 0xe
 10559 0187 3A       		.uleb128 0x3a
 10560 0188 0B       		.uleb128 0xb
ARM GAS  C:\Users\310309~1\AppData\Local\Temp\ccu8WRKs.s 			page 217


 10561 0189 3B       		.uleb128 0x3b
 10562 018a 05       		.uleb128 0x5
 10563 018b 27       		.uleb128 0x27
 10564 018c 19       		.uleb128 0x19
 10565 018d 49       		.uleb128 0x49
 10566 018e 13       		.uleb128 0x13
 10567 018f 8701     		.uleb128 0x87
 10568 0191 19       		.uleb128 0x19
 10569 0192 11       		.uleb128 0x11
 10570 0193 01       		.uleb128 0x1
 10571 0194 12       		.uleb128 0x12
 10572 0195 06       		.uleb128 0x6
 10573 0196 40       		.uleb128 0x40
 10574 0197 18       		.uleb128 0x18
 10575 0198 9742     		.uleb128 0x2117
 10576 019a 19       		.uleb128 0x19
 10577 019b 01       		.uleb128 0x1
 10578 019c 13       		.uleb128 0x13
 10579 019d 00       		.byte	0
 10580 019e 00       		.byte	0
 10581 019f 1E       		.uleb128 0x1e
 10582 01a0 0B       		.uleb128 0xb
 10583 01a1 01       		.byte	0x1
 10584 01a2 55       		.uleb128 0x55
 10585 01a3 17       		.uleb128 0x17
 10586 01a4 01       		.uleb128 0x1
 10587 01a5 13       		.uleb128 0x13
 10588 01a6 00       		.byte	0
 10589 01a7 00       		.byte	0
 10590 01a8 1F       		.uleb128 0x1f
 10591 01a9 34       		.uleb128 0x34
 10592 01aa 00       		.byte	0
 10593 01ab 03       		.uleb128 0x3
 10594 01ac 08       		.uleb128 0x8
 10595 01ad 3A       		.uleb128 0x3a
 10596 01ae 0B       		.uleb128 0xb
 10597 01af 3B       		.uleb128 0x3b
 10598 01b0 05       		.uleb128 0x5
 10599 01b1 49       		.uleb128 0x49
 10600 01b2 13       		.uleb128 0x13
 10601 01b3 02       		.uleb128 0x2
 10602 01b4 17       		.uleb128 0x17
 10603 01b5 00       		.byte	0
 10604 01b6 00       		.byte	0
 10605 01b7 20       		.uleb128 0x20
 10606 01b8 0B       		.uleb128 0xb
 10607 01b9 01       		.byte	0x1
 10608 01ba 11       		.uleb128 0x11
 10609 01bb 01       		.uleb128 0x1
 10610 01bc 12       		.uleb128 0x12
 10611 01bd 06       		.uleb128 0x6
 10612 01be 01       		.uleb128 0x1
 10613 01bf 13       		.uleb128 0x13
 10614 01c0 00       		.byte	0
 10615 01c1 00       		.byte	0
 10616 01c2 21       		.uleb128 0x21
 10617 01c3 0B       		.uleb128 0xb
ARM GAS  C:\Users\310309~1\AppData\Local\Temp\ccu8WRKs.s 			page 218


 10618 01c4 01       		.byte	0x1
 10619 01c5 11       		.uleb128 0x11
 10620 01c6 01       		.uleb128 0x1
 10621 01c7 12       		.uleb128 0x12
 10622 01c8 06       		.uleb128 0x6
 10623 01c9 00       		.byte	0
 10624 01ca 00       		.byte	0
 10625 01cb 22       		.uleb128 0x22
 10626 01cc 34       		.uleb128 0x34
 10627 01cd 00       		.byte	0
 10628 01ce 03       		.uleb128 0x3
 10629 01cf 0E       		.uleb128 0xe
 10630 01d0 3A       		.uleb128 0x3a
 10631 01d1 0B       		.uleb128 0xb
 10632 01d2 3B       		.uleb128 0x3b
 10633 01d3 05       		.uleb128 0x5
 10634 01d4 49       		.uleb128 0x49
 10635 01d5 13       		.uleb128 0x13
 10636 01d6 02       		.uleb128 0x2
 10637 01d7 18       		.uleb128 0x18
 10638 01d8 00       		.byte	0
 10639 01d9 00       		.byte	0
 10640 01da 23       		.uleb128 0x23
 10641 01db 05       		.uleb128 0x5
 10642 01dc 00       		.byte	0
 10643 01dd 03       		.uleb128 0x3
 10644 01de 0E       		.uleb128 0xe
 10645 01df 3A       		.uleb128 0x3a
 10646 01e0 0B       		.uleb128 0xb
 10647 01e1 3B       		.uleb128 0x3b
 10648 01e2 0B       		.uleb128 0xb
 10649 01e3 49       		.uleb128 0x49
 10650 01e4 13       		.uleb128 0x13
 10651 01e5 02       		.uleb128 0x2
 10652 01e6 17       		.uleb128 0x17
 10653 01e7 00       		.byte	0
 10654 01e8 00       		.byte	0
 10655 01e9 24       		.uleb128 0x24
 10656 01ea 34       		.uleb128 0x34
 10657 01eb 00       		.byte	0
 10658 01ec 03       		.uleb128 0x3
 10659 01ed 0E       		.uleb128 0xe
 10660 01ee 3A       		.uleb128 0x3a
 10661 01ef 0B       		.uleb128 0xb
 10662 01f0 3B       		.uleb128 0x3b
 10663 01f1 0B       		.uleb128 0xb
 10664 01f2 49       		.uleb128 0x49
 10665 01f3 13       		.uleb128 0x13
 10666 01f4 02       		.uleb128 0x2
 10667 01f5 17       		.uleb128 0x17
 10668 01f6 00       		.byte	0
 10669 01f7 00       		.byte	0
 10670 01f8 25       		.uleb128 0x25
 10671 01f9 34       		.uleb128 0x34
 10672 01fa 00       		.byte	0
 10673 01fb 03       		.uleb128 0x3
 10674 01fc 0E       		.uleb128 0xe
ARM GAS  C:\Users\310309~1\AppData\Local\Temp\ccu8WRKs.s 			page 219


 10675 01fd 3A       		.uleb128 0x3a
 10676 01fe 0B       		.uleb128 0xb
 10677 01ff 3B       		.uleb128 0x3b
 10678 0200 0B       		.uleb128 0xb
 10679 0201 49       		.uleb128 0x49
 10680 0202 13       		.uleb128 0x13
 10681 0203 02       		.uleb128 0x2
 10682 0204 18       		.uleb128 0x18
 10683 0205 00       		.byte	0
 10684 0206 00       		.byte	0
 10685 0207 26       		.uleb128 0x26
 10686 0208 34       		.uleb128 0x34
 10687 0209 00       		.byte	0
 10688 020a 03       		.uleb128 0x3
 10689 020b 08       		.uleb128 0x8
 10690 020c 3A       		.uleb128 0x3a
 10691 020d 0B       		.uleb128 0xb
 10692 020e 3B       		.uleb128 0x3b
 10693 020f 0B       		.uleb128 0xb
 10694 0210 49       		.uleb128 0x49
 10695 0211 13       		.uleb128 0x13
 10696 0212 02       		.uleb128 0x2
 10697 0213 17       		.uleb128 0x17
 10698 0214 00       		.byte	0
 10699 0215 00       		.byte	0
 10700 0216 27       		.uleb128 0x27
 10701 0217 34       		.uleb128 0x34
 10702 0218 00       		.byte	0
 10703 0219 03       		.uleb128 0x3
 10704 021a 08       		.uleb128 0x8
 10705 021b 3A       		.uleb128 0x3a
 10706 021c 0B       		.uleb128 0xb
 10707 021d 3B       		.uleb128 0x3b
 10708 021e 05       		.uleb128 0x5
 10709 021f 49       		.uleb128 0x49
 10710 0220 13       		.uleb128 0x13
 10711 0221 02       		.uleb128 0x2
 10712 0222 18       		.uleb128 0x18
 10713 0223 00       		.byte	0
 10714 0224 00       		.byte	0
 10715 0225 28       		.uleb128 0x28
 10716 0226 34       		.uleb128 0x34
 10717 0227 00       		.byte	0
 10718 0228 03       		.uleb128 0x3
 10719 0229 0E       		.uleb128 0xe
 10720 022a 3A       		.uleb128 0x3a
 10721 022b 0B       		.uleb128 0xb
 10722 022c 3B       		.uleb128 0x3b
 10723 022d 05       		.uleb128 0x5
 10724 022e 49       		.uleb128 0x49
 10725 022f 13       		.uleb128 0x13
 10726 0230 3F       		.uleb128 0x3f
 10727 0231 19       		.uleb128 0x19
 10728 0232 3C       		.uleb128 0x3c
 10729 0233 19       		.uleb128 0x19
 10730 0234 00       		.byte	0
 10731 0235 00       		.byte	0
ARM GAS  C:\Users\310309~1\AppData\Local\Temp\ccu8WRKs.s 			page 220


 10732 0236 29       		.uleb128 0x29
 10733 0237 34       		.uleb128 0x34
 10734 0238 00       		.byte	0
 10735 0239 03       		.uleb128 0x3
 10736 023a 0E       		.uleb128 0xe
 10737 023b 3A       		.uleb128 0x3a
 10738 023c 0B       		.uleb128 0xb
 10739 023d 3B       		.uleb128 0x3b
 10740 023e 0B       		.uleb128 0xb
 10741 023f 49       		.uleb128 0x49
 10742 0240 13       		.uleb128 0x13
 10743 0241 3F       		.uleb128 0x3f
 10744 0242 19       		.uleb128 0x19
 10745 0243 02       		.uleb128 0x2
 10746 0244 18       		.uleb128 0x18
 10747 0245 00       		.byte	0
 10748 0246 00       		.byte	0
 10749 0247 2A       		.uleb128 0x2a
 10750 0248 2E       		.uleb128 0x2e
 10751 0249 00       		.byte	0
 10752 024a 3F       		.uleb128 0x3f
 10753 024b 19       		.uleb128 0x19
 10754 024c 3C       		.uleb128 0x3c
 10755 024d 19       		.uleb128 0x19
 10756 024e 6E       		.uleb128 0x6e
 10757 024f 0E       		.uleb128 0xe
 10758 0250 03       		.uleb128 0x3
 10759 0251 0E       		.uleb128 0xe
 10760 0252 3A       		.uleb128 0x3a
 10761 0253 0B       		.uleb128 0xb
 10762 0254 3B       		.uleb128 0x3b
 10763 0255 05       		.uleb128 0x5
 10764 0256 00       		.byte	0
 10765 0257 00       		.byte	0
 10766 0258 2B       		.uleb128 0x2b
 10767 0259 2E       		.uleb128 0x2e
 10768 025a 00       		.byte	0
 10769 025b 3F       		.uleb128 0x3f
 10770 025c 19       		.uleb128 0x19
 10771 025d 3C       		.uleb128 0x3c
 10772 025e 19       		.uleb128 0x19
 10773 025f 6E       		.uleb128 0x6e
 10774 0260 0E       		.uleb128 0xe
 10775 0261 03       		.uleb128 0x3
 10776 0262 0E       		.uleb128 0xe
 10777 0263 3A       		.uleb128 0x3a
 10778 0264 0B       		.uleb128 0xb
 10779 0265 3B       		.uleb128 0x3b
 10780 0266 0B       		.uleb128 0xb
 10781 0267 6E       		.uleb128 0x6e
 10782 0268 0E       		.uleb128 0xe
 10783 0269 00       		.byte	0
 10784 026a 00       		.byte	0
 10785 026b 2C       		.uleb128 0x2c
 10786 026c 2E       		.uleb128 0x2e
 10787 026d 00       		.byte	0
 10788 026e 3F       		.uleb128 0x3f
ARM GAS  C:\Users\310309~1\AppData\Local\Temp\ccu8WRKs.s 			page 221


 10789 026f 19       		.uleb128 0x19
 10790 0270 3C       		.uleb128 0x3c
 10791 0271 19       		.uleb128 0x19
 10792 0272 6E       		.uleb128 0x6e
 10793 0273 0E       		.uleb128 0xe
 10794 0274 03       		.uleb128 0x3
 10795 0275 0E       		.uleb128 0xe
 10796 0276 3A       		.uleb128 0x3a
 10797 0277 0B       		.uleb128 0xb
 10798 0278 3B       		.uleb128 0x3b
 10799 0279 0B       		.uleb128 0xb
 10800 027a 00       		.byte	0
 10801 027b 00       		.byte	0
 10802 027c 2D       		.uleb128 0x2d
 10803 027d 2E       		.uleb128 0x2e
 10804 027e 00       		.byte	0
 10805 027f 3F       		.uleb128 0x3f
 10806 0280 19       		.uleb128 0x19
 10807 0281 3C       		.uleb128 0x3c
 10808 0282 19       		.uleb128 0x19
 10809 0283 6E       		.uleb128 0x6e
 10810 0284 0E       		.uleb128 0xe
 10811 0285 03       		.uleb128 0x3
 10812 0286 0E       		.uleb128 0xe
 10813 0287 00       		.byte	0
 10814 0288 00       		.byte	0
 10815 0289 00       		.byte	0
 10816              		.section	.debug_loc,"",%progbits
 10817              	.Ldebug_loc0:
 10818              	.LLST0:
 10819 0000 00000000 		.4byte	.LVL4
 10820 0004 660D0000 		.4byte	.LVL5
 10821 0008 0100     		.2byte	0x1
 10822 000a 50       		.byte	0x50
 10823 000b 660D0000 		.4byte	.LVL5
 10824 000f C80D0000 		.4byte	.LFE40
 10825 0013 0400     		.2byte	0x4
 10826 0015 F3       		.byte	0xf3
 10827 0016 01       		.uleb128 0x1
 10828 0017 50       		.byte	0x50
 10829 0018 9F       		.byte	0x9f
 10830 0019 00000000 		.4byte	0
 10831 001d 00000000 		.4byte	0
 10832              	.LLST1:
 10833 0021 00000000 		.4byte	.LVL4
 10834 0025 680D0000 		.4byte	.LVL6
 10835 0029 0100     		.2byte	0x1
 10836 002b 51       		.byte	0x51
 10837 002c 680D0000 		.4byte	.LVL6
 10838 0030 C80D0000 		.4byte	.LFE40
 10839 0034 0400     		.2byte	0x4
 10840 0036 F3       		.byte	0xf3
 10841 0037 01       		.uleb128 0x1
 10842 0038 51       		.byte	0x51
 10843 0039 9F       		.byte	0x9f
 10844 003a 00000000 		.4byte	0
 10845 003e 00000000 		.4byte	0
ARM GAS  C:\Users\310309~1\AppData\Local\Temp\ccu8WRKs.s 			page 222


 10846              	.LLST2:
 10847 0042 740D0000 		.4byte	.LVL7
 10848 0046 880D0000 		.4byte	.LVL8
 10849 004a 0200     		.2byte	0x2
 10850 004c 30       		.byte	0x30
 10851 004d 9F       		.byte	0x9f
 10852 004e 880D0000 		.4byte	.LVL8
 10853 0052 8C0D0000 		.4byte	.LVL9
 10854 0056 0200     		.2byte	0x2
 10855 0058 31       		.byte	0x31
 10856 0059 9F       		.byte	0x9f
 10857 005a 8C0D0000 		.4byte	.LVL9
 10858 005e 900D0000 		.4byte	.LVL10
 10859 0062 0200     		.2byte	0x2
 10860 0064 30       		.byte	0x30
 10861 0065 9F       		.byte	0x9f
 10862 0066 900D0000 		.4byte	.LVL10
 10863 006a 940D0000 		.4byte	.LVL11
 10864 006e 0200     		.2byte	0x2
 10865 0070 31       		.byte	0x31
 10866 0071 9F       		.byte	0x9f
 10867 0072 940D0000 		.4byte	.LVL11
 10868 0076 980D0000 		.4byte	.LVL12
 10869 007a 0200     		.2byte	0x2
 10870 007c 30       		.byte	0x30
 10871 007d 9F       		.byte	0x9f
 10872 007e 980D0000 		.4byte	.LVL12
 10873 0082 9C0D0000 		.4byte	.LVL13
 10874 0086 0200     		.2byte	0x2
 10875 0088 31       		.byte	0x31
 10876 0089 9F       		.byte	0x9f
 10877 008a 9C0D0000 		.4byte	.LVL13
 10878 008e A00D0000 		.4byte	.LVL14
 10879 0092 0200     		.2byte	0x2
 10880 0094 30       		.byte	0x30
 10881 0095 9F       		.byte	0x9f
 10882 0096 A00D0000 		.4byte	.LVL14
 10883 009a A40D0000 		.4byte	.LVL15
 10884 009e 0200     		.2byte	0x2
 10885 00a0 31       		.byte	0x31
 10886 00a1 9F       		.byte	0x9f
 10887 00a2 A40D0000 		.4byte	.LVL15
 10888 00a6 A80D0000 		.4byte	.LVL16
 10889 00aa 0200     		.2byte	0x2
 10890 00ac 30       		.byte	0x30
 10891 00ad 9F       		.byte	0x9f
 10892 00ae A80D0000 		.4byte	.LVL16
 10893 00b2 AC0D0000 		.4byte	.LVL17
 10894 00b6 0200     		.2byte	0x2
 10895 00b8 31       		.byte	0x31
 10896 00b9 9F       		.byte	0x9f
 10897 00ba AC0D0000 		.4byte	.LVL17
 10898 00be B00D0000 		.4byte	.LVL18
 10899 00c2 0200     		.2byte	0x2
 10900 00c4 30       		.byte	0x30
 10901 00c5 9F       		.byte	0x9f
 10902 00c6 B00D0000 		.4byte	.LVL18
ARM GAS  C:\Users\310309~1\AppData\Local\Temp\ccu8WRKs.s 			page 223


 10903 00ca B40D0000 		.4byte	.LVL19
 10904 00ce 0200     		.2byte	0x2
 10905 00d0 31       		.byte	0x31
 10906 00d1 9F       		.byte	0x9f
 10907 00d2 B40D0000 		.4byte	.LVL19
 10908 00d6 B80D0000 		.4byte	.LVL20
 10909 00da 0200     		.2byte	0x2
 10910 00dc 30       		.byte	0x30
 10911 00dd 9F       		.byte	0x9f
 10912 00de B80D0000 		.4byte	.LVL20
 10913 00e2 BC0D0000 		.4byte	.LVL21
 10914 00e6 0200     		.2byte	0x2
 10915 00e8 31       		.byte	0x31
 10916 00e9 9F       		.byte	0x9f
 10917 00ea BC0D0000 		.4byte	.LVL21
 10918 00ee BE0D0000 		.4byte	.LVL22
 10919 00f2 0200     		.2byte	0x2
 10920 00f4 30       		.byte	0x30
 10921 00f5 9F       		.byte	0x9f
 10922 00f6 BE0D0000 		.4byte	.LVL22
 10923 00fa C80D0000 		.4byte	.LFE40
 10924 00fe 0100     		.2byte	0x1
 10925 0100 50       		.byte	0x50
 10926 0101 00000000 		.4byte	0
 10927 0105 00000000 		.4byte	0
 10928              	.LLST3:
 10929 0109 2C000000 		.4byte	.LVL35
 10930 010d 82000000 		.4byte	.LVL42
 10931 0111 0200     		.2byte	0x2
 10932 0113 30       		.byte	0x30
 10933 0114 9F       		.byte	0x9f
 10934 0115 82000000 		.4byte	.LVL42
 10935 0119 8E000000 		.4byte	.LVL43
 10936 011d 0100     		.2byte	0x1
 10937 011f 50       		.byte	0x50
 10938 0120 06010000 		.4byte	.LVL45
 10939 0124 0A010000 		.4byte	.LVL47
 10940 0128 0100     		.2byte	0x1
 10941 012a 50       		.byte	0x50
 10942 012b 0A010000 		.4byte	.LVL47
 10943 012f 0E010000 		.4byte	.LVL48
 10944 0133 0200     		.2byte	0x2
 10945 0135 30       		.byte	0x30
 10946 0136 9F       		.byte	0x9f
 10947 0137 0E010000 		.4byte	.LVL48
 10948 013b 1E010000 		.4byte	.LVL49
 10949 013f 0100     		.2byte	0x1
 10950 0141 50       		.byte	0x50
 10951 0142 24010000 		.4byte	.LVL51
 10952 0146 26010000 		.4byte	.LVL52
 10953 014a 0100     		.2byte	0x1
 10954 014c 50       		.byte	0x50
 10955 014d 30010000 		.4byte	.LVL54
 10956 0151 3A010000 		.4byte	.LVL55
 10957 0155 0200     		.2byte	0x2
 10958 0157 30       		.byte	0x30
 10959 0158 9F       		.byte	0x9f
ARM GAS  C:\Users\310309~1\AppData\Local\Temp\ccu8WRKs.s 			page 224


 10960 0159 3A010000 		.4byte	.LVL55
 10961 015d 62010000 		.4byte	.LVL56
 10962 0161 0100     		.2byte	0x1
 10963 0163 50       		.byte	0x50
 10964 0164 DA010000 		.4byte	.LVL58
 10965 0168 E2010000 		.4byte	.LVL62
 10966 016c 0100     		.2byte	0x1
 10967 016e 50       		.byte	0x50
 10968 016f E2010000 		.4byte	.LVL62
 10969 0173 E8010000 		.4byte	.LVL63
 10970 0177 0200     		.2byte	0x2
 10971 0179 30       		.byte	0x30
 10972 017a 9F       		.byte	0x9f
 10973 017b E8010000 		.4byte	.LVL63
 10974 017f F8010000 		.4byte	.LVL64
 10975 0183 0100     		.2byte	0x1
 10976 0185 50       		.byte	0x50
 10977 0186 FE010000 		.4byte	.LVL66
 10978 018a 02020000 		.4byte	.LVL67
 10979 018e 0100     		.2byte	0x1
 10980 0190 50       		.byte	0x50
 10981 0191 0C020000 		.4byte	.LVL69
 10982 0195 A4030000 		.4byte	.LFE39
 10983 0199 0200     		.2byte	0x2
 10984 019b 30       		.byte	0x30
 10985 019c 9F       		.byte	0x9f
 10986 019d 00000000 		.4byte	0
 10987 01a1 00000000 		.4byte	0
 10988              	.LLST4:
 10989 01a5 82000000 		.4byte	.LVL42
 10990 01a9 0A010000 		.4byte	.LVL47
 10991 01ad 0100     		.2byte	0x1
 10992 01af 56       		.byte	0x56
 10993 01b0 0E010000 		.4byte	.LVL48
 10994 01b4 30010000 		.4byte	.LVL54
 10995 01b8 0100     		.2byte	0x1
 10996 01ba 56       		.byte	0x56
 10997 01bb 00000000 		.4byte	0
 10998 01bf 00000000 		.4byte	0
 10999              	.LLST5:
 11000 01c3 3A010000 		.4byte	.LVL55
 11001 01c7 DC010000 		.4byte	.LVL59
 11002 01cb 0100     		.2byte	0x1
 11003 01cd 55       		.byte	0x55
 11004 01ce DE010000 		.4byte	.LVL60
 11005 01d2 E2010000 		.4byte	.LVL62
 11006 01d6 0100     		.2byte	0x1
 11007 01d8 55       		.byte	0x55
 11008 01d9 E8010000 		.4byte	.LVL63
 11009 01dd 0C020000 		.4byte	.LVL69
 11010 01e1 0100     		.2byte	0x1
 11011 01e3 55       		.byte	0x55
 11012 01e4 00000000 		.4byte	0
 11013 01e8 00000000 		.4byte	0
 11014              	.LLST6:
 11015 01ec 3A010000 		.4byte	.LVL55
 11016 01f0 E2010000 		.4byte	.LVL62
ARM GAS  C:\Users\310309~1\AppData\Local\Temp\ccu8WRKs.s 			page 225


 11017 01f4 0100     		.2byte	0x1
 11018 01f6 54       		.byte	0x54
 11019 01f7 E8010000 		.4byte	.LVL63
 11020 01fb 0C020000 		.4byte	.LVL69
 11021 01ff 0100     		.2byte	0x1
 11022 0201 54       		.byte	0x54
 11023 0202 00000000 		.4byte	0
 11024 0206 00000000 		.4byte	0
 11025              	.LLST7:
 11026 020a 16020000 		.4byte	.LVL70
 11027 020e 9C020000 		.4byte	.LVL73
 11028 0212 0100     		.2byte	0x1
 11029 0214 55       		.byte	0x55
 11030 0215 9C020000 		.4byte	.LVL73
 11031 0219 B6020000 		.4byte	.LVL75
 11032 021d 0300     		.2byte	0x3
 11033 021f 75       		.byte	0x75
 11034 0220 7F       		.sleb128 -1
 11035 0221 9F       		.byte	0x9f
 11036 0222 B6020000 		.4byte	.LVL75
 11037 0226 B8020000 		.4byte	.LVL76
 11038 022a 0100     		.2byte	0x1
 11039 022c 55       		.byte	0x55
 11040 022d BA020000 		.4byte	.LVL77
 11041 0231 C8020000 		.4byte	.LVL78
 11042 0235 0100     		.2byte	0x1
 11043 0237 55       		.byte	0x55
 11044 0238 00000000 		.4byte	0
 11045 023c 00000000 		.4byte	0
 11046              	.LLST8:
 11047 0240 D0020000 		.4byte	.LVL79
 11048 0244 DC020000 		.4byte	.LVL80
 11049 0248 0200     		.2byte	0x2
 11050 024a 30       		.byte	0x30
 11051 024b 9F       		.byte	0x9f
 11052 024c DC020000 		.4byte	.LVL80
 11053 0250 20030000 		.4byte	.LVL84
 11054 0254 0100     		.2byte	0x1
 11055 0256 55       		.byte	0x55
 11056 0257 20030000 		.4byte	.LVL84
 11057 025b 24030000 		.4byte	.LVL85
 11058 025f 0200     		.2byte	0x2
 11059 0261 30       		.byte	0x30
 11060 0262 9F       		.byte	0x9f
 11061 0263 24030000 		.4byte	.LVL85
 11062 0267 2E030000 		.4byte	.LVL86
 11063 026b 0100     		.2byte	0x1
 11064 026d 55       		.byte	0x55
 11065 026e 2E030000 		.4byte	.LVL86
 11066 0272 38030000 		.4byte	.LVL88
 11067 0276 0200     		.2byte	0x2
 11068 0278 30       		.byte	0x30
 11069 0279 9F       		.byte	0x9f
 11070 027a 38030000 		.4byte	.LVL88
 11071 027e 4A030000 		.4byte	.LVL90
 11072 0282 0100     		.2byte	0x1
 11073 0284 55       		.byte	0x55
ARM GAS  C:\Users\310309~1\AppData\Local\Temp\ccu8WRKs.s 			page 226


 11074 0285 00000000 		.4byte	0
 11075 0289 00000000 		.4byte	0
 11076              	.LLST9:
 11077 028d DC020000 		.4byte	.LVL80
 11078 0291 20030000 		.4byte	.LVL84
 11079 0295 0100     		.2byte	0x1
 11080 0297 54       		.byte	0x54
 11081 0298 24030000 		.4byte	.LVL85
 11082 029c 2E030000 		.4byte	.LVL86
 11083 02a0 0100     		.2byte	0x1
 11084 02a2 54       		.byte	0x54
 11085 02a3 00000000 		.4byte	0
 11086 02a7 00000000 		.4byte	0
 11087              	.LLST10:
 11088 02ab 00000000 		.4byte	.LVL101
 11089 02af 16000000 		.4byte	.LVL102
 11090 02b3 0100     		.2byte	0x1
 11091 02b5 50       		.byte	0x50
 11092 02b6 16000000 		.4byte	.LVL102
 11093 02ba 700B0000 		.4byte	.LFE38
 11094 02be 0400     		.2byte	0x4
 11095 02c0 F3       		.byte	0xf3
 11096 02c1 01       		.uleb128 0x1
 11097 02c2 50       		.byte	0x50
 11098 02c3 9F       		.byte	0x9f
 11099 02c4 00000000 		.4byte	0
 11100 02c8 00000000 		.4byte	0
 11101              	.LLST11:
 11102 02cc 00000000 		.4byte	.LVL101
 11103 02d0 21000000 		.4byte	.LVL103-1
 11104 02d4 0100     		.2byte	0x1
 11105 02d6 51       		.byte	0x51
 11106 02d7 21000000 		.4byte	.LVL103-1
 11107 02db 36000000 		.4byte	.LVL106
 11108 02df 0100     		.2byte	0x1
 11109 02e1 54       		.byte	0x54
 11110 02e2 36000000 		.4byte	.LVL106
 11111 02e6 86000000 		.4byte	.LVL113
 11112 02ea 0400     		.2byte	0x4
 11113 02ec F3       		.byte	0xf3
 11114 02ed 01       		.uleb128 0x1
 11115 02ee 51       		.byte	0x51
 11116 02ef 9F       		.byte	0x9f
 11117 02f0 86000000 		.4byte	.LVL113
 11118 02f4 8B000000 		.4byte	.LVL114-1
 11119 02f8 0100     		.2byte	0x1
 11120 02fa 51       		.byte	0x51
 11121 02fb 8B000000 		.4byte	.LVL114-1
 11122 02ff 94000000 		.4byte	.LVL116
 11123 0303 0100     		.2byte	0x1
 11124 0305 54       		.byte	0x54
 11125 0306 94000000 		.4byte	.LVL116
 11126 030a 97000000 		.4byte	.LVL117-1
 11127 030e 0100     		.2byte	0x1
 11128 0310 51       		.byte	0x51
 11129 0311 97000000 		.4byte	.LVL117-1
 11130 0315 B8000000 		.4byte	.LVL121
ARM GAS  C:\Users\310309~1\AppData\Local\Temp\ccu8WRKs.s 			page 227


 11131 0319 0100     		.2byte	0x1
 11132 031b 54       		.byte	0x54
 11133 031c B8000000 		.4byte	.LVL121
 11134 0320 BD000000 		.4byte	.LVL122-1
 11135 0324 0100     		.2byte	0x1
 11136 0326 51       		.byte	0x51
 11137 0327 BD000000 		.4byte	.LVL122-1
 11138 032b C2000000 		.4byte	.LVL123
 11139 032f 0100     		.2byte	0x1
 11140 0331 54       		.byte	0x54
 11141 0332 C2000000 		.4byte	.LVL123
 11142 0336 C4000000 		.4byte	.LVL124
 11143 033a 0100     		.2byte	0x1
 11144 033c 51       		.byte	0x51
 11145 033d C4000000 		.4byte	.LVL124
 11146 0341 D6000000 		.4byte	.LVL126
 11147 0345 0100     		.2byte	0x1
 11148 0347 54       		.byte	0x54
 11149 0348 D6000000 		.4byte	.LVL126
 11150 034c DB000000 		.4byte	.LVL127-1
 11151 0350 0100     		.2byte	0x1
 11152 0352 51       		.byte	0x51
 11153 0353 DB000000 		.4byte	.LVL127-1
 11154 0357 E6000000 		.4byte	.LVL129
 11155 035b 0100     		.2byte	0x1
 11156 035d 54       		.byte	0x54
 11157 035e E6000000 		.4byte	.LVL129
 11158 0362 EB000000 		.4byte	.LVL130-1
 11159 0366 0100     		.2byte	0x1
 11160 0368 51       		.byte	0x51
 11161 0369 EB000000 		.4byte	.LVL130-1
 11162 036d F8000000 		.4byte	.LVL132
 11163 0371 0100     		.2byte	0x1
 11164 0373 54       		.byte	0x54
 11165 0374 F8000000 		.4byte	.LVL132
 11166 0378 FA000000 		.4byte	.LVL133
 11167 037c 0100     		.2byte	0x1
 11168 037e 51       		.byte	0x51
 11169 037f FA000000 		.4byte	.LVL133
 11170 0383 04010000 		.4byte	.LVL135
 11171 0387 0100     		.2byte	0x1
 11172 0389 54       		.byte	0x54
 11173 038a 04010000 		.4byte	.LVL135
 11174 038e 06010000 		.4byte	.LVL136
 11175 0392 0100     		.2byte	0x1
 11176 0394 51       		.byte	0x51
 11177 0395 06010000 		.4byte	.LVL136
 11178 0399 12010000 		.4byte	.LVL138
 11179 039d 0100     		.2byte	0x1
 11180 039f 54       		.byte	0x54
 11181 03a0 12010000 		.4byte	.LVL138
 11182 03a4 14010000 		.4byte	.LVL139
 11183 03a8 0100     		.2byte	0x1
 11184 03aa 51       		.byte	0x51
 11185 03ab 14010000 		.4byte	.LVL139
 11186 03af 26010000 		.4byte	.LVL141
 11187 03b3 0100     		.2byte	0x1
ARM GAS  C:\Users\310309~1\AppData\Local\Temp\ccu8WRKs.s 			page 228


 11188 03b5 54       		.byte	0x54
 11189 03b6 26010000 		.4byte	.LVL141
 11190 03ba 36010000 		.4byte	.LVL142
 11191 03be 0100     		.2byte	0x1
 11192 03c0 51       		.byte	0x51
 11193 03c1 36010000 		.4byte	.LVL142
 11194 03c5 68040000 		.4byte	.LVL181
 11195 03c9 0100     		.2byte	0x1
 11196 03cb 54       		.byte	0x54
 11197 03cc 68040000 		.4byte	.LVL181
 11198 03d0 6A040000 		.4byte	.LVL182
 11199 03d4 0400     		.2byte	0x4
 11200 03d6 F3       		.byte	0xf3
 11201 03d7 01       		.uleb128 0x1
 11202 03d8 51       		.byte	0x51
 11203 03d9 9F       		.byte	0x9f
 11204 03da 6A040000 		.4byte	.LVL182
 11205 03de 72040000 		.4byte	.LVL183
 11206 03e2 0100     		.2byte	0x1
 11207 03e4 54       		.byte	0x54
 11208 03e5 72040000 		.4byte	.LVL183
 11209 03e9 76040000 		.4byte	.LVL185
 11210 03ed 0400     		.2byte	0x4
 11211 03ef F3       		.byte	0xf3
 11212 03f0 01       		.uleb128 0x1
 11213 03f1 51       		.byte	0x51
 11214 03f2 9F       		.byte	0x9f
 11215 03f3 76040000 		.4byte	.LVL185
 11216 03f7 78040000 		.4byte	.LVL186
 11217 03fb 0100     		.2byte	0x1
 11218 03fd 54       		.byte	0x54
 11219 03fe 78040000 		.4byte	.LVL186
 11220 0402 2A050000 		.4byte	.LVL201
 11221 0406 0400     		.2byte	0x4
 11222 0408 F3       		.byte	0xf3
 11223 0409 01       		.uleb128 0x1
 11224 040a 51       		.byte	0x51
 11225 040b 9F       		.byte	0x9f
 11226 040c 2A050000 		.4byte	.LVL201
 11227 0410 2C060000 		.4byte	.LVL215
 11228 0414 0100     		.2byte	0x1
 11229 0416 54       		.byte	0x54
 11230 0417 2C060000 		.4byte	.LVL215
 11231 041b 52060000 		.4byte	.LVL218
 11232 041f 0400     		.2byte	0x4
 11233 0421 F3       		.byte	0xf3
 11234 0422 01       		.uleb128 0x1
 11235 0423 51       		.byte	0x51
 11236 0424 9F       		.byte	0x9f
 11237 0425 52060000 		.4byte	.LVL218
 11238 0429 58060000 		.4byte	.LVL219
 11239 042d 0100     		.2byte	0x1
 11240 042f 54       		.byte	0x54
 11241 0430 58060000 		.4byte	.LVL219
 11242 0434 7E060000 		.4byte	.LVL222
 11243 0438 0400     		.2byte	0x4
 11244 043a F3       		.byte	0xf3
ARM GAS  C:\Users\310309~1\AppData\Local\Temp\ccu8WRKs.s 			page 229


 11245 043b 01       		.uleb128 0x1
 11246 043c 51       		.byte	0x51
 11247 043d 9F       		.byte	0x9f
 11248 043e 7E060000 		.4byte	.LVL222
 11249 0442 AA070000 		.4byte	.LVL240
 11250 0446 0100     		.2byte	0x1
 11251 0448 54       		.byte	0x54
 11252 0449 AA070000 		.4byte	.LVL240
 11253 044d 18080000 		.4byte	.LVL246
 11254 0451 0400     		.2byte	0x4
 11255 0453 F3       		.byte	0xf3
 11256 0454 01       		.uleb128 0x1
 11257 0455 51       		.byte	0x51
 11258 0456 9F       		.byte	0x9f
 11259 0457 18080000 		.4byte	.LVL246
 11260 045b 36080000 		.4byte	.LVL248
 11261 045f 0100     		.2byte	0x1
 11262 0461 54       		.byte	0x54
 11263 0462 36080000 		.4byte	.LVL248
 11264 0466 7E080000 		.4byte	.LVL253
 11265 046a 0400     		.2byte	0x4
 11266 046c F3       		.byte	0xf3
 11267 046d 01       		.uleb128 0x1
 11268 046e 51       		.byte	0x51
 11269 046f 9F       		.byte	0x9f
 11270 0470 7E080000 		.4byte	.LVL253
 11271 0474 CC080000 		.4byte	.LVL260
 11272 0478 0100     		.2byte	0x1
 11273 047a 54       		.byte	0x54
 11274 047b CC080000 		.4byte	.LVL260
 11275 047f E8080000 		.4byte	.LVL263
 11276 0483 0400     		.2byte	0x4
 11277 0485 F3       		.byte	0xf3
 11278 0486 01       		.uleb128 0x1
 11279 0487 51       		.byte	0x51
 11280 0488 9F       		.byte	0x9f
 11281 0489 E8080000 		.4byte	.LVL263
 11282 048d 06090000 		.4byte	.LVL267
 11283 0491 0100     		.2byte	0x1
 11284 0493 54       		.byte	0x54
 11285 0494 06090000 		.4byte	.LVL267
 11286 0498 AE090000 		.4byte	.LVL290
 11287 049c 0400     		.2byte	0x4
 11288 049e F3       		.byte	0xf3
 11289 049f 01       		.uleb128 0x1
 11290 04a0 51       		.byte	0x51
 11291 04a1 9F       		.byte	0x9f
 11292 04a2 AE090000 		.4byte	.LVL290
 11293 04a6 4A0A0000 		.4byte	.LVL305
 11294 04aa 0100     		.2byte	0x1
 11295 04ac 54       		.byte	0x54
 11296 04ad 4A0A0000 		.4byte	.LVL305
 11297 04b1 9A0A0000 		.4byte	.LVL308
 11298 04b5 0400     		.2byte	0x4
 11299 04b7 F3       		.byte	0xf3
 11300 04b8 01       		.uleb128 0x1
 11301 04b9 51       		.byte	0x51
ARM GAS  C:\Users\310309~1\AppData\Local\Temp\ccu8WRKs.s 			page 230


 11302 04ba 9F       		.byte	0x9f
 11303 04bb 9A0A0000 		.4byte	.LVL308
 11304 04bf 9C0A0000 		.4byte	.LVL309
 11305 04c3 0100     		.2byte	0x1
 11306 04c5 54       		.byte	0x54
 11307 04c6 9C0A0000 		.4byte	.LVL309
 11308 04ca A60A0000 		.4byte	.LVL310
 11309 04ce 0400     		.2byte	0x4
 11310 04d0 F3       		.byte	0xf3
 11311 04d1 01       		.uleb128 0x1
 11312 04d2 51       		.byte	0x51
 11313 04d3 9F       		.byte	0x9f
 11314 04d4 A60A0000 		.4byte	.LVL310
 11315 04d8 540B0000 		.4byte	.LVL316
 11316 04dc 0100     		.2byte	0x1
 11317 04de 54       		.byte	0x54
 11318 04df 540B0000 		.4byte	.LVL316
 11319 04e3 700B0000 		.4byte	.LFE38
 11320 04e7 0400     		.2byte	0x4
 11321 04e9 F3       		.byte	0xf3
 11322 04ea 01       		.uleb128 0x1
 11323 04eb 51       		.byte	0x51
 11324 04ec 9F       		.byte	0x9f
 11325 04ed 00000000 		.4byte	0
 11326 04f1 00000000 		.4byte	0
 11327              	.LLST12:
 11328 04f5 26010000 		.4byte	.LVL141
 11329 04f9 36010000 		.4byte	.LVL142
 11330 04fd 0100     		.2byte	0x1
 11331 04ff 51       		.byte	0x51
 11332 0500 36010000 		.4byte	.LVL142
 11333 0504 68040000 		.4byte	.LVL181
 11334 0508 0100     		.2byte	0x1
 11335 050a 54       		.byte	0x54
 11336 050b 68040000 		.4byte	.LVL181
 11337 050f 6A040000 		.4byte	.LVL182
 11338 0513 0400     		.2byte	0x4
 11339 0515 F3       		.byte	0xf3
 11340 0516 01       		.uleb128 0x1
 11341 0517 51       		.byte	0x51
 11342 0518 9F       		.byte	0x9f
 11343 0519 6A040000 		.4byte	.LVL182
 11344 051d 72040000 		.4byte	.LVL183
 11345 0521 0100     		.2byte	0x1
 11346 0523 54       		.byte	0x54
 11347 0524 72040000 		.4byte	.LVL183
 11348 0528 76040000 		.4byte	.LVL185
 11349 052c 0400     		.2byte	0x4
 11350 052e F3       		.byte	0xf3
 11351 052f 01       		.uleb128 0x1
 11352 0530 51       		.byte	0x51
 11353 0531 9F       		.byte	0x9f
 11354 0532 76040000 		.4byte	.LVL185
 11355 0536 78040000 		.4byte	.LVL186
 11356 053a 0100     		.2byte	0x1
 11357 053c 54       		.byte	0x54
 11358 053d 78040000 		.4byte	.LVL186
ARM GAS  C:\Users\310309~1\AppData\Local\Temp\ccu8WRKs.s 			page 231


 11359 0541 2A050000 		.4byte	.LVL201
 11360 0545 0400     		.2byte	0x4
 11361 0547 F3       		.byte	0xf3
 11362 0548 01       		.uleb128 0x1
 11363 0549 51       		.byte	0x51
 11364 054a 9F       		.byte	0x9f
 11365 054b 2A050000 		.4byte	.LVL201
 11366 054f 2C060000 		.4byte	.LVL215
 11367 0553 0100     		.2byte	0x1
 11368 0555 54       		.byte	0x54
 11369 0556 2C060000 		.4byte	.LVL215
 11370 055a 52060000 		.4byte	.LVL218
 11371 055e 0400     		.2byte	0x4
 11372 0560 F3       		.byte	0xf3
 11373 0561 01       		.uleb128 0x1
 11374 0562 51       		.byte	0x51
 11375 0563 9F       		.byte	0x9f
 11376 0564 52060000 		.4byte	.LVL218
 11377 0568 58060000 		.4byte	.LVL219
 11378 056c 0100     		.2byte	0x1
 11379 056e 54       		.byte	0x54
 11380 056f 58060000 		.4byte	.LVL219
 11381 0573 7E060000 		.4byte	.LVL222
 11382 0577 0400     		.2byte	0x4
 11383 0579 F3       		.byte	0xf3
 11384 057a 01       		.uleb128 0x1
 11385 057b 51       		.byte	0x51
 11386 057c 9F       		.byte	0x9f
 11387 057d 7E060000 		.4byte	.LVL222
 11388 0581 AA070000 		.4byte	.LVL240
 11389 0585 0100     		.2byte	0x1
 11390 0587 54       		.byte	0x54
 11391 0588 AA070000 		.4byte	.LVL240
 11392 058c 18080000 		.4byte	.LVL246
 11393 0590 0400     		.2byte	0x4
 11394 0592 F3       		.byte	0xf3
 11395 0593 01       		.uleb128 0x1
 11396 0594 51       		.byte	0x51
 11397 0595 9F       		.byte	0x9f
 11398 0596 18080000 		.4byte	.LVL246
 11399 059a 36080000 		.4byte	.LVL248
 11400 059e 0100     		.2byte	0x1
 11401 05a0 54       		.byte	0x54
 11402 05a1 36080000 		.4byte	.LVL248
 11403 05a5 7E080000 		.4byte	.LVL253
 11404 05a9 0400     		.2byte	0x4
 11405 05ab F3       		.byte	0xf3
 11406 05ac 01       		.uleb128 0x1
 11407 05ad 51       		.byte	0x51
 11408 05ae 9F       		.byte	0x9f
 11409 05af 7E080000 		.4byte	.LVL253
 11410 05b3 CC080000 		.4byte	.LVL260
 11411 05b7 0100     		.2byte	0x1
 11412 05b9 54       		.byte	0x54
 11413 05ba CC080000 		.4byte	.LVL260
 11414 05be E8080000 		.4byte	.LVL263
 11415 05c2 0400     		.2byte	0x4
ARM GAS  C:\Users\310309~1\AppData\Local\Temp\ccu8WRKs.s 			page 232


 11416 05c4 F3       		.byte	0xf3
 11417 05c5 01       		.uleb128 0x1
 11418 05c6 51       		.byte	0x51
 11419 05c7 9F       		.byte	0x9f
 11420 05c8 E8080000 		.4byte	.LVL263
 11421 05cc 06090000 		.4byte	.LVL267
 11422 05d0 0100     		.2byte	0x1
 11423 05d2 54       		.byte	0x54
 11424 05d3 06090000 		.4byte	.LVL267
 11425 05d7 AE090000 		.4byte	.LVL290
 11426 05db 0400     		.2byte	0x4
 11427 05dd F3       		.byte	0xf3
 11428 05de 01       		.uleb128 0x1
 11429 05df 51       		.byte	0x51
 11430 05e0 9F       		.byte	0x9f
 11431 05e1 AE090000 		.4byte	.LVL290
 11432 05e5 4A0A0000 		.4byte	.LVL305
 11433 05e9 0100     		.2byte	0x1
 11434 05eb 54       		.byte	0x54
 11435 05ec 4A0A0000 		.4byte	.LVL305
 11436 05f0 9A0A0000 		.4byte	.LVL308
 11437 05f4 0400     		.2byte	0x4
 11438 05f6 F3       		.byte	0xf3
 11439 05f7 01       		.uleb128 0x1
 11440 05f8 51       		.byte	0x51
 11441 05f9 9F       		.byte	0x9f
 11442 05fa 9A0A0000 		.4byte	.LVL308
 11443 05fe 9C0A0000 		.4byte	.LVL309
 11444 0602 0100     		.2byte	0x1
 11445 0604 54       		.byte	0x54
 11446 0605 9C0A0000 		.4byte	.LVL309
 11447 0609 A60A0000 		.4byte	.LVL310
 11448 060d 0400     		.2byte	0x4
 11449 060f F3       		.byte	0xf3
 11450 0610 01       		.uleb128 0x1
 11451 0611 51       		.byte	0x51
 11452 0612 9F       		.byte	0x9f
 11453 0613 A60A0000 		.4byte	.LVL310
 11454 0617 540B0000 		.4byte	.LVL316
 11455 061b 0100     		.2byte	0x1
 11456 061d 54       		.byte	0x54
 11457 061e 540B0000 		.4byte	.LVL316
 11458 0622 620B0000 		.4byte	.LVL317
 11459 0626 0400     		.2byte	0x4
 11460 0628 F3       		.byte	0xf3
 11461 0629 01       		.uleb128 0x1
 11462 062a 51       		.byte	0x51
 11463 062b 9F       		.byte	0x9f
 11464 062c 00000000 		.4byte	0
 11465 0630 00000000 		.4byte	0
 11466              	.LLST13:
 11467 0634 32000000 		.4byte	.LVL105
 11468 0638 36000000 		.4byte	.LVL106
 11469 063c 0200     		.2byte	0x2
 11470 063e 36       		.byte	0x36
 11471 063f 9F       		.byte	0x9f
 11472 0640 36000000 		.4byte	.LVL106
ARM GAS  C:\Users\310309~1\AppData\Local\Temp\ccu8WRKs.s 			page 233


 11473 0644 3A000000 		.4byte	.LVL107
 11474 0648 0100     		.2byte	0x1
 11475 064a 53       		.byte	0x53
 11476 064b 44000000 		.4byte	.LVL109
 11477 064f 4D000000 		.4byte	.LVL110-1
 11478 0653 0100     		.2byte	0x1
 11479 0655 53       		.byte	0x53
 11480 0656 00000000 		.4byte	0
 11481 065a 00000000 		.4byte	0
 11482              	.LLST14:
 11483 065e 60040000 		.4byte	.LVL180
 11484 0662 68040000 		.4byte	.LVL181
 11485 0666 0200     		.2byte	0x2
 11486 0668 30       		.byte	0x30
 11487 0669 9F       		.byte	0x9f
 11488 066a 68040000 		.4byte	.LVL181
 11489 066e 6A040000 		.4byte	.LVL182
 11490 0672 0100     		.2byte	0x1
 11491 0674 54       		.byte	0x54
 11492 0675 6A040000 		.4byte	.LVL182
 11493 0679 74040000 		.4byte	.LVL184
 11494 067d 0200     		.2byte	0x2
 11495 067f 30       		.byte	0x30
 11496 0680 9F       		.byte	0x9f
 11497 0681 74040000 		.4byte	.LVL184
 11498 0685 76040000 		.4byte	.LVL185
 11499 0689 0100     		.2byte	0x1
 11500 068b 54       		.byte	0x54
 11501 068c 76040000 		.4byte	.LVL185
 11502 0690 7C040000 		.4byte	.LVL187
 11503 0694 0200     		.2byte	0x2
 11504 0696 30       		.byte	0x30
 11505 0697 9F       		.byte	0x9f
 11506 0698 7C040000 		.4byte	.LVL187
 11507 069c 2A050000 		.4byte	.LVL201
 11508 06a0 0100     		.2byte	0x1
 11509 06a2 54       		.byte	0x54
 11510 06a3 00000000 		.4byte	0
 11511 06a7 00000000 		.4byte	0
 11512              	.LLST15:
 11513 06ab D8040000 		.4byte	.LVL193
 11514 06af DE040000 		.4byte	.LVL194
 11515 06b3 0200     		.2byte	0x2
 11516 06b5 30       		.byte	0x30
 11517 06b6 9F       		.byte	0x9f
 11518 06b7 DE040000 		.4byte	.LVL194
 11519 06bb 10050000 		.4byte	.LVL198
 11520 06bf 0100     		.2byte	0x1
 11521 06c1 50       		.byte	0x50
 11522 06c2 00000000 		.4byte	0
 11523 06c6 00000000 		.4byte	0
 11524              	.LLST16:
 11525 06ca D8040000 		.4byte	.LVL193
 11526 06ce DE040000 		.4byte	.LVL194
 11527 06d2 0200     		.2byte	0x2
 11528 06d4 30       		.byte	0x30
 11529 06d5 9F       		.byte	0x9f
ARM GAS  C:\Users\310309~1\AppData\Local\Temp\ccu8WRKs.s 			page 234


 11530 06d6 DE040000 		.4byte	.LVL194
 11531 06da 0A050000 		.4byte	.LVL197
 11532 06de 0100     		.2byte	0x1
 11533 06e0 52       		.byte	0x52
 11534 06e1 00000000 		.4byte	0
 11535 06e5 00000000 		.4byte	0
 11536              	.LLST17:
 11537 06e9 94050000 		.4byte	.LVL208
 11538 06ed EC050000 		.4byte	.LVL210
 11539 06f1 0200     		.2byte	0x2
 11540 06f3 30       		.byte	0x30
 11541 06f4 9F       		.byte	0x9f
 11542 06f5 EC050000 		.4byte	.LVL210
 11543 06f9 08060000 		.4byte	.LVL211
 11544 06fd 0100     		.2byte	0x1
 11545 06ff 55       		.byte	0x55
 11546 0700 08060000 		.4byte	.LVL211
 11547 0704 20060000 		.4byte	.LVL213
 11548 0708 0200     		.2byte	0x2
 11549 070a 31       		.byte	0x31
 11550 070b 9F       		.byte	0x9f
 11551 070c 20060000 		.4byte	.LVL213
 11552 0710 8C070000 		.4byte	.LVL238
 11553 0714 0100     		.2byte	0x1
 11554 0716 55       		.byte	0x55
 11555 0717 00000000 		.4byte	0
 11556 071b 00000000 		.4byte	0
 11557              	.LLST18:
 11558 071f 94050000 		.4byte	.LVL208
 11559 0723 EC050000 		.4byte	.LVL210
 11560 0727 0200     		.2byte	0x2
 11561 0729 30       		.byte	0x30
 11562 072a 9F       		.byte	0x9f
 11563 072b EC050000 		.4byte	.LVL210
 11564 072f 1E060000 		.4byte	.LVL212
 11565 0733 0100     		.2byte	0x1
 11566 0735 56       		.byte	0x56
 11567 0736 20060000 		.4byte	.LVL213
 11568 073a 8C070000 		.4byte	.LVL238
 11569 073e 0100     		.2byte	0x1
 11570 0740 56       		.byte	0x56
 11571 0741 00000000 		.4byte	0
 11572 0745 00000000 		.4byte	0
 11573              	.LLST19:
 11574 0749 7E060000 		.4byte	.LVL222
 11575 074d BE060000 		.4byte	.LVL225
 11576 0751 0100     		.2byte	0x1
 11577 0753 50       		.byte	0x50
 11578 0754 C2060000 		.4byte	.LVL227
 11579 0758 DC060000 		.4byte	.LVL229
 11580 075c 0100     		.2byte	0x1
 11581 075e 50       		.byte	0x50
 11582 075f 00070000 		.4byte	.LVL232
 11583 0763 02070000 		.4byte	.LVL233
 11584 0767 0100     		.2byte	0x1
 11585 0769 50       		.byte	0x50
 11586 076a 00000000 		.4byte	0
ARM GAS  C:\Users\310309~1\AppData\Local\Temp\ccu8WRKs.s 			page 235


 11587 076e 00000000 		.4byte	0
 11588              	.LLST20:
 11589 0772 E4050000 		.4byte	.LVL209
 11590 0776 EC050000 		.4byte	.LVL210
 11591 077a 0200     		.2byte	0x2
 11592 077c 30       		.byte	0x30
 11593 077d 9F       		.byte	0x9f
 11594 077e EC050000 		.4byte	.LVL210
 11595 0782 33060000 		.4byte	.LVL216-1
 11596 0786 0100     		.2byte	0x1
 11597 0788 52       		.byte	0x52
 11598 0789 52060000 		.4byte	.LVL218
 11599 078d 5F060000 		.4byte	.LVL220-1
 11600 0791 0100     		.2byte	0x1
 11601 0793 52       		.byte	0x52
 11602 0794 BE060000 		.4byte	.LVL225
 11603 0798 C0060000 		.4byte	.LVL226
 11604 079c 0100     		.2byte	0x1
 11605 079e 52       		.byte	0x52
 11606 079f 00000000 		.4byte	0
 11607 07a3 00000000 		.4byte	0
 11608              	.LLST21:
 11609 07a7 7E060000 		.4byte	.LVL222
 11610 07ab BE060000 		.4byte	.LVL225
 11611 07af 0100     		.2byte	0x1
 11612 07b1 52       		.byte	0x52
 11613 07b2 C2060000 		.4byte	.LVL227
 11614 07b6 DF060000 		.4byte	.LVL230-1
 11615 07ba 0100     		.2byte	0x1
 11616 07bc 52       		.byte	0x52
 11617 07bd 00070000 		.4byte	.LVL232
 11618 07c1 05070000 		.4byte	.LVL234-1
 11619 07c5 0100     		.2byte	0x1
 11620 07c7 52       		.byte	0x52
 11621 07c8 00000000 		.4byte	0
 11622 07cc 00000000 		.4byte	0
 11623              	.LLST22:
 11624 07d0 04090000 		.4byte	.LVL266
 11625 07d4 0C090000 		.4byte	.LVL268
 11626 07d8 0200     		.2byte	0x2
 11627 07da 30       		.byte	0x30
 11628 07db 9F       		.byte	0x9f
 11629 07dc 0C090000 		.4byte	.LVL268
 11630 07e0 0E090000 		.4byte	.LVL269
 11631 07e4 0100     		.2byte	0x1
 11632 07e6 54       		.byte	0x54
 11633 07e7 0E090000 		.4byte	.LVL269
 11634 07eb 18090000 		.4byte	.LVL270
 11635 07ef 0200     		.2byte	0x2
 11636 07f1 30       		.byte	0x30
 11637 07f2 9F       		.byte	0x9f
 11638 07f3 18090000 		.4byte	.LVL270
 11639 07f7 1A090000 		.4byte	.LVL271
 11640 07fb 0100     		.2byte	0x1
 11641 07fd 54       		.byte	0x54
 11642 07fe 1A090000 		.4byte	.LVL271
 11643 0802 20090000 		.4byte	.LVL272
ARM GAS  C:\Users\310309~1\AppData\Local\Temp\ccu8WRKs.s 			page 236


 11644 0806 0200     		.2byte	0x2
 11645 0808 30       		.byte	0x30
 11646 0809 9F       		.byte	0x9f
 11647 080a 20090000 		.4byte	.LVL272
 11648 080e AE090000 		.4byte	.LVL290
 11649 0812 0100     		.2byte	0x1
 11650 0814 54       		.byte	0x54
 11651 0815 00000000 		.4byte	0
 11652 0819 00000000 		.4byte	0
 11653              	.LLST23:
 11654 081d 28090000 		.4byte	.LVL273
 11655 0821 AE090000 		.4byte	.LVL290
 11656 0825 0100     		.2byte	0x1
 11657 0827 54       		.byte	0x54
 11658 0828 00000000 		.4byte	0
 11659 082c 00000000 		.4byte	0
 11660              	.LLST24:
 11661 0830 32090000 		.4byte	.LVL274
 11662 0834 46090000 		.4byte	.LVL275
 11663 0838 0100     		.2byte	0x1
 11664 083a 50       		.byte	0x50
 11665 083b 56090000 		.4byte	.LVL278
 11666 083f 5A090000 		.4byte	.LVL279
 11667 0843 0100     		.2byte	0x1
 11668 0845 50       		.byte	0x50
 11669 0846 74090000 		.4byte	.LVL282
 11670 084a 78090000 		.4byte	.LVL283
 11671 084e 0100     		.2byte	0x1
 11672 0850 50       		.byte	0x50
 11673 0851 92090000 		.4byte	.LVL286
 11674 0855 94090000 		.4byte	.LVL287
 11675 0859 0100     		.2byte	0x1
 11676 085b 50       		.byte	0x50
 11677 085c 00000000 		.4byte	0
 11678 0860 00000000 		.4byte	0
 11679              	.LLST25:
 11680 0864 FE090000 		.4byte	.LVL296
 11681 0868 100A0000 		.4byte	.LVL298
 11682 086c 0600     		.2byte	0x6
 11683 086e 73       		.byte	0x73
 11684 086f 00       		.sleb128 0
 11685 0870 08       		.byte	0x8
 11686 0871 FF       		.byte	0xff
 11687 0872 1A       		.byte	0x1a
 11688 0873 9F       		.byte	0x9f
 11689 0874 100A0000 		.4byte	.LVL298
 11690 0878 280A0000 		.4byte	.LVL299
 11691 087c 0B00     		.2byte	0xb
 11692 087e 74       		.byte	0x74
 11693 087f 04       		.sleb128 4
 11694 0880 06       		.byte	0x6
 11695 0881 23       		.byte	0x23
 11696 0882 01       		.uleb128 0x1
 11697 0883 94       		.byte	0x94
 11698 0884 01       		.byte	0x1
 11699 0885 08       		.byte	0x8
 11700 0886 FF       		.byte	0xff
ARM GAS  C:\Users\310309~1\AppData\Local\Temp\ccu8WRKs.s 			page 237


 11701 0887 1A       		.byte	0x1a
 11702 0888 9F       		.byte	0x9f
 11703 0889 9A0A0000 		.4byte	.LVL308
 11704 088d 9C0A0000 		.4byte	.LVL309
 11705 0891 0600     		.2byte	0x6
 11706 0893 73       		.byte	0x73
 11707 0894 00       		.sleb128 0
 11708 0895 08       		.byte	0x8
 11709 0896 FF       		.byte	0xff
 11710 0897 1A       		.byte	0x1a
 11711 0898 9F       		.byte	0x9f
 11712 0899 A60A0000 		.4byte	.LVL310
 11713 089d AB0A0000 		.4byte	.LVL311-1
 11714 08a1 0600     		.2byte	0x6
 11715 08a3 73       		.byte	0x73
 11716 08a4 00       		.sleb128 0
 11717 08a5 08       		.byte	0x8
 11718 08a6 FF       		.byte	0xff
 11719 08a7 1A       		.byte	0x1a
 11720 08a8 9F       		.byte	0x9f
 11721 08a9 00000000 		.4byte	0
 11722 08ad 00000000 		.4byte	0
 11723              	.LLST26:
 11724 08b1 000A0000 		.4byte	.LVL297
 11725 08b5 2A0A0000 		.4byte	.LVL300
 11726 08b9 0100     		.2byte	0x1
 11727 08bb 55       		.byte	0x55
 11728 08bc 2A0A0000 		.4byte	.LVL300
 11729 08c0 2C0A0000 		.4byte	.LVL301
 11730 08c4 0500     		.2byte	0x5
 11731 08c6 73       		.byte	0x73
 11732 08c7 00       		.sleb128 0
 11733 08c8 72       		.byte	0x72
 11734 08c9 00       		.sleb128 0
 11735 08ca 22       		.byte	0x22
 11736 08cb 2C0A0000 		.4byte	.LVL301
 11737 08cf 2E0A0000 		.4byte	.LVL302
 11738 08d3 0A00     		.2byte	0xa
 11739 08d5 70       		.byte	0x70
 11740 08d6 00       		.sleb128 0
 11741 08d7 49       		.byte	0x49
 11742 08d8 1E       		.byte	0x1e
 11743 08d9 71       		.byte	0x71
 11744 08da 00       		.sleb128 0
 11745 08db 22       		.byte	0x22
 11746 08dc 72       		.byte	0x72
 11747 08dd 00       		.sleb128 0
 11748 08de 22       		.byte	0x22
 11749 08df 2E0A0000 		.4byte	.LVL302
 11750 08e3 300A0000 		.4byte	.LVL303
 11751 08e7 1F00     		.2byte	0x1f
 11752 08e9 03       		.byte	0x3
 11753 08ea 02000000 		.4byte	CurrSession+2
 11754 08ee 94       		.byte	0x94
 11755 08ef 01       		.byte	0x1
 11756 08f0 08       		.byte	0x8
 11757 08f1 FF       		.byte	0xff
ARM GAS  C:\Users\310309~1\AppData\Local\Temp\ccu8WRKs.s 			page 238


 11758 08f2 1A       		.byte	0x1a
 11759 08f3 38       		.byte	0x38
 11760 08f4 24       		.byte	0x24
 11761 08f5 03       		.byte	0x3
 11762 08f6 01000000 		.4byte	CurrSession+1
 11763 08fa 94       		.byte	0x94
 11764 08fb 01       		.byte	0x1
 11765 08fc 08       		.byte	0x8
 11766 08fd FF       		.byte	0xff
 11767 08fe 1A       		.byte	0x1a
 11768 08ff 21       		.byte	0x21
 11769 0900 49       		.byte	0x49
 11770 0901 1E       		.byte	0x1e
 11771 0902 71       		.byte	0x71
 11772 0903 00       		.sleb128 0
 11773 0904 22       		.byte	0x22
 11774 0905 72       		.byte	0x72
 11775 0906 00       		.sleb128 0
 11776 0907 22       		.byte	0x22
 11777 0908 300A0000 		.4byte	.LVL303
 11778 090c 320A0000 		.4byte	.LVL304
 11779 0910 2200     		.2byte	0x22
 11780 0912 03       		.byte	0x3
 11781 0913 02000000 		.4byte	CurrSession+2
 11782 0917 94       		.byte	0x94
 11783 0918 01       		.byte	0x1
 11784 0919 08       		.byte	0x8
 11785 091a FF       		.byte	0xff
 11786 091b 1A       		.byte	0x1a
 11787 091c 38       		.byte	0x38
 11788 091d 24       		.byte	0x24
 11789 091e 03       		.byte	0x3
 11790 091f 01000000 		.4byte	CurrSession+1
 11791 0923 94       		.byte	0x94
 11792 0924 01       		.byte	0x1
 11793 0925 08       		.byte	0x8
 11794 0926 FF       		.byte	0xff
 11795 0927 1A       		.byte	0x1a
 11796 0928 21       		.byte	0x21
 11797 0929 49       		.byte	0x49
 11798 092a 1E       		.byte	0x1e
 11799 092b 72       		.byte	0x72
 11800 092c 00       		.sleb128 0
 11801 092d 22       		.byte	0x22
 11802 092e 03       		.byte	0x3
 11803 092f 00000000 		.4byte	UserDefinedActivityTypeAllSubSessions
 11804 0933 22       		.byte	0x22
 11805 0934 320A0000 		.4byte	.LVL304
 11806 0938 4A0A0000 		.4byte	.LVL305
 11807 093c 3700     		.2byte	0x37
 11808 093e 03       		.byte	0x3
 11809 093f 02000000 		.4byte	CurrSession+2
 11810 0943 94       		.byte	0x94
 11811 0944 01       		.byte	0x1
 11812 0945 08       		.byte	0x8
 11813 0946 FF       		.byte	0xff
 11814 0947 1A       		.byte	0x1a
ARM GAS  C:\Users\310309~1\AppData\Local\Temp\ccu8WRKs.s 			page 239


 11815 0948 38       		.byte	0x38
 11816 0949 24       		.byte	0x24
 11817 094a 03       		.byte	0x3
 11818 094b 01000000 		.4byte	CurrSession+1
 11819 094f 94       		.byte	0x94
 11820 0950 01       		.byte	0x1
 11821 0951 08       		.byte	0x8
 11822 0952 FF       		.byte	0xff
 11823 0953 1A       		.byte	0x1a
 11824 0954 21       		.byte	0x21
 11825 0955 49       		.byte	0x49
 11826 0956 1E       		.byte	0x1e
 11827 0957 03       		.byte	0x3
 11828 0958 0A000000 		.4byte	CurrSession+10
 11829 095c 94       		.byte	0x94
 11830 095d 01       		.byte	0x1
 11831 095e 08       		.byte	0x8
 11832 095f FF       		.byte	0xff
 11833 0960 1A       		.byte	0x1a
 11834 0961 38       		.byte	0x38
 11835 0962 24       		.byte	0x24
 11836 0963 03       		.byte	0x3
 11837 0964 09000000 		.4byte	CurrSession+9
 11838 0968 94       		.byte	0x94
 11839 0969 01       		.byte	0x1
 11840 096a 08       		.byte	0x8
 11841 096b FF       		.byte	0xff
 11842 096c 1A       		.byte	0x1a
 11843 096d 21       		.byte	0x21
 11844 096e 22       		.byte	0x22
 11845 096f 03       		.byte	0x3
 11846 0970 00000000 		.4byte	UserDefinedActivityTypeAllSubSessions
 11847 0974 22       		.byte	0x22
 11848 0975 4A0A0000 		.4byte	.LVL305
 11849 0979 C20A0000 		.4byte	.LVL313
 11850 097d 0100     		.2byte	0x1
 11851 097f 55       		.byte	0x55
 11852 0980 00000000 		.4byte	0
 11853 0984 00000000 		.4byte	0
 11854              	.LLST27:
 11855 0988 4A0A0000 		.4byte	.LVL305
 11856 098c 9A0A0000 		.4byte	.LVL308
 11857 0990 0100     		.2byte	0x1
 11858 0992 54       		.byte	0x54
 11859 0993 9C0A0000 		.4byte	.LVL309
 11860 0997 A60A0000 		.4byte	.LVL310
 11861 099b 0100     		.2byte	0x1
 11862 099d 54       		.byte	0x54
 11863 099e 00000000 		.4byte	0
 11864 09a2 00000000 		.4byte	0
 11865              		.section	.debug_aranges,"",%progbits
 11866 0000 4C000000 		.4byte	0x4c
 11867 0004 0200     		.2byte	0x2
 11868 0006 00000000 		.4byte	.Ldebug_info0
 11869 000a 04       		.byte	0x4
 11870 000b 00       		.byte	0
 11871 000c 0000     		.2byte	0
ARM GAS  C:\Users\310309~1\AppData\Local\Temp\ccu8WRKs.s 			page 240


 11872 000e 0000     		.2byte	0
 11873 0010 00000000 		.4byte	.LFB36
 11874 0014 0A000000 		.4byte	.LFE36-.LFB36
 11875 0018 00000000 		.4byte	.LFB37
 11876 001c 44000000 		.4byte	.LFE37-.LFB37
 11877 0020 00000000 		.4byte	.LFB40
 11878 0024 C80D0000 		.4byte	.LFE40-.LFB40
 11879 0028 00000000 		.4byte	.LFB41
 11880 002c C8000000 		.4byte	.LFE41-.LFB41
 11881 0030 00000000 		.4byte	.LFB39
 11882 0034 A4030000 		.4byte	.LFE39-.LFB39
 11883 0038 00000000 		.4byte	.LFB42
 11884 003c 4C000000 		.4byte	.LFE42-.LFB42
 11885 0040 00000000 		.4byte	.LFB38
 11886 0044 700B0000 		.4byte	.LFE38-.LFB38
 11887 0048 00000000 		.4byte	0
 11888 004c 00000000 		.4byte	0
 11889              		.section	.debug_ranges,"",%progbits
 11890              	.Ldebug_ranges0:
 11891 0000 82000000 		.4byte	.LBB2
 11892 0004 0A010000 		.4byte	.LBE2
 11893 0008 0E010000 		.4byte	.LBB3
 11894 000c 16010000 		.4byte	.LBE3
 11895 0010 00000000 		.4byte	0
 11896 0014 00000000 		.4byte	0
 11897 0018 3A010000 		.4byte	.LBB4
 11898 001c E2010000 		.4byte	.LBE4
 11899 0020 E8010000 		.4byte	.LBB7
 11900 0024 0C020000 		.4byte	.LBE7
 11901 0028 00000000 		.4byte	0
 11902 002c 00000000 		.4byte	0
 11903 0030 3A010000 		.4byte	.LBB5
 11904 0034 E2010000 		.4byte	.LBE5
 11905 0038 E8010000 		.4byte	.LBB6
 11906 003c F0010000 		.4byte	.LBE6
 11907 0040 00000000 		.4byte	0
 11908 0044 00000000 		.4byte	0
 11909 0048 16020000 		.4byte	.LBB8
 11910 004c B8020000 		.4byte	.LBE8
 11911 0050 BA020000 		.4byte	.LBB9
 11912 0054 C2020000 		.4byte	.LBE9
 11913 0058 00000000 		.4byte	0
 11914 005c 00000000 		.4byte	0
 11915 0060 DC020000 		.4byte	.LBB11
 11916 0064 20030000 		.4byte	.LBE11
 11917 0068 24030000 		.4byte	.LBB13
 11918 006c 2E030000 		.4byte	.LBE13
 11919 0070 00000000 		.4byte	0
 11920 0074 00000000 		.4byte	0
 11921 0078 D8040000 		.4byte	.LBB19
 11922 007c DA040000 		.4byte	.LBE19
 11923 0080 DC040000 		.4byte	.LBB20
 11924 0084 02050000 		.4byte	.LBE20
 11925 0088 00000000 		.4byte	0
 11926 008c 00000000 		.4byte	0
 11927 0090 E4050000 		.4byte	.LBB22
 11928 0094 E6050000 		.4byte	.LBE22
ARM GAS  C:\Users\310309~1\AppData\Local\Temp\ccu8WRKs.s 			page 241


 11929 0098 EA050000 		.4byte	.LBB23
 11930 009c 26060000 		.4byte	.LBE23
 11931 00a0 00000000 		.4byte	0
 11932 00a4 00000000 		.4byte	0
 11933 00a8 7E060000 		.4byte	.LBB24
 11934 00ac BE060000 		.4byte	.LBE24
 11935 00b0 C2060000 		.4byte	.LBB25
 11936 00b4 CA060000 		.4byte	.LBE25
 11937 00b8 00000000 		.4byte	0
 11938 00bc 00000000 		.4byte	0
 11939 00c0 4A0A0000 		.4byte	.LBB28
 11940 00c4 9A0A0000 		.4byte	.LBE28
 11941 00c8 9C0A0000 		.4byte	.LBB29
 11942 00cc A60A0000 		.4byte	.LBE29
 11943 00d0 00000000 		.4byte	0
 11944 00d4 00000000 		.4byte	0
 11945 00d8 00000000 		.4byte	.LFB36
 11946 00dc 0A000000 		.4byte	.LFE36
 11947 00e0 00000000 		.4byte	.LFB37
 11948 00e4 44000000 		.4byte	.LFE37
 11949 00e8 00000000 		.4byte	.LFB40
 11950 00ec C80D0000 		.4byte	.LFE40
 11951 00f0 00000000 		.4byte	.LFB41
 11952 00f4 C8000000 		.4byte	.LFE41
 11953 00f8 00000000 		.4byte	.LFB39
 11954 00fc A4030000 		.4byte	.LFE39
 11955 0100 00000000 		.4byte	.LFB42
 11956 0104 4C000000 		.4byte	.LFE42
 11957 0108 00000000 		.4byte	.LFB38
 11958 010c 700B0000 		.4byte	.LFE38
 11959 0110 00000000 		.4byte	0
 11960 0114 00000000 		.4byte	0
 11961              		.section	.debug_line,"",%progbits
 11962              	.Ldebug_line0:
 11963 0000 79060000 		.section	.debug_str,"MS",%progbits,1
 11963      0200A502 
 11963      00000201 
 11963      FB0E0D00 
 11963      01010101 
 11964              	.LASF455:
 11965 0000 746F7461 		.ascii	"totalDeletedSessions\000"
 11965      6C44656C 
 11965      65746564 
 11965      53657373 
 11965      696F6E73 
 11966              	.LASF128:
 11967 0015 4359424C 		.ascii	"CYBLE_BLESS_SLEEP\000"
 11967      455F424C 
 11967      4553535F 
 11967      534C4545 
 11967      5000
 11968              	.LASF107:
 11969 0027 4359424C 		.ascii	"CYBLE_ERROR_L2CAP_PSM_ALREADY_REGISTERED\000"
 11969      455F4552 
 11969      524F525F 
 11969      4C324341 
 11969      505F5053 
ARM GAS  C:\Users\310309~1\AppData\Local\Temp\ccu8WRKs.s 			page 242


 11970              	.LASF265:
 11971 0050 53657373 		.ascii	"SessionEndTimeOffset\000"
 11971      696F6E45 
 11971      6E645469 
 11971      6D654F66 
 11971      66736574 
 11972              	.LASF477:
 11973 0065 6973725F 		.ascii	"isr_timer_StartEx\000"
 11973      74696D65 
 11973      725F5374 
 11973      61727445 
 11973      7800
 11974              	.LASF407:
 11975 0077 6576656E 		.ascii	"event\000"
 11975      7400
 11976              	.LASF92:
 11977 007d 4359424C 		.ascii	"CYBLE_EVT_MAX\000"
 11977      455F4556 
 11977      545F4D41 
 11977      5800
 11978              	.LASF201:
 11979 008b 4359424C 		.ascii	"CYBLE_GATT_ERR_INSUFFICIENT_ENC_KEY_SIZE\000"
 11979      455F4741 
 11979      54545F45 
 11979      52525F49 
 11979      4E535546 
 11980              	.LASF445:
 11981 00b4 736C6565 		.ascii	"sleepactivityinstantaneousdataNotify\000"
 11981      70616374 
 11981      69766974 
 11981      79696E73 
 11981      74616E74 
 11982              	.LASF440:
 11983 00d9 43726173 		.ascii	"CrasData\000"
 11983      44617461 
 11983      00
 11984              	.LASF367:
 11985 00e2 4D696E69 		.ascii	"MinimumVisibleLightLevel\000"
 11985      6D756D56 
 11985      69736962 
 11985      6C654C69 
 11985      6768744C 
 11986              	.LASF32:
 11987 00fb 4359424C 		.ascii	"CYBLE_EVT_GAP_AUTH_COMPLETE\000"
 11987      455F4556 
 11987      545F4741 
 11987      505F4155 
 11987      54485F43 
 11988              	.LASF122:
 11989 0117 4359424C 		.ascii	"CYBLE_ERROR_IND_DISABLED\000"
 11989      455F4552 
 11989      524F525F 
 11989      494E445F 
 11989      44495341 
 11990              	.LASF450:
 11991 0130 6D794465 		.ascii	"myDeletedSessions\000"
 11991      6C657465 
ARM GAS  C:\Users\310309~1\AppData\Local\Temp\ccu8WRKs.s 			page 243


 11991      64536573 
 11991      73696F6E 
 11991      7300
 11992              	.LASF270:
 11993 0142 53756253 		.ascii	"SubSessionEndTimeOffset\000"
 11993      65737369 
 11993      6F6E456E 
 11993      6454696D 
 11993      654F6666 
 11994              	.LASF380:
 11995 015a 4745545F 		.ascii	"GET_ENDED_SESSION_DATA\000"
 11995      454E4445 
 11995      445F5345 
 11995      5353494F 
 11995      4E5F4441 
 11996              	.LASF319:
 11997 0171 52657374 		.ascii	"RestingRespirationRate\000"
 11997      696E6752 
 11997      65737069 
 11997      72617469 
 11997      6F6E5261 
 11998              	.LASF366:
 11999 0188 54696D65 		.ascii	"TimeOfAwakeningAfterAlarm\000"
 11999      4F664177 
 11999      616B656E 
 11999      696E6741 
 11999      66746572 
 12000              	.LASF93:
 12001 01a2 4359424C 		.ascii	"CYBLE_ERROR_OK\000"
 12001      455F4552 
 12001      524F525F 
 12001      4F4B00
 12002              	.LASF421:
 12003 01b1 6379426C 		.ascii	"cyBle_state\000"
 12003      655F7374 
 12003      61746500 
 12004              	.LASF400:
 12005 01bd 50696E5F 		.ascii	"Pin_SW2_Handler\000"
 12005      5357325F 
 12005      48616E64 
 12005      6C657200 
 12006              	.LASF257:
 12007 01cd 4359424C 		.ascii	"CYBLE_STATE_ADVERTISING\000"
 12007      455F5354 
 12007      4154455F 
 12007      41445645 
 12007      52544953 
 12008              	.LASF104:
 12009 01e5 4359424C 		.ascii	"CYBLE_ERROR_BT_ON_NOT_COMPLETED\000"
 12009      455F4552 
 12009      524F525F 
 12009      42545F4F 
 12009      4E5F4E4F 
 12010              	.LASF478:
 12011 0205 4379426C 		.ascii	"CyBle_Start\000"
 12011      655F5374 
 12011      61727400 
ARM GAS  C:\Users\310309~1\AppData\Local\Temp\ccu8WRKs.s 			page 244


 12012              	.LASF269:
 12013 0211 53756253 		.ascii	"SubSessionEndBaseTime\000"
 12013      65737369 
 12013      6F6E456E 
 12013      64426173 
 12013      6554696D 
 12014              	.LASF437:
 12015 0227 67656E65 		.ascii	"generalsummarydataIndicate\000"
 12015      72616C73 
 12015      756D6D61 
 12015      72796461 
 12015      7461496E 
 12016              	.LASF73:
 12017 0242 4359424C 		.ascii	"CYBLE_EVT_GATTS_DATA_SIGNED_CMD_REQ\000"
 12017      455F4556 
 12017      545F4741 
 12017      5454535F 
 12017      44415441 
 12018              	.LASF336:
 12019 0266 4D617869 		.ascii	"MaximumRestingHeartRate\000"
 12019      6D756D52 
 12019      65737469 
 12019      6E674865 
 12019      61727452 
 12020              	.LASF381:
 12021 027e 53544152 		.ascii	"START_SESSION_SUB_SESSION\000"
 12021      545F5345 
 12021      5353494F 
 12021      4E5F5355 
 12021      425F5345 
 12022              	.LASF329:
 12023 0298 4D696E69 		.ascii	"MinimumHeartRate\000"
 12023      6D756D48 
 12023      65617274 
 12023      52617465 
 12023      00
 12024              	.LASF22:
 12025 02a9 4359424C 		.ascii	"CYBLE_EVT_STACK_ON\000"
 12025      455F4556 
 12025      545F5354 
 12025      41434B5F 
 12025      4F4E00
 12026              	.LASF444:
 12027 02bc 53616944 		.ascii	"SaiData\000"
 12027      61746100 
 12028              	.LASF112:
 12029 02c4 4359424C 		.ascii	"CYBLE_ERROR_GATT_DB_INVALID_ATTR_HANDLE\000"
 12029      455F4552 
 12029      524F525F 
 12029      47415454 
 12029      5F44425F 
 12030              	.LASF226:
 12031 02ec 4359424C 		.ascii	"CYBLE_GATT_ERR_PROCEDURE_ALREADY_IN_PROGRESS\000"
 12031      455F4741 
 12031      54545F45 
 12031      52525F50 
 12031      524F4345 
ARM GAS  C:\Users\310309~1\AppData\Local\Temp\ccu8WRKs.s 			page 245


 12032              	.LASF25:
 12033 0319 4359424C 		.ascii	"CYBLE_EVT_HCI_STATUS\000"
 12033      455F4556 
 12033      545F4843 
 12033      495F5354 
 12033      41545553 
 12034              	.LASF434:
 12035 032e 47616944 		.ascii	"GaiData\000"
 12035      61746100 
 12036              	.LASF271:
 12037 0336 50414D5F 		.ascii	"PAM_SESSIONDESCRIPTOR_VALUE_T\000"
 12037      53455353 
 12037      494F4E44 
 12037      45534352 
 12037      4950544F 
 12038              	.LASF30:
 12039 0354 4359424C 		.ascii	"CYBLE_EVT_GAP_PASSKEY_ENTRY_REQUEST\000"
 12039      455F4556 
 12039      545F4741 
 12039      505F5041 
 12039      53534B45 
 12040              	.LASF339:
 12041 0378 4D617869 		.ascii	"MaximumHeartRateVariability\000"
 12041      6D756D48 
 12041      65617274 
 12041      52617465 
 12041      56617269 
 12042              	.LASF163:
 12043 0394 4359424C 		.ascii	"CYBLE_GATT_FIND_INFO_REQ\000"
 12043      455F4741 
 12043      54545F46 
 12043      494E445F 
 12043      494E464F 
 12044              	.LASF56:
 12045 03ad 4359424C 		.ascii	"CYBLE_EVT_GATTC_XCHNG_MTU_RSP\000"
 12045      455F4556 
 12045      545F4741 
 12045      5454435F 
 12045      5843484E 
 12046              	.LASF215:
 12047 03cb 4359424C 		.ascii	"CYBLE_GATTS_ERR_CCCD_IMPROPERLY_CONFIGURED\000"
 12047      455F4741 
 12047      5454535F 
 12047      4552525F 
 12047      43434344 
 12048              	.LASF372:
 12049 03f6 41766572 		.ascii	"AverageUVLightLevel\000"
 12049      61676555 
 12049      564C6967 
 12049      68744C65 
 12049      76656C00 
 12050              	.LASF454:
 12051 040a 746F7461 		.ascii	"totalSubSessionCount\000"
 12051      6C537562 
 12051      53657373 
 12051      696F6E43 
 12051      6F756E74 
ARM GAS  C:\Users\310309~1\AppData\Local\Temp\ccu8WRKs.s 			page 246


 12052              	.LASF411:
 12053 041f 73756253 		.ascii	"subSessionIDBuffer\000"
 12053      65737369 
 12053      6F6E4944 
 12053      42756666 
 12053      657200
 12054              	.LASF361:
 12055 0432 4E756D62 		.ascii	"NumberOfAwakenings\000"
 12055      65724F66 
 12055      4177616B 
 12055      656E696E 
 12055      677300
 12056              	.LASF61:
 12057 0445 4359424C 		.ascii	"CYBLE_EVT_GATTC_READ_RSP\000"
 12057      455F4556 
 12057      545F4741 
 12057      5454435F 
 12057      52454144 
 12058              	.LASF298:
 12059 045e 44757261 		.ascii	"DurationOfNormalWalkingEpisodes\000"
 12059      74696F6E 
 12059      4F664E6F 
 12059      726D616C 
 12059      57616C6B 
 12060              	.LASF414:
 12061 047e 666F756E 		.ascii	"foundRunningSession\000"
 12061      6452756E 
 12061      6E696E67 
 12061      53657373 
 12061      696F6E00 
 12062              	.LASF238:
 12063 0492 6F70636F 		.ascii	"opcode\000"
 12063      646500
 12064              	.LASF300:
 12065 0499 4D696E69 		.ascii	"MinimumMotionCadence\000"
 12065      6D756D4D 
 12065      6F74696F 
 12065      6E436164 
 12065      656E6365 
 12066              	.LASF493:
 12067 04ae 4379426C 		.ascii	"CyBle_GattsWriteAttributeValue\000"
 12067      655F4761 
 12067      74747357 
 12067      72697465 
 12067      41747472 
 12068              	.LASF406:
 12069 04cd 426C6545 		.ascii	"BleEventHandler\000"
 12069      76656E74 
 12069      48616E64 
 12069      6C657200 
 12070              	.LASF370:
 12071 04dd 4D696E69 		.ascii	"MinimumUVLightLevel\000"
 12071      6D756D55 
 12071      564C6967 
 12071      68744C65 
 12071      76656C00 
 12072              	.LASF509:
ARM GAS  C:\Users\310309~1\AppData\Local\Temp\ccu8WRKs.s 			page 247


 12073 04f1 6D656D63 		.ascii	"memcpy\000"
 12073      707900
 12074              	.LASF341:
 12075 04f8 4D696E69 		.ascii	"MinimumRespirationRate\000"
 12075      6D756D52 
 12075      65737069 
 12075      72617469 
 12075      6F6E5261 
 12076              	.LASF46:
 12077 050f 4359424C 		.ascii	"CYBLE_EVT_GAPC_DIRECT_ADV_REPORT\000"
 12077      455F4556 
 12077      545F4741 
 12077      50435F44 
 12077      49524543 
 12078              	.LASF331:
 12079 0530 41766572 		.ascii	"AverageHeartRate\000"
 12079      61676548 
 12079      65617274 
 12079      52617465 
 12079      00
 12080              	.LASF9:
 12081 0541 75696E74 		.ascii	"uint8\000"
 12081      3800
 12082              	.LASF397:
 12083 0547 414C4C5F 		.ascii	"ALL_SUB_SESSIONS_IN_SESSION\000"
 12083      5355425F 
 12083      53455353 
 12083      494F4E53 
 12083      5F494E5F 
 12084              	.LASF274:
 12085 0563 53657175 		.ascii	"SequenceNumber\000"
 12085      656E6365 
 12085      4E756D62 
 12085      657200
 12086              	.LASF162:
 12087 0572 4359424C 		.ascii	"CYBLE_GATT_XCHNG_MTU_RSP\000"
 12087      455F4741 
 12087      54545F58 
 12087      43484E47 
 12087      5F4D5455 
 12088              	.LASF432:
 12089 058b 73657373 		.ascii	"sessionDescriptorIndicate\000"
 12089      696F6E44 
 12089      65736372 
 12089      6970746F 
 12089      72496E64 
 12090              	.LASF364:
 12091 05a5 536E6F6F 		.ascii	"SnoozeTime\000"
 12091      7A655469 
 12091      6D6500
 12092              	.LASF165:
 12093 05b0 4359424C 		.ascii	"CYBLE_GATT_FIND_BY_TYPE_VALUE_REQ\000"
 12093      455F4741 
 12093      54545F46 
 12093      494E445F 
 12093      42595F54 
 12094              	.LASF307:
ARM GAS  C:\Users\310309~1\AppData\Local\Temp\ccu8WRKs.s 			page 248


 12095 05d2 4D696E69 		.ascii	"MinimumActivityLevel\000"
 12095      6D756D41 
 12095      63746976 
 12095      6974794C 
 12095      6576656C 
 12096              	.LASF123:
 12097 05e7 4359424C 		.ascii	"CYBLE_ERROR_CHAR_IS_NOT_DISCOVERED\000"
 12097      455F4552 
 12097      524F525F 
 12097      43484152 
 12097      5F49535F 
 12098              	.LASF306:
 12099 060a 41637469 		.ascii	"ActivityCount\000"
 12099      76697479 
 12099      436F756E 
 12099      7400
 12100              	.LASF492:
 12101 0618 64656C65 		.ascii	"delete_sub_session\000"
 12101      74655F73 
 12101      75625F73 
 12101      65737369 
 12101      6F6E00
 12102              	.LASF251:
 12103 062b 4359424C 		.ascii	"CYBLE_DIS_REG_CERT_DATA\000"
 12103      455F4449 
 12103      535F5245 
 12103      475F4345 
 12103      52545F44 
 12104              	.LASF480:
 12105 0643 55415254 		.ascii	"UART_DEB_SpiUartGetTxBufferSize\000"
 12105      5F444542 
 12105      5F537069 
 12105      55617274 
 12105      47657454 
 12106              	.LASF311:
 12107 0663 576F726E 		.ascii	"WornDuration\000"
 12107      44757261 
 12107      74696F6E 
 12107      00
 12108              	.LASF495:
 12109 0670 6164645F 		.ascii	"add_session\000"
 12109      73657373 
 12109      696F6E00 
 12110              	.LASF24:
 12111 067c 4359424C 		.ascii	"CYBLE_EVT_HARDWARE_ERROR\000"
 12111      455F4556 
 12111      545F4841 
 12111      52445741 
 12111      52455F45 
 12112              	.LASF94:
 12113 0695 4359424C 		.ascii	"CYBLE_ERROR_INVALID_PARAMETER\000"
 12113      455F4552 
 12113      524F525F 
 12113      494E5641 
 12113      4C49445F 
 12114              	.LASF385:
 12115 06b3 47454E45 		.ascii	"GENERAL_ACTIVITY_INSTANTANEOUS\000"
ARM GAS  C:\Users\310309~1\AppData\Local\Temp\ccu8WRKs.s 			page 249


 12115      52414C5F 
 12115      41435449 
 12115      56495459 
 12115      5F494E53 
 12116              	.LASF491:
 12117 06d2 64656C65 		.ascii	"delete_session\000"
 12117      74655F73 
 12117      65737369 
 12117      6F6E00
 12118              	.LASF330:
 12119 06e1 4D617869 		.ascii	"MaximumHeartRate\000"
 12119      6D756D48 
 12119      65617274 
 12119      52617465 
 12119      00
 12120              	.LASF289:
 12121 06f2 546F7461 		.ascii	"TotalEnergyExpenditure\000"
 12121      6C456E65 
 12121      72677945 
 12121      7870656E 
 12121      64697475 
 12122              	.LASF502:
 12123 0709 474E5520 		.ascii	"GNU C11 5.4.1 20160609 (release) [ARM/embedded-5-br"
 12123      43313120 
 12123      352E342E 
 12123      31203230 
 12123      31363036 
 12124 073c 616E6368 		.ascii	"anch revision 237715] -mcpu=cortex-m0 -mthumb -g -O"
 12124      20726576 
 12124      6973696F 
 12124      6E203233 
 12124      37373135 
 12125 076f 67202D66 		.ascii	"g -ffunction-sections -ffat-lto-objects\000"
 12125      66756E63 
 12125      74696F6E 
 12125      2D736563 
 12125      74696F6E 
 12126              	.LASF79:
 12127 0797 4359424C 		.ascii	"CYBLE_EVT_L2CAP_COMMAND_REJ\000"
 12127      455F4556 
 12127      545F4C32 
 12127      4341505F 
 12127      434F4D4D 
 12128              	.LASF261:
 12129 07b3 53657373 		.ascii	"SessionID\000"
 12129      696F6E49 
 12129      4400
 12130              	.LASF291:
 12131 07bd 4D696E69 		.ascii	"MinimumMetabolicEquivalent\000"
 12131      6D756D4D 
 12131      65746162 
 12131      6F6C6963 
 12131      45717569 
 12132              	.LASF293:
 12133 07d8 41766572 		.ascii	"AverageMetabolicEquivalent\000"
 12133      6167654D 
 12133      65746162 
ARM GAS  C:\Users\310309~1\AppData\Local\Temp\ccu8WRKs.s 			page 250


 12133      6F6C6963 
 12133      45717569 
 12134              	.LASF90:
 12135 07f3 4359424C 		.ascii	"CYBLE_EVT_HCI_PKT\000"
 12135      455F4556 
 12135      545F4843 
 12135      495F504B 
 12135      5400
 12136              	.LASF281:
 12137 0805 4D6F7469 		.ascii	"MotionCadence\000"
 12137      6F6E4361 
 12137      64656E63 
 12137      6500
 12138              	.LASF130:
 12139 0813 4359424C 		.ascii	"CYBLE_BLESS_HIBERNATE\000"
 12139      455F424C 
 12139      4553535F 
 12139      48494245 
 12139      524E4154 
 12140              	.LASF446:
 12141 0829 53617344 		.ascii	"SasData\000"
 12141      61746100 
 12142              	.LASF133:
 12143 0831 74797065 		.ascii	"type\000"
 12143      00
 12144              	.LASF207:
 12145 0836 4359424C 		.ascii	"CYBLE_GATT_ERR_TRIGGER_CODITION_VALUE_NOT_SUPPORTED"
 12145      455F4741 
 12145      54545F45 
 12145      52525F54 
 12145      52494747 
 12146 0869 00       		.ascii	"\000"
 12147              	.LASF47:
 12148 086a 4359424C 		.ascii	"CYBLE_EVT_GAP_SMP_NEGOTIATED_AUTH_INFO\000"
 12148      455F4556 
 12148      545F4741 
 12148      505F534D 
 12148      505F4E45 
 12149              	.LASF436:
 12150 0891 47617344 		.ascii	"GasData\000"
 12150      61746100 
 12151              	.LASF234:
 12152 0899 4359424C 		.ascii	"CYBLE_GATT_VALUE_T\000"
 12152      455F4741 
 12152      54545F56 
 12152      414C5545 
 12152      5F5400
 12153              	.LASF474:
 12154 08ac 43794861 		.ascii	"CyHalt\000"
 12154      6C7400
 12155              	.LASF456:
 12156 08b3 636F6E74 		.ascii	"controlpointIndicate\000"
 12156      726F6C70 
 12156      6F696E74 
 12156      496E6469 
 12156      63617465 
 12157              	.LASF66:
ARM GAS  C:\Users\310309~1\AppData\Local\Temp\ccu8WRKs.s 			page 251


 12158 08c8 4359424C 		.ascii	"CYBLE_EVT_GATTS_WRITE_CMD_REQ\000"
 12158      455F4556 
 12158      545F4741 
 12158      5454535F 
 12158      57524954 
 12159              	.LASF498:
 12160 08e6 73746F70 		.ascii	"stop_sub_session\000"
 12160      5F737562 
 12160      5F736573 
 12160      73696F6E 
 12160      00
 12161              	.LASF175:
 12162 08f7 4359424C 		.ascii	"CYBLE_GATT_READ_BY_GROUP_REQ\000"
 12162      455F4741 
 12162      54545F52 
 12162      4541445F 
 12162      42595F47 
 12163              	.LASF63:
 12164 0914 4359424C 		.ascii	"CYBLE_EVT_GATTC_READ_MULTI_RSP\000"
 12164      455F4556 
 12164      545F4741 
 12164      5454435F 
 12164      52454144 
 12165              	.LASF284:
 12166 0933 41637469 		.ascii	"ActivityLevel\000"
 12166      76697479 
 12166      4C657665 
 12166      6C00
 12167              	.LASF374:
 12168 0941 4D617869 		.ascii	"MaximumIRLightLevel\000"
 12168      6D756D49 
 12168      524C6967 
 12168      68744C65 
 12168      76656C00 
 12169              	.LASF216:
 12170 0955 4359424C 		.ascii	"CYBLE_GATTS_ERR_OPERATION_FAILED\000"
 12170      455F4741 
 12170      5454535F 
 12170      4552525F 
 12170      4F504552 
 12171              	.LASF469:
 12172 0976 55415254 		.ascii	"UART_DEB_Start\000"
 12172      5F444542 
 12172      5F537461 
 12172      727400
 12173              	.LASF365:
 12174 0985 4E756D62 		.ascii	"NumberOfTossNturnEvents\000"
 12174      65724F66 
 12174      546F7373 
 12174      4E747572 
 12174      6E457665 
 12175              	.LASF52:
 12176 099d 4359424C 		.ascii	"CYBLE_EVT_GATTC_ERROR_RSP\000"
 12176      455F4556 
 12176      545F4741 
 12176      5454435F 
 12176      4552524F 
ARM GAS  C:\Users\310309~1\AppData\Local\Temp\ccu8WRKs.s 			page 252


 12177              	.LASF171:
 12178 09b7 4359424C 		.ascii	"CYBLE_GATT_READ_BLOB_REQ\000"
 12178      455F4741 
 12178      54545F52 
 12178      4541445F 
 12178      424C4F42 
 12179              	.LASF243:
 12180 09d0 4359424C 		.ascii	"CYBLE_GATTS_WRITE_REQ_PARAM_T\000"
 12180      455F4741 
 12180      5454535F 
 12180      57524954 
 12180      455F5245 
 12181              	.LASF225:
 12182 09ee 4359424C 		.ascii	"CYBLE_GATT_ERR_CCCD_IMPROPERLY_CONFIGURED\000"
 12182      455F4741 
 12182      54545F45 
 12182      52525F43 
 12182      4343445F 
 12183              	.LASF1:
 12184 0a18 756E7369 		.ascii	"unsigned char\000"
 12184      676E6564 
 12184      20636861 
 12184      7200
 12185              	.LASF262:
 12186 0a26 53657373 		.ascii	"SessionStartBaseTime\000"
 12186      696F6E53 
 12186      74617274 
 12186      42617365 
 12186      54696D65 
 12187              	.LASF34:
 12188 0a3b 4359424C 		.ascii	"CYBLE_EVT_GAPP_ADVERTISEMENT_START_STOP\000"
 12188      455F4556 
 12188      545F4741 
 12188      50505F41 
 12188      44564552 
 12189              	.LASF217:
 12190 0a63 4359424C 		.ascii	"CYBLE_GATT_ERR_INVALID_CRC\000"
 12190      455F4741 
 12190      54545F45 
 12190      52525F49 
 12190      4E56414C 
 12191              	.LASF119:
 12192 0a7e 4359424C 		.ascii	"CYBLE_ERROR_CONTROLLER_BUSY\000"
 12192      455F4552 
 12192      524F525F 
 12192      434F4E54 
 12192      524F4C4C 
 12193              	.LASF458:
 12194 0a9a 63757272 		.ascii	"currentsessionIndicate\000"
 12194      656E7473 
 12194      65737369 
 12194      6F6E496E 
 12194      64696361 
 12195              	.LASF396:
 12196 0ab1 43555252 		.ascii	"CURRENT_SUB_SESSION\000"
 12196      454E545F 
 12196      5355425F 
ARM GAS  C:\Users\310309~1\AppData\Local\Temp\ccu8WRKs.s 			page 253


 12196      53455353 
 12196      494F4E00 
 12197              	.LASF14:
 12198 0ac5 666C6F61 		.ascii	"float\000"
 12198      7400
 12199              	.LASF376:
 12200 0acb 41766572 		.ascii	"AverageSleepingHeartRate\000"
 12200      61676553 
 12200      6C656570 
 12200      696E6748 
 12200      65617274 
 12201              	.LASF475:
 12202 0ae4 50696E5F 		.ascii	"Pin_SW2_Int_StartEx\000"
 12202      5357325F 
 12202      496E745F 
 12202      53746172 
 12202      74457800 
 12203              	.LASF142:
 12204 0af8 4359424C 		.ascii	"CYBLE_GAP_AUTH_ERROR_COMMAND_NOT_SUPPORTED\000"
 12204      455F4741 
 12204      505F4155 
 12204      54485F45 
 12204      52524F52 
 12205              	.LASF321:
 12206 0b23 54696D65 		.ascii	"TimeInHeartRateZone1\000"
 12206      496E4865 
 12206      61727452 
 12206      6174655A 
 12206      6F6E6531 
 12207              	.LASF322:
 12208 0b38 54696D65 		.ascii	"TimeInHeartRateZone2\000"
 12208      496E4865 
 12208      61727452 
 12208      6174655A 
 12208      6F6E6532 
 12209              	.LASF323:
 12210 0b4d 54696D65 		.ascii	"TimeInHeartRateZone3\000"
 12210      496E4865 
 12210      61727452 
 12210      6174655A 
 12210      6F6E6533 
 12211              	.LASF324:
 12212 0b62 54696D65 		.ascii	"TimeInHeartRateZone4\000"
 12212      496E4865 
 12212      61727452 
 12212      6174655A 
 12212      6F6E6534 
 12213              	.LASF325:
 12214 0b77 54696D65 		.ascii	"TimeInHeartRateZone5\000"
 12214      496E4865 
 12214      61727452 
 12214      6174655A 
 12214      6F6E6535 
 12215              	.LASF318:
 12216 0b8c 52657370 		.ascii	"RespirationRate\000"
 12216      69726174 
 12216      696F6E52 
ARM GAS  C:\Users\310309~1\AppData\Local\Temp\ccu8WRKs.s 			page 254


 12216      61746500 
 12217              	.LASF59:
 12218 0b9c 4359424C 		.ascii	"CYBLE_EVT_GATTC_FIND_INFO_RSP\000"
 12218      455F4556 
 12218      545F4741 
 12218      5454435F 
 12218      46494E44 
 12219              	.LASF179:
 12220 0bba 4359424C 		.ascii	"CYBLE_GATT_WRITE_CMD\000"
 12220      455F4741 
 12220      54545F57 
 12220      52495445 
 12220      5F434D44 
 12221              	.LASF80:
 12222 0bcf 4359424C 		.ascii	"CYBLE_EVT_L2CAP_CBFC_CONN_IND\000"
 12222      455F4556 
 12222      545F4C32 
 12222      4341505F 
 12222      43424643 
 12223              	.LASF210:
 12224 0bed 4359424C 		.ascii	"CYBLE_GATT_ERR_CPS_INAPPROPRIATE_CONNECTION_PARAMET"
 12224      455F4741 
 12224      54545F45 
 12224      52525F43 
 12224      50535F49 
 12225 0c20 45525300 		.ascii	"ERS\000"
 12226              	.LASF333:
 12227 0c24 4D617869 		.ascii	"MaximumPulseInterbeatInterval\000"
 12227      6D756D50 
 12227      756C7365 
 12227      496E7465 
 12227      72626561 
 12228              	.LASF82:
 12229 0c42 4359424C 		.ascii	"CYBLE_EVT_L2CAP_CBFC_DISCONN_IND\000"
 12229      455F4556 
 12229      545F4C32 
 12229      4341505F 
 12229      43424643 
 12230              	.LASF283:
 12231 0c63 41637469 		.ascii	"ActivityCountPerMinute\000"
 12231      76697479 
 12231      436F756E 
 12231      74506572 
 12231      4D696E75 
 12232              	.LASF195:
 12233 0c7a 4359424C 		.ascii	"CYBLE_GATT_ERR_REQUEST_NOT_SUPPORTED\000"
 12233      455F4741 
 12233      54545F45 
 12233      52525F52 
 12233      45515545 
 12234              	.LASF267:
 12235 0c9f 53756253 		.ascii	"SubSessionStartBaseTime\000"
 12235      65737369 
 12235      6F6E5374 
 12235      61727442 
 12235      61736554 
 12236              	.LASF29:
ARM GAS  C:\Users\310309~1\AppData\Local\Temp\ccu8WRKs.s 			page 255


 12237 0cb7 4359424C 		.ascii	"CYBLE_EVT_GAP_AUTH_REQ\000"
 12237      455F4556 
 12237      545F4741 
 12237      505F4155 
 12237      54485F52 
 12238              	.LASF193:
 12239 0cce 4359424C 		.ascii	"CYBLE_GATT_ERR_INVALID_PDU\000"
 12239      455F4741 
 12239      54545F45 
 12239      52525F49 
 12239      4E56414C 
 12240              	.LASF253:
 12241 0ce9 4359424C 		.ascii	"CYBLE_DIS_CHAR_COUNT\000"
 12241      455F4449 
 12241      535F4348 
 12241      41525F43 
 12241      4F554E54 
 12242              	.LASF224:
 12243 0cfe 4359424C 		.ascii	"CYBLE_GATT_ERR_ANCS_ACTION_FAILED\000"
 12243      455F4741 
 12243      54545F45 
 12243      52525F41 
 12243      4E43535F 
 12244              	.LASF167:
 12245 0d20 4359424C 		.ascii	"CYBLE_GATT_READ_BY_TYPE_REQ\000"
 12245      455F4741 
 12245      54545F52 
 12245      4541445F 
 12245      42595F54 
 12246              	.LASF328:
 12247 0d3c 41766572 		.ascii	"AverageVO2Max\000"
 12247      61676556 
 12247      4F324D61 
 12247      7800
 12248              	.LASF198:
 12249 0d4a 4359424C 		.ascii	"CYBLE_GATT_ERR_PREPARE_WRITE_QUEUE_FULL\000"
 12249      455F4741 
 12249      54545F45 
 12249      52525F50 
 12249      52455041 
 12250              	.LASF368:
 12251 0d72 4D617869 		.ascii	"MaximumVisibleLightLevel\000"
 12251      6D756D56 
 12251      69736962 
 12251      6C654C69 
 12251      6768744C 
 12252              	.LASF256:
 12253 0d8b 4359424C 		.ascii	"CYBLE_STATE_CONNECTED\000"
 12253      455F5354 
 12253      4154455F 
 12253      434F4E4E 
 12253      45435445 
 12254              	.LASF111:
 12255 0da1 4359424C 		.ascii	"CYBLE_ERROR_L2CAP_PSM_NOT_IN_RANGE\000"
 12255      455F4552 
 12255      524F525F 
 12255      4C324341 
ARM GAS  C:\Users\310309~1\AppData\Local\Temp\ccu8WRKs.s 			page 256


 12255      505F5053 
 12256              	.LASF467:
 12257 0dc4 55706461 		.ascii	"UpdateSaid\000"
 12257      74655361 
 12257      696400
 12258              	.LASF125:
 12259 0dcf 4359424C 		.ascii	"CYBLE_ERROR_STACK_BUSY\000"
 12259      455F4552 
 12259      524F525F 
 12259      53544143 
 12259      4B5F4255 
 12260              	.LASF508:
 12261 0de6 5F5F6275 		.ascii	"__builtin_puts\000"
 12261      696C7469 
 12261      6E5F7075 
 12261      747300
 12262              	.LASF28:
 12263 0df5 4359424C 		.ascii	"CYBLE_EVT_GAPC_SCAN_PROGRESS_RESULT\000"
 12263      455F4556 
 12263      545F4741 
 12263      50435F53 
 12263      43414E5F 
 12264              	.LASF199:
 12265 0e19 4359424C 		.ascii	"CYBLE_GATT_ERR_ATTRIBUTE_NOT_FOUND\000"
 12265      455F4741 
 12265      54545F45 
 12265      52525F41 
 12265      54545249 
 12266              	.LASF292:
 12267 0e3c 4D617869 		.ascii	"MaximumMetabolicEquivalent\000"
 12267      6D756D4D 
 12267      65746162 
 12267      6F6C6963 
 12267      45717569 
 12268              	.LASF164:
 12269 0e57 4359424C 		.ascii	"CYBLE_GATT_FIND_INFO_RSP\000"
 12269      455F4741 
 12269      54545F46 
 12269      494E445F 
 12269      494E464F 
 12270              	.LASF23:
 12271 0e70 4359424C 		.ascii	"CYBLE_EVT_TIMEOUT\000"
 12271      455F4556 
 12271      545F5449 
 12271      4D454F55 
 12271      5400
 12272              	.LASF151:
 12273 0e82 4359424C 		.ascii	"CYBLE_GAP_AUTH_ERROR_AUTHENTICATION_TIMEOUT\000"
 12273      455F4741 
 12273      505F4155 
 12273      54485F45 
 12273      52524F52 
 12274              	.LASF488:
 12275 0eae 4379426C 		.ascii	"CyBle_GappStartAdvertisement\000"
 12275      655F4761 
 12275      70705374 
 12275      61727441 
ARM GAS  C:\Users\310309~1\AppData\Local\Temp\ccu8WRKs.s 			page 257


 12275      64766572 
 12276              	.LASF280:
 12277 0ecb 53706565 		.ascii	"Speed\000"
 12277      6400
 12278              	.LASF206:
 12279 0ed1 4359424C 		.ascii	"CYBLE_GATT_ERR_INSUFFICIENT_RESOURCE\000"
 12279      455F4741 
 12279      54545F45 
 12279      52525F49 
 12279      4E535546 
 12280              	.LASF453:
 12281 0ef6 746F7461 		.ascii	"totalSessionCount\000"
 12281      6C536573 
 12281      73696F6E 
 12281      436F756E 
 12281      7400
 12282              	.LASF153:
 12283 0f08 4359424C 		.ascii	"CYBLE_GAP_AUTH_FAILED_REASON_T\000"
 12283      455F4741 
 12283      505F4155 
 12283      54485F46 
 12283      41494C45 
 12284              	.LASF230:
 12285 0f27 62644861 		.ascii	"bdHandle\000"
 12285      6E646C65 
 12285      00
 12286              	.LASF489:
 12287 0f30 4379426C 		.ascii	"CyBle_GetDeviceAddress\000"
 12287      655F4765 
 12287      74446576 
 12287      69636541 
 12287      64647265 
 12288              	.LASF89:
 12289 0f47 4359424C 		.ascii	"CYBLE_EVT_LE_PING_AUTH_TIMEOUT\000"
 12289      455F4556 
 12289      545F4C45 
 12289      5F50494E 
 12289      475F4155 
 12290              	.LASF412:
 12291 0f66 666F756E 		.ascii	"foundSubSession\000"
 12291      64537562 
 12291      53657373 
 12291      696F6E00 
 12292              	.LASF101:
 12293 0f76 4359424C 		.ascii	"CYBLE_ERROR_REPEATED_ATTEMPTS\000"
 12293      455F4552 
 12293      524F525F 
 12293      52455045 
 12293      41544544 
 12294              	.LASF169:
 12295 0f94 4359424C 		.ascii	"CYBLE_GATT_READ_REQ\000"
 12295      455F4741 
 12295      54545F52 
 12295      4541445F 
 12295      52455100 
 12296              	.LASF87:
 12297 0fa8 4359424C 		.ascii	"CYBLE_EVT_L2CAP_CBFC_DATA_WRITE_IND\000"
ARM GAS  C:\Users\310309~1\AppData\Local\Temp\ccu8WRKs.s 			page 258


 12297      455F4556 
 12297      545F4C32 
 12297      4341505F 
 12297      43424643 
 12298              	.LASF70:
 12299 0fcc 4359424C 		.ascii	"CYBLE_EVT_GATTC_HANDLE_VALUE_NTF\000"
 12299      455F4556 
 12299      545F4741 
 12299      5454435F 
 12299      48414E44 
 12300              	.LASF132:
 12301 0fed 62644164 		.ascii	"bdAddr\000"
 12301      647200
 12302              	.LASF185:
 12303 0ff4 4359424C 		.ascii	"CYBLE_GATT_HANDLE_VALUE_IND\000"
 12303      455F4741 
 12303      54545F48 
 12303      414E444C 
 12303      455F5641 
 12304              	.LASF276:
 12305 1010 496E7465 		.ascii	"IntensityEnergyExpenditurePerHour\000"
 12305      6E736974 
 12305      79456E65 
 12305      72677945 
 12305      7870656E 
 12306              	.LASF305:
 12307 1032 4E656761 		.ascii	"NegativeElevationGain\000"
 12307      74697665 
 12307      456C6576 
 12307      6174696F 
 12307      6E476169 
 12308              	.LASF145:
 12309 1048 4359424C 		.ascii	"CYBLE_GAP_AUTH_ERROR_INVALID_PARAMETERS\000"
 12309      455F4741 
 12309      505F4155 
 12309      54485F45 
 12309      52524F52 
 12310              	.LASF148:
 12311 1070 4359424C 		.ascii	"CYBLE_GAP_AUTH_ERROR_BR_EDR_PAIRING_IN_PROGRESS\000"
 12311      455F4741 
 12311      505F4155 
 12311      54485F45 
 12311      52524F52 
 12312              	.LASF290:
 12313 10a0 46617442 		.ascii	"FatBurned\000"
 12313      75726E65 
 12313      6400
 12314              	.LASF121:
 12315 10aa 4359424C 		.ascii	"CYBLE_ERROR_NTF_DISABLED\000"
 12315      455F4552 
 12315      524F525F 
 12315      4E54465F 
 12315      44495341 
 12316              	.LASF135:
 12317 10c3 4359424C 		.ascii	"CYBLE_GAP_AUTH_ERROR_NONE\000"
 12317      455F4741 
 12317      505F4155 
ARM GAS  C:\Users\310309~1\AppData\Local\Temp\ccu8WRKs.s 			page 259


 12317      54485F45 
 12317      52524F52 
 12318              	.LASF504:
 12319 10dd 433A5C55 		.ascii	"C:\\Users\\310309623\\Desktop\\OneDrive - Philips\\"
 12319      73657273 
 12319      5C333130 
 12319      33303936 
 12319      32335C44 
 12320 110b 41667374 		.ascii	"Afstudeerstage\\Afstuderen\\Stage\\Project\\Service"
 12320      75646565 
 12320      72737461 
 12320      67655C41 
 12320      66737475 
 12321 113a 5C506869 		.ascii	"\\Philips\\Physical Activity Monitor Service.cydsn\000"
 12321      6C697073 
 12321      5C506879 
 12321      73696361 
 12321      6C204163 
 12322              	.LASF441:
 12323 116b 63617264 		.ascii	"cardiorespiratoryactivitysummarydataIndicate\000"
 12323      696F7265 
 12323      73706972 
 12323      61746F72 
 12323      79616374 
 12324              	.LASF354:
 12325 1198 49524C69 		.ascii	"IRLightLevel\000"
 12325      6768744C 
 12325      6576656C 
 12325      00
 12326              	.LASF430:
 12327 11a5 55736572 		.ascii	"UserDefinedActivityTypeAllSubSessions\000"
 12327      44656669 
 12327      6E656441 
 12327      63746976 
 12327      69747954 
 12328              	.LASF356:
 12329 11cb 536C6565 		.ascii	"SleepingHeartRate\000"
 12329      70696E67 
 12329      48656172 
 12329      74526174 
 12329      6500
 12330              	.LASF126:
 12331 11dd 4359424C 		.ascii	"CYBLE_API_RESULT_T\000"
 12331      455F4150 
 12331      495F5245 
 12331      53554C54 
 12331      5F5400
 12332              	.LASF161:
 12333 11f0 4359424C 		.ascii	"CYBLE_GATT_XCNHG_MTU_REQ\000"
 12333      455F4741 
 12333      54545F58 
 12333      434E4847 
 12333      5F4D5455 
 12334              	.LASF505:
 12335 1209 53696D75 		.ascii	"SimulateValues\000"
 12335      6C617465 
 12335      56616C75 
ARM GAS  C:\Users\310309~1\AppData\Local\Temp\ccu8WRKs.s 			page 260


 12335      657300
 12336              	.LASF390:
 12337 1218 534C4545 		.ascii	"SLEEP_ACTIVITY_INSTANTANEOUS\000"
 12337      505F4143 
 12337      54495649 
 12337      54595F49 
 12337      4E535441 
 12338              	.LASF314:
 12339 1235 48656172 		.ascii	"HeartRate\000"
 12339      74526174 
 12339      6500
 12340              	.LASF299:
 12341 123f 44757261 		.ascii	"DurationOfIntensityWalkingEpisodes\000"
 12341      74696F6E 
 12341      4F66496E 
 12341      74656E73 
 12341      69747957 
 12342              	.LASF473:
 12343 1262 75706461 		.ascii	"updateControlPointGetEndedDataSucces\000"
 12343      7465436F 
 12343      6E74726F 
 12343      6C506F69 
 12343      6E744765 
 12344              	.LASF131:
 12345 1287 4359424C 		.ascii	"CYBLE_BLESS_INVALID\000"
 12345      455F424C 
 12345      4553535F 
 12345      494E5641 
 12345      4C494400 
 12346              	.LASF254:
 12347 129b 4359424C 		.ascii	"CYBLE_STATE_STOPPED\000"
 12347      455F5354 
 12347      4154455F 
 12347      53544F50 
 12347      50454400 
 12348              	.LASF44:
 12349 12af 4359424C 		.ascii	"CYBLE_EVT_GAP_DATA_LENGTH_CHANGE\000"
 12349      455F4556 
 12349      545F4741 
 12349      505F4441 
 12349      54415F4C 
 12350              	.LASF187:
 12351 12d0 4359424C 		.ascii	"CYBLE_GATT_SIGNED_WRITE_CMD\000"
 12351      455F4741 
 12351      54545F53 
 12351      49474E45 
 12351      445F5752 
 12352              	.LASF433:
 12353 12ec 61706952 		.ascii	"apiResult\000"
 12353      6573756C 
 12353      7400
 12354              	.LASF166:
 12355 12f6 4359424C 		.ascii	"CYBLE_GATT_FIND_BY_TYPE_VALUE_RSP\000"
 12355      455F4741 
 12355      54545F46 
 12355      494E445F 
 12355      42595F54 
ARM GAS  C:\Users\310309~1\AppData\Local\Temp\ccu8WRKs.s 			page 261


 12356              	.LASF84:
 12357 1318 4359424C 		.ascii	"CYBLE_EVT_L2CAP_CBFC_DATA_READ\000"
 12357      455F4556 
 12357      545F4C32 
 12357      4341505F 
 12357      43424643 
 12358              	.LASF129:
 12359 1337 4359424C 		.ascii	"CYBLE_BLESS_DEEPSLEEP\000"
 12359      455F424C 
 12359      4553535F 
 12359      44454550 
 12359      534C4545 
 12360              	.LASF115:
 12361 134d 4359424C 		.ascii	"CYBLE_ERROR_MIC_AUTH_FAILED\000"
 12361      455F4552 
 12361      524F525F 
 12361      4D49435F 
 12361      41555448 
 12362              	.LASF343:
 12363 1369 41766572 		.ascii	"AverageRespirationRate\000"
 12363      61676552 
 12363      65737069 
 12363      72617469 
 12363      6F6E5261 
 12364              	.LASF443:
 12365 1380 73746570 		.ascii	"stepcounteractivitysummarydataIndicate\000"
 12365      636F756E 
 12365      74657261 
 12365      63746976 
 12365      69747973 
 12366              	.LASF200:
 12367 13a7 4359424C 		.ascii	"CYBLE_GATT_ERR_ATTRIBUTE_NOT_LONG\000"
 12367      455F4741 
 12367      54545F45 
 12367      52525F41 
 12367      54545249 
 12368              	.LASF340:
 12369 13c9 41766572 		.ascii	"AverageHeartRateVariability\000"
 12369      61676548 
 12369      65617274 
 12369      52617465 
 12369      56617269 
 12370              	.LASF352:
 12371 13e5 56697369 		.ascii	"VisibleLightLevel\000"
 12371      626C654C 
 12371      69676874 
 12371      4C657665 
 12371      6C00
 12372              	.LASF401:
 12373 13f7 496E6974 		.ascii	"InitializePhisicalActivityMonitor\000"
 12373      69616C69 
 12373      7A655068 
 12373      69736963 
 12373      616C4163 
 12374              	.LASF332:
 12375 1419 4D696E69 		.ascii	"MinimumPulseInterbeatInterval\000"
 12375      6D756D50 
ARM GAS  C:\Users\310309~1\AppData\Local\Temp\ccu8WRKs.s 			page 262


 12375      756C7365 
 12375      496E7465 
 12375      72626561 
 12376              	.LASF264:
 12377 1437 53657373 		.ascii	"SessionEndBaseTime\000"
 12377      696F6E45 
 12377      6E644261 
 12377      73655469 
 12377      6D6500
 12378              	.LASF160:
 12379 144a 4359424C 		.ascii	"CYBLE_GATT_ERROR_RSP\000"
 12379      455F4741 
 12379      54545F45 
 12379      52524F52 
 12379      5F525350 
 12380              	.LASF147:
 12381 145f 4359424C 		.ascii	"CYBLE_GAP_AUTH_ERROR_NUMERIC_COMPARISON_FAILED\000"
 12381      455F4741 
 12381      505F4155 
 12381      54485F45 
 12381      52524F52 
 12382              	.LASF203:
 12383 148e 4359424C 		.ascii	"CYBLE_GATT_ERR_UNLIKELY_ERROR\000"
 12383      455F4741 
 12383      54545F45 
 12383      52525F55 
 12383      4E4C494B 
 12384              	.LASF237:
 12385 14ac 4359424C 		.ascii	"CYBLE_GATT_HANDLE_VALUE_PAIR_T\000"
 12385      455F4741 
 12385      54545F48 
 12385      414E444C 
 12385      455F5641 
 12386              	.LASF182:
 12387 14cb 4359424C 		.ascii	"CYBLE_GATT_EXECUTE_WRITE_REQ\000"
 12387      455F4741 
 12387      54545F45 
 12387      58454355 
 12387      54455F57 
 12388              	.LASF337:
 12389 14e8 41766572 		.ascii	"AverageRestingHeartRate\000"
 12389      61676552 
 12389      65737469 
 12389      6E674865 
 12389      61727452 
 12390              	.LASF416:
 12391 1500 746F4465 		.ascii	"toDeleteID\000"
 12391      6C657465 
 12391      494400
 12392              	.LASF62:
 12393 150b 4359424C 		.ascii	"CYBLE_EVT_GATTC_READ_BLOB_RSP\000"
 12393      455F4556 
 12393      545F4741 
 12393      5454435F 
 12393      52454144 
 12394              	.LASF471:
 12395 1529 55706461 		.ascii	"UpdateSessionDescriptor\000"
ARM GAS  C:\Users\310309~1\AppData\Local\Temp\ccu8WRKs.s 			page 263


 12395      74655365 
 12395      7373696F 
 12395      6E446573 
 12395      63726970 
 12396              	.LASF382:
 12397 1541 53544F50 		.ascii	"STOP_SESSION\000"
 12397      5F534553 
 12397      53494F4E 
 12397      00
 12398              	.LASF285:
 12399 154e 41637469 		.ascii	"ActivityType\000"
 12399      76697479 
 12399      54797065 
 12399      00
 12400              	.LASF27:
 12401 155b 4359424C 		.ascii	"CYBLE_EVT_MEMORY_REQUEST\000"
 12401      455F4556 
 12401      545F4D45 
 12401      4D4F5259 
 12401      5F524551 
 12402              	.LASF417:
 12403 1574 64656C65 		.ascii	"deleteStatus\000"
 12403      74655374 
 12403      61747573 
 12403      00
 12404              	.LASF156:
 12405 1581 656B6579 		.ascii	"ekeySize\000"
 12405      53697A65 
 12405      00
 12406              	.LASF359:
 12407 158a 546F7461 		.ascii	"TotalWakeTime\000"
 12407      6C57616B 
 12407      6554696D 
 12407      6500
 12408              	.LASF427:
 12409 1598 4765745F 		.ascii	"Get_Ended_Data_Value\000"
 12409      456E6465 
 12409      645F4461 
 12409      74615F56 
 12409      616C7565 
 12410              	.LASF68:
 12411 15ad 4359424C 		.ascii	"CYBLE_EVT_GATTS_EXEC_WRITE_REQ\000"
 12411      455F4556 
 12411      545F4741 
 12411      5454535F 
 12411      45584543 
 12412              	.LASF218:
 12413 15cc 4359424C 		.ascii	"CYBLE_GATTS_ERR_HPS_INVALID_REQUEST\000"
 12413      455F4741 
 12413      5454535F 
 12413      4552525F 
 12413      4850535F 
 12414              	.LASF347:
 12415 15f0 50414D5F 		.ascii	"PAM_CRASD_VALUE_T\000"
 12415      43524153 
 12415      445F5641 
 12415      4C55455F 
ARM GAS  C:\Users\310309~1\AppData\Local\Temp\ccu8WRKs.s 			page 264


 12415      5400
 12416              	.LASF113:
 12417 1602 4359424C 		.ascii	"CYBLE_ERROR_DEVICE_ALREADY_EXISTS\000"
 12417      455F4552 
 12417      524F525F 
 12417      44455649 
 12417      43455F41 
 12418              	.LASF242:
 12419 1624 68616E64 		.ascii	"handleValPair\000"
 12419      6C655661 
 12419      6C506169 
 12419      7200
 12420              	.LASF109:
 12421 1632 4359424C 		.ascii	"CYBLE_ERROR_L2CAP_CONNECTION_ENTITY_NOT_FOUND\000"
 12421      455F4552 
 12421      524F525F 
 12421      4C324341 
 12421      505F434F 
 12422              	.LASF102:
 12423 1660 4359424C 		.ascii	"CYBLE_ERROR_GAP_ROLE\000"
 12423      455F4552 
 12423      524F525F 
 12423      4741505F 
 12423      524F4C45 
 12424              	.LASF235:
 12425 1675 76616C75 		.ascii	"value\000"
 12425      6500
 12426              	.LASF189:
 12427 167b 4359424C 		.ascii	"CYBLE_GATT_ERR_NONE\000"
 12427      455F4741 
 12427      54545F45 
 12427      52525F4E 
 12427      4F4E4500 
 12428              	.LASF490:
 12429 168f 4379426C 		.ascii	"CyBle_GattsErrorRsp\000"
 12429      655F4761 
 12429      74747345 
 12429      72726F72 
 12429      52737000 
 12430              	.LASF268:
 12431 16a3 53756253 		.ascii	"SubSessionStartTimeOffset\000"
 12431      65737369 
 12431      6F6E5374 
 12431      61727454 
 12431      696D654F 
 12432              	.LASF487:
 12433 16bd 70776D5F 		.ascii	"pwm_Start\000"
 12433      53746172 
 12433      7400
 12434              	.LASF472:
 12435 16c7 75706461 		.ascii	"updateControlPointEnquireSucces\000"
 12435      7465436F 
 12435      6E74726F 
 12435      6C506F69 
 12435      6E74456E 
 12436              	.LASF277:
 12437 16e7 546F7461 		.ascii	"TotalEnergyExpenditurePerHour\000"
ARM GAS  C:\Users\310309~1\AppData\Local\Temp\ccu8WRKs.s 			page 265


 12437      6C456E65 
 12437      72677945 
 12437      7870656E 
 12437      64697475 
 12438              	.LASF362:
 12439 1705 536C6565 		.ascii	"SleepLatency\000"
 12439      704C6174 
 12439      656E6379 
 12439      00
 12440              	.LASF258:
 12441 1712 4359424C 		.ascii	"CYBLE_STATE_DISCONNECTED\000"
 12441      455F5354 
 12441      4154455F 
 12441      44495343 
 12441      4F4E4E45 
 12442              	.LASF54:
 12443 172b 4359424C 		.ascii	"CYBLE_EVT_GATT_DISCONNECT_IND\000"
 12443      455F4556 
 12443      545F4741 
 12443      54545F44 
 12443      4953434F 
 12444              	.LASF12:
 12445 1749 696E7438 		.ascii	"int8\000"
 12445      00
 12446              	.LASF348:
 12447 174e 4E6F726D 		.ascii	"NormalWalkingSteps\000"
 12447      616C5761 
 12447      6C6B696E 
 12447      67537465 
 12447      707300
 12448              	.LASF176:
 12449 1761 4359424C 		.ascii	"CYBLE_GATT_READ_BY_GROUP_RSP\000"
 12449      455F4741 
 12449      54545F52 
 12449      4541445F 
 12449      42595F47 
 12450              	.LASF143:
 12451 177e 4359424C 		.ascii	"CYBLE_GAP_AUTH_ERROR_UNSPECIFIED_REASON\000"
 12451      455F4741 
 12451      505F4155 
 12451      54485F45 
 12451      52524F52 
 12452              	.LASF317:
 12453 17a6 48656172 		.ascii	"HeartRateVariability\000"
 12453      74526174 
 12453      65566172 
 12453      69616269 
 12453      6C697479 
 12454              	.LASF78:
 12455 17bb 4359424C 		.ascii	"CYBLE_EVT_L2CAP_CONN_PARAM_UPDATE_RSP\000"
 12455      455F4556 
 12455      545F4C32 
 12455      4341505F 
 12455      434F4E4E 
 12456              	.LASF172:
 12457 17e1 4359424C 		.ascii	"CYBLE_GATT_READ_BLOB_RSP\000"
 12457      455F4741 
ARM GAS  C:\Users\310309~1\AppData\Local\Temp\ccu8WRKs.s 			page 266


 12457      54545F52 
 12457      4541445F 
 12457      424C4F42 
 12458              	.LASF468:
 12459 17fa 55706461 		.ascii	"UpdateSasd\000"
 12459      74655361 
 12459      736400
 12460              	.LASF249:
 12461 1805 4359424C 		.ascii	"CYBLE_DIS_SOFTWARE_REV\000"
 12461      455F4449 
 12461      535F534F 
 12461      46545741 
 12461      52455F52 
 12462              	.LASF208:
 12463 181c 4359424C 		.ascii	"CYBLE_GATT_ERR_HEART_RATE_CONTROL_POINT_NOT_SUPPORT"
 12463      455F4741 
 12463      54545F45 
 12463      52525F48 
 12463      45415254 
 12464 184f 454400   		.ascii	"ED\000"
 12465              	.LASF431:
 12466 1852 70616D46 		.ascii	"pamFeature\000"
 12466      65617475 
 12466      726500
 12467              	.LASF259:
 12468 185d 4359424C 		.ascii	"CYBLE_STATE_T\000"
 12468      455F5354 
 12468      4154455F 
 12468      5400
 12469              	.LASF403:
 12470 186b 70726F63 		.ascii	"procedureFailed\000"
 12470      65647572 
 12470      65466169 
 12470      6C656400 
 12471              	.LASF301:
 12472 187b 4D617869 		.ascii	"MaximumMotionCadence\000"
 12472      6D756D4D 
 12472      6F74696F 
 12472      6E436164 
 12472      656E6365 
 12473              	.LASF345:
 12474 1890 4D617869 		.ascii	"MaximumRestingRespirationRate\000"
 12474      6D756D52 
 12474      65737469 
 12474      6E675265 
 12474      73706972 
 12475              	.LASF297:
 12476 18ae 41766572 		.ascii	"AverageSpeed\000"
 12476      61676553 
 12476      70656564 
 12476      00
 12477              	.LASF386:
 12478 18bb 47454E45 		.ascii	"GENERAL_ACTIVITY_SUMMARY\000"
 12478      52414C5F 
 12478      41435449 
 12478      56495459 
 12478      5F53554D 
ARM GAS  C:\Users\310309~1\AppData\Local\Temp\ccu8WRKs.s 			page 267


 12479              	.LASF481:
 12480 18d4 4379426C 		.ascii	"CyBle_StoreBondingData\000"
 12480      655F5374 
 12480      6F726542 
 12480      6F6E6469 
 12480      6E674461 
 12481              	.LASF373:
 12482 18eb 4D696E69 		.ascii	"MinimumIRLightLevel\000"
 12482      6D756D49 
 12482      524C6967 
 12482      68744C65 
 12482      76656C00 
 12483              	.LASF158:
 12484 18ff 70616972 		.ascii	"pairingProperties\000"
 12484      696E6750 
 12484      726F7065 
 12484      72746965 
 12484      7300
 12485              	.LASF266:
 12486 1911 53756253 		.ascii	"SubSessionID\000"
 12486      65737369 
 12486      6F6E4944 
 12486      00
 12487              	.LASF37:
 12488 191e 4359424C 		.ascii	"CYBLE_EVT_GAP_ENCRYPT_CHANGE\000"
 12488      455F4556 
 12488      545F4741 
 12488      505F454E 
 12488      43525950 
 12489              	.LASF384:
 12490 193b 5345545F 		.ascii	"SET_AVERAGE_ACTIVITY_TYPE\000"
 12490      41564552 
 12490      4147455F 
 12490      41435449 
 12490      56495459 
 12491              	.LASF35:
 12492 1955 4359424C 		.ascii	"CYBLE_EVT_GAP_DEVICE_CONNECTED\000"
 12492      455F4556 
 12492      545F4741 
 12492      505F4445 
 12492      56494345 
 12493              	.LASF383:
 12494 1974 44454C45 		.ascii	"DELETE_SESSION\000"
 12494      54455F53 
 12494      45535349 
 12494      4F4E00
 12495              	.LASF168:
 12496 1983 4359424C 		.ascii	"CYBLE_GATT_READ_BY_TYPE_RSP\000"
 12496      455F4741 
 12496      54545F52 
 12496      4541445F 
 12496      42595F54 
 12497              	.LASF239:
 12498 199f 6572726F 		.ascii	"errorCode\000"
 12498      72436F64 
 12498      6500
 12499              	.LASF461:
ARM GAS  C:\Users\310309~1\AppData\Local\Temp\ccu8WRKs.s 			page 268


 12500 19a9 55706461 		.ascii	"UpdateGaid\000"
 12500      74654761 
 12500      696400
 12501              	.LASF398:
 12502 19b4 50414D5F 		.ascii	"PAM_CURRSESSION_VALUE_T\000"
 12502      43555252 
 12502      53455353 
 12502      494F4E5F 
 12502      56414C55 
 12503              	.LASF154:
 12504 19cc 73656375 		.ascii	"security\000"
 12504      72697479 
 12504      00
 12505              	.LASF507:
 12506 19d5 70757473 		.ascii	"puts\000"
 12506      00
 12507              	.LASF196:
 12508 19da 4359424C 		.ascii	"CYBLE_GATT_ERR_INVALID_OFFSET\000"
 12508      455F4741 
 12508      54545F45 
 12508      52525F49 
 12508      4E56414C 
 12509              	.LASF308:
 12510 19f8 4D617869 		.ascii	"MaximumActivityLevel\000"
 12510      6D756D41 
 12510      63746976 
 12510      6974794C 
 12510      6576656C 
 12511              	.LASF310:
 12512 1a0d 41766572 		.ascii	"AverageActivityType\000"
 12512      61676541 
 12512      63746976 
 12512      69747954 
 12512      79706500 
 12513              	.LASF221:
 12514 1a21 4359424C 		.ascii	"CYBLE_GATT_ERR_ANCS_UNKNOWN_COMMAND\000"
 12514      455F4741 
 12514      54545F45 
 12514      52525F41 
 12514      4E43535F 
 12515              	.LASF294:
 12516 1a45 44697374 		.ascii	"Distance\000"
 12516      616E6365 
 12516      00
 12517              	.LASF197:
 12518 1a4e 4359424C 		.ascii	"CYBLE_GATT_ERR_INSUFFICIENT_AUTHORIZATION\000"
 12518      455F4741 
 12518      54545F45 
 12518      52525F49 
 12518      4E535546 
 12519              	.LASF18:
 12520 1a78 72656733 		.ascii	"reg32\000"
 12520      3200
 12521              	.LASF88:
 12522 1a7e 4359424C 		.ascii	"CYBLE_EVT_PENDING_FLASH_WRITE\000"
 12522      455F4556 
 12522      545F5045 
ARM GAS  C:\Users\310309~1\AppData\Local\Temp\ccu8WRKs.s 			page 269


 12522      4E44494E 
 12522      475F464C 
 12523              	.LASF425:
 12524 1a9c 4765745F 		.ascii	"Get_Ended_Data_SessionID\000"
 12524      456E6465 
 12524      645F4461 
 12524      74615F53 
 12524      65737369 
 12525              	.LASF286:
 12526 1ab5 50414D5F 		.ascii	"PAM_GAID_VALUE_T\000"
 12526      47414944 
 12526      5F56414C 
 12526      55455F54 
 12526      00
 12527              	.LASF21:
 12528 1ac6 4359424C 		.ascii	"CYBLE_EVT_HOST_INVALID\000"
 12528      455F4556 
 12528      545F484F 
 12528      53545F49 
 12528      4E56414C 
 12529              	.LASF3:
 12530 1add 73686F72 		.ascii	"short unsigned int\000"
 12530      7420756E 
 12530      7369676E 
 12530      65642069 
 12530      6E7400
 12531              	.LASF0:
 12532 1af0 7369676E 		.ascii	"signed char\000"
 12532      65642063 
 12532      68617200 
 12533              	.LASF246:
 12534 1afc 4359424C 		.ascii	"CYBLE_DIS_SERIAL_NUMBER\000"
 12534      455F4449 
 12534      535F5345 
 12534      5249414C 
 12534      5F4E554D 
 12535              	.LASF227:
 12536 1b14 4359424C 		.ascii	"CYBLE_GATT_ERR_OUT_OF_RANGE\000"
 12536      455F4741 
 12536      54545F45 
 12536      52525F4F 
 12536      55545F4F 
 12537              	.LASF138:
 12538 1b30 4359424C 		.ascii	"CYBLE_GAP_AUTH_ERROR_AUTHENTICATION_REQ_NOT_MET\000"
 12538      455F4741 
 12538      505F4155 
 12538      54485F45 
 12538      52524F52 
 12539              	.LASF69:
 12540 1b60 4359424C 		.ascii	"CYBLE_EVT_GATTC_EXEC_WRITE_RSP\000"
 12540      455F4556 
 12540      545F4741 
 12540      5454435F 
 12540      45584543 
 12541              	.LASF402:
 12542 1b7f 636F756E 		.ascii	"count\000"
 12542      7400
ARM GAS  C:\Users\310309~1\AppData\Local\Temp\ccu8WRKs.s 			page 270


 12543              	.LASF494:
 12544 1b85 6275696C 		.ascii	"buildNewSession\000"
 12544      644E6577 
 12544      53657373 
 12544      696F6E00 
 12545              	.LASF222:
 12546 1b95 4359424C 		.ascii	"CYBLE_GATT_ERR_ANCS_INVALID_COMMAND\000"
 12546      455F4741 
 12546      54545F45 
 12546      52525F41 
 12546      4E43535F 
 12547              	.LASF288:
 12548 1bb9 496E7465 		.ascii	"IntensityEnergyExpenditure\000"
 12548      6E736974 
 12548      79456E65 
 12548      72677945 
 12548      7870656E 
 12549              	.LASF150:
 12550 1bd4 4359424C 		.ascii	"CYBLE_GAP_AUTH_ERROR_CODE_SPEC_MAX_VALUE\000"
 12550      455F4741 
 12550      505F4155 
 12550      54485F45 
 12550      52524F52 
 12551              	.LASF170:
 12552 1bfd 4359424C 		.ascii	"CYBLE_GATT_READ_RSP\000"
 12552      455F4741 
 12552      54545F52 
 12552      4541445F 
 12552      52535000 
 12553              	.LASF139:
 12554 1c11 4359424C 		.ascii	"CYBLE_GAP_AUTH_ERROR_CONFIRM_VALUE_NOT_MATCH\000"
 12554      455F4741 
 12554      505F4155 
 12554      54485F45 
 12554      52524F52 
 12555              	.LASF247:
 12556 1c3e 4359424C 		.ascii	"CYBLE_DIS_HARDWARE_REV\000"
 12556      455F4449 
 12556      535F4841 
 12556      52445741 
 12556      52455F52 
 12557              	.LASF496:
 12558 1c55 55706461 		.ascii	"UpdateCurrSession\000"
 12558      74654375 
 12558      72725365 
 12558      7373696F 
 12558      6E00
 12559              	.LASF240:
 12560 1c67 4359424C 		.ascii	"CYBLE_GATTS_ERR_PARAM_T\000"
 12560      455F4741 
 12560      5454535F 
 12560      4552525F 
 12560      50415241 
 12561              	.LASF415:
 12562 1c7f 73657373 		.ascii	"sessionIDBuffer\000"
 12562      696F6E49 
 12562      44427566 
ARM GAS  C:\Users\310309~1\AppData\Local\Temp\ccu8WRKs.s 			page 271


 12562      66657200 
 12563              	.LASF177:
 12564 1c8f 4359424C 		.ascii	"CYBLE_GATT_WRITE_REQ\000"
 12564      455F4741 
 12564      54545F57 
 12564      52495445 
 12564      5F524551 
 12565              	.LASF233:
 12566 1ca4 61637475 		.ascii	"actualLen\000"
 12566      616C4C65 
 12566      6E00
 12567              	.LASF42:
 12568 1cae 4359424C 		.ascii	"CYBLE_EVT_GAP_KEYPRESS_NOTIFICATION\000"
 12568      455F4556 
 12568      545F4741 
 12568      505F4B45 
 12568      59505245 
 12569              	.LASF484:
 12570 1cd2 70776D5F 		.ascii	"pwm_Stop\000"
 12570      53746F70 
 12570      00
 12571              	.LASF60:
 12572 1cdb 4359424C 		.ascii	"CYBLE_EVT_GATTC_FIND_BY_TYPE_VALUE_RSP\000"
 12572      455F4556 
 12572      545F4741 
 12572      5454435F 
 12572      46494E44 
 12573              	.LASF124:
 12574 1d02 4359424C 		.ascii	"CYBLE_ERROR_INVALID_STATE\000"
 12574      455F4552 
 12574      524F525F 
 12574      494E5641 
 12574      4C49445F 
 12575              	.LASF4:
 12576 1d1c 6C6F6E67 		.ascii	"long int\000"
 12576      20696E74 
 12576      00
 12577              	.LASF192:
 12578 1d25 4359424C 		.ascii	"CYBLE_GATT_ERR_WRITE_NOT_PERMITTED\000"
 12578      455F4741 
 12578      54545F45 
 12578      52525F57 
 12578      52495445 
 12579              	.LASF320:
 12580 1d48 50414D5F 		.ascii	"PAM_CRAID_VALUE_T\000"
 12580      43524149 
 12580      445F5641 
 12580      4C55455F 
 12580      5400
 12581              	.LASF108:
 12582 1d5a 4359424C 		.ascii	"CYBLE_ERROR_L2CAP_PSM_NOT_REGISTERED\000"
 12582      455F4552 
 12582      524F525F 
 12582      4C324341 
 12582      505F5053 
 12583              	.LASF159:
 12584 1d7f 4359424C 		.ascii	"CYBLE_GAP_AUTH_INFO_T\000"
ARM GAS  C:\Users\310309~1\AppData\Local\Temp\ccu8WRKs.s 			page 272


 12584      455F4741 
 12584      505F4155 
 12584      54485F49 
 12584      4E464F5F 
 12585              	.LASF442:
 12586 1d95 53636173 		.ascii	"ScasData\000"
 12586      44617461 
 12586      00
 12587              	.LASF40:
 12588 1d9e 4359424C 		.ascii	"CYBLE_EVT_GAP_KEYINFO_EXCHNGE_CMPLT\000"
 12588      455F4556 
 12588      545F4741 
 12588      505F4B45 
 12588      59494E46 
 12589              	.LASF183:
 12590 1dc2 4359424C 		.ascii	"CYBLE_GATT_EXECUTE_WRITE_RSP\000"
 12590      455F4741 
 12590      54545F45 
 12590      58454355 
 12590      54455F57 
 12591              	.LASF231:
 12592 1ddf 61747449 		.ascii	"attId\000"
 12592      6400
 12593              	.LASF97:
 12594 1de5 4359424C 		.ascii	"CYBLE_ERROR_INSUFFICIENT_RESOURCES\000"
 12594      455F4552 
 12594      524F525F 
 12594      494E5355 
 12594      46464943 
 12595              	.LASF26:
 12596 1e08 4359424C 		.ascii	"CYBLE_EVT_STACK_BUSY_STATUS\000"
 12596      455F4556 
 12596      545F5354 
 12596      41434B5F 
 12596      42555359 
 12597              	.LASF57:
 12598 1e24 4359424C 		.ascii	"CYBLE_EVT_GATTC_READ_BY_GROUP_TYPE_RSP\000"
 12598      455F4556 
 12598      545F4741 
 12598      5454435F 
 12598      52454144 
 12599              	.LASF118:
 12600 1e4b 4359424C 		.ascii	"CYBLE_ERROR_FLASH_WRITE\000"
 12600      455F4552 
 12600      524F525F 
 12600      464C4153 
 12600      485F5752 
 12601              	.LASF205:
 12602 1e63 4359424C 		.ascii	"CYBLE_GATT_ERR_UNSUPPORTED_GROUP_TYPE\000"
 12602      455F4741 
 12602      54545F45 
 12602      52525F55 
 12602      4E535550 
 12603              	.LASF96:
 12604 1e89 4359424C 		.ascii	"CYBLE_ERROR_MEMORY_ALLOCATION_FAILED\000"
 12604      455F4552 
 12604      524F525F 
ARM GAS  C:\Users\310309~1\AppData\Local\Temp\ccu8WRKs.s 			page 273


 12604      4D454D4F 
 12604      52595F41 
 12605              	.LASF36:
 12606 1eae 4359424C 		.ascii	"CYBLE_EVT_GAP_DEVICE_DISCONNECTED\000"
 12606      455F4556 
 12606      545F4741 
 12606      505F4445 
 12606      56494345 
 12607              	.LASF149:
 12608 1ed0 4359424C 		.ascii	"CYBLE_GAP_AUTH_ERROR_CROSS_TRANSPORT_KEY_GEN_DER_NO"
 12608      455F4741 
 12608      505F4155 
 12608      54485F45 
 12608      52524F52 
 12609 1f03 545F414C 		.ascii	"T_ALLOWED\000"
 12609      4C4F5745 
 12609      4400
 12610              	.LASF423:
 12611 1f0d 456E7175 		.ascii	"Enquire_Sessions_Requested\000"
 12611      6972655F 
 12611      53657373 
 12611      696F6E73 
 12611      5F526571 
 12612              	.LASF19:
 12613 1f28 6C6F6E67 		.ascii	"long double\000"
 12613      20646F75 
 12613      626C6500 
 12614              	.LASF278:
 12615 1f34 46617442 		.ascii	"FatBurnedPerHour\000"
 12615      75726E65 
 12615      64506572 
 12615      486F7572 
 12615      00
 12616              	.LASF99:
 12617 1f45 4359424C 		.ascii	"CYBLE_ERROR_NO_CONNECTION\000"
 12617      455F4552 
 12617      524F525F 
 12617      4E4F5F43 
 12617      4F4E4E45 
 12618              	.LASF334:
 12619 1f5f 41766572 		.ascii	"AveragePulseInterbeatInterval\000"
 12619      61676550 
 12619      756C7365 
 12619      496E7465 
 12619      72626561 
 12620              	.LASF65:
 12621 1f7d 4359424C 		.ascii	"CYBLE_EVT_GATTC_WRITE_RSP\000"
 12621      455F4556 
 12621      545F4741 
 12621      5454435F 
 12621      57524954 
 12622              	.LASF10:
 12623 1f97 75696E74 		.ascii	"uint16\000"
 12623      313600
 12624              	.LASF105:
 12625 1f9e 4359424C 		.ascii	"CYBLE_ERROR_SEC_FAILED\000"
 12625      455F4552 
ARM GAS  C:\Users\310309~1\AppData\Local\Temp\ccu8WRKs.s 			page 274


 12625      524F525F 
 12625      5345435F 
 12625      4641494C 
 12626              	.LASF244:
 12627 1fb5 4359424C 		.ascii	"CYBLE_DIS_MANUFACTURER_NAME\000"
 12627      455F4449 
 12627      535F4D41 
 12627      4E554641 
 12627      43545552 
 12628              	.LASF5:
 12629 1fd1 6C6F6E67 		.ascii	"long unsigned int\000"
 12629      20756E73 
 12629      69676E65 
 12629      6420696E 
 12629      7400
 12630              	.LASF418:
 12631 1fe3 73636F70 		.ascii	"scope\000"
 12631      6500
 12632              	.LASF188:
 12633 1fe9 4359424C 		.ascii	"CYBLE_GATT_UNKNOWN_PDU_IND\000"
 12633      455F4741 
 12633      54545F55 
 12633      4E4B4E4F 
 12633      574E5F50 
 12634              	.LASF74:
 12635 2004 4359424C 		.ascii	"CYBLE_EVT_GATTC_STOP_CMD_COMPLETE\000"
 12635      455F4556 
 12635      545F4741 
 12635      5454435F 
 12635      53544F50 
 12636              	.LASF173:
 12637 2026 4359424C 		.ascii	"CYBLE_GATT_READ_MULTIPLE_REQ\000"
 12637      455F4741 
 12637      54545F52 
 12637      4541445F 
 12637      4D554C54 
 12638              	.LASF426:
 12639 2043 4765745F 		.ascii	"Get_Ended_Data_Sub_SessionID\000"
 12639      456E6465 
 12639      645F4461 
 12639      74615F53 
 12639      75625F53 
 12640              	.LASF500:
 12641 2060 43795379 		.ascii	"CySysPmSetWakeupPolarity\000"
 12641      73506D53 
 12641      65745761 
 12641      6B657570 
 12641      506F6C61 
 12642              	.LASF355:
 12643 2079 536C6565 		.ascii	"SleepStage\000"
 12643      70537461 
 12643      676500
 12644              	.LASF404:
 12645 2084 73756253 		.ascii	"subSessionID\000"
 12645      65737369 
 12645      6F6E4944 
 12645      00
ARM GAS  C:\Users\310309~1\AppData\Local\Temp\ccu8WRKs.s 			page 275


 12646              	.LASF463:
 12647 2091 55706461 		.ascii	"UpdateGasd\000"
 12647      74654761 
 12647      736400
 12648              	.LASF17:
 12649 209c 63686172 		.ascii	"char\000"
 12649      00
 12650              	.LASF313:
 12651 20a1 564F324D 		.ascii	"VO2Max\000"
 12651      617800
 12652              	.LASF466:
 12653 20a8 55706461 		.ascii	"UpdateScasd\000"
 12653      74655363 
 12653      61736400 
 12654              	.LASF485:
 12655 20b4 636F6E6E 		.ascii	"connected_LED_Write\000"
 12655      65637465 
 12655      645F4C45 
 12655      445F5772 
 12655      69746500 
 12656              	.LASF408:
 12657 20c8 6576656E 		.ascii	"eventParam\000"
 12657      74506172 
 12657      616D00
 12658              	.LASF316:
 12659 20d3 52657374 		.ascii	"RestingHeartRate\000"
 12659      696E6748 
 12659      65617274 
 12659      52617465 
 12659      00
 12660              	.LASF81:
 12661 20e4 4359424C 		.ascii	"CYBLE_EVT_L2CAP_CBFC_CONN_CNF\000"
 12661      455F4556 
 12661      545F4C32 
 12661      4341505F 
 12661      43424643 
 12662              	.LASF95:
 12663 2102 4359424C 		.ascii	"CYBLE_ERROR_INVALID_OPERATION\000"
 12663      455F4552 
 12663      524F525F 
 12663      494E5641 
 12663      4C49445F 
 12664              	.LASF11:
 12665 2120 75696E74 		.ascii	"uint32\000"
 12665      333200
 12666              	.LASF144:
 12667 2127 4359424C 		.ascii	"CYBLE_GAP_AUTH_ERROR_REPEATED_ATTEMPTS\000"
 12667      455F4741 
 12667      505F4155 
 12667      54485F45 
 12667      52524F52 
 12668              	.LASF100:
 12669 214e 4359424C 		.ascii	"CYBLE_ERROR_NO_DEVICE_ENTITY\000"
 12669      455F4552 
 12669      524F525F 
 12669      4E4F5F44 
 12669      45564943 
ARM GAS  C:\Users\310309~1\AppData\Local\Temp\ccu8WRKs.s 			page 276


 12670              	.LASF83:
 12671 216b 4359424C 		.ascii	"CYBLE_EVT_L2CAP_CBFC_DISCONN_CNF\000"
 12671      455F4556 
 12671      545F4C32 
 12671      4341505F 
 12671      43424643 
 12672              	.LASF483:
 12673 218c 4379426C 		.ascii	"CyBle_EnterLPM\000"
 12673      655F456E 
 12673      7465724C 
 12673      504D00
 12674              	.LASF190:
 12675 219b 4359424C 		.ascii	"CYBLE_GATT_ERR_INVALID_HANDLE\000"
 12675      455F4741 
 12675      54545F45 
 12675      52525F49 
 12675      4E56414C 
 12676              	.LASF67:
 12677 21b9 4359424C 		.ascii	"CYBLE_EVT_GATTS_PREP_WRITE_REQ\000"
 12677      455F4556 
 12677      545F4741 
 12677      5454535F 
 12677      50524550 
 12678              	.LASF464:
 12679 21d8 55706461 		.ascii	"UpdateCraid\000"
 12679      74654372 
 12679      61696400 
 12680              	.LASF395:
 12681 21e4 4E4F5F53 		.ascii	"NO_SESSIONS\000"
 12681      45535349 
 12681      4F4E5300 
 12682              	.LASF435:
 12683 21f0 67656E65 		.ascii	"generalinstantaneousdataNotify\000"
 12683      72616C69 
 12683      6E737461 
 12683      6E74616E 
 12683      656F7573 
 12684              	.LASF422:
 12685 220f 6379426C 		.ascii	"cyBle_connHandle\000"
 12685      655F636F 
 12685      6E6E4861 
 12685      6E646C65 
 12685      00
 12686              	.LASF220:
 12687 2220 4359424C 		.ascii	"CYBLE_GATT_ERR_ANS_COMMAND_NOT_SUPPORTED\000"
 12687      455F4741 
 12687      54545F45 
 12687      52525F41 
 12687      4E535F43 
 12688              	.LASF55:
 12689 2249 4359424C 		.ascii	"CYBLE_EVT_GATTS_XCNHG_MTU_REQ\000"
 12689      455F4556 
 12689      545F4741 
 12689      5454535F 
 12689      58434E48 
 12690              	.LASF327:
 12691 2267 4D617869 		.ascii	"MaximumVO2Max\000"
ARM GAS  C:\Users\310309~1\AppData\Local\Temp\ccu8WRKs.s 			page 277


 12691      6D756D56 
 12691      4F324D61 
 12691      7800
 12692              	.LASF120:
 12693 2275 4359424C 		.ascii	"CYBLE_ERROR_MAX\000"
 12693      455F4552 
 12693      524F525F 
 12693      4D415800 
 12694              	.LASF103:
 12695 2285 4359424C 		.ascii	"CYBLE_ERROR_TX_POWER_READ\000"
 12695      455F4552 
 12695      524F525F 
 12695      54585F50 
 12695      4F574552 
 12696              	.LASF501:
 12697 229f 43795379 		.ascii	"CySysPmStop\000"
 12697      73506D53 
 12697      746F7000 
 12698              	.LASF180:
 12699 22ab 4359424C 		.ascii	"CYBLE_GATT_PREPARE_WRITE_REQ\000"
 12699      455F4741 
 12699      54545F50 
 12699      52455041 
 12699      52455F57 
 12700              	.LASF16:
 12701 22c8 75696E74 		.ascii	"uint64\000"
 12701      363400
 12702              	.LASF388:
 12703 22cf 43415244 		.ascii	"CARDIORESPIRATORY_ACTIVITY_SUMMARY\000"
 12703      494F5245 
 12703      53504952 
 12703      41544F52 
 12703      595F4143 
 12704              	.LASF391:
 12705 22f2 534C4545 		.ascii	"SLEEP_ACTIVITY_SUMMARY\000"
 12705      505F4143 
 12705      54495649 
 12705      54595F53 
 12705      554D4D41 
 12706              	.LASF295:
 12707 2309 4D696E69 		.ascii	"MinimumSpeed\000"
 12707      6D756D53 
 12707      70656564 
 12707      00
 12708              	.LASF136:
 12709 2316 4359424C 		.ascii	"CYBLE_GAP_AUTH_ERROR_PASSKEY_ENTRY_FAILED\000"
 12709      455F4741 
 12709      505F4155 
 12709      54485F45 
 12709      52524F52 
 12710              	.LASF424:
 12711 2340 456E7175 		.ascii	"Enquire_Sub_Sessions_Requested_For_ID\000"
 12711      6972655F 
 12711      5375625F 
 12711      53657373 
 12711      696F6E73 
 12712              	.LASF232:
ARM GAS  C:\Users\310309~1\AppData\Local\Temp\ccu8WRKs.s 			page 278


 12713 2366 4359424C 		.ascii	"CYBLE_CONN_HANDLE_T\000"
 12713      455F434F 
 12713      4E4E5F48 
 12713      414E444C 
 12713      455F5400 
 12714              	.LASF275:
 12715 237a 4E6F726D 		.ascii	"NormalWalkingEnergyExpenditurePerHour\000"
 12715      616C5761 
 12715      6C6B696E 
 12715      67456E65 
 12715      72677945 
 12716              	.LASF363:
 12717 23a0 536C6565 		.ascii	"SleepEfficiency\000"
 12717      70456666 
 12717      69636965 
 12717      6E637900 
 12718              	.LASF71:
 12719 23b0 4359424C 		.ascii	"CYBLE_EVT_GATTC_HANDLE_VALUE_IND\000"
 12719      455F4556 
 12719      545F4741 
 12719      5454435F 
 12719      48414E44 
 12720              	.LASF186:
 12721 23d1 4359424C 		.ascii	"CYBLE_GATT_HANDLE_VALUE_CNF\000"
 12721      455F4741 
 12721      54545F48 
 12721      414E444C 
 12721      455F5641 
 12722              	.LASF326:
 12723 23ed 4D696E69 		.ascii	"MinimumVO2Max\000"
 12723      6D756D56 
 12723      4F324D61 
 12723      7800
 12724              	.LASF428:
 12725 23fb 73656E64 		.ascii	"send_Deleted_Sessions\000"
 12725      5F44656C 
 12725      65746564 
 12725      5F536573 
 12725      73696F6E 
 12726              	.LASF15:
 12727 2411 646F7562 		.ascii	"double\000"
 12727      6C6500
 12728              	.LASF194:
 12729 2418 4359424C 		.ascii	"CYBLE_GATT_ERR_INSUFFICIENT_AUTHENTICATION\000"
 12729      455F4741 
 12729      54545F45 
 12729      52525F49 
 12729      4E535546 
 12730              	.LASF263:
 12731 2443 53657373 		.ascii	"SessionStartTimeOffset\000"
 12731      696F6E53 
 12731      74617274 
 12731      54696D65 
 12731      4F666673 
 12732              	.LASF53:
 12733 245a 4359424C 		.ascii	"CYBLE_EVT_GATT_CONNECT_IND\000"
 12733      455F4556 
ARM GAS  C:\Users\310309~1\AppData\Local\Temp\ccu8WRKs.s 			page 279


 12733      545F4741 
 12733      54545F43 
 12733      4F4E4E45 
 12734              	.LASF449:
 12735 2475 6D795375 		.ascii	"mySubSessions\000"
 12735      62536573 
 12735      73696F6E 
 12735      7300
 12736              	.LASF462:
 12737 2483 50696E5F 		.ascii	"Pin_SW2_ClearInterrupt\000"
 12737      5357325F 
 12737      436C6561 
 12737      72496E74 
 12737      65727275 
 12738              	.LASF48:
 12739 249a 4359424C 		.ascii	"CYBLE_EVT_GAP_CONN_ESTB\000"
 12739      455F4556 
 12739      545F4741 
 12739      505F434F 
 12739      4E4E5F45 
 12740              	.LASF357:
 12741 24b2 50414D5F 		.ascii	"PAM_SAID_VALUE_T\000"
 12741      53414944 
 12741      5F56414C 
 12741      55455F54 
 12741      00
 12742              	.LASF51:
 12743 24c3 4359424C 		.ascii	"CYBLE_EVT_GAP_SMP_LOC_P256_KEYS_GEN_AND_SET_COMPLET"
 12743      455F4556 
 12743      545F4741 
 12743      505F534D 
 12743      505F4C4F 
 12744 24f6 4500     		.ascii	"E\000"
 12745              	.LASF482:
 12746 24f8 7072696E 		.ascii	"printf\000"
 12746      746600
 12747              	.LASF134:
 12748 24ff 4359424C 		.ascii	"CYBLE_GAP_BD_ADDR_T\000"
 12748      455F4741 
 12748      505F4244 
 12748      5F414444 
 12748      525F5400 
 12749              	.LASF303:
 12750 2513 466C6F6F 		.ascii	"Floors\000"
 12750      727300
 12751              	.LASF174:
 12752 251a 4359424C 		.ascii	"CYBLE_GATT_READ_MULTIPLE_RSP\000"
 12752      455F4741 
 12752      54545F52 
 12752      4541445F 
 12752      4D554C54 
 12753              	.LASF358:
 12754 2537 546F7461 		.ascii	"TotalSleepTime\000"
 12754      6C536C65 
 12754      65705469 
 12754      6D6500
 12755              	.LASF20:
ARM GAS  C:\Users\310309~1\AppData\Local\Temp\ccu8WRKs.s 			page 280


 12756 2546 73697A65 		.ascii	"sizetype\000"
 12756      74797065 
 12756      00
 12757              	.LASF250:
 12758 254f 4359424C 		.ascii	"CYBLE_DIS_SYSTEM_ID\000"
 12758      455F4449 
 12758      535F5359 
 12758      5354454D 
 12758      5F494400 
 12759              	.LASF387:
 12760 2563 43415244 		.ascii	"CARDIORESPIRATORY_ACTIVITY_INSTANTANEOUS\000"
 12760      494F5245 
 12760      53504952 
 12760      41544F52 
 12760      595F4143 
 12761              	.LASF223:
 12762 258c 4359424C 		.ascii	"CYBLE_GATT_ERR_ANCS_INVALID_PARAMETER\000"
 12762      455F4741 
 12762      54545F45 
 12762      52525F41 
 12762      4E43535F 
 12763              	.LASF419:
 12764 25b2 55736572 		.ascii	"UserDefinedActivityType\000"
 12764      44656669 
 12764      6E656441 
 12764      63746976 
 12764      69747954 
 12765              	.LASF452:
 12766 25ca 73756273 		.ascii	"subsessionCount\000"
 12766      65737369 
 12766      6F6E436F 
 12766      756E7400 
 12767              	.LASF457:
 12768 25da 43757272 		.ascii	"CurrSession\000"
 12768      53657373 
 12768      696F6E00 
 12769              	.LASF213:
 12770 25e6 4359424C 		.ascii	"CYBLE_GATT_ERR_OP_CODE_NOT_SUPPORTED\000"
 12770      455F4741 
 12770      54545F45 
 12770      52525F4F 
 12770      505F434F 
 12771              	.LASF178:
 12772 260b 4359424C 		.ascii	"CYBLE_GATT_WRITE_RSP\000"
 12772      455F4741 
 12772      54545F57 
 12772      52495445 
 12772      5F525350 
 12773              	.LASF98:
 12774 2620 4359424C 		.ascii	"CYBLE_ERROR_OOB_NOT_AVAILABLE\000"
 12774      455F4552 
 12774      524F525F 
 12774      4F4F425F 
 12774      4E4F545F 
 12775              	.LASF448:
 12776 263e 6D795365 		.ascii	"mySessions\000"
 12776      7373696F 
ARM GAS  C:\Users\310309~1\AppData\Local\Temp\ccu8WRKs.s 			page 281


 12776      6E7300
 12777              	.LASF127:
 12778 2649 4359424C 		.ascii	"CYBLE_BLESS_ACTIVE\000"
 12778      455F424C 
 12778      4553535F 
 12778      41435449 
 12778      564500
 12779              	.LASF499:
 12780 265c 4379426C 		.ascii	"CyBle_GattsWriteRsp\000"
 12780      655F4761 
 12780      74747357 
 12780      72697465 
 12780      52737000 
 12781              	.LASF33:
 12782 2670 4359424C 		.ascii	"CYBLE_EVT_GAP_AUTH_FAILED\000"
 12782      455F4556 
 12782      545F4741 
 12782      505F4155 
 12782      54485F46 
 12783              	.LASF219:
 12784 268a 4359424C 		.ascii	"CYBLE_GATTS_ERR_NETWORK_NOT_AVAILABLE\000"
 12784      455F4741 
 12784      5454535F 
 12784      4552525F 
 12784      4E455457 
 12785              	.LASF212:
 12786 26b0 4359424C 		.ascii	"CYBLE_GATTS_ERR_PROCEDURE_ALREADY_IN_PROGRESS\000"
 12786      455F4741 
 12786      5454535F 
 12786      4552525F 
 12786      50524F43 
 12787              	.LASF349:
 12788 26de 496E7465 		.ascii	"IntensitySteps\000"
 12788      6E736974 
 12788      79537465 
 12788      707300
 12789              	.LASF146:
 12790 26ed 4359424C 		.ascii	"CYBLE_GAP_AUTH_ERROR_DHKEY_CHECK_FAILED\000"
 12790      455F4741 
 12790      505F4155 
 12790      54485F45 
 12790      52524F52 
 12791              	.LASF75:
 12792 2715 4359424C 		.ascii	"CYBLE_EVT_GATTS_READ_CHAR_VAL_ACCESS_REQ\000"
 12792      455F4556 
 12792      545F4741 
 12792      5454535F 
 12792      52454144 
 12793              	.LASF405:
 12794 273e 48616E64 		.ascii	"HandleLeds\000"
 12794      6C654C65 
 12794      647300
 12795              	.LASF77:
 12796 2749 4359424C 		.ascii	"CYBLE_EVT_L2CAP_CONN_PARAM_UPDATE_REQ\000"
 12796      455F4556 
 12796      545F4C32 
 12796      4341505F 
ARM GAS  C:\Users\310309~1\AppData\Local\Temp\ccu8WRKs.s 			page 282


 12796      434F4E4E 
 12797              	.LASF7:
 12798 276f 6C6F6E67 		.ascii	"long long unsigned int\000"
 12798      206C6F6E 
 12798      6720756E 
 12798      7369676E 
 12798      65642069 
 12799              	.LASF13:
 12800 2786 696E7431 		.ascii	"int16\000"
 12800      3600
 12801              	.LASF252:
 12802 278c 4359424C 		.ascii	"CYBLE_DIS_PNP_ID\000"
 12802      455F4449 
 12802      535F504E 
 12802      505F4944 
 12802      00
 12803              	.LASF152:
 12804 279d 4359424C 		.ascii	"CYBLE_GAP_AUTH_ERROR_LINK_DISCONNECTED\000"
 12804      455F4741 
 12804      505F4155 
 12804      54485F45 
 12804      52524F52 
 12805              	.LASF369:
 12806 27c4 41766572 		.ascii	"AverageVisibleLightLevel\000"
 12806      61676556 
 12806      69736962 
 12806      6C654C69 
 12806      6768744C 
 12807              	.LASF110:
 12808 27dd 4359424C 		.ascii	"CYBLE_ERROR_L2CAP_CHANNEL_NOT_FOUND\000"
 12808      455F4552 
 12808      524F525F 
 12808      4C324341 
 12808      505F4348 
 12809              	.LASF245:
 12810 2801 4359424C 		.ascii	"CYBLE_DIS_MODEL_NUMBER\000"
 12810      455F4449 
 12810      535F4D4F 
 12810      44454C5F 
 12810      4E554D42 
 12811              	.LASF460:
 12812 2818 54435057 		.ascii	"TCPWM_ClearInterrupt\000"
 12812      4D5F436C 
 12812      65617249 
 12812      6E746572 
 12812      72757074 
 12813              	.LASF335:
 12814 282d 4D696E69 		.ascii	"MinimumRestingHeartRate\000"
 12814      6D756D52 
 12814      65737469 
 12814      6E674865 
 12814      61727452 
 12815              	.LASF273:
 12816 2845 52656C61 		.ascii	"RelativeTimestamp\000"
 12816      74697665 
 12816      54696D65 
 12816      7374616D 
ARM GAS  C:\Users\310309~1\AppData\Local\Temp\ccu8WRKs.s 			page 283


 12816      7000
 12817              	.LASF371:
 12818 2857 4D617869 		.ascii	"MaximumUVLightLevel\000"
 12818      6D756D55 
 12818      564C6967 
 12818      68744C65 
 12818      76656C00 
 12819              	.LASF49:
 12820 286b 4359424C 		.ascii	"CYBLE_EVT_GAP_SCAN_REQ_RECVD\000"
 12820      455F4556 
 12820      545F4741 
 12820      505F5343 
 12820      414E5F52 
 12821              	.LASF114:
 12822 2888 4359424C 		.ascii	"CYBLE_ERROR_FLASH_WRITE_NOT_PERMITED\000"
 12822      455F4552 
 12822      524F525F 
 12822      464C4153 
 12822      485F5752 
 12823              	.LASF38:
 12824 28ad 4359424C 		.ascii	"CYBLE_EVT_GAP_CONNECTION_UPDATE_COMPLETE\000"
 12824      455F4556 
 12824      545F4741 
 12824      505F434F 
 12824      4E4E4543 
 12825              	.LASF296:
 12826 28d6 4D617869 		.ascii	"MaximumSpeed\000"
 12826      6D756D53 
 12826      70656564 
 12826      00
 12827              	.LASF393:
 12828 28e3 4E4F5F53 		.ascii	"NO_SESSION_WITH_ID\000"
 12828      45535349 
 12828      4F4E5F57 
 12828      4954485F 
 12828      494400
 12829              	.LASF211:
 12830 28f6 4359424C 		.ascii	"CYBLE_GATT_ERR_HTS_OUT_OF_RANGE\000"
 12830      455F4741 
 12830      54545F45 
 12830      52525F48 
 12830      54535F4F 
 12831              	.LASF459:
 12832 2916 69734275 		.ascii	"isButtonPressed\000"
 12832      74746F6E 
 12832      50726573 
 12832      73656400 
 12833              	.LASF497:
 12834 2926 73746F70 		.ascii	"stop_session\000"
 12834      5F736573 
 12834      73696F6E 
 12834      00
 12835              	.LASF439:
 12836 2933 63617264 		.ascii	"cardiorespiratoryactivityinstantaneousdataNotify\000"
 12836      696F7265 
 12836      73706972 
 12836      61746F72 
ARM GAS  C:\Users\310309~1\AppData\Local\Temp\ccu8WRKs.s 			page 284


 12836      79616374 
 12837              	.LASF465:
 12838 2964 55706461 		.ascii	"UpdateCrasd\000"
 12838      74654372 
 12838      61736400 
 12839              	.LASF420:
 12840 2970 6379426C 		.ascii	"cyBle_pendingFlashWrite\000"
 12840      655F7065 
 12840      6E64696E 
 12840      67466C61 
 12840      73685772 
 12841              	.LASF241:
 12842 2988 636F6E6E 		.ascii	"connHandle\000"
 12842      48616E64 
 12842      6C6500
 12843              	.LASF346:
 12844 2993 41766572 		.ascii	"AverageRestingRespirationRate\000"
 12844      61676552 
 12844      65737469 
 12844      6E675265 
 12844      73706972 
 12845              	.LASF377:
 12846 29b1 50414D5F 		.ascii	"PAM_SASD_VALUE_T\000"
 12846      53415344 
 12846      5F56414C 
 12846      55455F54 
 12846      00
 12847              	.LASF470:
 12848 29c2 55706461 		.ascii	"UpdateFeatureList\000"
 12848      74654665 
 12848      61747572 
 12848      654C6973 
 12848      7400
 12849              	.LASF255:
 12850 29d4 4359424C 		.ascii	"CYBLE_STATE_INITIALIZING\000"
 12850      455F5354 
 12850      4154455F 
 12850      494E4954 
 12850      49414C49 
 12851              	.LASF379:
 12852 29ed 454E5155 		.ascii	"ENQUIRE_SUB_SESSIONS\000"
 12852      4952455F 
 12852      5355425F 
 12852      53455353 
 12852      494F4E53 
 12853              	.LASF91:
 12854 2a02 4359424C 		.ascii	"CYBLE_EVT_FLASH_CORRUPT\000"
 12854      455F4556 
 12854      545F464C 
 12854      4153485F 
 12854      434F5252 
 12855              	.LASF438:
 12856 2a1a 43726169 		.ascii	"CraiData\000"
 12856      44617461 
 12856      00
 12857              	.LASF157:
 12858 2a23 61757468 		.ascii	"authErr\000"
ARM GAS  C:\Users\310309~1\AppData\Local\Temp\ccu8WRKs.s 			page 285


 12858      45727200 
 12859              	.LASF248:
 12860 2a2b 4359424C 		.ascii	"CYBLE_DIS_FIRMWARE_REV\000"
 12860      455F4449 
 12860      535F4649 
 12860      524D5741 
 12860      52455F52 
 12861              	.LASF41:
 12862 2a42 4359424C 		.ascii	"CYBLE_EVT_GAP_NUMERIC_COMPARISON_REQUEST\000"
 12862      455F4556 
 12862      545F4741 
 12862      505F4E55 
 12862      4D455249 
 12863              	.LASF312:
 12864 2a6b 50414D5F 		.ascii	"PAM_GASD_VALUE_T\000"
 12864      47415344 
 12864      5F56414C 
 12864      55455F54 
 12864      00
 12865              	.LASF50:
 12866 2a7c 4359424C 		.ascii	"CYBLE_EVT_GAP_AUTH_REQ_REPLY_ERR\000"
 12866      455F4556 
 12866      545F4741 
 12866      505F4155 
 12866      54485F52 
 12867              	.LASF447:
 12868 2a9d 736C6565 		.ascii	"sleepactivitysummarydataIndicate\000"
 12868      70616374 
 12868      69766974 
 12868      7973756D 
 12868      6D617279 
 12869              	.LASF394:
 12870 2abe 53455353 		.ascii	"SESSION_STILL_RUNNING\000"
 12870      494F4E5F 
 12870      5354494C 
 12870      4C5F5255 
 12870      4E4E494E 
 12871              	.LASF202:
 12872 2ad4 4359424C 		.ascii	"CYBLE_GATT_ERR_INVALID_ATTRIBUTE_LEN\000"
 12872      455F4741 
 12872      54545F45 
 12872      52525F49 
 12872      4E56414C 
 12873              	.LASF6:
 12874 2af9 6C6F6E67 		.ascii	"long long int\000"
 12874      206C6F6E 
 12874      6720696E 
 12874      7400
 12875              	.LASF351:
 12876 2b07 50414D5F 		.ascii	"PAM_SCASD_VALUE_T\000"
 12876      53434153 
 12876      445F5641 
 12876      4C55455F 
 12876      5400
 12877              	.LASF375:
 12878 2b19 41766572 		.ascii	"AverageIRLightLevel\000"
 12878      61676549 
ARM GAS  C:\Users\310309~1\AppData\Local\Temp\ccu8WRKs.s 			page 286


 12878      524C6967 
 12878      68744C65 
 12878      76656C00 
 12879              	.LASF282:
 12880 2b2d 456C6576 		.ascii	"Elevation\000"
 12880      6174696F 
 12880      6E00
 12881              	.LASF344:
 12882 2b37 4D696E69 		.ascii	"MinimumRestingRespirationRate\000"
 12882      6D756D52 
 12882      65737469 
 12882      6E675265 
 12882      73706972 
 12883              	.LASF39:
 12884 2b55 4359424C 		.ascii	"CYBLE_EVT_GAPC_SCAN_START_STOP\000"
 12884      455F4556 
 12884      545F4741 
 12884      50435F53 
 12884      43414E5F 
 12885              	.LASF140:
 12886 2b74 4359424C 		.ascii	"CYBLE_GAP_AUTH_ERROR_PAIRING_NOT_SUPPORTED\000"
 12886      455F4741 
 12886      505F4155 
 12886      54485F45 
 12886      52524F52 
 12887              	.LASF476:
 12888 2b9f 54435057 		.ascii	"TCPWM_Start\000"
 12888      4D5F5374 
 12888      61727400 
 12889              	.LASF72:
 12890 2bab 4359424C 		.ascii	"CYBLE_EVT_GATTS_HANDLE_VALUE_CNF\000"
 12890      455F4556 
 12890      545F4741 
 12890      5454535F 
 12890      48414E44 
 12891              	.LASF106:
 12892 2bcc 4359424C 		.ascii	"CYBLE_ERROR_L2CAP_PSM_WRONG_ENCODING\000"
 12892      455F4552 
 12892      524F525F 
 12892      4C324341 
 12892      505F5053 
 12893              	.LASF209:
 12894 2bf1 4359424C 		.ascii	"CYBLE_GATT_ERR_USER_DATA_ACCESS_NOT_PERMITTED\000"
 12894      455F4741 
 12894      54545F45 
 12894      52525F55 
 12894      5345525F 
 12895              	.LASF279:
 12896 2c1f 4D657461 		.ascii	"MetabolicEquivalent\000"
 12896      626F6C69 
 12896      63457175 
 12896      6976616C 
 12896      656E7400 
 12897              	.LASF141:
 12898 2c33 4359424C 		.ascii	"CYBLE_GAP_AUTH_ERROR_INSUFFICIENT_ENCRYPTION_KEY_SI"
 12898      455F4741 
 12898      505F4155 
ARM GAS  C:\Users\310309~1\AppData\Local\Temp\ccu8WRKs.s 			page 287


 12898      54485F45 
 12898      52524F52 
 12899 2c66 5A4500   		.ascii	"ZE\000"
 12900              	.LASF304:
 12901 2c69 506F7369 		.ascii	"PositiveElevationGain\000"
 12901      74697665 
 12901      456C6576 
 12901      6174696F 
 12901      6E476169 
 12902              	.LASF184:
 12903 2c7f 4359424C 		.ascii	"CYBLE_GATT_HANDLE_VALUE_NTF\000"
 12903      455F4741 
 12903      54545F48 
 12903      414E444C 
 12903      455F5641 
 12904              	.LASF503:
 12905 2c9b 6D61696E 		.ascii	"main.c\000"
 12905      2E6300
 12906              	.LASF155:
 12907 2ca2 626F6E64 		.ascii	"bonding\000"
 12907      696E6700 
 12908              	.LASF64:
 12909 2caa 4359424C 		.ascii	"CYBLE_EVT_GATTS_WRITE_REQ\000"
 12909      455F4556 
 12909      545F4741 
 12909      5454535F 
 12909      57524954 
 12910              	.LASF76:
 12911 2cc4 4359424C 		.ascii	"CYBLE_EVT_GATTC_LONG_PROCEDURE_END\000"
 12911      455F4556 
 12911      545F4741 
 12911      5454435F 
 12911      4C4F4E47 
 12912              	.LASF392:
 12913 2ce7 53554343 		.ascii	"SUCCES\000"
 12913      455300
 12914              	.LASF429:
 12915 2cee 55706461 		.ascii	"Update_GASD_With_New_Activity\000"
 12915      74655F47 
 12915      4153445F 
 12915      57697468 
 12915      5F4E6577 
 12916              	.LASF58:
 12917 2d0c 4359424C 		.ascii	"CYBLE_EVT_GATTC_READ_BY_TYPE_RSP\000"
 12917      455F4556 
 12917      545F4741 
 12917      5454435F 
 12917      52454144 
 12918              	.LASF116:
 12919 2d2d 4359424C 		.ascii	"CYBLE_ERROR_HARDWARE_FAILURE\000"
 12919      455F4552 
 12919      524F525F 
 12919      48415244 
 12919      57415245 
 12920              	.LASF85:
 12921 2d4a 4359424C 		.ascii	"CYBLE_EVT_L2CAP_CBFC_RX_CREDIT_IND\000"
 12921      455F4556 
ARM GAS  C:\Users\310309~1\AppData\Local\Temp\ccu8WRKs.s 			page 288


 12921      545F4C32 
 12921      4341505F 
 12921      43424643 
 12922              	.LASF43:
 12923 2d6d 4359424C 		.ascii	"CYBLE_EVT_GAP_OOB_GENERATED_NOTIFICATION\000"
 12923      455F4556 
 12923      545F4741 
 12923      505F4F4F 
 12923      425F4745 
 12924              	.LASF214:
 12925 2d96 4359424C 		.ascii	"CYBLE_GATT_ERR_MISSING_CRC\000"
 12925      455F4741 
 12925      54545F45 
 12925      52525F4D 
 12925      49535349 
 12926              	.LASF137:
 12927 2db1 4359424C 		.ascii	"CYBLE_GAP_AUTH_ERROR_OOB_DATA_NOT_AVAILABLE\000"
 12927      455F4741 
 12927      505F4155 
 12927      54485F45 
 12927      52524F52 
 12928              	.LASF350:
 12929 2ddd 466C6F6F 		.ascii	"FloorSteps\000"
 12929      72537465 
 12929      707300
 12930              	.LASF399:
 12931 2de8 6973725F 		.ascii	"isr_timer_Handler\000"
 12931      74696D65 
 12931      725F4861 
 12931      6E646C65 
 12931      7200
 12932              	.LASF410:
 12933 2dfa 6C6F6361 		.ascii	"localAddr\000"
 12933      6C416464 
 12933      7200
 12934              	.LASF86:
 12935 2e04 4359424C 		.ascii	"CYBLE_EVT_L2CAP_CBFC_TX_CREDIT_IND\000"
 12935      455F4556 
 12935      545F4C32 
 12935      4341505F 
 12935      43424643 
 12936              	.LASF287:
 12937 2e27 4E6F726D 		.ascii	"NormalWalkingEnergyExpenditure\000"
 12937      616C5761 
 12937      6C6B696E 
 12937      67456E65 
 12937      72677945 
 12938              	.LASF236:
 12939 2e46 61747472 		.ascii	"attrHandle\000"
 12939      48616E64 
 12939      6C6500
 12940              	.LASF506:
 12941 2e51 6D61696E 		.ascii	"main\000"
 12941      00
 12942              	.LASF229:
 12943 2e56 4359424C 		.ascii	"CYBLE_GATT_DB_ATTR_HANDLE_T\000"
 12943      455F4741 
ARM GAS  C:\Users\310309~1\AppData\Local\Temp\ccu8WRKs.s 			page 289


 12943      54545F44 
 12943      425F4154 
 12943      54525F48 
 12944              	.LASF413:
 12945 2e72 666F756E 		.ascii	"foundSession\000"
 12945      64536573 
 12945      73696F6E 
 12945      00
 12946              	.LASF451:
 12947 2e7f 73657373 		.ascii	"sessionCount\000"
 12947      696F6E43 
 12947      6F756E74 
 12947      00
 12948              	.LASF302:
 12949 2e8c 41766572 		.ascii	"AverageMotionCadence\000"
 12949      6167654D 
 12949      6F74696F 
 12949      6E436164 
 12949      656E6365 
 12950              	.LASF181:
 12951 2ea1 4359424C 		.ascii	"CYBLE_GATT_PREPARE_WRITE_RSP\000"
 12951      455F4741 
 12951      54545F50 
 12951      52455041 
 12951      52455F57 
 12952              	.LASF8:
 12953 2ebe 756E7369 		.ascii	"unsigned int\000"
 12953      676E6564 
 12953      20696E74 
 12953      00
 12954              	.LASF45:
 12955 2ecb 4359424C 		.ascii	"CYBLE_EVT_GAP_ENHANCE_CONN_COMPLETE\000"
 12955      455F4556 
 12955      545F4741 
 12955      505F454E 
 12955      48414E43 
 12956              	.LASF315:
 12957 2eef 50756C73 		.ascii	"PulseInterBeatInterval\000"
 12957      65496E74 
 12957      65724265 
 12957      6174496E 
 12957      74657276 
 12958              	.LASF389:
 12959 2f06 53544550 		.ascii	"STEP_COUNTER_ACTIVITY_SUMMARY\000"
 12959      5F434F55 
 12959      4E544552 
 12959      5F414354 
 12959      49564954 
 12960              	.LASF342:
 12961 2f24 4D617869 		.ascii	"MaximumRespirationRate\000"
 12961      6D756D52 
 12961      65737069 
 12961      72617469 
 12961      6F6E5261 
 12962              	.LASF260:
 12963 2f3b 466C6167 		.ascii	"Flags\000"
 12963      7300
ARM GAS  C:\Users\310309~1\AppData\Local\Temp\ccu8WRKs.s 			page 290


 12964              	.LASF338:
 12965 2f41 4D696E69 		.ascii	"MinimumHeartRateVariability\000"
 12965      6D756D48 
 12965      65617274 
 12965      52617465 
 12965      56617269 
 12966              	.LASF204:
 12967 2f5d 4359424C 		.ascii	"CYBLE_GATT_ERR_INSUFFICIENT_ENCRYPTION\000"
 12967      455F4741 
 12967      54545F45 
 12967      52525F49 
 12967      4E535546 
 12968              	.LASF378:
 12969 2f84 454E5155 		.ascii	"ENQUIRE_SESSIONS\000"
 12969      4952455F 
 12969      53455353 
 12969      494F4E53 
 12969      00
 12970              	.LASF2:
 12971 2f95 73686F72 		.ascii	"short int\000"
 12971      7420696E 
 12971      7400
 12972              	.LASF486:
 12973 2f9f 64697363 		.ascii	"disconnected_LED_Write\000"
 12973      6F6E6E65 
 12973      63746564 
 12973      5F4C4544 
 12973      5F577269 
 12974              	.LASF272:
 12975 2fb6 48656164 		.ascii	"Header\000"
 12975      657200
 12976              	.LASF360:
 12977 2fbd 546F7461 		.ascii	"TotalBedTime\000"
 12977      6C426564 
 12977      54696D65 
 12977      00
 12978              	.LASF353:
 12979 2fca 55564C69 		.ascii	"UVLightLevel\000"
 12979      6768744C 
 12979      6576656C 
 12979      00
 12980              	.LASF191:
 12981 2fd7 4359424C 		.ascii	"CYBLE_GATT_ERR_READ_NOT_PERMITTED\000"
 12981      455F4741 
 12981      54545F45 
 12981      52525F52 
 12981      4541445F 
 12982              	.LASF31:
 12983 2ff9 4359424C 		.ascii	"CYBLE_EVT_GAP_PASSKEY_DISPLAY_REQUEST\000"
 12983      455F4556 
 12983      545F4741 
 12983      505F5041 
 12983      53534B45 
 12984              	.LASF409:
 12985 301f 77725265 		.ascii	"wrReqParam\000"
 12985      71506172 
 12985      616D00
ARM GAS  C:\Users\310309~1\AppData\Local\Temp\ccu8WRKs.s 			page 291


 12986              	.LASF228:
 12987 302a 4359424C 		.ascii	"CYBLE_GATT_ERR_CODE_T\000"
 12987      455F4741 
 12987      54545F45 
 12987      52525F43 
 12987      4F44455F 
 12988              	.LASF309:
 12989 3040 41766572 		.ascii	"AverageActivityLevel\000"
 12989      61676541 
 12989      63746976 
 12989      6974794C 
 12989      6576656C 
 12990              	.LASF479:
 12991 3055 4379426C 		.ascii	"CyBle_ProcessEvents\000"
 12991      655F5072 
 12991      6F636573 
 12991      73457665 
 12991      6E747300 
 12992              	.LASF117:
 12993 3069 4359424C 		.ascii	"CYBLE_ERROR_UNSUPPORTED_FEATURE_OR_PARAMETER_VALUE\000"
 12993      455F4552 
 12993      524F525F 
 12993      554E5355 
 12993      50504F52 
 12994              		.ident	"GCC: (GNU Tools for ARM Embedded Processors) 5.4.1 20160609 (release) [ARM/embedded-5-bran
