ARM GAS  C:\Users\310309~1\AppData\Local\Temp\ccowBZ3f.s 			page 1


   1              		.syntax unified
   2              		.cpu cortex-m0
   3              		.fpu softvfp
   4              		.eabi_attribute 20, 1
   5              		.eabi_attribute 21, 1
   6              		.eabi_attribute 23, 3
   7              		.eabi_attribute 24, 1
   8              		.eabi_attribute 25, 1
   9              		.eabi_attribute 26, 1
  10              		.eabi_attribute 30, 1
  11              		.eabi_attribute 34, 0
  12              		.eabi_attribute 18, 4
  13              		.thumb
  14              		.syntax unified
  15              		.file	"main.c"
  16              		.text
  17              	.Ltext0:
  18              		.cfi_sections	.debug_frame
  19              		.section	.text.isr_timer_Handler,"ax",%progbits
  20              		.align	2
  21              		.global	isr_timer_Handler
  22              		.code	16
  23              		.thumb_func
  24              		.type	isr_timer_Handler, %function
  25              	isr_timer_Handler:
  26              	.LFB36:
  27              		.file 1 "main.c"
   1:main.c        **** /* ========================================
   2:main.c        ****  *
   3:main.c        ****  * Copyright YOUR COMPANY, THE YEAR
   4:main.c        ****  * All Rights Reserved
   5:main.c        ****  * UNPUBLISHED, LICENSED SOFTWARE.
   6:main.c        ****  *
   7:main.c        ****  * CONFIDENTIAL AND PROPRIETARY INFORMATION
   8:main.c        ****  * WHICH IS THE PROPERTY OF your company.
   9:main.c        ****  *
  10:main.c        ****  * ========================================
  11:main.c        **** */
  12:main.c        **** 
  13:main.c        **** #include "common.h"
  14:main.c        **** #include "pamGaid.h"
  15:main.c        **** #include "pamGasd.h"
  16:main.c        **** #include "pamCraid.h"
  17:main.c        **** #include "pamCrasd.h"
  18:main.c        **** #include "pamScasd.h"
  19:main.c        **** #include "pamSaid.h"
  20:main.c        **** #include "pamSasd.h"
  21:main.c        **** #include "pamControlPoint.h"
  22:main.c        **** #include "pamCurrSess.h"
  23:main.c        **** 
  24:main.c        **** /***************************************
  25:main.c        **** *        Global Variables
  26:main.c        **** ***************************************/
  27:main.c        **** CYBLE_API_RESULT_T      apiResult;
  28:main.c        **** uint8                   isButtonPressed = NO;
  29:main.c        **** 
  30:main.c        **** 
ARM GAS  C:\Users\310309~1\AppData\Local\Temp\ccowBZ3f.s 			page 2


  31:main.c        **** CY_ISR ( isr_timer_Handler )
  32:main.c        **** {
  28              		.loc 1 32 0
  29              		.cfi_startproc
  30              		@ args = 0, pretend = 0, frame = 0
  31              		@ frame_needed = 0, uses_anonymous_args = 0
  32 0000 10B5     		push	{r4, lr}
  33              		.cfi_def_cfa_offset 8
  34              		.cfi_offset 4, -8
  35              		.cfi_offset 14, -4
  33:main.c        ****     //this interupt happends every second
  34:main.c        **** 
  35:main.c        ****     
  36:main.c        ****     TCPWM_ClearInterrupt(TCPWM_INTR_MASK_TC);
  36              		.loc 1 36 0
  37 0002 0120     		movs	r0, #1
  38 0004 FFF7FEFF 		bl	TCPWM_ClearInterrupt
  39              	.LVL0:
  37:main.c        **** }
  40              		.loc 1 37 0
  41              		@ sp needed
  42 0008 10BD     		pop	{r4, pc}
  43              		.cfi_endproc
  44              	.LFE36:
  45              		.size	isr_timer_Handler, .-isr_timer_Handler
  46 000a C046     		.section	.text.Pin_SW2_Handler,"ax",%progbits
  47              		.align	2
  48              		.global	Pin_SW2_Handler
  49              		.code	16
  50              		.thumb_func
  51              		.type	Pin_SW2_Handler, %function
  52              	Pin_SW2_Handler:
  53              	.LFB37:
  38:main.c        **** 
  39:main.c        **** CY_ISR( Pin_SW2_Handler )
  40:main.c        **** {
  54              		.loc 1 40 0
  55              		.cfi_startproc
  56              		@ args = 0, pretend = 0, frame = 0
  57              		@ frame_needed = 0, uses_anonymous_args = 0
  58 0000 70B5     		push	{r4, r5, r6, lr}
  59              		.cfi_def_cfa_offset 16
  60              		.cfi_offset 4, -16
  61              		.cfi_offset 5, -12
  62              		.cfi_offset 6, -8
  63              		.cfi_offset 14, -4
  41:main.c        ****     DBG_PRINTF("BUTTON PRESS \r\n");
  64              		.loc 1 41 0
  65 0002 5448     		ldr	r0, .L3
  66 0004 FFF7FEFF 		bl	puts
  67              	.LVL1:
  42:main.c        **** 
  43:main.c        ****     CraiData.RelativeTimestamp++;
  68              		.loc 1 43 0
  69 0008 534C     		ldr	r4, .L3+4
  70 000a E079     		ldrb	r0, [r4, #7]
  71 000c 227A     		ldrb	r2, [r4, #8]
ARM GAS  C:\Users\310309~1\AppData\Local\Temp\ccowBZ3f.s 			page 3


  72 000e 1202     		lsls	r2, r2, #8
  73 0010 0243     		orrs	r2, r0
  74 0012 637A     		ldrb	r3, [r4, #9]
  75 0014 1B04     		lsls	r3, r3, #16
  76 0016 1343     		orrs	r3, r2
  77 0018 1A00     		movs	r2, r3
  78 001a A37A     		ldrb	r3, [r4, #10]
  79 001c 1B06     		lsls	r3, r3, #24
  80 001e 1343     		orrs	r3, r2
  81 0020 0133     		adds	r3, r3, #1
  82 0022 E371     		strb	r3, [r4, #7]
  83 0024 190A     		lsrs	r1, r3, #8
  84 0026 2172     		strb	r1, [r4, #8]
  85 0028 190C     		lsrs	r1, r3, #16
  86 002a 6172     		strb	r1, [r4, #9]
  87 002c 1B0E     		lsrs	r3, r3, #24
  88 002e A372     		strb	r3, [r4, #10]
  44:main.c        ****     UpdateCraid();
  89              		.loc 1 44 0
  90 0030 FFF7FEFF 		bl	UpdateCraid
  91              	.LVL2:
  45:main.c        ****     
  46:main.c        ****     
  47:main.c        ****     CrasData.RelativeTimestamp++;
  92              		.loc 1 47 0
  93 0034 494C     		ldr	r4, .L3+8
  94 0036 607A     		ldrb	r0, [r4, #9]
  95 0038 A27A     		ldrb	r2, [r4, #10]
  96 003a 1202     		lsls	r2, r2, #8
  97 003c 0243     		orrs	r2, r0
  98 003e E37A     		ldrb	r3, [r4, #11]
  99 0040 1B04     		lsls	r3, r3, #16
 100 0042 1343     		orrs	r3, r2
 101 0044 1A00     		movs	r2, r3
 102 0046 237B     		ldrb	r3, [r4, #12]
 103 0048 1B06     		lsls	r3, r3, #24
 104 004a 1343     		orrs	r3, r2
 105 004c 0133     		adds	r3, r3, #1
 106 004e 6372     		strb	r3, [r4, #9]
 107 0050 190A     		lsrs	r1, r3, #8
 108 0052 A172     		strb	r1, [r4, #10]
 109 0054 190C     		lsrs	r1, r3, #16
 110 0056 E172     		strb	r1, [r4, #11]
 111 0058 1B0E     		lsrs	r3, r3, #24
 112 005a 2373     		strb	r3, [r4, #12]
  48:main.c        ****     UpdateCrasd();
 113              		.loc 1 48 0
 114 005c FFF7FEFF 		bl	UpdateCrasd
 115              	.LVL3:
  49:main.c        ****     
  50:main.c        ****     
  51:main.c        ****     GaiData.RelativeTimestamp++;
 116              		.loc 1 51 0
 117 0060 3F4E     		ldr	r6, .L3+12
 118 0062 307A     		ldrb	r0, [r6, #8]
 119 0064 727A     		ldrb	r2, [r6, #9]
 120 0066 1202     		lsls	r2, r2, #8
ARM GAS  C:\Users\310309~1\AppData\Local\Temp\ccowBZ3f.s 			page 4


 121 0068 0243     		orrs	r2, r0
 122 006a B37A     		ldrb	r3, [r6, #10]
 123 006c 1B04     		lsls	r3, r3, #16
 124 006e 1343     		orrs	r3, r2
 125 0070 1A00     		movs	r2, r3
 126 0072 F37A     		ldrb	r3, [r6, #11]
 127 0074 1B06     		lsls	r3, r3, #24
 128 0076 1343     		orrs	r3, r2
 129 0078 0133     		adds	r3, r3, #1
 130 007a 3372     		strb	r3, [r6, #8]
 131 007c 1A0A     		lsrs	r2, r3, #8
 132 007e 7272     		strb	r2, [r6, #9]
 133 0080 1A0C     		lsrs	r2, r3, #16
 134 0082 B272     		strb	r2, [r6, #10]
 135 0084 1B0E     		lsrs	r3, r3, #24
 136 0086 F372     		strb	r3, [r6, #11]
  52:main.c        ****     GaiData.SessionID = 0xABCD;
 137              		.loc 1 52 0
 138 0088 3325     		movs	r5, #51
 139 008a 6D42     		rsbs	r5, r5, #0
 140 008c 3571     		strb	r5, [r6, #4]
 141 008e 5524     		movs	r4, #85
 142 0090 6442     		rsbs	r4, r4, #0
 143 0092 7471     		strb	r4, [r6, #5]
  53:main.c        ****     UpdateGaid();
 144              		.loc 1 53 0
 145 0094 FFF7FEFF 		bl	UpdateGaid
 146              	.LVL4:
  54:main.c        ****     
  55:main.c        ****     GasData.RelativeTimestamp++;
 147              		.loc 1 55 0
 148 0098 324E     		ldr	r6, .L3+16
 149 009a 707A     		ldrb	r0, [r6, #9]
 150 009c B27A     		ldrb	r2, [r6, #10]
 151 009e 1202     		lsls	r2, r2, #8
 152 00a0 0243     		orrs	r2, r0
 153 00a2 F37A     		ldrb	r3, [r6, #11]
 154 00a4 1B04     		lsls	r3, r3, #16
 155 00a6 1343     		orrs	r3, r2
 156 00a8 1A00     		movs	r2, r3
 157 00aa 337B     		ldrb	r3, [r6, #12]
 158 00ac 1B06     		lsls	r3, r3, #24
 159 00ae 1343     		orrs	r3, r2
 160 00b0 0133     		adds	r3, r3, #1
 161 00b2 7372     		strb	r3, [r6, #9]
 162 00b4 190A     		lsrs	r1, r3, #8
 163 00b6 B172     		strb	r1, [r6, #10]
 164 00b8 190C     		lsrs	r1, r3, #16
 165 00ba F172     		strb	r1, [r6, #11]
 166 00bc 1B0E     		lsrs	r3, r3, #24
 167 00be 3373     		strb	r3, [r6, #12]
  56:main.c        ****     GasData.SessionID = 0xABCD;
 168              		.loc 1 56 0
 169 00c0 7571     		strb	r5, [r6, #5]
 170 00c2 B471     		strb	r4, [r6, #6]
  57:main.c        ****     UpdateGasd();
 171              		.loc 1 57 0
ARM GAS  C:\Users\310309~1\AppData\Local\Temp\ccowBZ3f.s 			page 5


 172 00c4 FFF7FEFF 		bl	UpdateGasd
 173              	.LVL5:
  58:main.c        ****     
  59:main.c        ****     
  60:main.c        ****     
  61:main.c        ****     
  62:main.c        ****     SaiData.RelativeTimestamp++;
 174              		.loc 1 62 0
 175 00c8 274C     		ldr	r4, .L3+20
 176 00ca E079     		ldrb	r0, [r4, #7]
 177 00cc 227A     		ldrb	r2, [r4, #8]
 178 00ce 1202     		lsls	r2, r2, #8
 179 00d0 0243     		orrs	r2, r0
 180 00d2 637A     		ldrb	r3, [r4, #9]
 181 00d4 1B04     		lsls	r3, r3, #16
 182 00d6 1343     		orrs	r3, r2
 183 00d8 1A00     		movs	r2, r3
 184 00da A37A     		ldrb	r3, [r4, #10]
 185 00dc 1B06     		lsls	r3, r3, #24
 186 00de 1343     		orrs	r3, r2
 187 00e0 0133     		adds	r3, r3, #1
 188 00e2 E371     		strb	r3, [r4, #7]
 189 00e4 190A     		lsrs	r1, r3, #8
 190 00e6 2172     		strb	r1, [r4, #8]
 191 00e8 190C     		lsrs	r1, r3, #16
 192 00ea 6172     		strb	r1, [r4, #9]
 193 00ec 1B0E     		lsrs	r3, r3, #24
 194 00ee A372     		strb	r3, [r4, #10]
  63:main.c        ****     UpdateSaid();
 195              		.loc 1 63 0
 196 00f0 FFF7FEFF 		bl	UpdateSaid
 197              	.LVL6:
  64:main.c        ****     
  65:main.c        ****     
  66:main.c        ****     SasData.RelativeTimestamp++;
 198              		.loc 1 66 0
 199 00f4 1D4C     		ldr	r4, .L3+24
 200 00f6 207A     		ldrb	r0, [r4, #8]
 201 00f8 627A     		ldrb	r2, [r4, #9]
 202 00fa 1202     		lsls	r2, r2, #8
 203 00fc 0243     		orrs	r2, r0
 204 00fe A37A     		ldrb	r3, [r4, #10]
 205 0100 1B04     		lsls	r3, r3, #16
 206 0102 1343     		orrs	r3, r2
 207 0104 1A00     		movs	r2, r3
 208 0106 E37A     		ldrb	r3, [r4, #11]
 209 0108 1B06     		lsls	r3, r3, #24
 210 010a 1343     		orrs	r3, r2
 211 010c 0133     		adds	r3, r3, #1
 212 010e 2372     		strb	r3, [r4, #8]
 213 0110 1A0A     		lsrs	r2, r3, #8
 214 0112 6272     		strb	r2, [r4, #9]
 215 0114 1A0C     		lsrs	r2, r3, #16
 216 0116 A272     		strb	r2, [r4, #10]
 217 0118 1B0E     		lsrs	r3, r3, #24
 218 011a E372     		strb	r3, [r4, #11]
  67:main.c        ****     UpdateSasd();
ARM GAS  C:\Users\310309~1\AppData\Local\Temp\ccowBZ3f.s 			page 6


 219              		.loc 1 67 0
 220 011c FFF7FEFF 		bl	UpdateSasd
 221              	.LVL7:
  68:main.c        ****     
  69:main.c        ****     
  70:main.c        ****     ScasData.RelativeTimestamp++;
 222              		.loc 1 70 0
 223 0120 134C     		ldr	r4, .L3+28
 224 0122 A079     		ldrb	r0, [r4, #6]
 225 0124 E279     		ldrb	r2, [r4, #7]
 226 0126 1202     		lsls	r2, r2, #8
 227 0128 0243     		orrs	r2, r0
 228 012a 237A     		ldrb	r3, [r4, #8]
 229 012c 1B04     		lsls	r3, r3, #16
 230 012e 1343     		orrs	r3, r2
 231 0130 1A00     		movs	r2, r3
 232 0132 637A     		ldrb	r3, [r4, #9]
 233 0134 1B06     		lsls	r3, r3, #24
 234 0136 1343     		orrs	r3, r2
 235 0138 0133     		adds	r3, r3, #1
 236 013a A371     		strb	r3, [r4, #6]
 237 013c 190A     		lsrs	r1, r3, #8
 238 013e E171     		strb	r1, [r4, #7]
 239 0140 190C     		lsrs	r1, r3, #16
 240 0142 2172     		strb	r1, [r4, #8]
 241 0144 1B0E     		lsrs	r3, r3, #24
 242 0146 6372     		strb	r3, [r4, #9]
  71:main.c        ****     UpdateScasd();
 243              		.loc 1 71 0
 244 0148 FFF7FEFF 		bl	UpdateScasd
 245              	.LVL8:
  72:main.c        ****     
  73:main.c        ****     
  74:main.c        ****     Pin_SW2_ClearInterrupt();
 246              		.loc 1 74 0
 247 014c FFF7FEFF 		bl	Pin_SW2_ClearInterrupt
 248              	.LVL9:
  75:main.c        **** }
 249              		.loc 1 75 0
 250              		@ sp needed
 251 0150 70BD     		pop	{r4, r5, r6, pc}
 252              	.L4:
 253 0152 C046     		.align	2
 254              	.L3:
 255 0154 00000000 		.word	.LC0
 256 0158 00000000 		.word	CraiData
 257 015c 00000000 		.word	CrasData
 258 0160 00000000 		.word	GaiData
 259 0164 00000000 		.word	GasData
 260 0168 00000000 		.word	SaiData
 261 016c 00000000 		.word	SasData
 262 0170 00000000 		.word	ScasData
 263              		.cfi_endproc
 264              	.LFE37:
 265              		.size	Pin_SW2_Handler, .-Pin_SW2_Handler
 266              		.section	.text.SimulateValues,"ax",%progbits
 267              		.align	2
ARM GAS  C:\Users\310309~1\AppData\Local\Temp\ccowBZ3f.s 			page 7


 268              		.global	SimulateValues
 269              		.code	16
 270              		.thumb_func
 271              		.type	SimulateValues, %function
 272              	SimulateValues:
 273              	.LFB40:
  76:main.c        **** 
  77:main.c        **** void BleEventHandler(uint32 event, void* eventParam)
  78:main.c        **** {
  79:main.c        ****     if(0u != eventParam)
  80:main.c        ****     {
  81:main.c        ****         /* This dummy operation is to avoid warning about unused eventParam */
  82:main.c        ****     }
  83:main.c        ****     
  84:main.c        ****     CYBLE_GATTS_WRITE_REQ_PARAM_T *wrReqParam;
  85:main.c        ****     
  86:main.c        ****     switch(event)
  87:main.c        ****     {
  88:main.c        ****         case CYBLE_EVT_STACK_ON:
  89:main.c        ****         case CYBLE_EVT_GAP_DEVICE_DISCONNECTED:
  90:main.c        ****         {
  91:main.c        ****             CyBle_GappStartAdvertisement(CYBLE_ADVERTISING_FAST);
  92:main.c        ****             DBG_PRINTF("Start Advertisement with addr: ");
  93:main.c        ****             CYBLE_GAP_BD_ADDR_T localAddr;
  94:main.c        ****             localAddr.type = 0u;
  95:main.c        ****             CyBle_GetDeviceAddress(&localAddr);
  96:main.c        ****             for(uint8 i = CYBLE_GAP_BD_ADDR_SIZE; i > 0u; i--)
  97:main.c        ****             {
  98:main.c        ****                 DBG_PRINTF("%2.2x", localAddr.bdAddr[i-1]);
  99:main.c        ****             }
 100:main.c        ****             DBG_PRINTF("\r\n");
 101:main.c        ****             DBG_PRINTF("CYBLE_EVT_GAP_DEVICE_DISCONNECTED \r\n");
 102:main.c        ****             HandleLeds();
 103:main.c        ****            
 104:main.c        ****             generalinstantaneousdataNotify = DISABLED;
 105:main.c        ****             generalsummarydataIndicate = DISABLED;
 106:main.c        ****             cardiorespiratoryactivityinstantaneousdataNotify = DISABLED;
 107:main.c        ****             cardiorespiratoryactivitysummarydataIndicate = DISABLED;
 108:main.c        ****             stepcounteractivitysummarydataIndicate = DISABLED;
 109:main.c        ****             sleepactivityinstantaneousdataNotify = DISABLED;
 110:main.c        ****             sleepactivitysummarydataIndicate = DISABLED;
 111:main.c        ****             controlpointIndicate = DISABLED;
 112:main.c        ****             currentsessionIndicate = DISABLED;
 113:main.c        ****             sessionDescriptorIndicate = DISABLED;
 114:main.c        ****             break;
 115:main.c        ****         }
 116:main.c        ****         case CYBLE_EVT_GAP_DEVICE_CONNECTED:
 117:main.c        ****         {
 118:main.c        ****             /* BLE link is established */
 119:main.c        ****             DBG_PRINTF("CYBLE_EVT_GAP_DEVICE_CONNECTED \r\n");
 120:main.c        ****             HandleLeds();
 121:main.c        ****             break;
 122:main.c        ****         }
 123:main.c        ****         case CYBLE_EVT_GAPP_ADVERTISEMENT_START_STOP:
 124:main.c        ****         {
 125:main.c        ****             HandleLeds();
 126:main.c        ****             DBG_PRINTF("CYBLE_EVT_GAPP_ADVERTISEMENT_START_STOP \r\n");
ARM GAS  C:\Users\310309~1\AppData\Local\Temp\ccowBZ3f.s 			page 8


 127:main.c        ****             if(CyBle_GetState() == CYBLE_STATE_DISCONNECTED)
 128:main.c        ****             {
 129:main.c        ****                 /* Advertisement event timed out, go to low power
 130:main.c        ****                 * mode (Stop mode) and wait for device reset
 131:main.c        ****                 * event to wake up the device again */
 132:main.c        ****                 CySysPmSetWakeupPolarity(CY_PM_STOP_WAKEUP_ACTIVE_HIGH);
 133:main.c        ****                 CySysPmStop();
 134:main.c        ****             }
 135:main.c        ****             break;
 136:main.c        ****         }
 137:main.c        ****         case CYBLE_EVT_GATTS_HANDLE_VALUE_CNF:
 138:main.c        ****         {
 139:main.c        ****             DBG_PRINTF("indication confirmation \r\n");
 140:main.c        ****             break;
 141:main.c        ****         }
 142:main.c        ****         case CYBLE_EVT_GAP_PASSKEY_DISPLAY_REQUEST:
 143:main.c        ****         {
 144:main.c        ****             DBG_PRINTF("\r\n");
 145:main.c        ****             DBG_PRINTF("CYBLE_EVT_GAP_PASSKEY_DISPLAY_REQUEST. Passkey is: %lu.\r\n",
 146:main.c        ****                 *(uint32 *)eventParam);
 147:main.c        ****             break;
 148:main.c        ****         }
 149:main.c        ****         case CYBLE_EVT_GAP_ENCRYPT_CHANGE:
 150:main.c        ****         {
 151:main.c        ****             DBG_PRINTF("CYBLE_EVT_GAP_ENCRYPT_CHANGE: %d \r\n", *(uint8 *)eventParam);
 152:main.c        ****             break;
 153:main.c        ****         }
 154:main.c        ****         case CYBLE_EVT_GATT_CONNECT_IND:
 155:main.c        ****         {
 156:main.c        ****             DBG_PRINTF("CYBLE_EVT_GATT_CONNECT_IND: attId %x, bdHandle %x \r\n", 
 157:main.c        ****                 ((CYBLE_CONN_HANDLE_T *)eventParam)->attId, ((CYBLE_CONN_HANDLE_T *)eventParam)->bd
 158:main.c        ****             break;
 159:main.c        ****         }
 160:main.c        ****         case CYBLE_EVT_GAP_AUTH_COMPLETE:
 161:main.c        ****         {
 162:main.c        ****             DBG_PRINTF("CYBLE_EVT_GAP_AUTH_COMPLETE: security:%x, bonding:%x, ekeySize:%x, authErr 
 163:main.c        ****                         ((CYBLE_GAP_AUTH_INFO_T *)eventParam)->security,
 164:main.c        ****                         ((CYBLE_GAP_AUTH_INFO_T *)eventParam)->bonding, 
 165:main.c        ****                         ((CYBLE_GAP_AUTH_INFO_T *)eventParam)->ekeySize, 
 166:main.c        ****                         ((CYBLE_GAP_AUTH_INFO_T *)eventParam)->authErr);
 167:main.c        ****             break;
 168:main.c        ****         }
 169:main.c        ****         case CYBLE_EVT_GATTS_WRITE_REQ:
 170:main.c        ****         {
 171:main.c        ****             wrReqParam = (CYBLE_GATTS_WRITE_REQ_PARAM_T *) eventParam;
 172:main.c        ****             //CCCD Region
 173:main.c        ****             {
 174:main.c        ****                 if(wrReqParam->handleValPair.attrHandle == CYBLE_PHYSICAL_ACTIVITY_MONITOR_GENERAL_
 175:main.c        ****                 {
 176:main.c        ****                     CyBle_GattsWriteAttributeValue(&wrReqParam->handleValPair, 0, &cyBle_connHandle
 177:main.c        ****                     generalinstantaneousdataNotify = wrReqParam->handleValPair.value.val[0] & 0x01;
 178:main.c        ****                     CyBle_GattsWriteRsp(cyBle_connHandle);
 179:main.c        ****                     DBG_PRINTF("Start/stop GENERAL ACTIVITY INSTANTANEOUS DATA Notifications \r\n")
 180:main.c        ****                 }
 181:main.c        ****                 
 182:main.c        ****                 if(wrReqParam->handleValPair.attrHandle == CYBLE_PHYSICAL_ACTIVITY_MONITOR_GENERAL_
 183:main.c        ****                 {
ARM GAS  C:\Users\310309~1\AppData\Local\Temp\ccowBZ3f.s 			page 9


 184:main.c        ****                     CyBle_GattsWriteAttributeValue(&wrReqParam->handleValPair, 0, &cyBle_connHandle
 185:main.c        ****                     generalsummarydataIndicate = wrReqParam->handleValPair.value.val[0] & 0x02;
 186:main.c        ****                     CyBle_GattsWriteRsp(cyBle_connHandle);
 187:main.c        ****                     DBG_PRINTF("Start/stop GENERAL ACTIVITY SUMMARY DATA Indications \r\n");
 188:main.c        ****                 }
 189:main.c        ****                 
 190:main.c        ****                 if(wrReqParam->handleValPair.attrHandle == CYBLE_PHYSICAL_ACTIVITY_MONITOR_CARDIORE
 191:main.c        ****                 {
 192:main.c        ****                     CyBle_GattsWriteAttributeValue(&wrReqParam->handleValPair, 0, &cyBle_connHandle
 193:main.c        ****                     cardiorespiratoryactivityinstantaneousdataNotify = wrReqParam->handleValPair.va
 194:main.c        ****                     CyBle_GattsWriteRsp(cyBle_connHandle);
 195:main.c        ****                     DBG_PRINTF("Start/stop CARDIORESPIRATORY ACTIVITY INSTANTANEOUS DATA Notificati
 196:main.c        ****                 }
 197:main.c        ****                 
 198:main.c        ****                 if(wrReqParam->handleValPair.attrHandle == CYBLE_PHYSICAL_ACTIVITY_MONITOR_CARDIORE
 199:main.c        ****                 {
 200:main.c        ****                     CyBle_GattsWriteAttributeValue(&wrReqParam->handleValPair, 0, &cyBle_connHandle
 201:main.c        ****                     cardiorespiratoryactivitysummarydataIndicate = wrReqParam->handleValPair.value.
 202:main.c        ****                     CyBle_GattsWriteRsp(cyBle_connHandle);
 203:main.c        ****                     DBG_PRINTF("Start/stop CARDIORESPIRATORY ACTIVITY SUMMARY DATA Indications \r\n
 204:main.c        ****                 }
 205:main.c        ****                 
 206:main.c        ****                 if(wrReqParam->handleValPair.attrHandle == CYBLE_PHYSICAL_ACTIVITY_MONITOR_STEP_COU
 207:main.c        ****                 {
 208:main.c        ****                     CyBle_GattsWriteAttributeValue(&wrReqParam->handleValPair, 0, &cyBle_connHandle
 209:main.c        ****                     stepcounteractivitysummarydataIndicate = wrReqParam->handleValPair.value.val[0]
 210:main.c        ****                     CyBle_GattsWriteRsp(cyBle_connHandle);
 211:main.c        ****                     DBG_PRINTF("Start/stop STEP COUNTER ACTIVITY SUMMARY DATA Indications \r\n");
 212:main.c        ****                 }
 213:main.c        ****                 
 214:main.c        ****                 if(wrReqParam->handleValPair.attrHandle == CYBLE_PHYSICAL_ACTIVITY_MONITOR_SLEEP_AC
 215:main.c        ****                 {
 216:main.c        ****                     CyBle_GattsWriteAttributeValue(&wrReqParam->handleValPair, 0, &cyBle_connHandle
 217:main.c        ****                     sleepactivityinstantaneousdataNotify = wrReqParam->handleValPair.value.val[0] &
 218:main.c        ****                     CyBle_GattsWriteRsp(cyBle_connHandle);
 219:main.c        ****                     DBG_PRINTF("Start/stop SLEEP ACTIVITY INSTANTANEOUS DATA Notifications \r\n");
 220:main.c        ****                 }
 221:main.c        ****                 
 222:main.c        ****                 if(wrReqParam->handleValPair.attrHandle == CYBLE_PHYSICAL_ACTIVITY_MONITOR_SLEEP_AC
 223:main.c        ****                 {
 224:main.c        ****                     CyBle_GattsWriteAttributeValue(&wrReqParam->handleValPair, 0, &cyBle_connHandle
 225:main.c        ****                     sleepactivitysummarydataIndicate = wrReqParam->handleValPair.value.val[0] & 0x0
 226:main.c        ****                     CyBle_GattsWriteRsp(cyBle_connHandle);
 227:main.c        ****                     DBG_PRINTF("Start/stop SLEEP ACTIVITY SUMMARY DATA Indications \r\n");
 228:main.c        ****                 }
 229:main.c        ****                 
 230:main.c        ****                 if(wrReqParam->handleValPair.attrHandle == CYBLE_PHYSICAL_ACTIVITY_MONITOR_PHYSICAL
 231:main.c        ****                 {
 232:main.c        ****                     CyBle_GattsWriteAttributeValue(&wrReqParam->handleValPair, 0, &cyBle_connHandle
 233:main.c        ****                     controlpointIndicate = wrReqParam->handleValPair.value.val[0] & 0x02;
 234:main.c        ****                     CyBle_GattsWriteRsp(cyBle_connHandle);
 235:main.c        ****                     DBG_PRINTF("Start/stop CONTROL POINT Indications \r\n");
 236:main.c        ****                 }
 237:main.c        ****                 
 238:main.c        ****                 if(wrReqParam->handleValPair.attrHandle == CYBLE_PHYSICAL_ACTIVITY_MONITOR_CURRENT_
 239:main.c        ****                 {
 240:main.c        ****                     CyBle_GattsWriteAttributeValue(&wrReqParam->handleValPair, 0, &cyBle_connHandle
ARM GAS  C:\Users\310309~1\AppData\Local\Temp\ccowBZ3f.s 			page 10


 241:main.c        ****                     currentsessionIndicate = wrReqParam->handleValPair.value.val[0] & 0x02;
 242:main.c        ****                     CyBle_GattsWriteRsp(cyBle_connHandle);
 243:main.c        ****                     DBG_PRINTF("Start/stop CURRENT SESSION Indications \r\n");
 244:main.c        ****                 }
 245:main.c        ****                 
 246:main.c        ****                 if(wrReqParam->handleValPair.attrHandle == CYBLE_PHYSICAL_ACTIVITY_MONITOR_SESSION_
 247:main.c        ****                 {
 248:main.c        ****                     CyBle_GattsWriteAttributeValue(&wrReqParam->handleValPair, 0, &cyBle_connHandle
 249:main.c        ****                     sessionDescriptorIndicate = wrReqParam->handleValPair.value.val[0] & 0x02;
 250:main.c        ****                     CyBle_GattsWriteRsp(cyBle_connHandle);
 251:main.c        ****                     DBG_PRINTF("Start/stop SESSION DESCRIPTOR Indications \r\n");
 252:main.c        ****                 }
 253:main.c        ****             }
 254:main.c        ****             //User control point write handler region
 255:main.c        ****             {
 256:main.c        ****                 if(wrReqParam->handleValPair.attrHandle == CYBLE_PHYSICAL_ACTIVITY_MONITOR_PHYSICAL
 257:main.c        ****                 {
 258:main.c        ****                     CyBle_GattsWriteAttributeValue(&wrReqParam->handleValPair, 0, &cyBle_connHandle
 259:main.c        ****                     CYBLE_GATTS_ERR_PARAM_T err;
 260:main.c        ****                     err.attrHandle = wrReqParam->handleValPair.attrHandle;
 261:main.c        ****                     err.opcode = CYBLE_GATT_WRITE_REQ;
 262:main.c        ****                     
 263:main.c        ****                     DBG_PRINTF("Control point write request with: %i \r\n", wrReqParam->handleValPa
 264:main.c        ****                     
 265:main.c        ****                     switch(wrReqParam->handleValPair.value.val[0])
 266:main.c        ****                     {
 267:main.c        ****                         case ENQUIRE_SESSIONS:
 268:main.c        ****                         {
 269:main.c        ****                             DBG_PRINTF("Enquire Sessions \r\n");
 270:main.c        ****                             if(!controlpointIndicate || !sessionDescriptorIndicate)
 271:main.c        ****                             {
 272:main.c        ****                                 DBG_PRINTF("Client not subscribed to control point or session descr
 273:main.c        ****                                 err.errorCode = CYBLE_GATT_ERR_CCCD_IMPROPERLY_CONFIGURED;
 274:main.c        ****                                 (void)CyBle_GattsErrorRsp(cyBle_connHandle, &err);
 275:main.c        ****                                 return;
 276:main.c        ****                                 
 277:main.c        ****                             }
 278:main.c        ****                             else if(totalSessionCount > 0)
 279:main.c        ****                             {
 280:main.c        ****                                 Enquire_Sessions_Requested = YES;
 281:main.c        ****                             }
 282:main.c        ****                             else
 283:main.c        ****                             {
 284:main.c        ****                                 DBG_PRINTF("There are no sessions in the database \r\n");
 285:main.c        ****                                 err.errorCode = ERR_NO_SESSIONS_AVAILABLE;
 286:main.c        ****                                 (void)CyBle_GattsErrorRsp(cyBle_connHandle, &err);
 287:main.c        ****                                 return;
 288:main.c        ****                             }
 289:main.c        ****                             break;
 290:main.c        ****                         }
 291:main.c        ****                         case ENQUIRE_SUB_SESSIONS:
 292:main.c        ****                         {
 293:main.c        ****                             uint16 subSessionIDBuffer = 0;
 294:main.c        ****                             if(wrReqParam->handleValPair.value.val[2] == 0) { subSessionIDBuffer = 
 295:main.c        ****                                 else if(wrReqParam->handleValPair.value.val[1] == 0) { subSessionID
 296:main.c        ****                                 else { subSessionIDBuffer = wrReqParam->handleValPair.value.val[2] 
 297:main.c        ****                                 
ARM GAS  C:\Users\310309~1\AppData\Local\Temp\ccowBZ3f.s 			page 11


 298:main.c        ****                             DBG_PRINTF("Enquire Sub-Sessions with with session ID: %i \r\n", subSes
 299:main.c        ****                             
 300:main.c        ****                             if(!controlpointIndicate || !sessionDescriptorIndicate)
 301:main.c        ****                             {
 302:main.c        ****                                 DBG_PRINTF("Client not subscribed to control point or session descr
 303:main.c        ****                                 err.errorCode = CYBLE_GATT_ERR_CCCD_IMPROPERLY_CONFIGURED;
 304:main.c        ****                                 (void)CyBle_GattsErrorRsp(cyBle_connHandle, &err);
 305:main.c        ****                                 return;
 306:main.c        ****                             }
 307:main.c        ****                             else if(totalSessionCount == 0)
 308:main.c        ****                             {
 309:main.c        ****                                 DBG_PRINTF("There are no sessions in the database \r\n");
 310:main.c        ****                                 err.errorCode = ERR_NO_SESSIONS_AVAILABLE;
 311:main.c        ****                                 (void)CyBle_GattsErrorRsp(cyBle_connHandle, &err);
 312:main.c        ****                                 return;
 313:main.c        ****                             }
 314:main.c        ****                             else 
 315:main.c        ****                             {
 316:main.c        ****                                 Enquire_Sub_Sessions_Requested_For_ID = subSessionIDBuffer;
 317:main.c        ****                                 
 318:main.c        ****                                 CYBIT foundSubSession = NO;
 319:main.c        ****                                 for(int i = 0; i < totalSubSessionCount; i++)
 320:main.c        ****                                 {
 321:main.c        ****                                     if(Enquire_Sub_Sessions_Requested_For_ID == mySubSessions[i].Se
 322:main.c        ****                                     {
 323:main.c        ****                                         foundSubSession = YES;
 324:main.c        ****                                     }
 325:main.c        ****                                 }
 326:main.c        ****                                 if(!foundSubSession)
 327:main.c        ****                                 {
 328:main.c        ****                                     Enquire_Sub_Sessions_Requested_For_ID = 0;
 329:main.c        ****                                     DBG_PRINTF("There are no Sessions with this ID thus no sub sess
 330:main.c        ****                                     err.errorCode = ERR_INVALID_SESSION_ID;
 331:main.c        ****                                     (void)CyBle_GattsErrorRsp(cyBle_connHandle, &err);
 332:main.c        ****                                     return;
 333:main.c        ****                                 }
 334:main.c        ****                             }
 335:main.c        ****                             break;
 336:main.c        ****                         }
 337:main.c        ****                         case GET_ENDED_SESSION_DATA:
 338:main.c        ****                         {
 339:main.c        ****                         if(!controlpointIndicate)
 340:main.c        ****                         {
 341:main.c        ****                             DBG_PRINTF("Client not subscribed to control point indications \r\n");
 342:main.c        ****                             err.errorCode = CYBLE_GATT_ERR_CCCD_IMPROPERLY_CONFIGURED;
 343:main.c        ****                             (void)CyBle_GattsErrorRsp(cyBle_connHandle, &err);
 344:main.c        ****                             return;
 345:main.c        ****                         }
 346:main.c        ****                         else if(totalSessionCount == 0)
 347:main.c        ****                         {
 348:main.c        ****                             DBG_PRINTF("There are no sessions in the database \r\n");
 349:main.c        ****                             err.errorCode = ERR_NO_SESSIONS_AVAILABLE;
 350:main.c        ****                             (void)CyBle_GattsErrorRsp(cyBle_connHandle, &err);
 351:main.c        ****                         }
 352:main.c        ****                         else if(wrReqParam->handleValPair.value.val[5] > 6)
 353:main.c        ****                         {
 354:main.c        ****                             DBG_PRINTF("OPCODE not supported \r\n");
ARM GAS  C:\Users\310309~1\AppData\Local\Temp\ccowBZ3f.s 			page 12


 355:main.c        ****                             err.errorCode = CYBLE_GATT_ERR_OP_CODE_NOT_SUPPORTED;
 356:main.c        ****                             CyBle_GattsErrorRsp(cyBle_connHandle, &err);
 357:main.c        ****                             return;
 358:main.c        ****                         }
 359:main.c        ****                         else
 360:main.c        ****                         {
 361:main.c        ****                             CYBIT foundSession = NO;
 362:main.c        ****                             CYBIT foundRunningSession = NO;
 363:main.c        ****                             if(wrReqParam->handleValPair.value.val[2] == 0) { Get_Ended_Data_Sessio
 364:main.c        ****                             else if(wrReqParam->handleValPair.value.val[1] == 0) { Get_Ended_Data_S
 365:main.c        ****                             else { Get_Ended_Data_SessionID = wrReqParam->handleValPair.value.val[2
 366:main.c        ****                             
 367:main.c        ****                             if(wrReqParam->handleValPair.value.val[4] == 0) { Get_Ended_Data_Sub_Se
 368:main.c        ****                             else if(wrReqParam->handleValPair.value.val[3] == 0) { Get_Ended_Data_S
 369:main.c        ****                             else { Get_Ended_Data_Sub_SessionID = wrReqParam->handleValPair.value.v
 370:main.c        ****                             
 371:main.c        ****                             Get_Ended_Data_Value = wrReqParam->handleValPair.value.val[5];
 372:main.c        ****                             
 373:main.c        ****                             for(int i = 0; i < totalSessionCount; i++)
 374:main.c        ****                             {
 375:main.c        ****                                 if(Get_Ended_Data_SessionID == mySessions[i].SessionID)
 376:main.c        ****                                 {
 377:main.c        ****                                     foundSession = YES;
 378:main.c        ****                                     if(CHECK_BIT(mySessions[i].Flags, SESSION_SUB_SESSION_RUNNING_F
 379:main.c        ****                                     {
 380:main.c        ****                                         foundSession = NO;
 381:main.c        ****                                         foundRunningSession = YES;
 382:main.c        ****                                     }
 383:main.c        ****                                 }
 384:main.c        ****                             }
 385:main.c        ****                             
 386:main.c        ****                             if(foundRunningSession)
 387:main.c        ****                             {
 388:main.c        ****                                 DBG_PRINTF("This session is still running: %i \r\n", Get_Ended_Data
 389:main.c        ****                                 Get_Ended_Data_SessionID = 0;
 390:main.c        ****                                 Get_Ended_Data_Sub_SessionID = 0;
 391:main.c        ****                                 err.errorCode = ERR_SESSION_STILL_RUNNING;
 392:main.c        ****                                 (void)CyBle_GattsErrorRsp(cyBle_connHandle, &err);
 393:main.c        ****                                 return;
 394:main.c        ****                             }
 395:main.c        ****                             else if(!foundSession)
 396:main.c        ****                             {
 397:main.c        ****                                 DBG_PRINTF("There are no Sessions with this ID: %i \r\n", Get_Ended
 398:main.c        ****                                 Get_Ended_Data_SessionID = 0;
 399:main.c        ****                                 Get_Ended_Data_Sub_SessionID = 0;
 400:main.c        ****                                 err.errorCode = ERR_INVALID_SESSION_ID;
 401:main.c        ****                                 CyBle_GattsErrorRsp(cyBle_connHandle, &err);
 402:main.c        ****                                 return;
 403:main.c        ****                             }
 404:main.c        ****                             
 405:main.c        ****                             CYBIT foundSubSession = NO;
 406:main.c        ****                             for(int i = 0; i < totalSubSessionCount; i++)
 407:main.c        ****                             {
 408:main.c        ****                                 if(Get_Ended_Data_Sub_SessionID == mySubSessions[i].SubSessionID
 409:main.c        ****                                 && Get_Ended_Data_SessionID == mySubSessions[i].SessionID)
 410:main.c        ****                                 {
 411:main.c        ****                                     foundSubSession = YES;
ARM GAS  C:\Users\310309~1\AppData\Local\Temp\ccowBZ3f.s 			page 13


 412:main.c        ****                                 }
 413:main.c        ****                             }
 414:main.c        ****                             
 415:main.c        ****                             if(Get_Ended_Data_Sub_SessionID == 0xFFFF)
 416:main.c        ****                             {
 417:main.c        ****                                 foundSubSession = YES;
 418:main.c        ****                             }
 419:main.c        ****                             
 420:main.c        ****                             if(!foundSubSession)
 421:main.c        ****                             {
 422:main.c        ****                                 DBG_PRINTF("There are no Sub-Sessions with this ID: %i \r\n", Get_E
 423:main.c        ****                                 Get_Ended_Data_SessionID = 0;
 424:main.c        ****                                 Get_Ended_Data_Sub_SessionID = 0;
 425:main.c        ****                                 err.errorCode = ERR_INVALID_SUB_SESSION_ID;
 426:main.c        ****                                 (void)CyBle_GattsErrorRsp(cyBle_connHandle, &err);
 427:main.c        ****                                 return;
 428:main.c        ****                             }
 429:main.c        ****                             else
 430:main.c        ****                             {
 431:main.c        ****                                 DBG_PRINTF("Get Ended Session Data\r\n");
 432:main.c        ****                                 DBG_PRINTF("SessionID: %i \r\n", Get_Ended_Data_SessionID);
 433:main.c        ****                                 DBG_PRINTF("Sub-SessionID: %i \r\n", Get_Ended_Data_Sub_SessionID);
 434:main.c        ****                                 DBG_PRINTF("Characteristic %i (0 = GAI, 1 = GAS, 2 = CRAI, 3 = CRAS
 435:main.c        ****                             }
 436:main.c        ****                         }
 437:main.c        ****                         break;
 438:main.c        ****                     }
 439:main.c        ****                         case START_SESSION_SUB_SESSION:
 440:main.c        ****                         {
 441:main.c        ****                         if(wrReqParam->handleValPair.value.val[1] == 0x00)
 442:main.c        ****                         {
 443:main.c        ****                             sessionCount++;
 444:main.c        ****                             add_session(mySessions, buildNewSession(sessionCount, 0), &totalSession
 445:main.c        ****                             subsessionCount = 1;
 446:main.c        ****                             add_session(mySubSessions, buildNewSession(totalSessionCount, subsessio
 447:main.c        ****                             UpdateCurrSession(&mySubSessions[totalSubSessionCount - 1]);
 448:main.c        ****                             DBG_PRINTF("Start Session with session ID: %i\r\n Total sessions: %i \r
 449:main.c        ****                         }
 450:main.c        ****                         else if (wrReqParam->handleValPair.value.val[1] == 0x01)
 451:main.c        ****                         {
 452:main.c        ****                             if(totalSessionCount > 0)
 453:main.c        ****                             {
 454:main.c        ****                                 subsessionCount++;
 455:main.c        ****                                 add_session(mySubSessions, buildNewSession(totalSessionCount, subse
 456:main.c        ****                                 UpdateCurrSession(&mySubSessions[totalSubSessionCount - 1]);
 457:main.c        ****                                 DBG_PRINTF("Start Sub-Session with sub session ID: %i into sessionI
 458:main.c        ****                                 DBG_PRINTF("Total sessions: %i \r\n Total SUB sessions: %i \r\n", t
 459:main.c        ****                             }
 460:main.c        ****                             else
 461:main.c        ****                             {
 462:main.c        ****                                 DBG_PRINTF("Cannot start new Sub-Session need to start a session fi
 463:main.c        ****                                 err.errorCode = ERR_NO_SESSION_RUNNING;
 464:main.c        ****                                 (void)CyBle_GattsErrorRsp(cyBle_connHandle, &err);
 465:main.c        ****                                 return;
 466:main.c        ****                             }
 467:main.c        ****                         }
 468:main.c        ****                         else
ARM GAS  C:\Users\310309~1\AppData\Local\Temp\ccowBZ3f.s 			page 14


 469:main.c        ****                         {
 470:main.c        ****                             DBG_PRINTF("Unknown Command\r\n Specify '0400' to start a session and '
 471:main.c        ****                             err.errorCode = ERR_UNDEFINED_VALUE;
 472:main.c        ****                             (void)CyBle_GattsErrorRsp(cyBle_connHandle, &err);
 473:main.c        ****                             return;
 474:main.c        ****                         }
 475:main.c        ****                         break;
 476:main.c        ****                     }
 477:main.c        ****                         case STOP_SESSION:
 478:main.c        ****                         {
 479:main.c        ****                         DBG_PRINTF("Stop Session\r\n");
 480:main.c        ****                         if (stop_session(mySessions, &totalSessionCount))
 481:main.c        ****                         {
 482:main.c        ****                             stop_sub_session(mySubSessions, &totalSubSessionCount);
 483:main.c        ****                             UpdateCurrSession(&mySubSessions[totalSubSessionCount - 1]);
 484:main.c        ****                         }
 485:main.c        ****                         else
 486:main.c        ****                         {
 487:main.c        ****                             DBG_PRINTF("Can't stop session, No running session\r\n");
 488:main.c        ****                             err.errorCode = ERR_NOTHING_TO_STOP;
 489:main.c        ****                             (void)CyBle_GattsErrorRsp(cyBle_connHandle, &err);
 490:main.c        ****                             return;
 491:main.c        ****                         }
 492:main.c        ****                         break;
 493:main.c        ****                     }
 494:main.c        ****                         case DELETE_SESSION:
 495:main.c        ****                         {
 496:main.c        ****                         uint16 sessionIDBuffer = 0;
 497:main.c        ****                         if(wrReqParam->handleValPair.value.val[2] == 0) { sessionIDBuffer = wrReqPa
 498:main.c        ****                             else if(wrReqParam->handleValPair.value.val[1] == 0) { sessionIDBuffer 
 499:main.c        ****                             else { sessionIDBuffer = wrReqParam->handleValPair.value.val[2] * 256 +
 500:main.c        ****                         
 501:main.c        ****                         DBG_PRINTF("Delete Session with parameter: %i requested\r\n", sessionIDBuff
 502:main.c        ****                         uint16 toDeleteID = sessionIDBuffer;
 503:main.c        ****                         uint8 deleteStatus = delete_session(mySessions, &totalSessionCount, toDelet
 504:main.c        ****                         switch(deleteStatus)
 505:main.c        ****                         {
 506:main.c        ****                             case(SUCCES):
 507:main.c        ****                             {
 508:main.c        ****                                 DBG_PRINTF("Deleted Session and sub sessions \r\n");
 509:main.c        ****                                 delete_sub_session(mySubSessions, &totalSubSessionCount, toDeleteID
 510:main.c        ****                                 break;
 511:main.c        ****                             }
 512:main.c        ****                             case NO_SESSION_WITH_ID:
 513:main.c        ****                             {
 514:main.c        ****                                 DBG_PRINTF("There are no sessions with: \r\n SessionID: %i \r\n", t
 515:main.c        ****                                 err.errorCode = ERR_INVALID_SESSION_ID;
 516:main.c        ****                                 (void)CyBle_GattsErrorRsp(cyBle_connHandle, &err);
 517:main.c        ****                                 return;
 518:main.c        ****                             }
 519:main.c        ****                             case SESSION_STILL_RUNNING:
 520:main.c        ****                             {
 521:main.c        ****                                 DBG_PRINTF("This session is still running: \r\n SessionID: %i \r\n"
 522:main.c        ****                                 err.errorCode = ERR_SESSION_STILL_RUNNING;
 523:main.c        ****                                 (void)CyBle_GattsErrorRsp(cyBle_connHandle, &err);
 524:main.c        ****                                 return;
 525:main.c        ****                             }
ARM GAS  C:\Users\310309~1\AppData\Local\Temp\ccowBZ3f.s 			page 15


 526:main.c        ****                             case NO_SESSIONS:
 527:main.c        ****                             {
 528:main.c        ****                                 DBG_PRINTF("There are no sessions\r\n");
 529:main.c        ****                                 err.errorCode = ERR_NO_SESSIONS_AVAILABLE;
 530:main.c        ****                                 (void)CyBle_GattsErrorRsp(cyBle_connHandle, &err);
 531:main.c        ****                             }
 532:main.c        ****                         }
 533:main.c        ****                         break;
 534:main.c        ****                     }
 535:main.c        ****                         case SET_AVERAGE_ACTIVITY_TYPE:
 536:main.c        ****                         {
 537:main.c        ****                             DBG_PRINTF("Set Average Activity Type Requested\r\n");
 538:main.c        ****                             if(!controlpointIndicate)
 539:main.c        ****                             {
 540:main.c        ****                                 DBG_PRINTF("Client not subscribed to control point indications \r\n
 541:main.c        ****                                 err.errorCode = CYBLE_GATT_ERR_CCCD_IMPROPERLY_CONFIGURED;
 542:main.c        ****                                 (void)CyBle_GattsErrorRsp(cyBle_connHandle, &err);
 543:main.c        ****                                 return;
 544:main.c        ****                             }
 545:main.c        ****                             else if(totalSessionCount == 0)
 546:main.c        ****                             {
 547:main.c        ****                                 DBG_PRINTF("There are no sessions in the database \r\n");
 548:main.c        ****                                 err.errorCode = ERR_NO_SESSIONS_AVAILABLE;
 549:main.c        ****                                 (void)CyBle_GattsErrorRsp(cyBle_connHandle, &err);
 550:main.c        ****                             }
 551:main.c        ****                             
 552:main.c        ****                             int scope = wrReqParam->handleValPair.value.val[1];
 553:main.c        ****                             uint8 UserDefinedActivityType = wrReqParam->handleValPair.value.val[2];
 554:main.c        ****                             
 555:main.c        ****                             switch(scope)
 556:main.c        ****                             {
 557:main.c        ****                                 case CURRENT_SUB_SESSION:
 558:main.c        ****                                 {
 559:main.c        ****                                     UserDefinedActivityTypeAllSubSessions[CurrSession.SessionID][Cu
 560:main.c        ****                                     GasData.AverageActivityType = ((UserDefinedActivityTypeAllSubSe
 561:main.c        ****                                     break;
 562:main.c        ****                                 }
 563:main.c        ****                                 case ALL_SUB_SESSIONS_IN_SESSION:
 564:main.c        ****                                 {
 565:main.c        ****                                     for(int i = 0; i < totalSubSessionCount; i++)
 566:main.c        ****                                     {
 567:main.c        ****                                         if(mySubSessions[i].SessionID == CurrSession.SessionID)
 568:main.c        ****                                         {
 569:main.c        ****                                             UserDefinedActivityTypeAllSubSessions[CurrSession.Sessi
 570:main.c        ****                                             DBG_PRINTF("Value Set for: \r\n Sess ID: %i \r\n Sub Se
 571:main.c        ****                                         }
 572:main.c        ****                                     }  
 573:main.c        ****                                     break;
 574:main.c        ****                                 }
 575:main.c        ****                                 default:
 576:main.c        ****                                 {
 577:main.c        ****                                     DBG_PRINTF("Invalid Parameter\r\n");
 578:main.c        ****                                     err.errorCode = ERR_UNDEFINED_VALUE;
 579:main.c        ****                                     (void)CyBle_GattsErrorRsp(cyBle_connHandle, &err);
 580:main.c        ****                                     return;
 581:main.c        ****                                 }
 582:main.c        ****                             }
ARM GAS  C:\Users\310309~1\AppData\Local\Temp\ccowBZ3f.s 			page 16


 583:main.c        ****                             break;
 584:main.c        ****                         }
 585:main.c        ****                         default:
 586:main.c        ****                         {
 587:main.c        ****                             DBG_PRINTF("Unknown Command\r\n");
 588:main.c        ****                             err.errorCode = CYBLE_GATT_ERR_OP_CODE_NOT_SUPPORTED;
 589:main.c        ****                             (void)CyBle_GattsErrorRsp(cyBle_connHandle, &err);
 590:main.c        ****                             return;
 591:main.c        ****                         }
 592:main.c        ****                     }
 593:main.c        ****                     CyBle_GattsWriteRsp(cyBle_connHandle);
 594:main.c        ****                 }
 595:main.c        ****             }
 596:main.c        ****             
 597:main.c        ****         case CYBLE_EVT_GATTS_READ_CHAR_VAL_ACCESS_REQ:
 598:main.c        ****             //DBG_PRINTF("READ REQUEST\r\n");
 599:main.c        ****             break;
 600:main.c        ****         
 601:main.c        ****         default:
 602:main.c        ****             break;
 603:main.c        ****         }
 604:main.c        ****     }
 605:main.c        **** }
 606:main.c        **** 
 607:main.c        **** int main(void)
 608:main.c        **** {
 609:main.c        ****     CyGlobalIntEnable; /* Enable global interrupts. */
 610:main.c        ****     
 611:main.c        ****     if(apiResult != CYBLE_ERROR_OK)
 612:main.c        ****     {
 613:main.c        ****         /* BLE stack initialization failed Check configuration */
 614:main.c        ****         CYASSERT(0);
 615:main.c        ****     }
 616:main.c        **** 
 617:main.c        ****     /* Place your initialization/startup code here (e.g. MyInst_Start()) */
 618:main.c        **** 
 619:main.c        ****     Pin_SW2_Int_StartEx( Pin_SW2_Handler );
 620:main.c        ****     TCPWM_Start();
 621:main.c        ****     isr_timer_StartEx( isr_timer_Handler );
 622:main.c        ****     
 623:main.c        ****     CYBIT procedureFailed = FALSE;
 624:main.c        ****     
 625:main.c        ****     apiResult = CyBle_Start(BleEventHandler);
 626:main.c        ****     
 627:main.c        ****     InitializePhisicalActivityMonitor();
 628:main.c        ****     
 629:main.c        ****     for(;;)
 630:main.c        ****     {
 631:main.c        ****         /* Place your application code here. */
 632:main.c        ****         CyBle_ProcessEvents();
 633:main.c        ****         
 634:main.c        ****         if(CyBle_GetState() == CYBLE_STATE_CONNECTED)
 635:main.c        ****         {
 636:main.c        ****         #if (DEBUG_UART_ENABLED == ENABLED)
 637:main.c        ****             if((cyBle_pendingFlashWrite != 0u) &&
 638:main.c        ****                ((UART_DEB_SpiUartGetTxBufferSize() + UART_DEB_GET_TX_FIFO_SR_VALID) == 0u))
 639:main.c        ****         #else
ARM GAS  C:\Users\310309~1\AppData\Local\Temp\ccowBZ3f.s 			page 17


 640:main.c        ****             if(cyBle_pendingFlashWrite != 0u)
 641:main.c        ****         #endif /* (DEBUG_UART_ENABLED == ENABLED) */
 642:main.c        ****             {
 643:main.c        ****                 /* Store bounding data to flash only when all debug information has been sent */
 644:main.c        ****                 apiResult = CyBle_StoreBondingData(0u);
 645:main.c        ****             }
 646:main.c        ****             else
 647:main.c        ****             {
 648:main.c        ****                 /* nothing else */ 
 649:main.c        ****             }
 650:main.c        ****         }
 651:main.c        ****         
 652:main.c        ****         if(Enquire_Sessions_Requested)
 653:main.c        ****         {
 654:main.c        ****             for(int i = 0; i < totalSessionCount; i++)
 655:main.c        ****             {
 656:main.c        ****                 procedureFailed = UpdateSessionDescriptor(mySessions[i]);
 657:main.c        ****             }
 658:main.c        ****             if(procedureFailed) { updateControlPointEnquireSucces(0xFF, 0xFF); }
 659:main.c        ****             else                { updateControlPointEnquireSucces(0xFC, totalSessionCount); }
 660:main.c        ****             
 661:main.c        ****             Enquire_Sessions_Requested = NO;
 662:main.c        ****             procedureFailed = FALSE;
 663:main.c        ****             
 664:main.c        ****         }
 665:main.c        ****         
 666:main.c        ****         if(Enquire_Sub_Sessions_Requested_For_ID > 0)
 667:main.c        ****         {
 668:main.c        ****             uint16 count = 0;
 669:main.c        ****             for(int i = 0; i < totalSubSessionCount; i++)
 670:main.c        ****             {
 671:main.c        ****                 if(Enquire_Sub_Sessions_Requested_For_ID == mySubSessions[i].SessionID)
 672:main.c        ****                 {
 673:main.c        ****                     procedureFailed = UpdateSessionDescriptor(mySubSessions[i]);
 674:main.c        ****                     count++;
 675:main.c        ****                 }
 676:main.c        ****             }
 677:main.c        ****             
 678:main.c        ****             if(procedureFailed) { updateControlPointEnquireSucces(0xFE, 0xFF); }
 679:main.c        ****             else                { updateControlPointEnquireSucces(0xFB, count); }
 680:main.c        ****             
 681:main.c        ****             Enquire_Sub_Sessions_Requested_For_ID = NO;
 682:main.c        ****             procedureFailed = FALSE;
 683:main.c        ****         }
 684:main.c        ****         
 685:main.c        ****         if(send_Deleted_Sessions)
 686:main.c        ****         {
 687:main.c        ****             for(int i = 0; i < totalDeletedSessions; i++)
 688:main.c        ****             {
 689:main.c        ****                 UpdateSessionDescriptor(myDeletedSessions[i]);
 690:main.c        ****                 myDeletedSessions[i] = myDeletedSessions[i + 1];
 691:main.c        ****                 totalDeletedSessions -= 1;
 692:main.c        ****             }
 693:main.c        ****             send_Deleted_Sessions = NO;
 694:main.c        ****         }
 695:main.c        ****         
 696:main.c        ****         if(Get_Ended_Data_SessionID > 0)
ARM GAS  C:\Users\310309~1\AppData\Local\Temp\ccowBZ3f.s 			page 18


 697:main.c        ****         {
 698:main.c        ****             uint32 count = 0;
 699:main.c        ****             if(Get_Ended_Data_Sub_SessionID == 0xFFFF)
 700:main.c        ****             {
 701:main.c        ****                 for(int i = 0; i < totalSubSessionCount; i++)
 702:main.c        ****                 {
 703:main.c        ****                     if(Get_Ended_Data_SessionID == mySubSessions[i].SessionID)
 704:main.c        ****                     {
 705:main.c        ****                         uint16 subSessionID = mySubSessions[i].SubSessionID;
 706:main.c        ****                         count += SimulateValues(&Get_Ended_Data_SessionID, &subSessionID);
 707:main.c        ****                         
 708:main.c        ****                     }
 709:main.c        ****                 }
 710:main.c        ****             }
 711:main.c        ****             else
 712:main.c        ****             {
 713:main.c        ****                 count += SimulateValues(&Get_Ended_Data_SessionID, &Get_Ended_Data_Sub_SessionID);
 714:main.c        ****             }
 715:main.c        ****             
 716:main.c        ****             if(procedureFailed) { updateControlPointEnquireSucces(0xFD, 0xFF); }
 717:main.c        ****             else                { updateControlPointGetEndedDataSucces(0xFA, count); }
 718:main.c        ****             
 719:main.c        ****             
 720:main.c        ****             Get_Ended_Data_SessionID = 0;
 721:main.c        ****             Get_Ended_Data_Sub_SessionID = 0;
 722:main.c        ****         }
 723:main.c        ****         
 724:main.c        ****         CyBle_EnterLPM(CYBLE_BLESS_DEEPSLEEP);
 725:main.c        ****     }
 726:main.c        **** }
 727:main.c        **** 
 728:main.c        **** uint32 SimulateValues(uint16* SessionID, uint16* SubSessionID)
 729:main.c        **** {
 274              		.loc 1 729 0
 275              		.cfi_startproc
 276              		@ args = 0, pretend = 0, frame = 0
 277              		@ frame_needed = 0, uses_anonymous_args = 0
 278              	.LVL10:
 279 0000 F8B5     		push	{r3, r4, r5, r6, r7, lr}
 280              		.cfi_def_cfa_offset 24
 281              		.cfi_offset 3, -24
 282              		.cfi_offset 4, -20
 283              		.cfi_offset 5, -16
 284              		.cfi_offset 6, -12
 285              		.cfi_offset 7, -8
 286              		.cfi_offset 14, -4
 730:main.c        ****     //GaiData
 731:main.c        ****     {
 732:main.c        ****         GaiData.SessionID = *SessionID;
 287              		.loc 1 732 0
 288 0002 0288     		ldrh	r2, [r0]
 289 0004 D24B     		ldr	r3, .L16
 290 0006 1A71     		strb	r2, [r3, #4]
 291 0008 120A     		lsrs	r2, r2, #8
 292 000a 5A71     		strb	r2, [r3, #5]
 733:main.c        ****         GaiData.SubSessionID = *SubSessionID;
 293              		.loc 1 733 0
ARM GAS  C:\Users\310309~1\AppData\Local\Temp\ccowBZ3f.s 			page 19


 294 000c 0A88     		ldrh	r2, [r1]
 295 000e 9A71     		strb	r2, [r3, #6]
 296 0010 120A     		lsrs	r2, r2, #8
 297 0012 DA71     		strb	r2, [r3, #7]
 734:main.c        ****         GaiData.ActivityCountPerMinute = *SessionID * 10 + *SubSessionID;
 298              		.loc 1 734 0
 299 0014 0588     		ldrh	r5, [r0]
 300 0016 0E88     		ldrh	r6, [r1]
 301 0018 AC00     		lsls	r4, r5, #2
 302 001a 2C19     		adds	r4, r5, r4
 303 001c 6200     		lsls	r2, r4, #1
 304 001e B218     		adds	r2, r6, r2
 305 0020 92B2     		uxth	r2, r2
 306 0022 2024     		movs	r4, #32
 307 0024 1A55     		strb	r2, [r3, r4]
 308 0026 120A     		lsrs	r2, r2, #8
 309 0028 0134     		adds	r4, r4, #1
 310 002a 1A55     		strb	r2, [r3, r4]
 735:main.c        ****         GaiData.ActivityLevel = *SessionID * 10 + *SubSessionID;
 311              		.loc 1 735 0
 312 002c 0588     		ldrh	r5, [r0]
 313 002e 0E88     		ldrh	r6, [r1]
 314 0030 AC00     		lsls	r4, r5, #2
 315 0032 2C19     		adds	r4, r5, r4
 316 0034 6200     		lsls	r2, r4, #1
 317 0036 B218     		adds	r2, r6, r2
 318 0038 92B2     		uxth	r2, r2
 319 003a 2224     		movs	r4, #34
 320 003c 1A55     		strb	r2, [r3, r4]
 321 003e 120A     		lsrs	r2, r2, #8
 322 0040 0134     		adds	r4, r4, #1
 323 0042 1A55     		strb	r2, [r3, r4]
 736:main.c        ****         GaiData.ActivityType = *SessionID * 10 + *SubSessionID;
 324              		.loc 1 736 0
 325 0044 0588     		ldrh	r5, [r0]
 326 0046 0E88     		ldrh	r6, [r1]
 327 0048 AC00     		lsls	r4, r5, #2
 328 004a 2C19     		adds	r4, r5, r4
 329 004c 6200     		lsls	r2, r4, #1
 330 004e B218     		adds	r2, r6, r2
 331 0050 92B2     		uxth	r2, r2
 332 0052 2424     		movs	r4, #36
 333 0054 1A55     		strb	r2, [r3, r4]
 334 0056 120A     		lsrs	r2, r2, #8
 335 0058 0134     		adds	r4, r4, #1
 336 005a 1A55     		strb	r2, [r3, r4]
 737:main.c        ****         GaiData.Elevation[0] = *SessionID * 10 + *SubSessionID;
 337              		.loc 1 737 0
 338 005c 0588     		ldrh	r5, [r0]
 339 005e 0C88     		ldrh	r4, [r1]
 340 0060 AA00     		lsls	r2, r5, #2
 341 0062 AA18     		adds	r2, r5, r2
 342 0064 5500     		lsls	r5, r2, #1
 343 0066 2A19     		adds	r2, r5, r4
 344 0068 5A77     		strb	r2, [r3, #29]
 738:main.c        ****         GaiData.Elevation[1] = *SessionID * 10 + *SubSessionID;
 345              		.loc 1 738 0
ARM GAS  C:\Users\310309~1\AppData\Local\Temp\ccowBZ3f.s 			page 20


 346 006a 0588     		ldrh	r5, [r0]
 347 006c 0C88     		ldrh	r4, [r1]
 348 006e AA00     		lsls	r2, r5, #2
 349 0070 AA18     		adds	r2, r5, r2
 350 0072 5500     		lsls	r5, r2, #1
 351 0074 2A19     		adds	r2, r5, r4
 352 0076 9A77     		strb	r2, [r3, #30]
 739:main.c        ****         GaiData.Elevation[2] = *SessionID * 10 + *SubSessionID;
 353              		.loc 1 739 0
 354 0078 0588     		ldrh	r5, [r0]
 355 007a 0C88     		ldrh	r4, [r1]
 356 007c AA00     		lsls	r2, r5, #2
 357 007e AA18     		adds	r2, r5, r2
 358 0080 5500     		lsls	r5, r2, #1
 359 0082 2A19     		adds	r2, r5, r4
 360 0084 DA77     		strb	r2, [r3, #31]
 740:main.c        ****         GaiData.FatBurnedPerHour = *SessionID * 10 + *SubSessionID;
 361              		.loc 1 740 0
 362 0086 0588     		ldrh	r5, [r0]
 363 0088 0E88     		ldrh	r6, [r1]
 364 008a AC00     		lsls	r4, r5, #2
 365 008c 2C19     		adds	r4, r5, r4
 366 008e 6200     		lsls	r2, r4, #1
 367 0090 B218     		adds	r2, r6, r2
 368 0092 92B2     		uxth	r2, r2
 369 0094 9A75     		strb	r2, [r3, #22]
 370 0096 120A     		lsrs	r2, r2, #8
 371 0098 DA75     		strb	r2, [r3, #23]
 741:main.c        ****         GaiData.IntensityEnergyExpenditurePerHour = *SessionID * 10 + *SubSessionID;
 372              		.loc 1 741 0
 373 009a 0588     		ldrh	r5, [r0]
 374 009c 0E88     		ldrh	r6, [r1]
 375 009e AC00     		lsls	r4, r5, #2
 376 00a0 2C19     		adds	r4, r5, r4
 377 00a2 6200     		lsls	r2, r4, #1
 378 00a4 B218     		adds	r2, r6, r2
 379 00a6 92B2     		uxth	r2, r2
 380 00a8 9A74     		strb	r2, [r3, #18]
 381 00aa 120A     		lsrs	r2, r2, #8
 382 00ac DA74     		strb	r2, [r3, #19]
 742:main.c        ****         GaiData.MetabolicEquivalent = *SessionID * 10 + *SubSessionID;
 383              		.loc 1 742 0
 384 00ae 0588     		ldrh	r5, [r0]
 385 00b0 0C88     		ldrh	r4, [r1]
 386 00b2 AA00     		lsls	r2, r5, #2
 387 00b4 AA18     		adds	r2, r5, r2
 388 00b6 5500     		lsls	r5, r2, #1
 389 00b8 2A19     		adds	r2, r5, r4
 390 00ba 1A76     		strb	r2, [r3, #24]
 743:main.c        ****         GaiData.MotionCadence = *SessionID * 10 + *SubSessionID;
 391              		.loc 1 743 0
 392 00bc 0588     		ldrh	r5, [r0]
 393 00be 0E88     		ldrh	r6, [r1]
 394 00c0 AC00     		lsls	r4, r5, #2
 395 00c2 2C19     		adds	r4, r5, r4
 396 00c4 6200     		lsls	r2, r4, #1
 397 00c6 B218     		adds	r2, r6, r2
ARM GAS  C:\Users\310309~1\AppData\Local\Temp\ccowBZ3f.s 			page 21


 398 00c8 92B2     		uxth	r2, r2
 399 00ca DA76     		strb	r2, [r3, #27]
 400 00cc 120A     		lsrs	r2, r2, #8
 401 00ce 1A77     		strb	r2, [r3, #28]
 744:main.c        ****         GaiData.NormalWalkingEnergyExpenditurePerHour = *SessionID * 10 + *SubSessionID;
 402              		.loc 1 744 0
 403 00d0 0588     		ldrh	r5, [r0]
 404 00d2 0E88     		ldrh	r6, [r1]
 405 00d4 AC00     		lsls	r4, r5, #2
 406 00d6 2C19     		adds	r4, r5, r4
 407 00d8 6200     		lsls	r2, r4, #1
 408 00da B218     		adds	r2, r6, r2
 409 00dc 92B2     		uxth	r2, r2
 410 00de 1A74     		strb	r2, [r3, #16]
 411 00e0 120A     		lsrs	r2, r2, #8
 412 00e2 5A74     		strb	r2, [r3, #17]
 745:main.c        ****         GaiData.RelativeTimestamp = *SessionID * 10 + *SubSessionID;
 413              		.loc 1 745 0
 414 00e4 0288     		ldrh	r2, [r0]
 415 00e6 9400     		lsls	r4, r2, #2
 416 00e8 A418     		adds	r4, r4, r2
 417 00ea 6200     		lsls	r2, r4, #1
 418 00ec 0C88     		ldrh	r4, [r1]
 419 00ee A218     		adds	r2, r4, r2
 420 00f0 1A72     		strb	r2, [r3, #8]
 421 00f2 140A     		lsrs	r4, r2, #8
 422 00f4 5C72     		strb	r4, [r3, #9]
 423 00f6 140C     		lsrs	r4, r2, #16
 424 00f8 9C72     		strb	r4, [r3, #10]
 425 00fa 120E     		lsrs	r2, r2, #24
 426 00fc DA72     		strb	r2, [r3, #11]
 746:main.c        ****         GaiData.SequenceNumber = *SessionID * 10 + *SubSessionID;
 427              		.loc 1 746 0
 428 00fe 0288     		ldrh	r2, [r0]
 429 0100 9400     		lsls	r4, r2, #2
 430 0102 A418     		adds	r4, r4, r2
 431 0104 6200     		lsls	r2, r4, #1
 432 0106 0C88     		ldrh	r4, [r1]
 433 0108 A218     		adds	r2, r4, r2
 434 010a 1A73     		strb	r2, [r3, #12]
 435 010c 140A     		lsrs	r4, r2, #8
 436 010e 5C73     		strb	r4, [r3, #13]
 437 0110 140C     		lsrs	r4, r2, #16
 438 0112 9C73     		strb	r4, [r3, #14]
 439 0114 120E     		lsrs	r2, r2, #24
 440 0116 DA73     		strb	r2, [r3, #15]
 747:main.c        ****         GaiData.Speed = *SessionID * 10 + *SubSessionID;
 441              		.loc 1 747 0
 442 0118 0588     		ldrh	r5, [r0]
 443 011a 0E88     		ldrh	r6, [r1]
 444 011c AC00     		lsls	r4, r5, #2
 445 011e 2C19     		adds	r4, r5, r4
 446 0120 6200     		lsls	r2, r4, #1
 447 0122 B218     		adds	r2, r6, r2
 448 0124 92B2     		uxth	r2, r2
 449 0126 5A76     		strb	r2, [r3, #25]
 450 0128 120A     		lsrs	r2, r2, #8
ARM GAS  C:\Users\310309~1\AppData\Local\Temp\ccowBZ3f.s 			page 22


 451 012a 9A76     		strb	r2, [r3, #26]
 748:main.c        ****         GaiData.TotalEnergyExpenditurePerHour = *SessionID * 10 + *SubSessionID;
 452              		.loc 1 748 0
 453 012c 0588     		ldrh	r5, [r0]
 454 012e 0E88     		ldrh	r6, [r1]
 455 0130 AC00     		lsls	r4, r5, #2
 456 0132 2C19     		adds	r4, r5, r4
 457 0134 6200     		lsls	r2, r4, #1
 458 0136 B218     		adds	r2, r6, r2
 459 0138 92B2     		uxth	r2, r2
 460 013a 1A75     		strb	r2, [r3, #20]
 461 013c 120A     		lsrs	r2, r2, #8
 462 013e 5A75     		strb	r2, [r3, #21]
 749:main.c        ****     }
 750:main.c        ****     //CraiData
 751:main.c        ****     {
 752:main.c        ****         CraiData.SessionID = *SessionID;
 463              		.loc 1 752 0
 464 0140 0288     		ldrh	r2, [r0]
 465 0142 844B     		ldr	r3, .L16+4
 466 0144 DA70     		strb	r2, [r3, #3]
 467 0146 120A     		lsrs	r2, r2, #8
 468 0148 1A71     		strb	r2, [r3, #4]
 753:main.c        ****         CraiData.SubSessionID = *SubSessionID;
 469              		.loc 1 753 0
 470 014a 0A88     		ldrh	r2, [r1]
 471 014c 5A71     		strb	r2, [r3, #5]
 472 014e 120A     		lsrs	r2, r2, #8
 473 0150 9A71     		strb	r2, [r3, #6]
 754:main.c        ****         CraiData.HeartRate = *SessionID * 10 + *SubSessionID;
 474              		.loc 1 754 0
 475 0152 0588     		ldrh	r5, [r0]
 476 0154 0C88     		ldrh	r4, [r1]
 477 0156 AA00     		lsls	r2, r5, #2
 478 0158 AA18     		adds	r2, r5, r2
 479 015a 5500     		lsls	r5, r2, #1
 480 015c 2A19     		adds	r2, r5, r4
 481 015e 1A74     		strb	r2, [r3, #16]
 755:main.c        ****         CraiData.HeartRateVariability = *SessionID * 10 + *SubSessionID;
 482              		.loc 1 755 0
 483 0160 0588     		ldrh	r5, [r0]
 484 0162 0E88     		ldrh	r6, [r1]
 485 0164 AC00     		lsls	r4, r5, #2
 486 0166 2C19     		adds	r4, r5, r4
 487 0168 6200     		lsls	r2, r4, #1
 488 016a B218     		adds	r2, r6, r2
 489 016c 92B2     		uxth	r2, r2
 490 016e 1A75     		strb	r2, [r3, #20]
 491 0170 120A     		lsrs	r2, r2, #8
 492 0172 5A75     		strb	r2, [r3, #21]
 756:main.c        ****         CraiData.PulseInterBeatInterval = *SessionID * 10 + *SubSessionID;
 493              		.loc 1 756 0
 494 0174 0588     		ldrh	r5, [r0]
 495 0176 0E88     		ldrh	r6, [r1]
 496 0178 AC00     		lsls	r4, r5, #2
 497 017a 2C19     		adds	r4, r5, r4
 498 017c 6200     		lsls	r2, r4, #1
ARM GAS  C:\Users\310309~1\AppData\Local\Temp\ccowBZ3f.s 			page 23


 499 017e B218     		adds	r2, r6, r2
 500 0180 92B2     		uxth	r2, r2
 501 0182 5A74     		strb	r2, [r3, #17]
 502 0184 120A     		lsrs	r2, r2, #8
 503 0186 9A74     		strb	r2, [r3, #18]
 757:main.c        ****         CraiData.RelativeTimestamp = *SessionID * 10 + *SubSessionID;
 504              		.loc 1 757 0
 505 0188 0288     		ldrh	r2, [r0]
 506 018a 9400     		lsls	r4, r2, #2
 507 018c A418     		adds	r4, r4, r2
 508 018e 6200     		lsls	r2, r4, #1
 509 0190 0C88     		ldrh	r4, [r1]
 510 0192 A218     		adds	r2, r4, r2
 511 0194 DA71     		strb	r2, [r3, #7]
 512 0196 150A     		lsrs	r5, r2, #8
 513 0198 1D72     		strb	r5, [r3, #8]
 514 019a 150C     		lsrs	r5, r2, #16
 515 019c 5D72     		strb	r5, [r3, #9]
 516 019e 120E     		lsrs	r2, r2, #24
 517 01a0 9A72     		strb	r2, [r3, #10]
 758:main.c        ****         CraiData.RespirationRate = *SessionID * 10 + *SubSessionID;
 518              		.loc 1 758 0
 519 01a2 0588     		ldrh	r5, [r0]
 520 01a4 0C88     		ldrh	r4, [r1]
 521 01a6 AA00     		lsls	r2, r5, #2
 522 01a8 AA18     		adds	r2, r5, r2
 523 01aa 5500     		lsls	r5, r2, #1
 524 01ac 2A19     		adds	r2, r5, r4
 525 01ae 9A75     		strb	r2, [r3, #22]
 759:main.c        ****         CraiData.RestingHeartRate = *SessionID * 10 + *SubSessionID;
 526              		.loc 1 759 0
 527 01b0 0588     		ldrh	r5, [r0]
 528 01b2 0C88     		ldrh	r4, [r1]
 529 01b4 AA00     		lsls	r2, r5, #2
 530 01b6 AA18     		adds	r2, r5, r2
 531 01b8 5500     		lsls	r5, r2, #1
 532 01ba 2A19     		adds	r2, r5, r4
 533 01bc DA74     		strb	r2, [r3, #19]
 760:main.c        ****         CraiData.RestingRespirationRate = *SessionID * 10 + *SubSessionID;
 534              		.loc 1 760 0
 535 01be 0588     		ldrh	r5, [r0]
 536 01c0 0C88     		ldrh	r4, [r1]
 537 01c2 AA00     		lsls	r2, r5, #2
 538 01c4 AA18     		adds	r2, r5, r2
 539 01c6 5500     		lsls	r5, r2, #1
 540 01c8 2A19     		adds	r2, r5, r4
 541 01ca DA75     		strb	r2, [r3, #23]
 761:main.c        ****         CraiData.SequenceNumber = *SessionID * 10 + *SubSessionID;
 542              		.loc 1 761 0
 543 01cc 0288     		ldrh	r2, [r0]
 544 01ce 9400     		lsls	r4, r2, #2
 545 01d0 A418     		adds	r4, r4, r2
 546 01d2 6200     		lsls	r2, r4, #1
 547 01d4 0C88     		ldrh	r4, [r1]
 548 01d6 A218     		adds	r2, r4, r2
 549 01d8 DA72     		strb	r2, [r3, #11]
 550 01da 150A     		lsrs	r5, r2, #8
ARM GAS  C:\Users\310309~1\AppData\Local\Temp\ccowBZ3f.s 			page 24


 551 01dc 1D73     		strb	r5, [r3, #12]
 552 01de 150C     		lsrs	r5, r2, #16
 553 01e0 5D73     		strb	r5, [r3, #13]
 554 01e2 120E     		lsrs	r2, r2, #24
 555 01e4 9A73     		strb	r2, [r3, #14]
 762:main.c        ****         CraiData.VO2Max = *SessionID * 10 + *SubSessionID;
 556              		.loc 1 762 0
 557 01e6 0588     		ldrh	r5, [r0]
 558 01e8 0C88     		ldrh	r4, [r1]
 559 01ea AA00     		lsls	r2, r5, #2
 560 01ec AA18     		adds	r2, r5, r2
 561 01ee 5500     		lsls	r5, r2, #1
 562 01f0 2A19     		adds	r2, r5, r4
 563 01f2 DA73     		strb	r2, [r3, #15]
 763:main.c        ****     }
 764:main.c        ****     //SaiData
 765:main.c        ****     {
 766:main.c        ****         SaiData.SessionID = *SessionID;
 564              		.loc 1 766 0
 565 01f4 0388     		ldrh	r3, [r0]
 566 01f6 584A     		ldr	r2, .L16+8
 567 01f8 D370     		strb	r3, [r2, #3]
 568 01fa 1B0A     		lsrs	r3, r3, #8
 569 01fc 1371     		strb	r3, [r2, #4]
 767:main.c        ****         SaiData.SubSessionID = *SubSessionID;
 570              		.loc 1 767 0
 571 01fe 0A88     		ldrh	r2, [r1]
 572 0200 554B     		ldr	r3, .L16+8
 573 0202 5A71     		strb	r2, [r3, #5]
 574 0204 120A     		lsrs	r2, r2, #8
 575 0206 9A71     		strb	r2, [r3, #6]
 768:main.c        ****         SaiData.IRLightLevel[0] = *SessionID * 10 + *SubSessionID;
 576              		.loc 1 768 0
 577 0208 0588     		ldrh	r5, [r0]
 578 020a 0C88     		ldrh	r4, [r1]
 579 020c AA00     		lsls	r2, r5, #2
 580 020e AA18     		adds	r2, r5, r2
 581 0210 5500     		lsls	r5, r2, #1
 582 0212 2A19     		adds	r2, r5, r4
 583 0214 5A75     		strb	r2, [r3, #21]
 769:main.c        ****         SaiData.IRLightLevel[1] = *SessionID * 10 + *SubSessionID;
 584              		.loc 1 769 0
 585 0216 0588     		ldrh	r5, [r0]
 586 0218 0C88     		ldrh	r4, [r1]
 587 021a AA00     		lsls	r2, r5, #2
 588 021c AA18     		adds	r2, r5, r2
 589 021e 5500     		lsls	r5, r2, #1
 590 0220 2A19     		adds	r2, r5, r4
 591 0222 9A75     		strb	r2, [r3, #22]
 770:main.c        ****         SaiData.IRLightLevel[2] = *SessionID * 10 + *SubSessionID;
 592              		.loc 1 770 0
 593 0224 0588     		ldrh	r5, [r0]
 594 0226 0C88     		ldrh	r4, [r1]
 595 0228 AA00     		lsls	r2, r5, #2
 596 022a AA18     		adds	r2, r5, r2
 597 022c 5500     		lsls	r5, r2, #1
 598 022e 2A19     		adds	r2, r5, r4
ARM GAS  C:\Users\310309~1\AppData\Local\Temp\ccowBZ3f.s 			page 25


 599 0230 DA75     		strb	r2, [r3, #23]
 771:main.c        ****         SaiData.RelativeTimestamp = *SessionID * 10 + *SubSessionID;
 600              		.loc 1 771 0
 601 0232 0288     		ldrh	r2, [r0]
 602 0234 9400     		lsls	r4, r2, #2
 603 0236 A418     		adds	r4, r4, r2
 604 0238 6200     		lsls	r2, r4, #1
 605 023a 0C88     		ldrh	r4, [r1]
 606 023c A218     		adds	r2, r4, r2
 607 023e DA71     		strb	r2, [r3, #7]
 608 0240 150A     		lsrs	r5, r2, #8
 609 0242 1D72     		strb	r5, [r3, #8]
 610 0244 150C     		lsrs	r5, r2, #16
 611 0246 5D72     		strb	r5, [r3, #9]
 612 0248 120E     		lsrs	r2, r2, #24
 613 024a 9A72     		strb	r2, [r3, #10]
 772:main.c        ****         SaiData.SequenceNumber = *SessionID * 10 + *SubSessionID;
 614              		.loc 1 772 0
 615 024c 0288     		ldrh	r2, [r0]
 616 024e 9400     		lsls	r4, r2, #2
 617 0250 A418     		adds	r4, r4, r2
 618 0252 6200     		lsls	r2, r4, #1
 619 0254 0C88     		ldrh	r4, [r1]
 620 0256 A218     		adds	r2, r4, r2
 621 0258 DA72     		strb	r2, [r3, #11]
 622 025a 150A     		lsrs	r5, r2, #8
 623 025c 1D73     		strb	r5, [r3, #12]
 624 025e 150C     		lsrs	r5, r2, #16
 625 0260 5D73     		strb	r5, [r3, #13]
 626 0262 120E     		lsrs	r2, r2, #24
 627 0264 9A73     		strb	r2, [r3, #14]
 773:main.c        ****         SaiData.SleepingHeartRate = *SessionID * 10 + *SubSessionID;
 628              		.loc 1 773 0
 629 0266 0588     		ldrh	r5, [r0]
 630 0268 0C88     		ldrh	r4, [r1]
 631 026a AA00     		lsls	r2, r5, #2
 632 026c AA18     		adds	r2, r5, r2
 633 026e 5500     		lsls	r5, r2, #1
 634 0270 2A19     		adds	r2, r5, r4
 635 0272 5A76     		strb	r2, [r3, #25]
 774:main.c        ****         SaiData.SleepStage = *SessionID * 10 + *SubSessionID;
 636              		.loc 1 774 0
 637 0274 0588     		ldrh	r5, [r0]
 638 0276 0C88     		ldrh	r4, [r1]
 639 0278 AA00     		lsls	r2, r5, #2
 640 027a AA18     		adds	r2, r5, r2
 641 027c 5500     		lsls	r5, r2, #1
 642 027e 2A19     		adds	r2, r5, r4
 643 0280 1A76     		strb	r2, [r3, #24]
 775:main.c        ****         SaiData.UVLightLevel[0] = *SessionID * 10 + *SubSessionID;
 644              		.loc 1 775 0
 645 0282 0588     		ldrh	r5, [r0]
 646 0284 0C88     		ldrh	r4, [r1]
 647 0286 AA00     		lsls	r2, r5, #2
 648 0288 AA18     		adds	r2, r5, r2
 649 028a 5500     		lsls	r5, r2, #1
 650 028c 2A19     		adds	r2, r5, r4
ARM GAS  C:\Users\310309~1\AppData\Local\Temp\ccowBZ3f.s 			page 26


 651 028e 9A74     		strb	r2, [r3, #18]
 776:main.c        ****         SaiData.UVLightLevel[1] = *SessionID * 10 + *SubSessionID;
 652              		.loc 1 776 0
 653 0290 0588     		ldrh	r5, [r0]
 654 0292 0C88     		ldrh	r4, [r1]
 655 0294 AA00     		lsls	r2, r5, #2
 656 0296 AA18     		adds	r2, r5, r2
 657 0298 5500     		lsls	r5, r2, #1
 658 029a 2A19     		adds	r2, r5, r4
 659 029c DA74     		strb	r2, [r3, #19]
 777:main.c        ****         SaiData.UVLightLevel[2] = *SessionID * 10 + *SubSessionID;
 660              		.loc 1 777 0
 661 029e 0588     		ldrh	r5, [r0]
 662 02a0 0C88     		ldrh	r4, [r1]
 663 02a2 AA00     		lsls	r2, r5, #2
 664 02a4 AA18     		adds	r2, r5, r2
 665 02a6 5500     		lsls	r5, r2, #1
 666 02a8 2A19     		adds	r2, r5, r4
 667 02aa 1A75     		strb	r2, [r3, #20]
 778:main.c        ****         SaiData.VisibleLightLevel[0] = *SessionID * 10 + *SubSessionID;
 668              		.loc 1 778 0
 669 02ac 0588     		ldrh	r5, [r0]
 670 02ae 0C88     		ldrh	r4, [r1]
 671 02b0 AA00     		lsls	r2, r5, #2
 672 02b2 AA18     		adds	r2, r5, r2
 673 02b4 5500     		lsls	r5, r2, #1
 674 02b6 2A19     		adds	r2, r5, r4
 675 02b8 DA73     		strb	r2, [r3, #15]
 779:main.c        ****         SaiData.VisibleLightLevel[1] = *SessionID * 10 + *SubSessionID;
 676              		.loc 1 779 0
 677 02ba 0588     		ldrh	r5, [r0]
 678 02bc 0C88     		ldrh	r4, [r1]
 679 02be AA00     		lsls	r2, r5, #2
 680 02c0 AA18     		adds	r2, r5, r2
 681 02c2 5500     		lsls	r5, r2, #1
 682 02c4 2A19     		adds	r2, r5, r4
 683 02c6 1A74     		strb	r2, [r3, #16]
 780:main.c        ****         SaiData.VisibleLightLevel[2] = *SessionID * 10 + *SubSessionID;
 684              		.loc 1 780 0
 685 02c8 0588     		ldrh	r5, [r0]
 686 02ca 0C88     		ldrh	r4, [r1]
 687 02cc AA00     		lsls	r2, r5, #2
 688 02ce AA18     		adds	r2, r5, r2
 689 02d0 5500     		lsls	r5, r2, #1
 690 02d2 2A19     		adds	r2, r5, r4
 691 02d4 5A74     		strb	r2, [r3, #17]
 781:main.c        ****     }
 782:main.c        ****     //GasData
 783:main.c        ****     {
 784:main.c        ****         GasData.SessionID = *SessionID;
 692              		.loc 1 784 0
 693 02d6 0288     		ldrh	r2, [r0]
 694 02d8 204B     		ldr	r3, .L16+12
 695 02da 5A71     		strb	r2, [r3, #5]
 696 02dc 120A     		lsrs	r2, r2, #8
 697 02de 9A71     		strb	r2, [r3, #6]
 785:main.c        ****         GasData.SubSessionID = *SubSessionID;
ARM GAS  C:\Users\310309~1\AppData\Local\Temp\ccowBZ3f.s 			page 27


 698              		.loc 1 785 0
 699 02e0 0A88     		ldrh	r2, [r1]
 700 02e2 DA71     		strb	r2, [r3, #7]
 701 02e4 120A     		lsrs	r2, r2, #8
 702 02e6 1A72     		strb	r2, [r3, #8]
 786:main.c        ****         GasData.ActivityCount = *SessionID * 10 + *SubSessionID;
 703              		.loc 1 786 0
 704 02e8 0288     		ldrh	r2, [r0]
 705 02ea 9400     		lsls	r4, r2, #2
 706 02ec A418     		adds	r4, r4, r2
 707 02ee 6200     		lsls	r2, r4, #1
 708 02f0 0C88     		ldrh	r4, [r1]
 709 02f2 A218     		adds	r2, r4, r2
 710 02f4 1C00     		movs	r4, r3
 711 02f6 3E34     		adds	r4, r4, #62
 712 02f8 2270     		strb	r2, [r4]
 713 02fa 150A     		lsrs	r5, r2, #8
 714 02fc 6570     		strb	r5, [r4, #1]
 715 02fe 150C     		lsrs	r5, r2, #16
 716 0300 A570     		strb	r5, [r4, #2]
 717 0302 120E     		lsrs	r2, r2, #24
 718 0304 E270     		strb	r2, [r4, #3]
 787:main.c        ****         GasData.AverageActivityLevel = *SessionID * 10 + *SubSessionID;
 719              		.loc 1 787 0
 720 0306 0588     		ldrh	r5, [r0]
 721 0308 0E88     		ldrh	r6, [r1]
 722 030a AC00     		lsls	r4, r5, #2
 723 030c 2C19     		adds	r4, r5, r4
 724 030e 6200     		lsls	r2, r4, #1
 725 0310 B218     		adds	r2, r6, r2
 726 0312 92B2     		uxth	r2, r2
 727 0314 4624     		movs	r4, #70
 728 0316 1A55     		strb	r2, [r3, r4]
 729 0318 120A     		lsrs	r2, r2, #8
 730 031a 1C00     		movs	r4, r3
 731 031c 4634     		adds	r4, r4, #70
 732 031e 6270     		strb	r2, [r4, #1]
 788:main.c        ****         GasData.AverageActivityType = ((UserDefinedActivityTypeAllSubSessions[*SessionID][*SubSessi
 733              		.loc 1 788 0
 734 0320 0288     		ldrh	r2, [r0]
 735 0322 0D88     		ldrh	r5, [r1]
 736 0324 9400     		lsls	r4, r2, #2
 737 0326 A218     		adds	r2, r4, r2
 738 0328 9400     		lsls	r4, r2, #2
 739 032a 1219     		adds	r2, r2, r4
 740 032c 0C4C     		ldr	r4, .L16+16
 741 032e A218     		adds	r2, r4, r2
 742 0330 525D     		ldrb	r2, [r2, r5]
 743 0332 1402     		lsls	r4, r2, #8
 744 0334 4826     		movs	r6, #72
 745 0336 9D5D     		ldrb	r5, [r3, r6]
 746 0338 4922     		movs	r2, #73
 747 033a 9A5C     		ldrb	r2, [r3, r2]
 748 033c 1202     		lsls	r2, r2, #8
 749 033e 2A43     		orrs	r2, r5
 750 0340 FF25     		movs	r5, #255
 751 0342 2A40     		ands	r2, r5
ARM GAS  C:\Users\310309~1\AppData\Local\Temp\ccowBZ3f.s 			page 28


 752 0344 2243     		orrs	r2, r4
 753 0346 9A55     		strb	r2, [r3, r6]
 754 0348 120A     		lsrs	r2, r2, #8
 755 034a 1C00     		movs	r4, r3
 756 034c 4834     		adds	r4, r4, #72
 757 034e 09E0     		b	.L17
 758              	.L18:
 759              		.align	2
 760              	.L16:
 761 0350 00000000 		.word	GaiData
 762 0354 00000000 		.word	CraiData
 763 0358 00000000 		.word	SaiData
 764 035c 00000000 		.word	GasData
 765 0360 00000000 		.word	UserDefinedActivityTypeAllSubSessions
 766              	.L17:
 767 0364 6270     		strb	r2, [r4, #1]
 789:main.c        ****         GasData.AverageMetabolicEquivalent = *SessionID * 10 + *SubSessionID;
 768              		.loc 1 789 0
 769 0366 0588     		ldrh	r5, [r0]
 770 0368 0C88     		ldrh	r4, [r1]
 771 036a AA00     		lsls	r2, r5, #2
 772 036c AA18     		adds	r2, r5, r2
 773 036e 5500     		lsls	r5, r2, #1
 774 0370 2A19     		adds	r2, r5, r4
 775 0372 2124     		movs	r4, #33
 776 0374 1A55     		strb	r2, [r3, r4]
 790:main.c        ****         GasData.AverageMotionCadence = *SessionID * 10 + *SubSessionID;
 777              		.loc 1 790 0
 778 0376 0588     		ldrh	r5, [r0]
 779 0378 0E88     		ldrh	r6, [r1]
 780 037a AC00     		lsls	r4, r5, #2
 781 037c 2C19     		adds	r4, r5, r4
 782 037e 6200     		lsls	r2, r4, #1
 783 0380 B218     		adds	r2, r6, r2
 784 0382 1C00     		movs	r4, r3
 785 0384 3534     		adds	r4, r4, #53
 786 0386 92B2     		uxth	r2, r2
 787 0388 2270     		strb	r2, [r4]
 788 038a 120A     		lsrs	r2, r2, #8
 789 038c 6270     		strb	r2, [r4, #1]
 791:main.c        ****         GasData.AverageSpeed = *SessionID * 10 + *SubSessionID;
 790              		.loc 1 791 0
 791 038e 0588     		ldrh	r5, [r0]
 792 0390 0E88     		ldrh	r6, [r1]
 793 0392 AC00     		lsls	r4, r5, #2
 794 0394 2C19     		adds	r4, r5, r4
 795 0396 6200     		lsls	r2, r4, #1
 796 0398 B218     		adds	r2, r6, r2
 797 039a 1C00     		movs	r4, r3
 798 039c 2934     		adds	r4, r4, #41
 799 039e 92B2     		uxth	r2, r2
 800 03a0 2270     		strb	r2, [r4]
 801 03a2 120A     		lsrs	r2, r2, #8
 802 03a4 6270     		strb	r2, [r4, #1]
 792:main.c        ****         GasData.Distance[0] = *SessionID * 10 + *SubSessionID;
 803              		.loc 1 792 0
 804 03a6 0588     		ldrh	r5, [r0]
ARM GAS  C:\Users\310309~1\AppData\Local\Temp\ccowBZ3f.s 			page 29


 805 03a8 0C88     		ldrh	r4, [r1]
 806 03aa AA00     		lsls	r2, r5, #2
 807 03ac AA18     		adds	r2, r5, r2
 808 03ae 5500     		lsls	r5, r2, #1
 809 03b0 2A19     		adds	r2, r5, r4
 810 03b2 2224     		movs	r4, #34
 811 03b4 1A55     		strb	r2, [r3, r4]
 793:main.c        ****         GasData.Distance[1] = *SessionID * 10 + *SubSessionID;
 812              		.loc 1 793 0
 813 03b6 0588     		ldrh	r5, [r0]
 814 03b8 0C88     		ldrh	r4, [r1]
 815 03ba AA00     		lsls	r2, r5, #2
 816 03bc AA18     		adds	r2, r5, r2
 817 03be 5500     		lsls	r5, r2, #1
 818 03c0 2A19     		adds	r2, r5, r4
 819 03c2 2324     		movs	r4, #35
 820 03c4 1A55     		strb	r2, [r3, r4]
 794:main.c        ****         GasData.Distance[2] = *SessionID * 10 + *SubSessionID;
 821              		.loc 1 794 0
 822 03c6 0588     		ldrh	r5, [r0]
 823 03c8 0C88     		ldrh	r4, [r1]
 824 03ca AA00     		lsls	r2, r5, #2
 825 03cc AA18     		adds	r2, r5, r2
 826 03ce 5500     		lsls	r5, r2, #1
 827 03d0 2A19     		adds	r2, r5, r4
 828 03d2 2424     		movs	r4, #36
 829 03d4 1A55     		strb	r2, [r3, r4]
 795:main.c        ****         GasData.DurationOfIntensityWalkingEpisodes[0] = *SessionID * 10 + *SubSessionID;
 830              		.loc 1 795 0
 831 03d6 0588     		ldrh	r5, [r0]
 832 03d8 0C88     		ldrh	r4, [r1]
 833 03da AA00     		lsls	r2, r5, #2
 834 03dc AA18     		adds	r2, r5, r2
 835 03de 5500     		lsls	r5, r2, #1
 836 03e0 2A19     		adds	r2, r5, r4
 837 03e2 2E24     		movs	r4, #46
 838 03e4 1A55     		strb	r2, [r3, r4]
 796:main.c        ****         GasData.DurationOfIntensityWalkingEpisodes[1] = *SessionID * 10 + *SubSessionID;
 839              		.loc 1 796 0
 840 03e6 0588     		ldrh	r5, [r0]
 841 03e8 0C88     		ldrh	r4, [r1]
 842 03ea AA00     		lsls	r2, r5, #2
 843 03ec AA18     		adds	r2, r5, r2
 844 03ee 5500     		lsls	r5, r2, #1
 845 03f0 2A19     		adds	r2, r5, r4
 846 03f2 2F24     		movs	r4, #47
 847 03f4 1A55     		strb	r2, [r3, r4]
 797:main.c        ****         GasData.DurationOfIntensityWalkingEpisodes[2] = *SessionID * 10 + *SubSessionID;
 848              		.loc 1 797 0
 849 03f6 0588     		ldrh	r5, [r0]
 850 03f8 0C88     		ldrh	r4, [r1]
 851 03fa AA00     		lsls	r2, r5, #2
 852 03fc AA18     		adds	r2, r5, r2
 853 03fe 5500     		lsls	r5, r2, #1
 854 0400 2A19     		adds	r2, r5, r4
 855 0402 3024     		movs	r4, #48
 856 0404 1A55     		strb	r2, [r3, r4]
ARM GAS  C:\Users\310309~1\AppData\Local\Temp\ccowBZ3f.s 			page 30


 798:main.c        ****         GasData.DurationOfNormalWalkingEpisodes[0] = *SessionID * 10 + *SubSessionID;
 857              		.loc 1 798 0
 858 0406 0588     		ldrh	r5, [r0]
 859 0408 0C88     		ldrh	r4, [r1]
 860 040a AA00     		lsls	r2, r5, #2
 861 040c AA18     		adds	r2, r5, r2
 862 040e 5500     		lsls	r5, r2, #1
 863 0410 2A19     		adds	r2, r5, r4
 864 0412 2B24     		movs	r4, #43
 865 0414 1A55     		strb	r2, [r3, r4]
 799:main.c        ****         GasData.DurationOfNormalWalkingEpisodes[1] = *SessionID * 10 + *SubSessionID;
 866              		.loc 1 799 0
 867 0416 0588     		ldrh	r5, [r0]
 868 0418 0C88     		ldrh	r4, [r1]
 869 041a AA00     		lsls	r2, r5, #2
 870 041c AA18     		adds	r2, r5, r2
 871 041e 5500     		lsls	r5, r2, #1
 872 0420 2A19     		adds	r2, r5, r4
 873 0422 2C24     		movs	r4, #44
 874 0424 1A55     		strb	r2, [r3, r4]
 800:main.c        ****         GasData.DurationOfNormalWalkingEpisodes[2] = *SessionID * 10 + *SubSessionID;
 875              		.loc 1 800 0
 876 0426 0588     		ldrh	r5, [r0]
 877 0428 0C88     		ldrh	r4, [r1]
 878 042a AA00     		lsls	r2, r5, #2
 879 042c AA18     		adds	r2, r5, r2
 880 042e 5500     		lsls	r5, r2, #1
 881 0430 2A19     		adds	r2, r5, r4
 882 0432 2D24     		movs	r4, #45
 883 0434 1A55     		strb	r2, [r3, r4]
 801:main.c        ****         GasData.FatBurned = *SessionID * 10 + *SubSessionID;
 884              		.loc 1 801 0
 885 0436 0588     		ldrh	r5, [r0]
 886 0438 0E88     		ldrh	r6, [r1]
 887 043a AC00     		lsls	r4, r5, #2
 888 043c 2C19     		adds	r4, r5, r4
 889 043e 6200     		lsls	r2, r4, #1
 890 0440 B218     		adds	r2, r6, r2
 891 0442 92B2     		uxth	r2, r2
 892 0444 5A77     		strb	r2, [r3, #29]
 893 0446 120A     		lsrs	r2, r2, #8
 894 0448 9A77     		strb	r2, [r3, #30]
 802:main.c        ****         GasData.Floors = *SessionID * 10 + *SubSessionID;
 895              		.loc 1 802 0
 896 044a 0588     		ldrh	r5, [r0]
 897 044c 0C88     		ldrh	r4, [r1]
 898 044e AA00     		lsls	r2, r5, #2
 899 0450 AA18     		adds	r2, r5, r2
 900 0452 5500     		lsls	r5, r2, #1
 901 0454 2A19     		adds	r2, r5, r4
 902 0456 3724     		movs	r4, #55
 903 0458 1A55     		strb	r2, [r3, r4]
 803:main.c        ****         GasData.IntensityEnergyExpenditure = *SessionID * 10 + *SubSessionID;
 904              		.loc 1 803 0
 905 045a 0288     		ldrh	r2, [r0]
 906 045c 9400     		lsls	r4, r2, #2
 907 045e A418     		adds	r4, r4, r2
ARM GAS  C:\Users\310309~1\AppData\Local\Temp\ccowBZ3f.s 			page 31


 908 0460 6200     		lsls	r2, r4, #1
 909 0462 0C88     		ldrh	r4, [r1]
 910 0464 A218     		adds	r2, r4, r2
 911 0466 5A75     		strb	r2, [r3, #21]
 912 0468 150A     		lsrs	r5, r2, #8
 913 046a 9D75     		strb	r5, [r3, #22]
 914 046c 150C     		lsrs	r5, r2, #16
 915 046e DD75     		strb	r5, [r3, #23]
 916 0470 120E     		lsrs	r2, r2, #24
 917 0472 1A76     		strb	r2, [r3, #24]
 804:main.c        ****         GasData.MaximumActivityLevel = *SessionID * 10 + *SubSessionID;
 918              		.loc 1 804 0
 919 0474 0588     		ldrh	r5, [r0]
 920 0476 0E88     		ldrh	r6, [r1]
 921 0478 AC00     		lsls	r4, r5, #2
 922 047a 2C19     		adds	r4, r5, r4
 923 047c 6200     		lsls	r2, r4, #1
 924 047e B218     		adds	r2, r6, r2
 925 0480 92B2     		uxth	r2, r2
 926 0482 4424     		movs	r4, #68
 927 0484 1A55     		strb	r2, [r3, r4]
 928 0486 120A     		lsrs	r2, r2, #8
 929 0488 1C00     		movs	r4, r3
 930 048a 4434     		adds	r4, r4, #68
 931 048c 6270     		strb	r2, [r4, #1]
 805:main.c        ****         GasData.MaximumMetabolicEquivalent = *SessionID * 10 + *SubSessionID;
 932              		.loc 1 805 0
 933 048e 0588     		ldrh	r5, [r0]
 934 0490 0C88     		ldrh	r4, [r1]
 935 0492 AA00     		lsls	r2, r5, #2
 936 0494 AA18     		adds	r2, r5, r2
 937 0496 5500     		lsls	r5, r2, #1
 938 0498 2A19     		adds	r2, r5, r4
 939 049a 2024     		movs	r4, #32
 940 049c 1A55     		strb	r2, [r3, r4]
 806:main.c        ****         GasData.MaximumMotionCadence = *SessionID * 10 + *SubSessionID;
 941              		.loc 1 806 0
 942 049e 0588     		ldrh	r5, [r0]
 943 04a0 0E88     		ldrh	r6, [r1]
 944 04a2 AC00     		lsls	r4, r5, #2
 945 04a4 2C19     		adds	r4, r5, r4
 946 04a6 6200     		lsls	r2, r4, #1
 947 04a8 B218     		adds	r2, r6, r2
 948 04aa 3333     		adds	r3, r3, #51
 949 04ac 92B2     		uxth	r2, r2
 950 04ae 1A70     		strb	r2, [r3]
 951 04b0 120A     		lsrs	r2, r2, #8
 952 04b2 5A70     		strb	r2, [r3, #1]
 807:main.c        ****         GasData.MaximumSpeed = *SessionID * 10 + *SubSessionID;
 953              		.loc 1 807 0
 954 04b4 0588     		ldrh	r5, [r0]
 955 04b6 0E88     		ldrh	r6, [r1]
 956 04b8 D24B     		ldr	r3, .L19
 957 04ba AC00     		lsls	r4, r5, #2
 958 04bc 2C19     		adds	r4, r5, r4
 959 04be 6200     		lsls	r2, r4, #1
 960 04c0 B218     		adds	r2, r6, r2
ARM GAS  C:\Users\310309~1\AppData\Local\Temp\ccowBZ3f.s 			page 32


 961 04c2 1C00     		movs	r4, r3
 962 04c4 2734     		adds	r4, r4, #39
 963 04c6 92B2     		uxth	r2, r2
 964 04c8 2270     		strb	r2, [r4]
 965 04ca 120A     		lsrs	r2, r2, #8
 966 04cc 6270     		strb	r2, [r4, #1]
 808:main.c        ****         GasData.MinimumActivityLevel = *SessionID * 10 + *SubSessionID;
 967              		.loc 1 808 0
 968 04ce 0588     		ldrh	r5, [r0]
 969 04d0 0E88     		ldrh	r6, [r1]
 970 04d2 AC00     		lsls	r4, r5, #2
 971 04d4 2C19     		adds	r4, r5, r4
 972 04d6 6200     		lsls	r2, r4, #1
 973 04d8 B218     		adds	r2, r6, r2
 974 04da 92B2     		uxth	r2, r2
 975 04dc 4224     		movs	r4, #66
 976 04de 1A55     		strb	r2, [r3, r4]
 977 04e0 120A     		lsrs	r2, r2, #8
 978 04e2 1C00     		movs	r4, r3
 979 04e4 4234     		adds	r4, r4, #66
 980 04e6 6270     		strb	r2, [r4, #1]
 809:main.c        ****         GasData.MinimumMetabolicEquivalent = *SessionID * 10 + *SubSessionID;
 981              		.loc 1 809 0
 982 04e8 0588     		ldrh	r5, [r0]
 983 04ea 0C88     		ldrh	r4, [r1]
 984 04ec AA00     		lsls	r2, r5, #2
 985 04ee AA18     		adds	r2, r5, r2
 986 04f0 5500     		lsls	r5, r2, #1
 987 04f2 2A19     		adds	r2, r5, r4
 988 04f4 DA77     		strb	r2, [r3, #31]
 810:main.c        ****         GasData.MinimumMotionCadence = *SessionID * 10 + *SubSessionID;
 989              		.loc 1 810 0
 990 04f6 0588     		ldrh	r5, [r0]
 991 04f8 0E88     		ldrh	r6, [r1]
 992 04fa AC00     		lsls	r4, r5, #2
 993 04fc 2C19     		adds	r4, r5, r4
 994 04fe 6200     		lsls	r2, r4, #1
 995 0500 B218     		adds	r2, r6, r2
 996 0502 1C00     		movs	r4, r3
 997 0504 3134     		adds	r4, r4, #49
 998 0506 92B2     		uxth	r2, r2
 999 0508 2270     		strb	r2, [r4]
 1000 050a 120A     		lsrs	r2, r2, #8
 1001 050c 6270     		strb	r2, [r4, #1]
 811:main.c        ****         GasData.MinimumSpeed = *SessionID * 10 + *SubSessionID;
 1002              		.loc 1 811 0
 1003 050e 0588     		ldrh	r5, [r0]
 1004 0510 0E88     		ldrh	r6, [r1]
 1005 0512 AC00     		lsls	r4, r5, #2
 1006 0514 2C19     		adds	r4, r5, r4
 1007 0516 6200     		lsls	r2, r4, #1
 1008 0518 B218     		adds	r2, r6, r2
 1009 051a 1C00     		movs	r4, r3
 1010 051c 2534     		adds	r4, r4, #37
 1011 051e 92B2     		uxth	r2, r2
 1012 0520 2270     		strb	r2, [r4]
 1013 0522 120A     		lsrs	r2, r2, #8
ARM GAS  C:\Users\310309~1\AppData\Local\Temp\ccowBZ3f.s 			page 33


 1014 0524 6270     		strb	r2, [r4, #1]
 812:main.c        ****         GasData.NegativeElevationGain[0] = *SessionID * 10 + *SubSessionID;
 1015              		.loc 1 812 0
 1016 0526 0588     		ldrh	r5, [r0]
 1017 0528 0C88     		ldrh	r4, [r1]
 1018 052a AA00     		lsls	r2, r5, #2
 1019 052c AA18     		adds	r2, r5, r2
 1020 052e 5500     		lsls	r5, r2, #1
 1021 0530 2A19     		adds	r2, r5, r4
 1022 0532 3B24     		movs	r4, #59
 1023 0534 1A55     		strb	r2, [r3, r4]
 813:main.c        ****         GasData.NegativeElevationGain[1] = *SessionID * 10 + *SubSessionID;
 1024              		.loc 1 813 0
 1025 0536 0588     		ldrh	r5, [r0]
 1026 0538 0C88     		ldrh	r4, [r1]
 1027 053a AA00     		lsls	r2, r5, #2
 1028 053c AA18     		adds	r2, r5, r2
 1029 053e 5500     		lsls	r5, r2, #1
 1030 0540 2A19     		adds	r2, r5, r4
 1031 0542 3C24     		movs	r4, #60
 1032 0544 1A55     		strb	r2, [r3, r4]
 814:main.c        ****         GasData.NegativeElevationGain[2] = *SessionID * 10 + *SubSessionID;
 1033              		.loc 1 814 0
 1034 0546 0588     		ldrh	r5, [r0]
 1035 0548 0C88     		ldrh	r4, [r1]
 1036 054a AA00     		lsls	r2, r5, #2
 1037 054c AA18     		adds	r2, r5, r2
 1038 054e 5500     		lsls	r5, r2, #1
 1039 0550 2A19     		adds	r2, r5, r4
 1040 0552 3D24     		movs	r4, #61
 1041 0554 1A55     		strb	r2, [r3, r4]
 815:main.c        ****         GasData.NormalWalkingEnergyExpenditure = *SessionID * 10 + *SubSessionID;
 1042              		.loc 1 815 0
 1043 0556 0288     		ldrh	r2, [r0]
 1044 0558 9400     		lsls	r4, r2, #2
 1045 055a A418     		adds	r4, r4, r2
 1046 055c 6200     		lsls	r2, r4, #1
 1047 055e 0C88     		ldrh	r4, [r1]
 1048 0560 A218     		adds	r2, r4, r2
 1049 0562 5A74     		strb	r2, [r3, #17]
 1050 0564 150A     		lsrs	r5, r2, #8
 1051 0566 9D74     		strb	r5, [r3, #18]
 1052 0568 150C     		lsrs	r5, r2, #16
 1053 056a DD74     		strb	r5, [r3, #19]
 1054 056c 120E     		lsrs	r2, r2, #24
 1055 056e 1A75     		strb	r2, [r3, #20]
 816:main.c        ****         GasData.PositiveElevationGain[0] = *SessionID * 10 + *SubSessionID;
 1056              		.loc 1 816 0
 1057 0570 0588     		ldrh	r5, [r0]
 1058 0572 0C88     		ldrh	r4, [r1]
 1059 0574 AA00     		lsls	r2, r5, #2
 1060 0576 AA18     		adds	r2, r5, r2
 1061 0578 5500     		lsls	r5, r2, #1
 1062 057a 2A19     		adds	r2, r5, r4
 1063 057c 3824     		movs	r4, #56
 1064 057e 1A55     		strb	r2, [r3, r4]
 817:main.c        ****         GasData.PositiveElevationGain[1] = *SessionID * 10 + *SubSessionID;
ARM GAS  C:\Users\310309~1\AppData\Local\Temp\ccowBZ3f.s 			page 34


 1065              		.loc 1 817 0
 1066 0580 0588     		ldrh	r5, [r0]
 1067 0582 0C88     		ldrh	r4, [r1]
 1068 0584 AA00     		lsls	r2, r5, #2
 1069 0586 AA18     		adds	r2, r5, r2
 1070 0588 5500     		lsls	r5, r2, #1
 1071 058a 2A19     		adds	r2, r5, r4
 1072 058c 3924     		movs	r4, #57
 1073 058e 1A55     		strb	r2, [r3, r4]
 818:main.c        ****         GasData.PositiveElevationGain[2] = *SessionID * 10 + *SubSessionID;
 1074              		.loc 1 818 0
 1075 0590 0588     		ldrh	r5, [r0]
 1076 0592 0C88     		ldrh	r4, [r1]
 1077 0594 AA00     		lsls	r2, r5, #2
 1078 0596 AA18     		adds	r2, r5, r2
 1079 0598 5500     		lsls	r5, r2, #1
 1080 059a 2A19     		adds	r2, r5, r4
 1081 059c 3A24     		movs	r4, #58
 1082 059e 1A55     		strb	r2, [r3, r4]
 819:main.c        ****         GasData.RelativeTimestamp = *SessionID * 10 + *SubSessionID;
 1083              		.loc 1 819 0
 1084 05a0 0288     		ldrh	r2, [r0]
 1085 05a2 9500     		lsls	r5, r2, #2
 1086 05a4 AD18     		adds	r5, r5, r2
 1087 05a6 6A00     		lsls	r2, r5, #1
 1088 05a8 0D88     		ldrh	r5, [r1]
 1089 05aa AA18     		adds	r2, r5, r2
 1090 05ac 5A72     		strb	r2, [r3, #9]
 1091 05ae 160A     		lsrs	r6, r2, #8
 1092 05b0 9E72     		strb	r6, [r3, #10]
 1093 05b2 160C     		lsrs	r6, r2, #16
 1094 05b4 DE72     		strb	r6, [r3, #11]
 1095 05b6 120E     		lsrs	r2, r2, #24
 1096 05b8 1A73     		strb	r2, [r3, #12]
 820:main.c        ****         GasData.SequenceNumber = *SessionID * 10 + *SubSessionID;
 1097              		.loc 1 820 0
 1098 05ba 0288     		ldrh	r2, [r0]
 1099 05bc 9500     		lsls	r5, r2, #2
 1100 05be AD18     		adds	r5, r5, r2
 1101 05c0 6A00     		lsls	r2, r5, #1
 1102 05c2 0D88     		ldrh	r5, [r1]
 1103 05c4 AA18     		adds	r2, r5, r2
 1104 05c6 5A73     		strb	r2, [r3, #13]
 1105 05c8 160A     		lsrs	r6, r2, #8
 1106 05ca 9E73     		strb	r6, [r3, #14]
 1107 05cc 160C     		lsrs	r6, r2, #16
 1108 05ce DE73     		strb	r6, [r3, #15]
 1109 05d0 120E     		lsrs	r2, r2, #24
 1110 05d2 1A74     		strb	r2, [r3, #16]
 821:main.c        ****         GasData.TotalEnergyExpenditure = *SessionID * 10 + *SubSessionID;
 1111              		.loc 1 821 0
 1112 05d4 0288     		ldrh	r2, [r0]
 1113 05d6 9500     		lsls	r5, r2, #2
 1114 05d8 AD18     		adds	r5, r5, r2
 1115 05da 6A00     		lsls	r2, r5, #1
 1116 05dc 0D88     		ldrh	r5, [r1]
 1117 05de AA18     		adds	r2, r5, r2
ARM GAS  C:\Users\310309~1\AppData\Local\Temp\ccowBZ3f.s 			page 35


 1118 05e0 5A76     		strb	r2, [r3, #25]
 1119 05e2 160A     		lsrs	r6, r2, #8
 1120 05e4 9E76     		strb	r6, [r3, #26]
 1121 05e6 160C     		lsrs	r6, r2, #16
 1122 05e8 DE76     		strb	r6, [r3, #27]
 1123 05ea 120E     		lsrs	r2, r2, #24
 1124 05ec 1A77     		strb	r2, [r3, #28]
 822:main.c        ****         GasData.WornDuration[0] = *SessionID * 10 + *SubSessionID;
 1125              		.loc 1 822 0
 1126 05ee 0688     		ldrh	r6, [r0]
 1127 05f0 0D88     		ldrh	r5, [r1]
 1128 05f2 B200     		lsls	r2, r6, #2
 1129 05f4 B218     		adds	r2, r6, r2
 1130 05f6 5600     		lsls	r6, r2, #1
 1131 05f8 7219     		adds	r2, r6, r5
 1132 05fa 4A25     		movs	r5, #74
 1133 05fc 5A55     		strb	r2, [r3, r5]
 823:main.c        ****         GasData.WornDuration[1] = *SessionID * 10 + *SubSessionID;
 1134              		.loc 1 823 0
 1135 05fe 0688     		ldrh	r6, [r0]
 1136 0600 0D88     		ldrh	r5, [r1]
 1137 0602 B200     		lsls	r2, r6, #2
 1138 0604 B218     		adds	r2, r6, r2
 1139 0606 5600     		lsls	r6, r2, #1
 1140 0608 7219     		adds	r2, r6, r5
 1141 060a 4B25     		movs	r5, #75
 1142 060c 5A55     		strb	r2, [r3, r5]
 824:main.c        ****         GasData.WornDuration[2] = *SessionID * 10 + *SubSessionID;
 1143              		.loc 1 824 0
 1144 060e 0688     		ldrh	r6, [r0]
 1145 0610 0D88     		ldrh	r5, [r1]
 1146 0612 B200     		lsls	r2, r6, #2
 1147 0614 B218     		adds	r2, r6, r2
 1148 0616 5600     		lsls	r6, r2, #1
 1149 0618 7219     		adds	r2, r6, r5
 1150 061a 4C25     		movs	r5, #76
 1151 061c 5A55     		strb	r2, [r3, r5]
 825:main.c        ****     }
 826:main.c        ****     //CrasData
 827:main.c        ****     {
 828:main.c        ****         CrasData.SessionID = *SessionID;
 1152              		.loc 1 828 0
 1153 061e 0288     		ldrh	r2, [r0]
 1154 0620 794B     		ldr	r3, .L19+4
 1155 0622 5A71     		strb	r2, [r3, #5]
 1156 0624 120A     		lsrs	r2, r2, #8
 1157 0626 9A71     		strb	r2, [r3, #6]
 829:main.c        ****         CrasData.SubSessionID = *SubSessionID;
 1158              		.loc 1 829 0
 1159 0628 0A88     		ldrh	r2, [r1]
 1160 062a DA71     		strb	r2, [r3, #7]
 1161 062c 120A     		lsrs	r2, r2, #8
 1162 062e 1A72     		strb	r2, [r3, #8]
 830:main.c        ****         CrasData.AverageHeartRate = *SessionID * 10 + *SubSessionID;
 1163              		.loc 1 830 0
 1164 0630 0688     		ldrh	r6, [r0]
 1165 0632 0D88     		ldrh	r5, [r1]
ARM GAS  C:\Users\310309~1\AppData\Local\Temp\ccowBZ3f.s 			page 36


 1166 0634 B200     		lsls	r2, r6, #2
 1167 0636 B218     		adds	r2, r6, r2
 1168 0638 5600     		lsls	r6, r2, #1
 1169 063a 7219     		adds	r2, r6, r5
 1170 063c 2525     		movs	r5, #37
 1171 063e 5A55     		strb	r2, [r3, r5]
 831:main.c        ****         CrasData.AverageHeartRateVariability = *SessionID * 10 + *SubSessionID;
 1172              		.loc 1 831 0
 1173 0640 0688     		ldrh	r6, [r0]
 1174 0642 0F88     		ldrh	r7, [r1]
 1175 0644 B500     		lsls	r5, r6, #2
 1176 0646 7519     		adds	r5, r6, r5
 1177 0648 6A00     		lsls	r2, r5, #1
 1178 064a BA18     		adds	r2, r7, r2
 1179 064c 1D00     		movs	r5, r3
 1180 064e 3335     		adds	r5, r5, #51
 1181 0650 92B2     		uxth	r2, r2
 1182 0652 2A70     		strb	r2, [r5]
 1183 0654 120A     		lsrs	r2, r2, #8
 1184 0656 6A70     		strb	r2, [r5, #1]
 832:main.c        ****         CrasData.AveragePulseInterbeatInterval = *SessionID * 10 + *SubSessionID;
 1185              		.loc 1 832 0
 1186 0658 0688     		ldrh	r6, [r0]
 1187 065a 0F88     		ldrh	r7, [r1]
 1188 065c B500     		lsls	r5, r6, #2
 1189 065e 7519     		adds	r5, r6, r5
 1190 0660 6A00     		lsls	r2, r5, #1
 1191 0662 BA18     		adds	r2, r7, r2
 1192 0664 92B2     		uxth	r2, r2
 1193 0666 2A25     		movs	r5, #42
 1194 0668 5A55     		strb	r2, [r3, r5]
 1195 066a 120A     		lsrs	r2, r2, #8
 1196 066c 0135     		adds	r5, r5, #1
 1197 066e 5A55     		strb	r2, [r3, r5]
 833:main.c        ****         CrasData.AverageRespirationRate = *SessionID * 10 + *SubSessionID;
 1198              		.loc 1 833 0
 1199 0670 0688     		ldrh	r6, [r0]
 1200 0672 0D88     		ldrh	r5, [r1]
 1201 0674 B200     		lsls	r2, r6, #2
 1202 0676 B218     		adds	r2, r6, r2
 1203 0678 5600     		lsls	r6, r2, #1
 1204 067a 7219     		adds	r2, r6, r5
 1205 067c 3725     		movs	r5, #55
 1206 067e 5A55     		strb	r2, [r3, r5]
 834:main.c        ****         CrasData.AverageRestingHeartRate = *SessionID * 10 + *SubSessionID;
 1207              		.loc 1 834 0
 1208 0680 0688     		ldrh	r6, [r0]
 1209 0682 0D88     		ldrh	r5, [r1]
 1210 0684 B200     		lsls	r2, r6, #2
 1211 0686 B218     		adds	r2, r6, r2
 1212 0688 5600     		lsls	r6, r2, #1
 1213 068a 7219     		adds	r2, r6, r5
 1214 068c 2E25     		movs	r5, #46
 1215 068e 5A55     		strb	r2, [r3, r5]
 835:main.c        ****         CrasData.AverageRestingRespirationRate = *SessionID * 10 + *SubSessionID;
 1216              		.loc 1 835 0
 1217 0690 0688     		ldrh	r6, [r0]
ARM GAS  C:\Users\310309~1\AppData\Local\Temp\ccowBZ3f.s 			page 37


 1218 0692 0D88     		ldrh	r5, [r1]
 1219 0694 B200     		lsls	r2, r6, #2
 1220 0696 B218     		adds	r2, r6, r2
 1221 0698 5600     		lsls	r6, r2, #1
 1222 069a 7219     		adds	r2, r6, r5
 1223 069c 1A55     		strb	r2, [r3, r4]
 836:main.c        ****         CrasData.AverageVO2Max = *SessionID * 10 + *SubSessionID;
 1224              		.loc 1 836 0
 1225 069e 0588     		ldrh	r5, [r0]
 1226 06a0 0C88     		ldrh	r4, [r1]
 1227 06a2 AA00     		lsls	r2, r5, #2
 1228 06a4 AA18     		adds	r2, r5, r2
 1229 06a6 5500     		lsls	r5, r2, #1
 1230 06a8 2A19     		adds	r2, r5, r4
 1231 06aa 2224     		movs	r4, #34
 1232 06ac 1A55     		strb	r2, [r3, r4]
 837:main.c        ****         CrasData.MaximumHeartRate = *SessionID * 10 + *SubSessionID;
 1233              		.loc 1 837 0
 1234 06ae 0588     		ldrh	r5, [r0]
 1235 06b0 0C88     		ldrh	r4, [r1]
 1236 06b2 AA00     		lsls	r2, r5, #2
 1237 06b4 AA18     		adds	r2, r5, r2
 1238 06b6 5500     		lsls	r5, r2, #1
 1239 06b8 2A19     		adds	r2, r5, r4
 1240 06ba 2424     		movs	r4, #36
 1241 06bc 1A55     		strb	r2, [r3, r4]
 838:main.c        ****         CrasData.MaximumHeartRateVariability = *SessionID * 10 + *SubSessionID;
 1242              		.loc 1 838 0
 1243 06be 0588     		ldrh	r5, [r0]
 1244 06c0 0E88     		ldrh	r6, [r1]
 1245 06c2 AC00     		lsls	r4, r5, #2
 1246 06c4 2C19     		adds	r4, r5, r4
 1247 06c6 6200     		lsls	r2, r4, #1
 1248 06c8 B218     		adds	r2, r6, r2
 1249 06ca 1C00     		movs	r4, r3
 1250 06cc 3134     		adds	r4, r4, #49
 1251 06ce 92B2     		uxth	r2, r2
 1252 06d0 2270     		strb	r2, [r4]
 1253 06d2 120A     		lsrs	r2, r2, #8
 1254 06d4 6270     		strb	r2, [r4, #1]
 839:main.c        ****         CrasData.MaximumPulseInterbeatInterval = *SessionID * 10 + *SubSessionID;
 1255              		.loc 1 839 0
 1256 06d6 0588     		ldrh	r5, [r0]
 1257 06d8 0E88     		ldrh	r6, [r1]
 1258 06da AC00     		lsls	r4, r5, #2
 1259 06dc 2C19     		adds	r4, r5, r4
 1260 06de 6200     		lsls	r2, r4, #1
 1261 06e0 B218     		adds	r2, r6, r2
 1262 06e2 92B2     		uxth	r2, r2
 1263 06e4 2824     		movs	r4, #40
 1264 06e6 1A55     		strb	r2, [r3, r4]
 1265 06e8 120A     		lsrs	r2, r2, #8
 1266 06ea 0134     		adds	r4, r4, #1
 1267 06ec 1A55     		strb	r2, [r3, r4]
 840:main.c        ****         CrasData.MaximumRespirationRate = *SessionID * 10 + *SubSessionID;
 1268              		.loc 1 840 0
 1269 06ee 0588     		ldrh	r5, [r0]
ARM GAS  C:\Users\310309~1\AppData\Local\Temp\ccowBZ3f.s 			page 38


 1270 06f0 0C88     		ldrh	r4, [r1]
 1271 06f2 AA00     		lsls	r2, r5, #2
 1272 06f4 AA18     		adds	r2, r5, r2
 1273 06f6 5500     		lsls	r5, r2, #1
 1274 06f8 2A19     		adds	r2, r5, r4
 1275 06fa 3624     		movs	r4, #54
 1276 06fc 1A55     		strb	r2, [r3, r4]
 841:main.c        ****         CrasData.MaximumRestingHeartRate = *SessionID * 10 + *SubSessionID;
 1277              		.loc 1 841 0
 1278 06fe 0588     		ldrh	r5, [r0]
 1279 0700 0C88     		ldrh	r4, [r1]
 1280 0702 AA00     		lsls	r2, r5, #2
 1281 0704 AA18     		adds	r2, r5, r2
 1282 0706 5500     		lsls	r5, r2, #1
 1283 0708 2A19     		adds	r2, r5, r4
 1284 070a 2D24     		movs	r4, #45
 1285 070c 1A55     		strb	r2, [r3, r4]
 842:main.c        ****         CrasData.MaximumRestingRespirationRate = *SessionID * 10 + *SubSessionID;
 1286              		.loc 1 842 0
 1287 070e 0588     		ldrh	r5, [r0]
 1288 0710 0C88     		ldrh	r4, [r1]
 1289 0712 AA00     		lsls	r2, r5, #2
 1290 0714 AA18     		adds	r2, r5, r2
 1291 0716 5500     		lsls	r5, r2, #1
 1292 0718 2A19     		adds	r2, r5, r4
 1293 071a 3924     		movs	r4, #57
 1294 071c 1A55     		strb	r2, [r3, r4]
 843:main.c        ****         CrasData.MaximumVO2Max = *SessionID * 10 + *SubSessionID;
 1295              		.loc 1 843 0
 1296 071e 0588     		ldrh	r5, [r0]
 1297 0720 0C88     		ldrh	r4, [r1]
 1298 0722 AA00     		lsls	r2, r5, #2
 1299 0724 AA18     		adds	r2, r5, r2
 1300 0726 5500     		lsls	r5, r2, #1
 1301 0728 2A19     		adds	r2, r5, r4
 1302 072a 2124     		movs	r4, #33
 1303 072c 1A55     		strb	r2, [r3, r4]
 844:main.c        ****         CrasData.MinimumHeartRate = *SessionID * 10 + *SubSessionID;
 1304              		.loc 1 844 0
 1305 072e 0588     		ldrh	r5, [r0]
 1306 0730 0C88     		ldrh	r4, [r1]
 1307 0732 AA00     		lsls	r2, r5, #2
 1308 0734 AA18     		adds	r2, r5, r2
 1309 0736 5500     		lsls	r5, r2, #1
 1310 0738 2A19     		adds	r2, r5, r4
 1311 073a 2324     		movs	r4, #35
 1312 073c 1A55     		strb	r2, [r3, r4]
 845:main.c        ****         CrasData.MinimumHeartRateVariability = *SessionID * 10 + *SubSessionID;
 1313              		.loc 1 845 0
 1314 073e 0588     		ldrh	r5, [r0]
 1315 0740 0E88     		ldrh	r6, [r1]
 1316 0742 AC00     		lsls	r4, r5, #2
 1317 0744 2C19     		adds	r4, r5, r4
 1318 0746 6200     		lsls	r2, r4, #1
 1319 0748 B218     		adds	r2, r6, r2
 1320 074a 1C00     		movs	r4, r3
 1321 074c 2F34     		adds	r4, r4, #47
ARM GAS  C:\Users\310309~1\AppData\Local\Temp\ccowBZ3f.s 			page 39


 1322 074e 92B2     		uxth	r2, r2
 1323 0750 2270     		strb	r2, [r4]
 1324 0752 120A     		lsrs	r2, r2, #8
 1325 0754 6270     		strb	r2, [r4, #1]
 846:main.c        ****         CrasData.MinimumPulseInterbeatInterval = *SessionID * 10 + *SubSessionID;
 1326              		.loc 1 846 0
 1327 0756 0588     		ldrh	r5, [r0]
 1328 0758 0E88     		ldrh	r6, [r1]
 1329 075a AC00     		lsls	r4, r5, #2
 1330 075c 2C19     		adds	r4, r5, r4
 1331 075e 6200     		lsls	r2, r4, #1
 1332 0760 B218     		adds	r2, r6, r2
 1333 0762 92B2     		uxth	r2, r2
 1334 0764 2624     		movs	r4, #38
 1335 0766 1A55     		strb	r2, [r3, r4]
 1336 0768 120A     		lsrs	r2, r2, #8
 1337 076a 0134     		adds	r4, r4, #1
 1338 076c 1A55     		strb	r2, [r3, r4]
 847:main.c        ****         CrasData.MinimumRespirationRate = *SessionID * 10 + *SubSessionID;
 1339              		.loc 1 847 0
 1340 076e 0588     		ldrh	r5, [r0]
 1341 0770 0C88     		ldrh	r4, [r1]
 1342 0772 AA00     		lsls	r2, r5, #2
 1343 0774 AA18     		adds	r2, r5, r2
 1344 0776 5500     		lsls	r5, r2, #1
 1345 0778 2A19     		adds	r2, r5, r4
 1346 077a 3524     		movs	r4, #53
 1347 077c 1A55     		strb	r2, [r3, r4]
 848:main.c        ****         CrasData.MinimumRestingHeartRate = *SessionID * 10 + *SubSessionID;
 1348              		.loc 1 848 0
 1349 077e 0588     		ldrh	r5, [r0]
 1350 0780 0C88     		ldrh	r4, [r1]
 1351 0782 AA00     		lsls	r2, r5, #2
 1352 0784 AA18     		adds	r2, r5, r2
 1353 0786 5500     		lsls	r5, r2, #1
 1354 0788 2A19     		adds	r2, r5, r4
 1355 078a 2C24     		movs	r4, #44
 1356 078c 1A55     		strb	r2, [r3, r4]
 849:main.c        ****         CrasData.MinimumRestingRespirationRate = *SessionID * 10 + *SubSessionID;
 1357              		.loc 1 849 0
 1358 078e 0588     		ldrh	r5, [r0]
 1359 0790 0C88     		ldrh	r4, [r1]
 1360 0792 AA00     		lsls	r2, r5, #2
 1361 0794 AA18     		adds	r2, r5, r2
 1362 0796 5500     		lsls	r5, r2, #1
 1363 0798 2A19     		adds	r2, r5, r4
 1364 079a 3824     		movs	r4, #56
 1365 079c 1A55     		strb	r2, [r3, r4]
 850:main.c        ****         CrasData.MinimumVO2Max = *SessionID * 10 + *SubSessionID;
 1366              		.loc 1 850 0
 1367 079e 0588     		ldrh	r5, [r0]
 1368 07a0 0C88     		ldrh	r4, [r1]
 1369 07a2 AA00     		lsls	r2, r5, #2
 1370 07a4 AA18     		adds	r2, r5, r2
 1371 07a6 5500     		lsls	r5, r2, #1
 1372 07a8 2A19     		adds	r2, r5, r4
 1373 07aa 2024     		movs	r4, #32
ARM GAS  C:\Users\310309~1\AppData\Local\Temp\ccowBZ3f.s 			page 40


 1374 07ac 1A55     		strb	r2, [r3, r4]
 851:main.c        ****         CrasData.RelativeTimestamp = *SessionID * 10 + *SubSessionID;
 1375              		.loc 1 851 0
 1376 07ae 0288     		ldrh	r2, [r0]
 1377 07b0 9400     		lsls	r4, r2, #2
 1378 07b2 A418     		adds	r4, r4, r2
 1379 07b4 6200     		lsls	r2, r4, #1
 1380 07b6 0C88     		ldrh	r4, [r1]
 1381 07b8 A218     		adds	r2, r4, r2
 1382 07ba 5A72     		strb	r2, [r3, #9]
 1383 07bc 150A     		lsrs	r5, r2, #8
 1384 07be 9D72     		strb	r5, [r3, #10]
 1385 07c0 150C     		lsrs	r5, r2, #16
 1386 07c2 DD72     		strb	r5, [r3, #11]
 1387 07c4 120E     		lsrs	r2, r2, #24
 1388 07c6 1A73     		strb	r2, [r3, #12]
 852:main.c        ****         CrasData.SequenceNumber = *SessionID * 10 + *SubSessionID;
 1389              		.loc 1 852 0
 1390 07c8 0288     		ldrh	r2, [r0]
 1391 07ca 9400     		lsls	r4, r2, #2
 1392 07cc A418     		adds	r4, r4, r2
 1393 07ce 6200     		lsls	r2, r4, #1
 1394 07d0 0C88     		ldrh	r4, [r1]
 1395 07d2 A218     		adds	r2, r4, r2
 1396 07d4 5A73     		strb	r2, [r3, #13]
 1397 07d6 150A     		lsrs	r5, r2, #8
 1398 07d8 9D73     		strb	r5, [r3, #14]
 1399 07da 150C     		lsrs	r5, r2, #16
 1400 07dc DD73     		strb	r5, [r3, #15]
 1401 07de 120E     		lsrs	r2, r2, #24
 1402 07e0 1A74     		strb	r2, [r3, #16]
 853:main.c        ****         CrasData.TimeInHeartRateZone1[0] = *SessionID * 10 + *SubSessionID;
 1403              		.loc 1 853 0
 1404 07e2 0588     		ldrh	r5, [r0]
 1405 07e4 0C88     		ldrh	r4, [r1]
 1406 07e6 AA00     		lsls	r2, r5, #2
 1407 07e8 AA18     		adds	r2, r5, r2
 1408 07ea 5500     		lsls	r5, r2, #1
 1409 07ec 2A19     		adds	r2, r5, r4
 1410 07ee 5A74     		strb	r2, [r3, #17]
 854:main.c        ****         CrasData.TimeInHeartRateZone1[1] = *SessionID * 10 + *SubSessionID;
 1411              		.loc 1 854 0
 1412 07f0 0588     		ldrh	r5, [r0]
 1413 07f2 0C88     		ldrh	r4, [r1]
 1414 07f4 AA00     		lsls	r2, r5, #2
 1415 07f6 AA18     		adds	r2, r5, r2
 1416 07f8 5500     		lsls	r5, r2, #1
 1417 07fa 2A19     		adds	r2, r5, r4
 1418 07fc 9A74     		strb	r2, [r3, #18]
 855:main.c        ****         CrasData.TimeInHeartRateZone1[2] = *SessionID * 10 + *SubSessionID;
 1419              		.loc 1 855 0
 1420 07fe 0588     		ldrh	r5, [r0]
 1421 0800 04E0     		b	.L20
 1422              	.L21:
 1423 0802 C046     		.align	2
 1424              	.L19:
 1425 0804 00000000 		.word	GasData
ARM GAS  C:\Users\310309~1\AppData\Local\Temp\ccowBZ3f.s 			page 41


 1426 0808 00000000 		.word	CrasData
 1427              	.L20:
 1428 080c 0C88     		ldrh	r4, [r1]
 1429 080e AA00     		lsls	r2, r5, #2
 1430 0810 AA18     		adds	r2, r5, r2
 1431 0812 5500     		lsls	r5, r2, #1
 1432 0814 2A19     		adds	r2, r5, r4
 1433 0816 DA74     		strb	r2, [r3, #19]
 856:main.c        ****         CrasData.TimeInHeartRateZone2[0] = *SessionID * 10 + *SubSessionID;
 1434              		.loc 1 856 0
 1435 0818 0588     		ldrh	r5, [r0]
 1436 081a 0C88     		ldrh	r4, [r1]
 1437 081c AA00     		lsls	r2, r5, #2
 1438 081e AA18     		adds	r2, r5, r2
 1439 0820 5500     		lsls	r5, r2, #1
 1440 0822 2A19     		adds	r2, r5, r4
 1441 0824 1A75     		strb	r2, [r3, #20]
 857:main.c        ****         CrasData.TimeInHeartRateZone2[1] = *SessionID * 10 + *SubSessionID;
 1442              		.loc 1 857 0
 1443 0826 0588     		ldrh	r5, [r0]
 1444 0828 0C88     		ldrh	r4, [r1]
 1445 082a AA00     		lsls	r2, r5, #2
 1446 082c AA18     		adds	r2, r5, r2
 1447 082e 5500     		lsls	r5, r2, #1
 1448 0830 2A19     		adds	r2, r5, r4
 1449 0832 5A75     		strb	r2, [r3, #21]
 858:main.c        ****         CrasData.TimeInHeartRateZone2[2] = *SessionID * 10 + *SubSessionID;
 1450              		.loc 1 858 0
 1451 0834 0588     		ldrh	r5, [r0]
 1452 0836 0C88     		ldrh	r4, [r1]
 1453 0838 AA00     		lsls	r2, r5, #2
 1454 083a AA18     		adds	r2, r5, r2
 1455 083c 5500     		lsls	r5, r2, #1
 1456 083e 2A19     		adds	r2, r5, r4
 1457 0840 9A75     		strb	r2, [r3, #22]
 859:main.c        ****         CrasData.TimeInHeartRateZone3[0] = *SessionID * 10 + *SubSessionID;
 1458              		.loc 1 859 0
 1459 0842 0588     		ldrh	r5, [r0]
 1460 0844 0C88     		ldrh	r4, [r1]
 1461 0846 AA00     		lsls	r2, r5, #2
 1462 0848 AA18     		adds	r2, r5, r2
 1463 084a 5500     		lsls	r5, r2, #1
 1464 084c 2A19     		adds	r2, r5, r4
 1465 084e DA75     		strb	r2, [r3, #23]
 860:main.c        ****         CrasData.TimeInHeartRateZone3[1] = *SessionID * 10 + *SubSessionID;
 1466              		.loc 1 860 0
 1467 0850 0588     		ldrh	r5, [r0]
 1468 0852 0C88     		ldrh	r4, [r1]
 1469 0854 AA00     		lsls	r2, r5, #2
 1470 0856 AA18     		adds	r2, r5, r2
 1471 0858 5500     		lsls	r5, r2, #1
 1472 085a 2A19     		adds	r2, r5, r4
 1473 085c 1A76     		strb	r2, [r3, #24]
 861:main.c        ****         CrasData.TimeInHeartRateZone3[2] = *SessionID * 10 + *SubSessionID;
 1474              		.loc 1 861 0
 1475 085e 0588     		ldrh	r5, [r0]
 1476 0860 0C88     		ldrh	r4, [r1]
ARM GAS  C:\Users\310309~1\AppData\Local\Temp\ccowBZ3f.s 			page 42


 1477 0862 AA00     		lsls	r2, r5, #2
 1478 0864 AA18     		adds	r2, r5, r2
 1479 0866 5500     		lsls	r5, r2, #1
 1480 0868 2A19     		adds	r2, r5, r4
 1481 086a 5A76     		strb	r2, [r3, #25]
 862:main.c        ****         CrasData.TimeInHeartRateZone4[0] = *SessionID * 10 + *SubSessionID;
 1482              		.loc 1 862 0
 1483 086c 0588     		ldrh	r5, [r0]
 1484 086e 0C88     		ldrh	r4, [r1]
 1485 0870 AA00     		lsls	r2, r5, #2
 1486 0872 AA18     		adds	r2, r5, r2
 1487 0874 5500     		lsls	r5, r2, #1
 1488 0876 2A19     		adds	r2, r5, r4
 1489 0878 9A76     		strb	r2, [r3, #26]
 863:main.c        ****         CrasData.TimeInHeartRateZone4[1] = *SessionID * 10 + *SubSessionID;
 1490              		.loc 1 863 0
 1491 087a 0588     		ldrh	r5, [r0]
 1492 087c 0C88     		ldrh	r4, [r1]
 1493 087e AA00     		lsls	r2, r5, #2
 1494 0880 AA18     		adds	r2, r5, r2
 1495 0882 5500     		lsls	r5, r2, #1
 1496 0884 2A19     		adds	r2, r5, r4
 1497 0886 DA76     		strb	r2, [r3, #27]
 864:main.c        ****         CrasData.TimeInHeartRateZone4[2] = *SessionID * 10 + *SubSessionID;
 1498              		.loc 1 864 0
 1499 0888 0588     		ldrh	r5, [r0]
 1500 088a 0C88     		ldrh	r4, [r1]
 1501 088c AA00     		lsls	r2, r5, #2
 1502 088e AA18     		adds	r2, r5, r2
 1503 0890 5500     		lsls	r5, r2, #1
 1504 0892 2A19     		adds	r2, r5, r4
 1505 0894 1A77     		strb	r2, [r3, #28]
 865:main.c        ****         CrasData.TimeInHeartRateZone5[0] = *SessionID * 10 + *SubSessionID;
 1506              		.loc 1 865 0
 1507 0896 0588     		ldrh	r5, [r0]
 1508 0898 0C88     		ldrh	r4, [r1]
 1509 089a AA00     		lsls	r2, r5, #2
 1510 089c AA18     		adds	r2, r5, r2
 1511 089e 5500     		lsls	r5, r2, #1
 1512 08a0 2A19     		adds	r2, r5, r4
 1513 08a2 5A77     		strb	r2, [r3, #29]
 866:main.c        ****         CrasData.TimeInHeartRateZone5[1] = *SessionID * 10 + *SubSessionID;
 1514              		.loc 1 866 0
 1515 08a4 0588     		ldrh	r5, [r0]
 1516 08a6 0C88     		ldrh	r4, [r1]
 1517 08a8 AA00     		lsls	r2, r5, #2
 1518 08aa AA18     		adds	r2, r5, r2
 1519 08ac 5500     		lsls	r5, r2, #1
 1520 08ae 2A19     		adds	r2, r5, r4
 1521 08b0 9A77     		strb	r2, [r3, #30]
 867:main.c        ****         CrasData.TimeInHeartRateZone5[2] = *SessionID * 10 + *SubSessionID;
 1522              		.loc 1 867 0
 1523 08b2 0588     		ldrh	r5, [r0]
 1524 08b4 0C88     		ldrh	r4, [r1]
 1525 08b6 AA00     		lsls	r2, r5, #2
 1526 08b8 AA18     		adds	r2, r5, r2
 1527 08ba 5500     		lsls	r5, r2, #1
ARM GAS  C:\Users\310309~1\AppData\Local\Temp\ccowBZ3f.s 			page 43


 1528 08bc 2A19     		adds	r2, r5, r4
 1529 08be DA77     		strb	r2, [r3, #31]
 868:main.c        ****         CrasData.WornDuration[0] = *SessionID * 10 + *SubSessionID;
 1530              		.loc 1 868 0
 1531 08c0 0588     		ldrh	r5, [r0]
 1532 08c2 0C88     		ldrh	r4, [r1]
 1533 08c4 AA00     		lsls	r2, r5, #2
 1534 08c6 AA18     		adds	r2, r5, r2
 1535 08c8 5500     		lsls	r5, r2, #1
 1536 08ca 2A19     		adds	r2, r5, r4
 1537 08cc 3B24     		movs	r4, #59
 1538 08ce 1A55     		strb	r2, [r3, r4]
 869:main.c        ****         CrasData.WornDuration[1] = *SessionID * 10 + *SubSessionID;
 1539              		.loc 1 869 0
 1540 08d0 0588     		ldrh	r5, [r0]
 1541 08d2 0C88     		ldrh	r4, [r1]
 1542 08d4 AA00     		lsls	r2, r5, #2
 1543 08d6 AA18     		adds	r2, r5, r2
 1544 08d8 5500     		lsls	r5, r2, #1
 1545 08da 2A19     		adds	r2, r5, r4
 1546 08dc 3C24     		movs	r4, #60
 1547 08de 1A55     		strb	r2, [r3, r4]
 870:main.c        ****         CrasData.WornDuration[2] = *SessionID * 10 + *SubSessionID;
 1548              		.loc 1 870 0
 1549 08e0 0588     		ldrh	r5, [r0]
 1550 08e2 0C88     		ldrh	r4, [r1]
 1551 08e4 AA00     		lsls	r2, r5, #2
 1552 08e6 AA18     		adds	r2, r5, r2
 1553 08e8 5500     		lsls	r5, r2, #1
 1554 08ea 2A19     		adds	r2, r5, r4
 1555 08ec 3D24     		movs	r4, #61
 1556 08ee 1A55     		strb	r2, [r3, r4]
 871:main.c        ****     }
 872:main.c        ****     //ScasData
 873:main.c        ****     {
 874:main.c        ****         ScasData.SessionID = *SessionID;
 1557              		.loc 1 874 0
 1558 08f0 0288     		ldrh	r2, [r0]
 1559 08f2 CD4B     		ldr	r3, .L22
 1560 08f4 9A70     		strb	r2, [r3, #2]
 1561 08f6 120A     		lsrs	r2, r2, #8
 1562 08f8 DA70     		strb	r2, [r3, #3]
 875:main.c        ****         ScasData.SubSessionID = *SubSessionID;
 1563              		.loc 1 875 0
 1564 08fa 0A88     		ldrh	r2, [r1]
 1565 08fc 1A71     		strb	r2, [r3, #4]
 1566 08fe 120A     		lsrs	r2, r2, #8
 1567 0900 5A71     		strb	r2, [r3, #5]
 876:main.c        ****         ScasData.Distance[0] = *SessionID * 10 + *SubSessionID;
 1568              		.loc 1 876 0
 1569 0902 0588     		ldrh	r5, [r0]
 1570 0904 0C88     		ldrh	r4, [r1]
 1571 0906 AA00     		lsls	r2, r5, #2
 1572 0908 AA18     		adds	r2, r5, r2
 1573 090a 5500     		lsls	r5, r2, #1
 1574 090c 2A19     		adds	r2, r5, r4
 1575 090e DA75     		strb	r2, [r3, #23]
ARM GAS  C:\Users\310309~1\AppData\Local\Temp\ccowBZ3f.s 			page 44


 877:main.c        ****         ScasData.Distance[1] = *SessionID * 10 + *SubSessionID;
 1576              		.loc 1 877 0
 1577 0910 0588     		ldrh	r5, [r0]
 1578 0912 0C88     		ldrh	r4, [r1]
 1579 0914 AA00     		lsls	r2, r5, #2
 1580 0916 AA18     		adds	r2, r5, r2
 1581 0918 5500     		lsls	r5, r2, #1
 1582 091a 2A19     		adds	r2, r5, r4
 1583 091c 1A76     		strb	r2, [r3, #24]
 878:main.c        ****         ScasData.Distance[2] = *SessionID * 10 + *SubSessionID;
 1584              		.loc 1 878 0
 1585 091e 0588     		ldrh	r5, [r0]
 1586 0920 0C88     		ldrh	r4, [r1]
 1587 0922 AA00     		lsls	r2, r5, #2
 1588 0924 AA18     		adds	r2, r5, r2
 1589 0926 5500     		lsls	r5, r2, #1
 1590 0928 2A19     		adds	r2, r5, r4
 1591 092a 5A76     		strb	r2, [r3, #25]
 879:main.c        ****         ScasData.FloorSteps[0] = *SessionID * 10 + *SubSessionID;
 1592              		.loc 1 879 0
 1593 092c 0588     		ldrh	r5, [r0]
 1594 092e 0C88     		ldrh	r4, [r1]
 1595 0930 AA00     		lsls	r2, r5, #2
 1596 0932 AA18     		adds	r2, r5, r2
 1597 0934 5500     		lsls	r5, r2, #1
 1598 0936 2A19     		adds	r2, r5, r4
 1599 0938 1A75     		strb	r2, [r3, #20]
 880:main.c        ****         ScasData.FloorSteps[1] = *SessionID * 10 + *SubSessionID;
 1600              		.loc 1 880 0
 1601 093a 0588     		ldrh	r5, [r0]
 1602 093c 0C88     		ldrh	r4, [r1]
 1603 093e AA00     		lsls	r2, r5, #2
 1604 0940 AA18     		adds	r2, r5, r2
 1605 0942 5500     		lsls	r5, r2, #1
 1606 0944 2A19     		adds	r2, r5, r4
 1607 0946 5A75     		strb	r2, [r3, #21]
 881:main.c        ****         ScasData.FloorSteps[2] = *SessionID * 10 + *SubSessionID;
 1608              		.loc 1 881 0
 1609 0948 0588     		ldrh	r5, [r0]
 1610 094a 0C88     		ldrh	r4, [r1]
 1611 094c AA00     		lsls	r2, r5, #2
 1612 094e AA18     		adds	r2, r5, r2
 1613 0950 5500     		lsls	r5, r2, #1
 1614 0952 2A19     		adds	r2, r5, r4
 1615 0954 9A75     		strb	r2, [r3, #22]
 882:main.c        ****         ScasData.IntensitySteps[0] = *SessionID * 10 + *SubSessionID;
 1616              		.loc 1 882 0
 1617 0956 0588     		ldrh	r5, [r0]
 1618 0958 0C88     		ldrh	r4, [r1]
 1619 095a AA00     		lsls	r2, r5, #2
 1620 095c AA18     		adds	r2, r5, r2
 1621 095e 5500     		lsls	r5, r2, #1
 1622 0960 2A19     		adds	r2, r5, r4
 1623 0962 5A74     		strb	r2, [r3, #17]
 883:main.c        ****         ScasData.IntensitySteps[1] = *SessionID * 10 + *SubSessionID;
 1624              		.loc 1 883 0
 1625 0964 0588     		ldrh	r5, [r0]
ARM GAS  C:\Users\310309~1\AppData\Local\Temp\ccowBZ3f.s 			page 45


 1626 0966 0C88     		ldrh	r4, [r1]
 1627 0968 AA00     		lsls	r2, r5, #2
 1628 096a AA18     		adds	r2, r5, r2
 1629 096c 5500     		lsls	r5, r2, #1
 1630 096e 2A19     		adds	r2, r5, r4
 1631 0970 9A74     		strb	r2, [r3, #18]
 884:main.c        ****         ScasData.IntensitySteps[2] = *SessionID * 10 + *SubSessionID;
 1632              		.loc 1 884 0
 1633 0972 0588     		ldrh	r5, [r0]
 1634 0974 0C88     		ldrh	r4, [r1]
 1635 0976 AA00     		lsls	r2, r5, #2
 1636 0978 AA18     		adds	r2, r5, r2
 1637 097a 5500     		lsls	r5, r2, #1
 1638 097c 2A19     		adds	r2, r5, r4
 1639 097e DA74     		strb	r2, [r3, #19]
 885:main.c        ****         ScasData.NormalWalkingSteps[0] = *SessionID * 10 + *SubSessionID;
 1640              		.loc 1 885 0
 1641 0980 0588     		ldrh	r5, [r0]
 1642 0982 0C88     		ldrh	r4, [r1]
 1643 0984 AA00     		lsls	r2, r5, #2
 1644 0986 AA18     		adds	r2, r5, r2
 1645 0988 5500     		lsls	r5, r2, #1
 1646 098a 2A19     		adds	r2, r5, r4
 1647 098c 9A73     		strb	r2, [r3, #14]
 886:main.c        ****         ScasData.NormalWalkingSteps[1] = *SessionID * 10 + *SubSessionID;
 1648              		.loc 1 886 0
 1649 098e 0588     		ldrh	r5, [r0]
 1650 0990 0C88     		ldrh	r4, [r1]
 1651 0992 AA00     		lsls	r2, r5, #2
 1652 0994 AA18     		adds	r2, r5, r2
 1653 0996 5500     		lsls	r5, r2, #1
 1654 0998 2A19     		adds	r2, r5, r4
 1655 099a DA73     		strb	r2, [r3, #15]
 887:main.c        ****         ScasData.NormalWalkingSteps[2] = *SessionID * 10 + *SubSessionID;
 1656              		.loc 1 887 0
 1657 099c 0588     		ldrh	r5, [r0]
 1658 099e 0C88     		ldrh	r4, [r1]
 1659 09a0 AA00     		lsls	r2, r5, #2
 1660 09a2 AA18     		adds	r2, r5, r2
 1661 09a4 5500     		lsls	r5, r2, #1
 1662 09a6 2A19     		adds	r2, r5, r4
 1663 09a8 1A74     		strb	r2, [r3, #16]
 888:main.c        ****         ScasData.RelativeTimestamp = *SessionID * 10 + *SubSessionID;
 1664              		.loc 1 888 0
 1665 09aa 0288     		ldrh	r2, [r0]
 1666 09ac 9400     		lsls	r4, r2, #2
 1667 09ae A418     		adds	r4, r4, r2
 1668 09b0 6200     		lsls	r2, r4, #1
 1669 09b2 0C88     		ldrh	r4, [r1]
 1670 09b4 A218     		adds	r2, r4, r2
 1671 09b6 9A71     		strb	r2, [r3, #6]
 1672 09b8 150A     		lsrs	r5, r2, #8
 1673 09ba DD71     		strb	r5, [r3, #7]
 1674 09bc 150C     		lsrs	r5, r2, #16
 1675 09be 1D72     		strb	r5, [r3, #8]
 1676 09c0 120E     		lsrs	r2, r2, #24
 1677 09c2 5A72     		strb	r2, [r3, #9]
ARM GAS  C:\Users\310309~1\AppData\Local\Temp\ccowBZ3f.s 			page 46


 889:main.c        ****         ScasData.SequenceNumber = *SessionID * 10 + *SubSessionID;
 1678              		.loc 1 889 0
 1679 09c4 0288     		ldrh	r2, [r0]
 1680 09c6 9400     		lsls	r4, r2, #2
 1681 09c8 A418     		adds	r4, r4, r2
 1682 09ca 6200     		lsls	r2, r4, #1
 1683 09cc 0C88     		ldrh	r4, [r1]
 1684 09ce A218     		adds	r2, r4, r2
 1685 09d0 9A72     		strb	r2, [r3, #10]
 1686 09d2 150A     		lsrs	r5, r2, #8
 1687 09d4 DD72     		strb	r5, [r3, #11]
 1688 09d6 150C     		lsrs	r5, r2, #16
 1689 09d8 1D73     		strb	r5, [r3, #12]
 1690 09da 120E     		lsrs	r2, r2, #24
 1691 09dc 5A73     		strb	r2, [r3, #13]
 890:main.c        ****         ScasData.WornDuration[0] = *SessionID * 10 + *SubSessionID;
 1692              		.loc 1 890 0
 1693 09de 0588     		ldrh	r5, [r0]
 1694 09e0 0C88     		ldrh	r4, [r1]
 1695 09e2 AA00     		lsls	r2, r5, #2
 1696 09e4 AA18     		adds	r2, r5, r2
 1697 09e6 5500     		lsls	r5, r2, #1
 1698 09e8 2A19     		adds	r2, r5, r4
 1699 09ea 9A76     		strb	r2, [r3, #26]
 891:main.c        ****         ScasData.WornDuration[1] = *SessionID * 10 + *SubSessionID;
 1700              		.loc 1 891 0
 1701 09ec 0588     		ldrh	r5, [r0]
 1702 09ee 0A88     		ldrh	r2, [r1]
 1703 09f0 1C00     		movs	r4, r3
 1704 09f2 AB00     		lsls	r3, r5, #2
 1705 09f4 EB18     		adds	r3, r5, r3
 1706 09f6 5D00     		lsls	r5, r3, #1
 1707 09f8 AB18     		adds	r3, r5, r2
 1708 09fa E376     		strb	r3, [r4, #27]
 892:main.c        ****         ScasData.WornDuration[2] = *SessionID * 10 + *SubSessionID;
 1709              		.loc 1 892 0
 1710 09fc 0588     		ldrh	r5, [r0]
 1711 09fe 0A88     		ldrh	r2, [r1]
 1712 0a00 AB00     		lsls	r3, r5, #2
 1713 0a02 EB18     		adds	r3, r5, r3
 1714 0a04 5D00     		lsls	r5, r3, #1
 1715 0a06 AB18     		adds	r3, r5, r2
 1716 0a08 2377     		strb	r3, [r4, #28]
 893:main.c        ****     }
 894:main.c        ****     //SasData
 895:main.c        ****     {
 896:main.c        ****         SasData.AverageIRLightLevel[0] = *SessionID * 10 + *SubSessionID;
 1717              		.loc 1 896 0
 1718 0a0a 0588     		ldrh	r5, [r0]
 1719 0a0c 0C88     		ldrh	r4, [r1]
 1720 0a0e 874B     		ldr	r3, .L22+4
 1721 0a10 AA00     		lsls	r2, r5, #2
 1722 0a12 AA18     		adds	r2, r5, r2
 1723 0a14 5500     		lsls	r5, r2, #1
 1724 0a16 2A19     		adds	r2, r5, r4
 1725 0a18 3D24     		movs	r4, #61
 1726 0a1a 1A55     		strb	r2, [r3, r4]
ARM GAS  C:\Users\310309~1\AppData\Local\Temp\ccowBZ3f.s 			page 47


 897:main.c        ****         SasData.AverageIRLightLevel[1] = *SessionID * 10 + *SubSessionID;
 1727              		.loc 1 897 0
 1728 0a1c 0588     		ldrh	r5, [r0]
 1729 0a1e 0C88     		ldrh	r4, [r1]
 1730 0a20 AA00     		lsls	r2, r5, #2
 1731 0a22 AA18     		adds	r2, r5, r2
 1732 0a24 5500     		lsls	r5, r2, #1
 1733 0a26 2A19     		adds	r2, r5, r4
 1734 0a28 3E24     		movs	r4, #62
 1735 0a2a 1A55     		strb	r2, [r3, r4]
 898:main.c        ****         SasData.AverageIRLightLevel[2] = *SessionID * 10 + *SubSessionID;
 1736              		.loc 1 898 0
 1737 0a2c 0588     		ldrh	r5, [r0]
 1738 0a2e 0C88     		ldrh	r4, [r1]
 1739 0a30 AA00     		lsls	r2, r5, #2
 1740 0a32 AA18     		adds	r2, r5, r2
 1741 0a34 5500     		lsls	r5, r2, #1
 1742 0a36 2A19     		adds	r2, r5, r4
 1743 0a38 3F24     		movs	r4, #63
 1744 0a3a 1A55     		strb	r2, [r3, r4]
 899:main.c        ****         SasData.AverageSleepingHeartRate = *SessionID * 10 + *SubSessionID;
 1745              		.loc 1 899 0
 1746 0a3c 0588     		ldrh	r5, [r0]
 1747 0a3e 0C88     		ldrh	r4, [r1]
 1748 0a40 AA00     		lsls	r2, r5, #2
 1749 0a42 AA18     		adds	r2, r5, r2
 1750 0a44 5500     		lsls	r5, r2, #1
 1751 0a46 2A19     		adds	r2, r5, r4
 1752 0a48 4024     		movs	r4, #64
 1753 0a4a 1A55     		strb	r2, [r3, r4]
 900:main.c        ****         SasData.AverageUVLightLevel[0] = *SessionID * 10 + *SubSessionID;
 1754              		.loc 1 900 0
 1755 0a4c 0588     		ldrh	r5, [r0]
 1756 0a4e 0C88     		ldrh	r4, [r1]
 1757 0a50 AA00     		lsls	r2, r5, #2
 1758 0a52 AA18     		adds	r2, r5, r2
 1759 0a54 5500     		lsls	r5, r2, #1
 1760 0a56 2A19     		adds	r2, r5, r4
 1761 0a58 3424     		movs	r4, #52
 1762 0a5a 1A55     		strb	r2, [r3, r4]
 901:main.c        ****         SasData.AverageUVLightLevel[1] = *SessionID * 10 + *SubSessionID;
 1763              		.loc 1 901 0
 1764 0a5c 0588     		ldrh	r5, [r0]
 1765 0a5e 0C88     		ldrh	r4, [r1]
 1766 0a60 AA00     		lsls	r2, r5, #2
 1767 0a62 AA18     		adds	r2, r5, r2
 1768 0a64 5500     		lsls	r5, r2, #1
 1769 0a66 2A19     		adds	r2, r5, r4
 1770 0a68 3524     		movs	r4, #53
 1771 0a6a 1A55     		strb	r2, [r3, r4]
 902:main.c        ****         SasData.AverageUVLightLevel[2] = *SessionID * 10 + *SubSessionID;
 1772              		.loc 1 902 0
 1773 0a6c 0588     		ldrh	r5, [r0]
 1774 0a6e 0C88     		ldrh	r4, [r1]
 1775 0a70 AA00     		lsls	r2, r5, #2
 1776 0a72 AA18     		adds	r2, r5, r2
 1777 0a74 5500     		lsls	r5, r2, #1
ARM GAS  C:\Users\310309~1\AppData\Local\Temp\ccowBZ3f.s 			page 48


 1778 0a76 2A19     		adds	r2, r5, r4
 1779 0a78 3624     		movs	r4, #54
 1780 0a7a 1A55     		strb	r2, [r3, r4]
 903:main.c        ****         SasData.AverageVisibleLightLevel[0] = *SessionID * 10 + *SubSessionID;
 1781              		.loc 1 903 0
 1782 0a7c 0588     		ldrh	r5, [r0]
 1783 0a7e 0C88     		ldrh	r4, [r1]
 1784 0a80 AA00     		lsls	r2, r5, #2
 1785 0a82 AA18     		adds	r2, r5, r2
 1786 0a84 5500     		lsls	r5, r2, #1
 1787 0a86 2A19     		adds	r2, r5, r4
 1788 0a88 2B24     		movs	r4, #43
 1789 0a8a 1A55     		strb	r2, [r3, r4]
 904:main.c        ****         SasData.AverageVisibleLightLevel[1] = *SessionID * 10 + *SubSessionID;
 1790              		.loc 1 904 0
 1791 0a8c 0588     		ldrh	r5, [r0]
 1792 0a8e 0C88     		ldrh	r4, [r1]
 1793 0a90 AA00     		lsls	r2, r5, #2
 1794 0a92 AA18     		adds	r2, r5, r2
 1795 0a94 5500     		lsls	r5, r2, #1
 1796 0a96 2A19     		adds	r2, r5, r4
 1797 0a98 2C24     		movs	r4, #44
 1798 0a9a 1A55     		strb	r2, [r3, r4]
 905:main.c        ****         SasData.AverageVisibleLightLevel[2] = *SessionID * 10 + *SubSessionID;
 1799              		.loc 1 905 0
 1800 0a9c 0588     		ldrh	r5, [r0]
 1801 0a9e 0C88     		ldrh	r4, [r1]
 1802 0aa0 AA00     		lsls	r2, r5, #2
 1803 0aa2 AA18     		adds	r2, r5, r2
 1804 0aa4 5500     		lsls	r5, r2, #1
 1805 0aa6 2A19     		adds	r2, r5, r4
 1806 0aa8 2D24     		movs	r4, #45
 1807 0aaa 1A55     		strb	r2, [r3, r4]
 906:main.c        ****         SasData.MaximumIRLightLevel[0] = *SessionID * 10 + *SubSessionID;
 1808              		.loc 1 906 0
 1809 0aac 0588     		ldrh	r5, [r0]
 1810 0aae 0C88     		ldrh	r4, [r1]
 1811 0ab0 AA00     		lsls	r2, r5, #2
 1812 0ab2 AA18     		adds	r2, r5, r2
 1813 0ab4 5500     		lsls	r5, r2, #1
 1814 0ab6 2A19     		adds	r2, r5, r4
 1815 0ab8 3A24     		movs	r4, #58
 1816 0aba 1A55     		strb	r2, [r3, r4]
 907:main.c        ****         SasData.MaximumIRLightLevel[1] = *SessionID * 10 + *SubSessionID;
 1817              		.loc 1 907 0
 1818 0abc 0588     		ldrh	r5, [r0]
 1819 0abe 0C88     		ldrh	r4, [r1]
 1820 0ac0 AA00     		lsls	r2, r5, #2
 1821 0ac2 AA18     		adds	r2, r5, r2
 1822 0ac4 5500     		lsls	r5, r2, #1
 1823 0ac6 2A19     		adds	r2, r5, r4
 1824 0ac8 3B24     		movs	r4, #59
 1825 0aca 1A55     		strb	r2, [r3, r4]
 908:main.c        ****         SasData.MaximumIRLightLevel[2] = *SessionID * 10 + *SubSessionID;
 1826              		.loc 1 908 0
 1827 0acc 0588     		ldrh	r5, [r0]
 1828 0ace 0C88     		ldrh	r4, [r1]
ARM GAS  C:\Users\310309~1\AppData\Local\Temp\ccowBZ3f.s 			page 49


 1829 0ad0 AA00     		lsls	r2, r5, #2
 1830 0ad2 AA18     		adds	r2, r5, r2
 1831 0ad4 5500     		lsls	r5, r2, #1
 1832 0ad6 2A19     		adds	r2, r5, r4
 1833 0ad8 3C24     		movs	r4, #60
 1834 0ada 1A55     		strb	r2, [r3, r4]
 909:main.c        ****         SasData.MaximumUVLightLevel[0] = *SessionID * 10 + *SubSessionID;
 1835              		.loc 1 909 0
 1836 0adc 0588     		ldrh	r5, [r0]
 1837 0ade 0C88     		ldrh	r4, [r1]
 1838 0ae0 AA00     		lsls	r2, r5, #2
 1839 0ae2 AA18     		adds	r2, r5, r2
 1840 0ae4 5500     		lsls	r5, r2, #1
 1841 0ae6 2A19     		adds	r2, r5, r4
 1842 0ae8 3124     		movs	r4, #49
 1843 0aea 1A55     		strb	r2, [r3, r4]
 910:main.c        ****         SasData.MaximumUVLightLevel[1] = *SessionID * 10 + *SubSessionID;
 1844              		.loc 1 910 0
 1845 0aec 0588     		ldrh	r5, [r0]
 1846 0aee 0C88     		ldrh	r4, [r1]
 1847 0af0 AA00     		lsls	r2, r5, #2
 1848 0af2 AA18     		adds	r2, r5, r2
 1849 0af4 5500     		lsls	r5, r2, #1
 1850 0af6 2A19     		adds	r2, r5, r4
 1851 0af8 3224     		movs	r4, #50
 1852 0afa 1A55     		strb	r2, [r3, r4]
 911:main.c        ****         SasData.MaximumUVLightLevel[2] = *SessionID * 10 + *SubSessionID;
 1853              		.loc 1 911 0
 1854 0afc 0588     		ldrh	r5, [r0]
 1855 0afe 0C88     		ldrh	r4, [r1]
 1856 0b00 AA00     		lsls	r2, r5, #2
 1857 0b02 AA18     		adds	r2, r5, r2
 1858 0b04 5500     		lsls	r5, r2, #1
 1859 0b06 2A19     		adds	r2, r5, r4
 1860 0b08 3324     		movs	r4, #51
 1861 0b0a 1A55     		strb	r2, [r3, r4]
 912:main.c        ****         SasData.MaximumVisibleLightLevel[0] = *SessionID * 10 + *SubSessionID;
 1862              		.loc 1 912 0
 1863 0b0c 0588     		ldrh	r5, [r0]
 1864 0b0e 0C88     		ldrh	r4, [r1]
 1865 0b10 AA00     		lsls	r2, r5, #2
 1866 0b12 AA18     		adds	r2, r5, r2
 1867 0b14 5500     		lsls	r5, r2, #1
 1868 0b16 2A19     		adds	r2, r5, r4
 1869 0b18 2824     		movs	r4, #40
 1870 0b1a 1A55     		strb	r2, [r3, r4]
 913:main.c        ****         SasData.MaximumVisibleLightLevel[1] = *SessionID * 10 + *SubSessionID;
 1871              		.loc 1 913 0
 1872 0b1c 0588     		ldrh	r5, [r0]
 1873 0b1e 0C88     		ldrh	r4, [r1]
 1874 0b20 AA00     		lsls	r2, r5, #2
 1875 0b22 AA18     		adds	r2, r5, r2
 1876 0b24 5500     		lsls	r5, r2, #1
 1877 0b26 2A19     		adds	r2, r5, r4
 1878 0b28 2924     		movs	r4, #41
 1879 0b2a 1A55     		strb	r2, [r3, r4]
 914:main.c        ****         SasData.MaximumVisibleLightLevel[2] = *SessionID * 10 + *SubSessionID;
ARM GAS  C:\Users\310309~1\AppData\Local\Temp\ccowBZ3f.s 			page 50


 1880              		.loc 1 914 0
 1881 0b2c 0588     		ldrh	r5, [r0]
 1882 0b2e 0C88     		ldrh	r4, [r1]
 1883 0b30 AA00     		lsls	r2, r5, #2
 1884 0b32 AA18     		adds	r2, r5, r2
 1885 0b34 5500     		lsls	r5, r2, #1
 1886 0b36 2A19     		adds	r2, r5, r4
 1887 0b38 2A24     		movs	r4, #42
 1888 0b3a 1A55     		strb	r2, [r3, r4]
 915:main.c        ****         SasData.MinimumIRLightLevel[0] = *SessionID * 10 + *SubSessionID;
 1889              		.loc 1 915 0
 1890 0b3c 0588     		ldrh	r5, [r0]
 1891 0b3e 0C88     		ldrh	r4, [r1]
 1892 0b40 AA00     		lsls	r2, r5, #2
 1893 0b42 AA18     		adds	r2, r5, r2
 1894 0b44 5500     		lsls	r5, r2, #1
 1895 0b46 2A19     		adds	r2, r5, r4
 1896 0b48 3724     		movs	r4, #55
 1897 0b4a 1A55     		strb	r2, [r3, r4]
 916:main.c        ****         SasData.MinimumIRLightLevel[1] = *SessionID * 10 + *SubSessionID;
 1898              		.loc 1 916 0
 1899 0b4c 0588     		ldrh	r5, [r0]
 1900 0b4e 0C88     		ldrh	r4, [r1]
 1901 0b50 AA00     		lsls	r2, r5, #2
 1902 0b52 AA18     		adds	r2, r5, r2
 1903 0b54 5500     		lsls	r5, r2, #1
 1904 0b56 2A19     		adds	r2, r5, r4
 1905 0b58 3824     		movs	r4, #56
 1906 0b5a 1A55     		strb	r2, [r3, r4]
 917:main.c        ****         SasData.MinimumIRLightLevel[2] = *SessionID * 10 + *SubSessionID;
 1907              		.loc 1 917 0
 1908 0b5c 0588     		ldrh	r5, [r0]
 1909 0b5e 0C88     		ldrh	r4, [r1]
 1910 0b60 AA00     		lsls	r2, r5, #2
 1911 0b62 AA18     		adds	r2, r5, r2
 1912 0b64 5500     		lsls	r5, r2, #1
 1913 0b66 2A19     		adds	r2, r5, r4
 1914 0b68 3924     		movs	r4, #57
 1915 0b6a 1A55     		strb	r2, [r3, r4]
 918:main.c        ****         SasData.MinimumUVLightLevel[0] = *SessionID * 10 + *SubSessionID;
 1916              		.loc 1 918 0
 1917 0b6c 0588     		ldrh	r5, [r0]
 1918 0b6e 0C88     		ldrh	r4, [r1]
 1919 0b70 AA00     		lsls	r2, r5, #2
 1920 0b72 AA18     		adds	r2, r5, r2
 1921 0b74 5500     		lsls	r5, r2, #1
 1922 0b76 2A19     		adds	r2, r5, r4
 1923 0b78 2E24     		movs	r4, #46
 1924 0b7a 1A55     		strb	r2, [r3, r4]
 919:main.c        ****         SasData.MinimumUVLightLevel[1] = *SessionID * 10 + *SubSessionID;
 1925              		.loc 1 919 0
 1926 0b7c 0588     		ldrh	r5, [r0]
 1927 0b7e 0C88     		ldrh	r4, [r1]
 1928 0b80 AA00     		lsls	r2, r5, #2
 1929 0b82 AA18     		adds	r2, r5, r2
 1930 0b84 5500     		lsls	r5, r2, #1
 1931 0b86 2A19     		adds	r2, r5, r4
ARM GAS  C:\Users\310309~1\AppData\Local\Temp\ccowBZ3f.s 			page 51


 1932 0b88 2F24     		movs	r4, #47
 1933 0b8a 1A55     		strb	r2, [r3, r4]
 920:main.c        ****         SasData.MinimumUVLightLevel[2] = *SessionID * 10 + *SubSessionID;
 1934              		.loc 1 920 0
 1935 0b8c 0588     		ldrh	r5, [r0]
 1936 0b8e 0C88     		ldrh	r4, [r1]
 1937 0b90 AA00     		lsls	r2, r5, #2
 1938 0b92 AA18     		adds	r2, r5, r2
 1939 0b94 5500     		lsls	r5, r2, #1
 1940 0b96 2A19     		adds	r2, r5, r4
 1941 0b98 3024     		movs	r4, #48
 1942 0b9a 1A55     		strb	r2, [r3, r4]
 921:main.c        ****         SasData.MinimumVisibleLightLevel[0] = *SessionID * 10 + *SubSessionID;
 1943              		.loc 1 921 0
 1944 0b9c 0588     		ldrh	r5, [r0]
 1945 0b9e 0C88     		ldrh	r4, [r1]
 1946 0ba0 AA00     		lsls	r2, r5, #2
 1947 0ba2 AA18     		adds	r2, r5, r2
 1948 0ba4 5500     		lsls	r5, r2, #1
 1949 0ba6 2A19     		adds	r2, r5, r4
 1950 0ba8 2524     		movs	r4, #37
 1951 0baa 1A55     		strb	r2, [r3, r4]
 922:main.c        ****         SasData.MinimumVisibleLightLevel[1] = *SessionID * 10 + *SubSessionID;
 1952              		.loc 1 922 0
 1953 0bac 0588     		ldrh	r5, [r0]
 1954 0bae 0C88     		ldrh	r4, [r1]
 1955 0bb0 AA00     		lsls	r2, r5, #2
 1956 0bb2 AA18     		adds	r2, r5, r2
 1957 0bb4 5500     		lsls	r5, r2, #1
 1958 0bb6 2A19     		adds	r2, r5, r4
 1959 0bb8 2624     		movs	r4, #38
 1960 0bba 1A55     		strb	r2, [r3, r4]
 923:main.c        ****         SasData.MinimumVisibleLightLevel[2] = *SessionID * 10 + *SubSessionID;
 1961              		.loc 1 923 0
 1962 0bbc 0588     		ldrh	r5, [r0]
 1963 0bbe 0C88     		ldrh	r4, [r1]
 1964 0bc0 AA00     		lsls	r2, r5, #2
 1965 0bc2 AA18     		adds	r2, r5, r2
 1966 0bc4 5500     		lsls	r5, r2, #1
 1967 0bc6 2A19     		adds	r2, r5, r4
 1968 0bc8 2724     		movs	r4, #39
 1969 0bca 1A55     		strb	r2, [r3, r4]
 924:main.c        ****         SasData.NumberOfAwakenings = *SessionID * 10 + *SubSessionID;
 1970              		.loc 1 924 0
 1971 0bcc 0588     		ldrh	r5, [r0]
 1972 0bce 0E88     		ldrh	r6, [r1]
 1973 0bd0 AC00     		lsls	r4, r5, #2
 1974 0bd2 2C19     		adds	r4, r5, r4
 1975 0bd4 6200     		lsls	r2, r4, #1
 1976 0bd6 B218     		adds	r2, r6, r2
 1977 0bd8 92B2     		uxth	r2, r2
 1978 0bda 5A76     		strb	r2, [r3, #25]
 1979 0bdc 120A     		lsrs	r2, r2, #8
 1980 0bde 9A76     		strb	r2, [r3, #26]
 925:main.c        ****         SasData.NumberOfTossNturnEvents = *SessionID * 10 + *SubSessionID;
 1981              		.loc 1 925 0
 1982 0be0 0588     		ldrh	r5, [r0]
ARM GAS  C:\Users\310309~1\AppData\Local\Temp\ccowBZ3f.s 			page 52


 1983 0be2 0E88     		ldrh	r6, [r1]
 1984 0be4 AC00     		lsls	r4, r5, #2
 1985 0be6 2C19     		adds	r4, r5, r4
 1986 0be8 6200     		lsls	r2, r4, #1
 1987 0bea B218     		adds	r2, r6, r2
 1988 0bec 92B2     		uxth	r2, r2
 1989 0bee 2024     		movs	r4, #32
 1990 0bf0 1A55     		strb	r2, [r3, r4]
 1991 0bf2 120A     		lsrs	r2, r2, #8
 1992 0bf4 0134     		adds	r4, r4, #1
 1993 0bf6 1A55     		strb	r2, [r3, r4]
 926:main.c        ****         SasData.RelativeTimestamp = *SessionID * 10 + *SubSessionID;
 1994              		.loc 1 926 0
 1995 0bf8 0288     		ldrh	r2, [r0]
 1996 0bfa 9400     		lsls	r4, r2, #2
 1997 0bfc A418     		adds	r4, r4, r2
 1998 0bfe 6200     		lsls	r2, r4, #1
 1999 0c00 0C88     		ldrh	r4, [r1]
 2000 0c02 A218     		adds	r2, r4, r2
 2001 0c04 1A72     		strb	r2, [r3, #8]
 2002 0c06 140A     		lsrs	r4, r2, #8
 2003 0c08 5C72     		strb	r4, [r3, #9]
 2004 0c0a 140C     		lsrs	r4, r2, #16
 2005 0c0c 9C72     		strb	r4, [r3, #10]
 2006 0c0e 120E     		lsrs	r2, r2, #24
 2007 0c10 DA72     		strb	r2, [r3, #11]
 927:main.c        ****         SasData.SequenceNumber = *SessionID * 10 + *SubSessionID;
 2008              		.loc 1 927 0
 2009 0c12 0288     		ldrh	r2, [r0]
 2010 0c14 9400     		lsls	r4, r2, #2
 2011 0c16 A418     		adds	r4, r4, r2
 2012 0c18 6200     		lsls	r2, r4, #1
 2013 0c1a 0C88     		ldrh	r4, [r1]
 2014 0c1c A218     		adds	r2, r4, r2
 2015 0c1e 1A73     		strb	r2, [r3, #12]
 2016 0c20 140A     		lsrs	r4, r2, #8
 2017 0c22 5C73     		strb	r4, [r3, #13]
 2018 0c24 04E0     		b	.L23
 2019              	.L24:
 2020 0c26 C046     		.align	2
 2021              	.L22:
 2022 0c28 00000000 		.word	ScasData
 2023 0c2c 00000000 		.word	SasData
 2024              	.L23:
 2025 0c30 140C     		lsrs	r4, r2, #16
 2026 0c32 9C73     		strb	r4, [r3, #14]
 2027 0c34 120E     		lsrs	r2, r2, #24
 2028 0c36 DA73     		strb	r2, [r3, #15]
 928:main.c        ****         SasData.SessionID = *SessionID * 10 + *SubSessionID;
 2029              		.loc 1 928 0
 2030 0c38 0588     		ldrh	r5, [r0]
 2031 0c3a 0E88     		ldrh	r6, [r1]
 2032 0c3c AC00     		lsls	r4, r5, #2
 2033 0c3e 2C19     		adds	r4, r5, r4
 2034 0c40 6200     		lsls	r2, r4, #1
 2035 0c42 B218     		adds	r2, r6, r2
 2036 0c44 92B2     		uxth	r2, r2
ARM GAS  C:\Users\310309~1\AppData\Local\Temp\ccowBZ3f.s 			page 53


 2037 0c46 1A71     		strb	r2, [r3, #4]
 2038 0c48 120A     		lsrs	r2, r2, #8
 2039 0c4a 5A71     		strb	r2, [r3, #5]
 929:main.c        ****         SasData.SleepEfficiency = *SessionID * 10 + *SubSessionID;
 2040              		.loc 1 929 0
 2041 0c4c 0588     		ldrh	r5, [r0]
 2042 0c4e 0C88     		ldrh	r4, [r1]
 2043 0c50 AA00     		lsls	r2, r5, #2
 2044 0c52 AA18     		adds	r2, r5, r2
 2045 0c54 5500     		lsls	r5, r2, #1
 2046 0c56 2A19     		adds	r2, r5, r4
 2047 0c58 5A77     		strb	r2, [r3, #29]
 930:main.c        ****         SasData.SleepLatency = *SessionID * 10 + *SubSessionID;
 2048              		.loc 1 930 0
 2049 0c5a 0588     		ldrh	r5, [r0]
 2050 0c5c 0E88     		ldrh	r6, [r1]
 2051 0c5e AC00     		lsls	r4, r5, #2
 2052 0c60 2C19     		adds	r4, r5, r4
 2053 0c62 6200     		lsls	r2, r4, #1
 2054 0c64 B218     		adds	r2, r6, r2
 2055 0c66 92B2     		uxth	r2, r2
 2056 0c68 DA76     		strb	r2, [r3, #27]
 2057 0c6a 120A     		lsrs	r2, r2, #8
 2058 0c6c 1A77     		strb	r2, [r3, #28]
 931:main.c        ****         SasData.SnoozeTime = *SessionID * 10 + *SubSessionID;
 2059              		.loc 1 931 0
 2060 0c6e 0588     		ldrh	r5, [r0]
 2061 0c70 0E88     		ldrh	r6, [r1]
 2062 0c72 AC00     		lsls	r4, r5, #2
 2063 0c74 2C19     		adds	r4, r5, r4
 2064 0c76 6200     		lsls	r2, r4, #1
 2065 0c78 B218     		adds	r2, r6, r2
 2066 0c7a 92B2     		uxth	r2, r2
 2067 0c7c 9A77     		strb	r2, [r3, #30]
 2068 0c7e 120A     		lsrs	r2, r2, #8
 2069 0c80 DA77     		strb	r2, [r3, #31]
 932:main.c        ****         SasData.SubSessionID = *SessionID * 10 + *SubSessionID;
 2070              		.loc 1 932 0
 2071 0c82 0588     		ldrh	r5, [r0]
 2072 0c84 0E88     		ldrh	r6, [r1]
 2073 0c86 AC00     		lsls	r4, r5, #2
 2074 0c88 2C19     		adds	r4, r5, r4
 2075 0c8a 6200     		lsls	r2, r4, #1
 2076 0c8c B218     		adds	r2, r6, r2
 2077 0c8e 92B2     		uxth	r2, r2
 2078 0c90 9A71     		strb	r2, [r3, #6]
 2079 0c92 120A     		lsrs	r2, r2, #8
 2080 0c94 DA71     		strb	r2, [r3, #7]
 933:main.c        ****         SasData.TimeOfAwakeningAfterAlarm[0] = *SessionID * 10 + *SubSessionID;
 2081              		.loc 1 933 0
 2082 0c96 0588     		ldrh	r5, [r0]
 2083 0c98 0C88     		ldrh	r4, [r1]
 2084 0c9a AA00     		lsls	r2, r5, #2
 2085 0c9c AA18     		adds	r2, r5, r2
 2086 0c9e 5500     		lsls	r5, r2, #1
 2087 0ca0 2A19     		adds	r2, r5, r4
 2088 0ca2 2224     		movs	r4, #34
ARM GAS  C:\Users\310309~1\AppData\Local\Temp\ccowBZ3f.s 			page 54


 2089 0ca4 1A55     		strb	r2, [r3, r4]
 934:main.c        ****         SasData.TimeOfAwakeningAfterAlarm[1] = *SessionID * 10 + *SubSessionID;
 2090              		.loc 1 934 0
 2091 0ca6 0588     		ldrh	r5, [r0]
 2092 0ca8 0C88     		ldrh	r4, [r1]
 2093 0caa AA00     		lsls	r2, r5, #2
 2094 0cac AA18     		adds	r2, r5, r2
 2095 0cae 5500     		lsls	r5, r2, #1
 2096 0cb0 2A19     		adds	r2, r5, r4
 2097 0cb2 2324     		movs	r4, #35
 2098 0cb4 1A55     		strb	r2, [r3, r4]
 935:main.c        ****         SasData.TimeOfAwakeningAfterAlarm[2] = *SessionID * 10 + *SubSessionID;
 2099              		.loc 1 935 0
 2100 0cb6 0588     		ldrh	r5, [r0]
 2101 0cb8 0C88     		ldrh	r4, [r1]
 2102 0cba AA00     		lsls	r2, r5, #2
 2103 0cbc AA18     		adds	r2, r5, r2
 2104 0cbe 5500     		lsls	r5, r2, #1
 2105 0cc0 2A19     		adds	r2, r5, r4
 2106 0cc2 2424     		movs	r4, #36
 2107 0cc4 1A55     		strb	r2, [r3, r4]
 936:main.c        ****         SasData.TotalBedTime[0] = *SessionID * 10 + *SubSessionID;
 2108              		.loc 1 936 0
 2109 0cc6 0588     		ldrh	r5, [r0]
 2110 0cc8 0C88     		ldrh	r4, [r1]
 2111 0cca AA00     		lsls	r2, r5, #2
 2112 0ccc AA18     		adds	r2, r5, r2
 2113 0cce 5500     		lsls	r5, r2, #1
 2114 0cd0 2A19     		adds	r2, r5, r4
 2115 0cd2 9A75     		strb	r2, [r3, #22]
 937:main.c        ****         SasData.TotalBedTime[1] = *SessionID * 10 + *SubSessionID;
 2116              		.loc 1 937 0
 2117 0cd4 0588     		ldrh	r5, [r0]
 2118 0cd6 0C88     		ldrh	r4, [r1]
 2119 0cd8 AA00     		lsls	r2, r5, #2
 2120 0cda AA18     		adds	r2, r5, r2
 2121 0cdc 5500     		lsls	r5, r2, #1
 2122 0cde 2A19     		adds	r2, r5, r4
 2123 0ce0 DA75     		strb	r2, [r3, #23]
 938:main.c        ****         SasData.TotalBedTime[2] = *SessionID * 10 + *SubSessionID;
 2124              		.loc 1 938 0
 2125 0ce2 0588     		ldrh	r5, [r0]
 2126 0ce4 0C88     		ldrh	r4, [r1]
 2127 0ce6 AA00     		lsls	r2, r5, #2
 2128 0ce8 AA18     		adds	r2, r5, r2
 2129 0cea 5500     		lsls	r5, r2, #1
 2130 0cec 2A19     		adds	r2, r5, r4
 2131 0cee 1A76     		strb	r2, [r3, #24]
 939:main.c        ****         SasData.TotalSleepTime[0] = *SessionID * 10 + *SubSessionID;
 2132              		.loc 1 939 0
 2133 0cf0 0588     		ldrh	r5, [r0]
 2134 0cf2 0C88     		ldrh	r4, [r1]
 2135 0cf4 AA00     		lsls	r2, r5, #2
 2136 0cf6 AA18     		adds	r2, r5, r2
 2137 0cf8 5500     		lsls	r5, r2, #1
 2138 0cfa 2A19     		adds	r2, r5, r4
 2139 0cfc 1A74     		strb	r2, [r3, #16]
ARM GAS  C:\Users\310309~1\AppData\Local\Temp\ccowBZ3f.s 			page 55


 940:main.c        ****         SasData.TotalSleepTime[1] = *SessionID * 10 + *SubSessionID;
 2140              		.loc 1 940 0
 2141 0cfe 0588     		ldrh	r5, [r0]
 2142 0d00 0C88     		ldrh	r4, [r1]
 2143 0d02 AA00     		lsls	r2, r5, #2
 2144 0d04 AA18     		adds	r2, r5, r2
 2145 0d06 5500     		lsls	r5, r2, #1
 2146 0d08 2A19     		adds	r2, r5, r4
 2147 0d0a 5A74     		strb	r2, [r3, #17]
 941:main.c        ****         SasData.TotalSleepTime[2] = *SessionID * 10 + *SubSessionID;
 2148              		.loc 1 941 0
 2149 0d0c 0588     		ldrh	r5, [r0]
 2150 0d0e 0C88     		ldrh	r4, [r1]
 2151 0d10 AA00     		lsls	r2, r5, #2
 2152 0d12 AA18     		adds	r2, r5, r2
 2153 0d14 5500     		lsls	r5, r2, #1
 2154 0d16 2A19     		adds	r2, r5, r4
 2155 0d18 9A74     		strb	r2, [r3, #18]
 942:main.c        ****         SasData.TotalWakeTime[0] = *SessionID * 10 + *SubSessionID;
 2156              		.loc 1 942 0
 2157 0d1a 0588     		ldrh	r5, [r0]
 2158 0d1c 0C88     		ldrh	r4, [r1]
 2159 0d1e AA00     		lsls	r2, r5, #2
 2160 0d20 AA18     		adds	r2, r5, r2
 2161 0d22 5500     		lsls	r5, r2, #1
 2162 0d24 2A19     		adds	r2, r5, r4
 2163 0d26 DA74     		strb	r2, [r3, #19]
 943:main.c        ****         SasData.TotalWakeTime[1] = *SessionID * 10 + *SubSessionID;
 2164              		.loc 1 943 0
 2165 0d28 0588     		ldrh	r5, [r0]
 2166 0d2a 0C88     		ldrh	r4, [r1]
 2167 0d2c AA00     		lsls	r2, r5, #2
 2168 0d2e AA18     		adds	r2, r5, r2
 2169 0d30 5500     		lsls	r5, r2, #1
 2170 0d32 2A19     		adds	r2, r5, r4
 2171 0d34 1A75     		strb	r2, [r3, #20]
 944:main.c        ****         SasData.TotalWakeTime[2] = *SessionID * 10 + *SubSessionID;
 2172              		.loc 1 944 0
 2173 0d36 0588     		ldrh	r5, [r0]
 2174 0d38 0C88     		ldrh	r4, [r1]
 2175 0d3a AA00     		lsls	r2, r5, #2
 2176 0d3c AA18     		adds	r2, r5, r2
 2177 0d3e 5500     		lsls	r5, r2, #1
 2178 0d40 2A19     		adds	r2, r5, r4
 2179 0d42 5A75     		strb	r2, [r3, #21]
 945:main.c        ****         SasData.WornDuration[0] = *SessionID * 10 + *SubSessionID;
 2180              		.loc 1 945 0
 2181 0d44 0588     		ldrh	r5, [r0]
 2182 0d46 0C88     		ldrh	r4, [r1]
 2183 0d48 AA00     		lsls	r2, r5, #2
 2184 0d4a AA18     		adds	r2, r5, r2
 2185 0d4c 5500     		lsls	r5, r2, #1
 2186 0d4e 2A19     		adds	r2, r5, r4
 2187 0d50 4124     		movs	r4, #65
 2188 0d52 1A55     		strb	r2, [r3, r4]
 946:main.c        ****         SasData.WornDuration[1] = *SessionID * 10 + *SubSessionID;
 2189              		.loc 1 946 0
ARM GAS  C:\Users\310309~1\AppData\Local\Temp\ccowBZ3f.s 			page 56


 2190 0d54 0588     		ldrh	r5, [r0]
 2191 0d56 0C88     		ldrh	r4, [r1]
 2192 0d58 AA00     		lsls	r2, r5, #2
 2193 0d5a AA18     		adds	r2, r5, r2
 2194 0d5c 5500     		lsls	r5, r2, #1
 2195 0d5e 2A19     		adds	r2, r5, r4
 2196 0d60 4224     		movs	r4, #66
 2197 0d62 1A55     		strb	r2, [r3, r4]
 947:main.c        ****         SasData.WornDuration[2] = *SessionID * 10 + *SubSessionID;
 2198              		.loc 1 947 0
 2199 0d64 0088     		ldrh	r0, [r0]
 2200              	.LVL11:
 2201 0d66 0988     		ldrh	r1, [r1]
 2202              	.LVL12:
 2203 0d68 8200     		lsls	r2, r0, #2
 2204 0d6a 8218     		adds	r2, r0, r2
 2205 0d6c 5000     		lsls	r0, r2, #1
 2206 0d6e 4218     		adds	r2, r0, r1
 2207 0d70 4321     		movs	r1, #67
 2208 0d72 5A54     		strb	r2, [r3, r1]
 2209              	.LVL13:
 948:main.c        ****     }
 949:main.c        ****     
 950:main.c        ****     uint32 count = 0;
 951:main.c        ****     
 952:main.c        ****     switch(Get_Ended_Data_Value)
 2210              		.loc 1 952 0
 2211 0d74 124B     		ldr	r3, .L25
 2212 0d76 1A78     		ldrb	r2, [r3]
 2213 0d78 062A     		cmp	r2, #6
 2214 0d7a 1FD8     		bhi	.L15
 2215 0d7c 9300     		lsls	r3, r2, #2
 2216 0d7e 114A     		ldr	r2, .L25+4
 2217 0d80 D358     		ldr	r3, [r2, r3]
 2218 0d82 9F46     		mov	pc, r3
 2219              		.section	.rodata
 2220              		.align	2
 2221              	.L8:
 2222 0000 840D0000 		.word	.L7
 2223 0004 8C0D0000 		.word	.L9
 2224 0008 940D0000 		.word	.L10
 2225 000c 9C0D0000 		.word	.L11
 2226 0010 A40D0000 		.word	.L12
 2227 0014 AC0D0000 		.word	.L13
 2228 0018 B40D0000 		.word	.L14
 2229              		.section	.text.SimulateValues
 2230              	.L7:
 953:main.c        ****     {
 954:main.c        ****         case GENERAL_ACTIVITY_INSTANTANEOUS:
 955:main.c        ****         {
 956:main.c        ****             UpdateGaid();
 2231              		.loc 1 956 0
 2232 0d84 FFF7FEFF 		bl	UpdateGaid
 2233              	.LVL14:
 957:main.c        ****             count++;
 2234              		.loc 1 957 0
 2235 0d88 0120     		movs	r0, #1
ARM GAS  C:\Users\310309~1\AppData\Local\Temp\ccowBZ3f.s 			page 57


 958:main.c        ****             break;
 2236              		.loc 1 958 0
 2237 0d8a 18E0     		b	.L6
 2238              	.LVL15:
 2239              	.L9:
 959:main.c        ****         }
 960:main.c        ****         case GENERAL_ACTIVITY_SUMMARY:
 961:main.c        ****         {
 962:main.c        ****             UpdateGasd();
 2240              		.loc 1 962 0
 2241 0d8c FFF7FEFF 		bl	UpdateGasd
 2242              	.LVL16:
 963:main.c        ****             count++;
 2243              		.loc 1 963 0
 2244 0d90 0120     		movs	r0, #1
 964:main.c        ****             break;
 2245              		.loc 1 964 0
 2246 0d92 14E0     		b	.L6
 2247              	.LVL17:
 2248              	.L10:
 965:main.c        ****         }
 966:main.c        ****         case CARDIORESPIRATORY_ACTIVITY_INSTANTANEOUS:
 967:main.c        ****         {
 968:main.c        ****             UpdateCraid();
 2249              		.loc 1 968 0
 2250 0d94 FFF7FEFF 		bl	UpdateCraid
 2251              	.LVL18:
 969:main.c        ****             count++;
 2252              		.loc 1 969 0
 2253 0d98 0120     		movs	r0, #1
 970:main.c        ****             break;
 2254              		.loc 1 970 0
 2255 0d9a 10E0     		b	.L6
 2256              	.LVL19:
 2257              	.L11:
 971:main.c        ****         }
 972:main.c        ****         case CARDIORESPIRATORY_ACTIVITY_SUMMARY:
 973:main.c        ****         {
 974:main.c        ****             UpdateCrasd();
 2258              		.loc 1 974 0
 2259 0d9c FFF7FEFF 		bl	UpdateCrasd
 2260              	.LVL20:
 975:main.c        ****             count++;
 2261              		.loc 1 975 0
 2262 0da0 0120     		movs	r0, #1
 976:main.c        ****             break;
 2263              		.loc 1 976 0
 2264 0da2 0CE0     		b	.L6
 2265              	.LVL21:
 2266              	.L12:
 977:main.c        ****         }
 978:main.c        ****         case STEP_COUNTER_ACTIVITY_SUMMARY:
 979:main.c        ****         {
 980:main.c        ****             UpdateScasd();
 2267              		.loc 1 980 0
 2268 0da4 FFF7FEFF 		bl	UpdateScasd
 2269              	.LVL22:
ARM GAS  C:\Users\310309~1\AppData\Local\Temp\ccowBZ3f.s 			page 58


 981:main.c        ****             count++;
 2270              		.loc 1 981 0
 2271 0da8 0120     		movs	r0, #1
 982:main.c        ****             break;
 2272              		.loc 1 982 0
 2273 0daa 08E0     		b	.L6
 2274              	.LVL23:
 2275              	.L13:
 983:main.c        ****         }
 984:main.c        ****         case SLEEP_ACTIVITY_INSTANTANEOUS:
 985:main.c        ****         {
 986:main.c        ****             UpdateSaid();
 2276              		.loc 1 986 0
 2277 0dac FFF7FEFF 		bl	UpdateSaid
 2278              	.LVL24:
 987:main.c        ****             count++;
 2279              		.loc 1 987 0
 2280 0db0 0120     		movs	r0, #1
 988:main.c        ****             break;
 2281              		.loc 1 988 0
 2282 0db2 04E0     		b	.L6
 2283              	.LVL25:
 2284              	.L14:
 989:main.c        ****         }
 990:main.c        ****         case SLEEP_ACTIVITY_SUMMARY:
 991:main.c        ****         {
 992:main.c        ****             UpdateSasd();
 2285              		.loc 1 992 0
 2286 0db4 FFF7FEFF 		bl	UpdateSasd
 2287              	.LVL26:
 993:main.c        ****             count++;
 2288              		.loc 1 993 0
 2289 0db8 0120     		movs	r0, #1
 994:main.c        ****             break;
 2290              		.loc 1 994 0
 2291 0dba 00E0     		b	.L6
 2292              	.LVL27:
 2293              	.L15:
 950:main.c        ****     
 2294              		.loc 1 950 0
 2295 0dbc 0020     		movs	r0, #0
 2296              	.LVL28:
 2297              	.L6:
 995:main.c        ****         }
 996:main.c        ****     }
 997:main.c        ****     return count;
 998:main.c        **** }
 2298              		.loc 1 998 0
 2299              		@ sp needed
 2300 0dbe F8BD     		pop	{r3, r4, r5, r6, r7, pc}
 2301              	.L26:
 2302              		.align	2
 2303              	.L25:
 2304 0dc0 00000000 		.word	Get_Ended_Data_Value
 2305 0dc4 00000000 		.word	.L8
 2306              		.cfi_endproc
 2307              	.LFE40:
ARM GAS  C:\Users\310309~1\AppData\Local\Temp\ccowBZ3f.s 			page 59


 2308              		.size	SimulateValues, .-SimulateValues
 2309              		.section	.text.InitializePhisicalActivityMonitor,"ax",%progbits
 2310              		.align	2
 2311              		.global	InitializePhisicalActivityMonitor
 2312              		.code	16
 2313              		.thumb_func
 2314              		.type	InitializePhisicalActivityMonitor, %function
 2315              	InitializePhisicalActivityMonitor:
 2316              	.LFB41:
 999:main.c        **** 
1000:main.c        **** void InitializePhisicalActivityMonitor()
1001:main.c        **** {
 2317              		.loc 1 1001 0
 2318              		.cfi_startproc
 2319              		@ args = 0, pretend = 0, frame = 0
 2320              		@ frame_needed = 0, uses_anonymous_args = 0
 2321 0000 10B5     		push	{r4, lr}
 2322              		.cfi_def_cfa_offset 8
 2323              		.cfi_offset 4, -8
 2324              		.cfi_offset 14, -4
1002:main.c        ****     UART_DEB_Start();
 2325              		.loc 1 1002 0
 2326 0002 FFF7FEFF 		bl	UART_DEB_Start
 2327              	.LVL29:
1003:main.c        ****     
1004:main.c        ****     sessionCount = 0;
 2328              		.loc 1 1004 0
 2329 0006 0023     		movs	r3, #0
 2330 0008 224A     		ldr	r2, .L28
 2331 000a 1380     		strh	r3, [r2]
1005:main.c        ****     subsessionCount = 0;
 2332              		.loc 1 1005 0
 2333 000c 224A     		ldr	r2, .L28+4
 2334 000e 1380     		strh	r3, [r2]
1006:main.c        ****     totalSessionCount = 0;
 2335              		.loc 1 1006 0
 2336 0010 224A     		ldr	r2, .L28+8
 2337 0012 1380     		strh	r3, [r2]
1007:main.c        ****     totalSubSessionCount = 0;
 2338              		.loc 1 1007 0
 2339 0014 224A     		ldr	r2, .L28+12
 2340 0016 1380     		strh	r3, [r2]
1008:main.c        ****     totalDeletedSessions = 0;
 2341              		.loc 1 1008 0
 2342 0018 224A     		ldr	r2, .L28+16
 2343 001a 1380     		strh	r3, [r2]
1009:main.c        ****     
1010:main.c        ****     //init features
1011:main.c        ****     //pamFeature = getChosenFeatures();
1012:main.c        ****     
1013:main.c        ****     pamFeature = 0xFFFFFFFFFFFFFFFF;
 2344              		.loc 1 1013 0
 2345 001c 0120     		movs	r0, #1
 2346 001e 4042     		rsbs	r0, r0, #0
 2347 0020 C117     		asrs	r1, r0, #31
 2348 0022 214B     		ldr	r3, .L28+20
 2349 0024 1860     		str	r0, [r3]
ARM GAS  C:\Users\310309~1\AppData\Local\Temp\ccowBZ3f.s 			page 60


 2350 0026 5960     		str	r1, [r3, #4]
1014:main.c        ****     UpdateFeatureList();
 2351              		.loc 1 1014 0
 2352 0028 FFF7FEFF 		bl	UpdateFeatureList
 2353              	.LVL30:
1015:main.c        ****     
1016:main.c        ****         
1017:main.c        ****     //init GAI Data
1018:main.c        ****     GaiData.Flags[0] = 0x02;
 2354              		.loc 1 1018 0
 2355 002c 1F4B     		ldr	r3, .L28+24
 2356 002e 0222     		movs	r2, #2
 2357 0030 5A70     		strb	r2, [r3, #1]
1019:main.c        ****     GaiData.Flags[1] = 0x02;
 2358              		.loc 1 1019 0
 2359 0032 9A70     		strb	r2, [r3, #2]
1020:main.c        ****     GaiData.Flags[2] = 0x02;
 2360              		.loc 1 1020 0
 2361 0034 DA70     		strb	r2, [r3, #3]
1021:main.c        ****     UpdateGaid();
 2362              		.loc 1 1021 0
 2363 0036 FFF7FEFF 		bl	UpdateGaid
 2364              	.LVL31:
1022:main.c        ****    
1023:main.c        ****     //init GAS Data
1024:main.c        ****     GasData.Flags = 0xFFFFFFFF;
 2365              		.loc 1 1024 0
 2366 003a 1D4B     		ldr	r3, .L28+28
 2367 003c 0124     		movs	r4, #1
 2368 003e 6442     		rsbs	r4, r4, #0
 2369 0040 5C70     		strb	r4, [r3, #1]
 2370 0042 9C70     		strb	r4, [r3, #2]
 2371 0044 DC70     		strb	r4, [r3, #3]
 2372 0046 1C71     		strb	r4, [r3, #4]
1025:main.c        ****     GasData.AverageActivityType = 0xAA;
 2373              		.loc 1 1025 0
 2374 0048 5621     		movs	r1, #86
 2375 004a 4942     		rsbs	r1, r1, #0
 2376 004c 4822     		movs	r2, #72
 2377 004e 9954     		strb	r1, [r3, r2]
 2378 0050 4833     		adds	r3, r3, #72
 2379 0052 0022     		movs	r2, #0
 2380 0054 5A70     		strb	r2, [r3, #1]
1026:main.c        ****     UpdateGasd();
 2381              		.loc 1 1026 0
 2382 0056 FFF7FEFF 		bl	UpdateGasd
 2383              	.LVL32:
1027:main.c        **** 
1028:main.c        ****     //init CRAI Data
1029:main.c        ****     //DO NOT CHANGE THE FLAGS BEFORE THE SPECIFICATION FLAGS HAVE BEEN DEFINED AND IMPLEMENTED IN:
1030:main.c        ****     // SERVER -> pamCraid.h & pamCraid.c
1031:main.c        ****     // CLIENT -> HBPhysicalActivityMonitorCraid.java
1032:main.c        ****     // IF YOU CHANGE FLAGS YOU MIGHT GET AN ARRAY OUT OF BOUNDS EXCEPTION
1033:main.c        ****     CraiData.Flags = 0xFFFF;
 2384              		.loc 1 1033 0
 2385 005a 164B     		ldr	r3, .L28+32
 2386 005c 5C70     		strb	r4, [r3, #1]
ARM GAS  C:\Users\310309~1\AppData\Local\Temp\ccowBZ3f.s 			page 61


 2387 005e 9C70     		strb	r4, [r3, #2]
1034:main.c        ****     UpdateCraid();
 2388              		.loc 1 1034 0
 2389 0060 FFF7FEFF 		bl	UpdateCraid
 2390              	.LVL33:
1035:main.c        ****     
1036:main.c        ****     //init CRAS Data
1037:main.c        ****     //DO NOT CHANGE THE FLAGS BEFORE THE SPECIFICATION FLAGS HAVE BEEN DEFINED AND IMPLEMENTED IN:
1038:main.c        ****     // SERVER -> pamCrasd.h & pamCrasd.c
1039:main.c        ****     // CLIENT -> HBPhysicalActivityMonitorCrasd.java
1040:main.c        ****     // IF YOU CHANGE FLAGS YOU MIGHT GET AN ARRAY OUT OF BOUNDS EXCEPTION
1041:main.c        ****     CrasData.Flags = 0xFFFFFFFF;
 2391              		.loc 1 1041 0
 2392 0064 144A     		ldr	r2, .L28+36
 2393 0066 5470     		strb	r4, [r2, #1]
 2394 0068 9470     		strb	r4, [r2, #2]
 2395 006a D470     		strb	r4, [r2, #3]
 2396 006c 1471     		strb	r4, [r2, #4]
1042:main.c        ****     UpdateCrasd();
 2397              		.loc 1 1042 0
 2398 006e FFF7FEFF 		bl	UpdateCrasd
 2399              	.LVL34:
1043:main.c        ****     
1044:main.c        ****     //init SCAS Data
1045:main.c        ****     //DO NOT CHANGE THE FLAGS BEFORE THE SPECIFICATION FLAGS HAVE BEEN DEFINED AND IMPLEMENTED IN:
1046:main.c        ****     // SERVER -> pamScasd.h & pamScasd.c
1047:main.c        ****     // CLIENT -> HBPhysicalActivityMonitorScasd.java
1048:main.c        ****     // IF YOU CHANGE FLAGS YOU MIGHT GET AN ARRAY OUT OF BOUNDS EXCEPTION
1049:main.c        ****     ScasData.Flags = 0xFF;
 2400              		.loc 1 1049 0
 2401 0072 124B     		ldr	r3, .L28+40
 2402 0074 5C70     		strb	r4, [r3, #1]
1050:main.c        ****     UpdateScasd();
 2403              		.loc 1 1050 0
 2404 0076 FFF7FEFF 		bl	UpdateScasd
 2405              	.LVL35:
1051:main.c        ****     
1052:main.c        ****     //init SAI Data
1053:main.c        ****     //DO NOT CHANGE THE FLAGS BEFORE THE SPECIFICATION FLAGS HAVE BEEN DEFINED AND IMPLEMENTED IN:
1054:main.c        ****     // SERVER -> pamSaid.h & pamSaid.c
1055:main.c        ****     // CLIENT -> HBPhysicalActivityMonitorSaid.java
1056:main.c        ****     // IF YOU CHANGE FLAGS YOU MIGHT GET AN ARRAY OUT OF BOUNDS EXCEPTION
1057:main.c        ****     SaiData.Flags = 0xFFFF;
 2406              		.loc 1 1057 0
 2407 007a 114B     		ldr	r3, .L28+44
 2408 007c 5C70     		strb	r4, [r3, #1]
 2409 007e 9C70     		strb	r4, [r3, #2]
1058:main.c        ****     UpdateSaid();
 2410              		.loc 1 1058 0
 2411 0080 FFF7FEFF 		bl	UpdateSaid
 2412              	.LVL36:
1059:main.c        ****     
1060:main.c        ****     //init SAS Data
1061:main.c        ****     //DO NOT CHANGE THE FLAGS BEFORE THE SPECIFICATION FLAGS HAVE BEEN DEFINED AND IMPLEMENTED IN:
1062:main.c        ****     // SERVER -> pamSasd.h & pamSasd.c
1063:main.c        ****     // CLIENT -> HBPhysicalActivityMonitorSasd.java
1064:main.c        ****     // IF YOU CHANGE FLAGS YOU MIGHT GET AN ARRAY OUT OF BOUNDS EXCEPTION
ARM GAS  C:\Users\310309~1\AppData\Local\Temp\ccowBZ3f.s 			page 62


1065:main.c        ****     SasData.Flags[0] = 0xFF;
 2413              		.loc 1 1065 0
 2414 0084 0F4B     		ldr	r3, .L28+48
 2415 0086 5C70     		strb	r4, [r3, #1]
1066:main.c        ****     SasData.Flags[1] = 0xFF;
 2416              		.loc 1 1066 0
 2417 0088 9C70     		strb	r4, [r3, #2]
1067:main.c        ****     SasData.Flags[2] = 0xFF;
 2418              		.loc 1 1067 0
 2419 008a DC70     		strb	r4, [r3, #3]
1068:main.c        ****     UpdateSasd();
 2420              		.loc 1 1068 0
 2421 008c FFF7FEFF 		bl	UpdateSasd
 2422              	.LVL37:
1069:main.c        **** }
 2423              		.loc 1 1069 0
 2424              		@ sp needed
 2425 0090 10BD     		pop	{r4, pc}
 2426              	.L29:
 2427 0092 C046     		.align	2
 2428              	.L28:
 2429 0094 00000000 		.word	sessionCount
 2430 0098 00000000 		.word	subsessionCount
 2431 009c 00000000 		.word	totalSessionCount
 2432 00a0 00000000 		.word	totalSubSessionCount
 2433 00a4 00000000 		.word	totalDeletedSessions
 2434 00a8 00000000 		.word	pamFeature
 2435 00ac 00000000 		.word	GaiData
 2436 00b0 00000000 		.word	GasData
 2437 00b4 00000000 		.word	CraiData
 2438 00b8 00000000 		.word	CrasData
 2439 00bc 00000000 		.word	ScasData
 2440 00c0 00000000 		.word	SaiData
 2441 00c4 00000000 		.word	SasData
 2442              		.cfi_endproc
 2443              	.LFE41:
 2444              		.size	InitializePhisicalActivityMonitor, .-InitializePhisicalActivityMonitor
 2445              		.section	.text.main,"ax",%progbits
 2446              		.align	2
 2447              		.global	main
 2448              		.code	16
 2449              		.thumb_func
 2450              		.type	main, %function
 2451              	main:
 2452              	.LFB39:
 608:main.c        ****     CyGlobalIntEnable; /* Enable global interrupts. */
 2453              		.loc 1 608 0
 2454              		.cfi_startproc
 2455              		@ args = 0, pretend = 0, frame = 8
 2456              		@ frame_needed = 0, uses_anonymous_args = 0
 2457 0000 F0B5     		push	{r4, r5, r6, r7, lr}
 2458              		.cfi_def_cfa_offset 20
 2459              		.cfi_offset 4, -20
 2460              		.cfi_offset 5, -16
 2461              		.cfi_offset 6, -12
 2462              		.cfi_offset 7, -8
 2463              		.cfi_offset 14, -4
ARM GAS  C:\Users\310309~1\AppData\Local\Temp\ccowBZ3f.s 			page 63


 2464 0002 5746     		mov	r7, r10
 2465 0004 4E46     		mov	r6, r9
 2466 0006 4546     		mov	r5, r8
 2467 0008 E0B4     		push	{r5, r6, r7}
 2468              		.cfi_def_cfa_offset 32
 2469              		.cfi_offset 8, -32
 2470              		.cfi_offset 9, -28
 2471              		.cfi_offset 10, -24
 2472 000a 86B0     		sub	sp, sp, #24
 2473              		.cfi_def_cfa_offset 56
 609:main.c        ****     
 2474              		.loc 1 609 0
 2475              		.syntax divided
 2476              	@ 609 "main.c" 1
 2477 000c 62B6     		CPSIE   i
 2478              	@ 0 "" 2
 611:main.c        ****     {
 2479              		.loc 1 611 0
 2480              		.thumb
 2481              		.syntax unified
 2482 000e CF4B     		ldr	r3, .L60
 2483 0010 1B88     		ldrh	r3, [r3]
 2484 0012 002B     		cmp	r3, #0
 2485 0014 02D0     		beq	.L31
 614:main.c        ****     }
 2486              		.loc 1 614 0 discriminator 1
 2487 0016 0020     		movs	r0, #0
 2488 0018 FFF7FEFF 		bl	CyHalt
 2489              	.LVL38:
 2490              	.L31:
 619:main.c        ****     TCPWM_Start();
 2491              		.loc 1 619 0
 2492 001c CC48     		ldr	r0, .L60+4
 2493 001e FFF7FEFF 		bl	Pin_SW2_Int_StartEx
 2494              	.LVL39:
 620:main.c        ****     isr_timer_StartEx( isr_timer_Handler );
 2495              		.loc 1 620 0
 2496 0022 FFF7FEFF 		bl	TCPWM_Start
 2497              	.LVL40:
 621:main.c        ****     
 2498              		.loc 1 621 0
 2499 0026 CB48     		ldr	r0, .L60+8
 2500 0028 FFF7FEFF 		bl	isr_timer_StartEx
 2501              	.LVL41:
 625:main.c        ****     
 2502              		.loc 1 625 0
 2503 002c CA48     		ldr	r0, .L60+12
 2504 002e FFF7FEFF 		bl	CyBle_Start
 2505              	.LVL42:
 2506 0032 C64B     		ldr	r3, .L60
 2507 0034 1880     		strh	r0, [r3]
 627:main.c        ****     
 2508              		.loc 1 627 0
 2509 0036 FFF7FEFF 		bl	InitializePhisicalActivityMonitor
 2510              	.LVL43:
 2511              	.L54:
 632:main.c        ****         
ARM GAS  C:\Users\310309~1\AppData\Local\Temp\ccowBZ3f.s 			page 64


 2512              		.loc 1 632 0
 2513 003a FFF7FEFF 		bl	CyBle_ProcessEvents
 2514              	.LVL44:
 634:main.c        ****         {
 2515              		.loc 1 634 0
 2516 003e C74B     		ldr	r3, .L60+16
 2517 0040 1B78     		ldrb	r3, [r3]
 2518 0042 022B     		cmp	r3, #2
 2519 0044 14D1     		bne	.L32
 637:main.c        ****                ((UART_DEB_SpiUartGetTxBufferSize() + UART_DEB_GET_TX_FIFO_SR_VALID) == 0u))
 2520              		.loc 1 637 0
 2521 0046 C64B     		ldr	r3, .L60+20
 2522 0048 1B78     		ldrb	r3, [r3]
 2523 004a 002B     		cmp	r3, #0
 2524 004c 10D0     		beq	.L32
 638:main.c        ****         #else
 2525              		.loc 1 638 0
 2526 004e FFF7FEFF 		bl	UART_DEB_SpiUartGetTxBufferSize
 2527              	.LVL45:
 2528 0052 C44B     		ldr	r3, .L60+24
 2529 0054 1B68     		ldr	r3, [r3]
 2530 0056 8022     		movs	r2, #128
 2531 0058 1202     		lsls	r2, r2, #8
 2532 005a 1340     		ands	r3, r2
 2533 005c 00D0     		beq	.L33
 2534 005e 0123     		movs	r3, #1
 2535              	.L33:
 638:main.c        ****         #else
 2536              		.loc 1 638 0 is_stmt 0 discriminator 4
 2537 0060 1B18     		adds	r3, r3, r0
 637:main.c        ****                ((UART_DEB_SpiUartGetTxBufferSize() + UART_DEB_GET_TX_FIFO_SR_VALID) == 0u))
 2538              		.loc 1 637 0 is_stmt 1 discriminator 4
 2539 0062 002B     		cmp	r3, #0
 2540 0064 04D1     		bne	.L32
 644:main.c        ****             }
 2541              		.loc 1 644 0
 2542 0066 0020     		movs	r0, #0
 2543 0068 FFF7FEFF 		bl	CyBle_StoreBondingData
 2544              	.LVL46:
 2545 006c B74B     		ldr	r3, .L60
 2546 006e 1880     		strh	r0, [r3]
 2547              	.L32:
 652:main.c        ****         {
 2548              		.loc 1 652 0
 2549 0070 BD4B     		ldr	r3, .L60+28
 2550 0072 1B88     		ldrh	r3, [r3]
 2551 0074 002B     		cmp	r3, #0
 2552 0076 44D1     		bne	.L55
 2553 0078 56E0     		b	.L35
 2554              	.LVL47:
 2555              	.L36:
 2556              	.LBB2:
 656:main.c        ****             }
 2557              		.loc 1 656 0 discriminator 3
 2558 007a BC49     		ldr	r1, .L60+32
 2559 007c F300     		lsls	r3, r6, #3
 2560 007e 9C1B     		subs	r4, r3, r6
ARM GAS  C:\Users\310309~1\AppData\Local\Temp\ccowBZ3f.s 			page 65


 2561 0080 A400     		lsls	r4, r4, #2
 2562 0082 A419     		adds	r4, r4, r6
 2563 0084 605C     		ldrb	r0, [r4, r1]
 2564              	.LVL48:
 2565 0086 0C19     		adds	r4, r1, r4
 2566 0088 6378     		ldrb	r3, [r4, #1]
 2567 008a 1B02     		lsls	r3, r3, #8
 2568 008c 0343     		orrs	r3, r0
 2569 008e 1A00     		movs	r2, r3
 2570 0090 A378     		ldrb	r3, [r4, #2]
 2571 0092 1B04     		lsls	r3, r3, #16
 2572 0094 1343     		orrs	r3, r2
 2573 0096 E278     		ldrb	r2, [r4, #3]
 2574 0098 1206     		lsls	r2, r2, #24
 2575 009a 1A43     		orrs	r2, r3
 2576 009c 9146     		mov	r9, r2
 2577 009e 2179     		ldrb	r1, [r4, #4]
 2578 00a0 6379     		ldrb	r3, [r4, #5]
 2579 00a2 1B02     		lsls	r3, r3, #8
 2580 00a4 0B43     		orrs	r3, r1
 2581 00a6 1A00     		movs	r2, r3
 2582 00a8 A379     		ldrb	r3, [r4, #6]
 2583 00aa 1B04     		lsls	r3, r3, #16
 2584 00ac 1343     		orrs	r3, r2
 2585 00ae E279     		ldrb	r2, [r4, #7]
 2586 00b0 1206     		lsls	r2, r2, #24
 2587 00b2 1A43     		orrs	r2, r3
 2588 00b4 9046     		mov	r8, r2
 2589 00b6 217A     		ldrb	r1, [r4, #8]
 2590 00b8 637A     		ldrb	r3, [r4, #9]
 2591 00ba 1B02     		lsls	r3, r3, #8
 2592 00bc 0B43     		orrs	r3, r1
 2593 00be 1A00     		movs	r2, r3
 2594 00c0 A77A     		ldrb	r7, [r4, #10]
 2595 00c2 3F04     		lsls	r7, r7, #16
 2596 00c4 3B00     		movs	r3, r7
 2597 00c6 1343     		orrs	r3, r2
 2598 00c8 E77A     		ldrb	r7, [r4, #11]
 2599 00ca 3F06     		lsls	r7, r7, #24
 2600 00cc 1F43     		orrs	r7, r3
 2601 00ce 217B     		ldrb	r1, [r4, #12]
 2602 00d0 637B     		ldrb	r3, [r4, #13]
 2603 00d2 1B02     		lsls	r3, r3, #8
 2604 00d4 0B43     		orrs	r3, r1
 2605 00d6 1A00     		movs	r2, r3
 2606 00d8 A57B     		ldrb	r5, [r4, #14]
 2607 00da 2D04     		lsls	r5, r5, #16
 2608 00dc 2B00     		movs	r3, r5
 2609 00de 1343     		orrs	r3, r2
 2610 00e0 E57B     		ldrb	r5, [r4, #15]
 2611 00e2 2D06     		lsls	r5, r5, #24
 2612 00e4 1D43     		orrs	r5, r3
 2613 00e6 2100     		movs	r1, r4
 2614 00e8 1031     		adds	r1, r1, #16
 2615 00ea 0D22     		movs	r2, #13
 2616 00ec 6846     		mov	r0, sp
 2617 00ee FFF7FEFF 		bl	memcpy
ARM GAS  C:\Users\310309~1\AppData\Local\Temp\ccowBZ3f.s 			page 66


 2618              	.LVL49:
 2619 00f2 4846     		mov	r0, r9
 2620 00f4 4146     		mov	r1, r8
 2621 00f6 3A00     		movs	r2, r7
 2622 00f8 2B00     		movs	r3, r5
 2623 00fa FFF7FEFF 		bl	UpdateSessionDescriptor
 2624              	.LVL50:
 654:main.c        ****             {
 2625              		.loc 1 654 0 discriminator 3
 2626 00fe 0136     		adds	r6, r6, #1
 2627              	.LVL51:
 2628 0100 01E0     		b	.L34
 2629              	.LVL52:
 2630              	.L55:
 2631              	.LBE2:
 2632 0102 0026     		movs	r6, #0
 2633 0104 0020     		movs	r0, #0
 2634              	.LVL53:
 2635              	.L34:
 2636              	.LBB3:
 654:main.c        ****             {
 2637              		.loc 1 654 0 is_stmt 0 discriminator 1
 2638 0106 9A4B     		ldr	r3, .L60+36
 2639 0108 1988     		ldrh	r1, [r3]
 2640 010a 8E42     		cmp	r6, r1
 2641 010c B5DB     		blt	.L36
 2642              	.LBE3:
 658:main.c        ****             else                { updateControlPointEnquireSucces(0xFC, totalSessionCount); }
 2643              		.loc 1 658 0 is_stmt 1
 2644 010e 0028     		cmp	r0, #0
 2645 0110 04D0     		beq	.L37
 658:main.c        ****             else                { updateControlPointEnquireSucces(0xFC, totalSessionCount); }
 2646              		.loc 1 658 0 is_stmt 0 discriminator 1
 2647 0112 FF21     		movs	r1, #255
 2648 0114 FF20     		movs	r0, #255
 2649              	.LVL54:
 2650 0116 FFF7FEFF 		bl	updateControlPointEnquireSucces
 2651              	.LVL55:
 2652 011a 02E0     		b	.L38
 2653              	.LVL56:
 2654              	.L37:
 659:main.c        ****             
 2655              		.loc 1 659 0 is_stmt 1
 2656 011c FC20     		movs	r0, #252
 2657              	.LVL57:
 2658 011e FFF7FEFF 		bl	updateControlPointEnquireSucces
 2659              	.LVL58:
 2660              	.L38:
 661:main.c        ****             procedureFailed = FALSE;
 2661              		.loc 1 661 0
 2662 0122 0022     		movs	r2, #0
 2663 0124 904B     		ldr	r3, .L60+28
 2664 0126 1A80     		strh	r2, [r3]
 2665              	.LVL59:
 2666              	.L35:
 666:main.c        ****         {
 2667              		.loc 1 666 0
ARM GAS  C:\Users\310309~1\AppData\Local\Temp\ccowBZ3f.s 			page 67


 2668 0128 924B     		ldr	r3, .L60+40
 2669 012a 1B88     		ldrh	r3, [r3]
 2670 012c 002B     		cmp	r3, #0
 2671 012e 54D1     		bne	.L56
 2672 0130 68E0     		b	.L40
 2673              	.LVL60:
 2674              	.L42:
 2675              	.LBB4:
 2676              	.LBB5:
 671:main.c        ****                 {
 2677              		.loc 1 671 0
 2678 0132 E300     		lsls	r3, r4, #3
 2679 0134 1B1B     		subs	r3, r3, r4
 2680 0136 9B00     		lsls	r3, r3, #2
 2681 0138 1B19     		adds	r3, r3, r4
 2682 013a 8F4A     		ldr	r2, .L60+44
 2683 013c D318     		adds	r3, r2, r3
 2684 013e 5A78     		ldrb	r2, [r3, #1]
 2685 0140 9B78     		ldrb	r3, [r3, #2]
 2686 0142 1B02     		lsls	r3, r3, #8
 2687 0144 1343     		orrs	r3, r2
 2688 0146 8B4A     		ldr	r2, .L60+40
 2689 0148 1288     		ldrh	r2, [r2]
 2690 014a 9342     		cmp	r3, r2
 2691 014c 43D1     		bne	.L41
 673:main.c        ****                     count++;
 2692              		.loc 1 673 0
 2693 014e 8A49     		ldr	r1, .L60+44
 2694 0150 E300     		lsls	r3, r4, #3
 2695 0152 1E1B     		subs	r6, r3, r4
 2696 0154 B600     		lsls	r6, r6, #2
 2697 0156 3619     		adds	r6, r6, r4
 2698 0158 705C     		ldrb	r0, [r6, r1]
 2699              	.LVL61:
 2700 015a 8E19     		adds	r6, r1, r6
 2701 015c 7378     		ldrb	r3, [r6, #1]
 2702 015e 1B02     		lsls	r3, r3, #8
 2703 0160 0343     		orrs	r3, r0
 2704 0162 1A00     		movs	r2, r3
 2705 0164 B378     		ldrb	r3, [r6, #2]
 2706 0166 1B04     		lsls	r3, r3, #16
 2707 0168 1343     		orrs	r3, r2
 2708 016a F278     		ldrb	r2, [r6, #3]
 2709 016c 1206     		lsls	r2, r2, #24
 2710 016e 1A43     		orrs	r2, r3
 2711 0170 9246     		mov	r10, r2
 2712 0172 3179     		ldrb	r1, [r6, #4]
 2713 0174 7379     		ldrb	r3, [r6, #5]
 2714 0176 1B02     		lsls	r3, r3, #8
 2715 0178 0B43     		orrs	r3, r1
 2716 017a 1A00     		movs	r2, r3
 2717 017c B379     		ldrb	r3, [r6, #6]
 2718 017e 1B04     		lsls	r3, r3, #16
 2719 0180 1343     		orrs	r3, r2
 2720 0182 F279     		ldrb	r2, [r6, #7]
 2721 0184 1206     		lsls	r2, r2, #24
 2722 0186 1A43     		orrs	r2, r3
ARM GAS  C:\Users\310309~1\AppData\Local\Temp\ccowBZ3f.s 			page 68


 2723 0188 9146     		mov	r9, r2
 2724 018a 317A     		ldrb	r1, [r6, #8]
 2725 018c 737A     		ldrb	r3, [r6, #9]
 2726 018e 1B02     		lsls	r3, r3, #8
 2727 0190 0B43     		orrs	r3, r1
 2728 0192 1A00     		movs	r2, r3
 2729 0194 B37A     		ldrb	r3, [r6, #10]
 2730 0196 1B04     		lsls	r3, r3, #16
 2731 0198 1343     		orrs	r3, r2
 2732 019a F27A     		ldrb	r2, [r6, #11]
 2733 019c 1206     		lsls	r2, r2, #24
 2734 019e 1A43     		orrs	r2, r3
 2735 01a0 9046     		mov	r8, r2
 2736 01a2 317B     		ldrb	r1, [r6, #12]
 2737 01a4 737B     		ldrb	r3, [r6, #13]
 2738 01a6 1B02     		lsls	r3, r3, #8
 2739 01a8 0B43     		orrs	r3, r1
 2740 01aa 1A00     		movs	r2, r3
 2741 01ac B77B     		ldrb	r7, [r6, #14]
 2742 01ae 3F04     		lsls	r7, r7, #16
 2743 01b0 3B00     		movs	r3, r7
 2744 01b2 1343     		orrs	r3, r2
 2745 01b4 F77B     		ldrb	r7, [r6, #15]
 2746 01b6 3F06     		lsls	r7, r7, #24
 2747 01b8 1F43     		orrs	r7, r3
 2748 01ba 3100     		movs	r1, r6
 2749 01bc 1031     		adds	r1, r1, #16
 2750 01be 0D22     		movs	r2, #13
 2751 01c0 6846     		mov	r0, sp
 2752 01c2 FFF7FEFF 		bl	memcpy
 2753              	.LVL62:
 2754 01c6 5046     		mov	r0, r10
 2755 01c8 4946     		mov	r1, r9
 2756 01ca 4246     		mov	r2, r8
 2757 01cc 3B00     		movs	r3, r7
 2758 01ce FFF7FEFF 		bl	UpdateSessionDescriptor
 2759              	.LVL63:
 674:main.c        ****                 }
 2760              		.loc 1 674 0
 2761 01d2 0135     		adds	r5, r5, #1
 2762              	.LVL64:
 2763 01d4 ADB2     		uxth	r5, r5
 2764              	.LVL65:
 2765              	.L41:
 669:main.c        ****             {
 2766              		.loc 1 669 0 discriminator 2
 2767 01d6 0134     		adds	r4, r4, #1
 2768              	.LVL66:
 2769 01d8 02E0     		b	.L39
 2770              	.LVL67:
 2771              	.L56:
 2772              	.LBE5:
 2773              	.LBE4:
 2774 01da 0024     		movs	r4, #0
 2775 01dc 0025     		movs	r5, #0
 2776 01de 0020     		movs	r0, #0
 2777              	.LVL68:
ARM GAS  C:\Users\310309~1\AppData\Local\Temp\ccowBZ3f.s 			page 69


 2778              	.L39:
 2779              	.LBB7:
 2780              	.LBB6:
 669:main.c        ****             {
 2781              		.loc 1 669 0 is_stmt 0 discriminator 1
 2782 01e0 664B     		ldr	r3, .L60+48
 2783 01e2 1B88     		ldrh	r3, [r3]
 2784 01e4 9C42     		cmp	r4, r3
 2785 01e6 A4DB     		blt	.L42
 2786              	.LBE6:
 678:main.c        ****             else                { updateControlPointEnquireSucces(0xFB, count); }
 2787              		.loc 1 678 0 is_stmt 1
 2788 01e8 0028     		cmp	r0, #0
 2789 01ea 04D0     		beq	.L43
 678:main.c        ****             else                { updateControlPointEnquireSucces(0xFB, count); }
 2790              		.loc 1 678 0 is_stmt 0 discriminator 1
 2791 01ec FF21     		movs	r1, #255
 2792 01ee FE20     		movs	r0, #254
 2793              	.LVL69:
 2794 01f0 FFF7FEFF 		bl	updateControlPointEnquireSucces
 2795              	.LVL70:
 2796 01f4 03E0     		b	.L44
 2797              	.LVL71:
 2798              	.L43:
 679:main.c        ****             
 2799              		.loc 1 679 0 is_stmt 1
 2800 01f6 2900     		movs	r1, r5
 2801 01f8 FB20     		movs	r0, #251
 2802              	.LVL72:
 2803 01fa FFF7FEFF 		bl	updateControlPointEnquireSucces
 2804              	.LVL73:
 2805              	.L44:
 681:main.c        ****             procedureFailed = FALSE;
 2806              		.loc 1 681 0
 2807 01fe 0022     		movs	r2, #0
 2808 0200 5C4B     		ldr	r3, .L60+40
 2809 0202 1A80     		strh	r2, [r3]
 2810              	.LVL74:
 2811              	.L40:
 2812              	.LBE7:
 685:main.c        ****         {
 2813              		.loc 1 685 0
 2814 0204 5E4B     		ldr	r3, .L60+52
 2815 0206 1B78     		ldrb	r3, [r3]
 2816 0208 002B     		cmp	r3, #0
 2817 020a 51D1     		bne	.L57
 2818 020c 58E0     		b	.L46
 2819              	.LVL75:
 2820              	.L47:
 2821              	.LBB8:
 689:main.c        ****                 myDeletedSessions[i] = myDeletedSessions[i + 1];
 2822              		.loc 1 689 0 discriminator 3
 2823 020e 5D4E     		ldr	r6, .L60+56
 2824 0210 EC00     		lsls	r4, r5, #3
 2825 0212 641B     		subs	r4, r4, r5
 2826 0214 A400     		lsls	r4, r4, #2
 2827 0216 6419     		adds	r4, r4, r5
ARM GAS  C:\Users\310309~1\AppData\Local\Temp\ccowBZ3f.s 			page 70


 2828 0218 A15D     		ldrb	r1, [r4, r6]
 2829 021a 3419     		adds	r4, r6, r4
 2830 021c 6378     		ldrb	r3, [r4, #1]
 2831 021e 1B02     		lsls	r3, r3, #8
 2832 0220 0B43     		orrs	r3, r1
 2833 0222 1A00     		movs	r2, r3
 2834 0224 A378     		ldrb	r3, [r4, #2]
 2835 0226 1B04     		lsls	r3, r3, #16
 2836 0228 1343     		orrs	r3, r2
 2837 022a E278     		ldrb	r2, [r4, #3]
 2838 022c 1206     		lsls	r2, r2, #24
 2839 022e 1A43     		orrs	r2, r3
 2840 0230 9246     		mov	r10, r2
 2841 0232 2179     		ldrb	r1, [r4, #4]
 2842 0234 6379     		ldrb	r3, [r4, #5]
 2843 0236 1B02     		lsls	r3, r3, #8
 2844 0238 0B43     		orrs	r3, r1
 2845 023a 1A00     		movs	r2, r3
 2846 023c A379     		ldrb	r3, [r4, #6]
 2847 023e 1B04     		lsls	r3, r3, #16
 2848 0240 1343     		orrs	r3, r2
 2849 0242 E279     		ldrb	r2, [r4, #7]
 2850 0244 1206     		lsls	r2, r2, #24
 2851 0246 1A43     		orrs	r2, r3
 2852 0248 9146     		mov	r9, r2
 2853 024a 217A     		ldrb	r1, [r4, #8]
 2854 024c 637A     		ldrb	r3, [r4, #9]
 2855 024e 1B02     		lsls	r3, r3, #8
 2856 0250 0B43     		orrs	r3, r1
 2857 0252 1A00     		movs	r2, r3
 2858 0254 A37A     		ldrb	r3, [r4, #10]
 2859 0256 1B04     		lsls	r3, r3, #16
 2860 0258 1343     		orrs	r3, r2
 2861 025a E27A     		ldrb	r2, [r4, #11]
 2862 025c 1206     		lsls	r2, r2, #24
 2863 025e 1A43     		orrs	r2, r3
 2864 0260 9046     		mov	r8, r2
 2865 0262 217B     		ldrb	r1, [r4, #12]
 2866 0264 637B     		ldrb	r3, [r4, #13]
 2867 0266 1B02     		lsls	r3, r3, #8
 2868 0268 0B43     		orrs	r3, r1
 2869 026a 1A00     		movs	r2, r3
 2870 026c A77B     		ldrb	r7, [r4, #14]
 2871 026e 3F04     		lsls	r7, r7, #16
 2872 0270 3B00     		movs	r3, r7
 2873 0272 1343     		orrs	r3, r2
 2874 0274 E77B     		ldrb	r7, [r4, #15]
 2875 0276 3F06     		lsls	r7, r7, #24
 2876 0278 1F43     		orrs	r7, r3
 2877 027a 2100     		movs	r1, r4
 2878 027c 1031     		adds	r1, r1, #16
 2879 027e 0D22     		movs	r2, #13
 2880 0280 6846     		mov	r0, sp
 2881 0282 FFF7FEFF 		bl	memcpy
 2882              	.LVL76:
 2883 0286 5046     		mov	r0, r10
 2884 0288 4946     		mov	r1, r9
ARM GAS  C:\Users\310309~1\AppData\Local\Temp\ccowBZ3f.s 			page 71


 2885 028a 4246     		mov	r2, r8
 2886 028c 3B00     		movs	r3, r7
 2887 028e FFF7FEFF 		bl	UpdateSessionDescriptor
 2888              	.LVL77:
 690:main.c        ****                 totalDeletedSessions -= 1;
 2889              		.loc 1 690 0 discriminator 3
 2890 0292 0135     		adds	r5, r5, #1
 2891              	.LVL78:
 2892 0294 E900     		lsls	r1, r5, #3
 2893 0296 491B     		subs	r1, r1, r5
 2894 0298 8900     		lsls	r1, r1, #2
 2895 029a 4919     		adds	r1, r1, r5
 2896 029c 7118     		adds	r1, r6, r1
 2897 029e 1D22     		movs	r2, #29
 2898 02a0 2000     		movs	r0, r4
 2899 02a2 FFF7FEFF 		bl	memcpy
 2900              	.LVL79:
 691:main.c        ****             }
 2901              		.loc 1 691 0 discriminator 3
 2902 02a6 384A     		ldr	r2, .L60+60
 2903 02a8 1388     		ldrh	r3, [r2]
 2904 02aa 013B     		subs	r3, r3, #1
 2905 02ac 1380     		strh	r3, [r2]
 2906              	.LVL80:
 2907 02ae 00E0     		b	.L45
 2908              	.LVL81:
 2909              	.L57:
 2910              	.LBE8:
 2911 02b0 0025     		movs	r5, #0
 2912              	.L45:
 2913              	.LVL82:
 2914              	.LBB9:
 687:main.c        ****             {
 2915              		.loc 1 687 0 discriminator 1
 2916 02b2 354B     		ldr	r3, .L60+60
 2917 02b4 1B88     		ldrh	r3, [r3]
 2918 02b6 9D42     		cmp	r5, r3
 2919 02b8 A9DB     		blt	.L47
 2920              	.LBE9:
 693:main.c        ****         }
 2921              		.loc 1 693 0
 2922 02ba 0022     		movs	r2, #0
 2923 02bc 304B     		ldr	r3, .L60+52
 2924 02be 1A70     		strb	r2, [r3]
 2925              	.LVL83:
 2926              	.L46:
 696:main.c        ****         {
 2927              		.loc 1 696 0
 2928 02c0 324B     		ldr	r3, .L60+64
 2929 02c2 1B88     		ldrh	r3, [r3]
 2930 02c4 002B     		cmp	r3, #0
 2931 02c6 3CD0     		beq	.L48
 2932              	.LVL84:
 2933              	.LBB10:
 699:main.c        ****             {
 2934              		.loc 1 699 0
 2935 02c8 314B     		ldr	r3, .L60+68
ARM GAS  C:\Users\310309~1\AppData\Local\Temp\ccowBZ3f.s 			page 72


 2936 02ca 1A88     		ldrh	r2, [r3]
 2937 02cc 314B     		ldr	r3, .L60+72
 2938 02ce 9A42     		cmp	r2, r3
 2939 02d0 29D1     		bne	.L59
 2940 02d2 21E0     		b	.L58
 2941              	.LVL85:
 2942              	.L52:
 2943              	.LBB11:
 703:main.c        ****                     {
 2944              		.loc 1 703 0
 2945 02d4 E300     		lsls	r3, r4, #3
 2946 02d6 1B1B     		subs	r3, r3, r4
 2947 02d8 9B00     		lsls	r3, r3, #2
 2948 02da 1B19     		adds	r3, r3, r4
 2949 02dc 264A     		ldr	r2, .L60+44
 2950 02de D318     		adds	r3, r2, r3
 2951 02e0 5A78     		ldrb	r2, [r3, #1]
 2952 02e2 9B78     		ldrb	r3, [r3, #2]
 2953 02e4 1B02     		lsls	r3, r3, #8
 2954 02e6 1343     		orrs	r3, r2
 2955 02e8 284A     		ldr	r2, .L60+64
 2956 02ea 1288     		ldrh	r2, [r2]
 2957 02ec 9342     		cmp	r3, r2
 2958 02ee 11D1     		bne	.L51
 2959              	.LBB12:
 705:main.c        ****                         count += SimulateValues(&Get_Ended_Data_SessionID, &subSessionID);
 2960              		.loc 1 705 0
 2961 02f0 E300     		lsls	r3, r4, #3
 2962 02f2 1B1B     		subs	r3, r3, r4
 2963 02f4 9B00     		lsls	r3, r3, #2
 2964 02f6 1B19     		adds	r3, r3, r4
 2965 02f8 1F4A     		ldr	r2, .L60+44
 2966 02fa D318     		adds	r3, r2, r3
 2967 02fc DA7B     		ldrb	r2, [r3, #15]
 2968 02fe 0833     		adds	r3, r3, #8
 2969 0300 1B7A     		ldrb	r3, [r3, #8]
 2970 0302 1B02     		lsls	r3, r3, #8
 2971 0304 1343     		orrs	r3, r2
 2972 0306 1621     		movs	r1, #22
 2973 0308 6944     		add	r1, r1, sp
 2974 030a 0B80     		strh	r3, [r1]
 706:main.c        ****                         
 2975              		.loc 1 706 0
 2976 030c 1F48     		ldr	r0, .L60+64
 2977 030e FFF7FEFF 		bl	SimulateValues
 2978              	.LVL86:
 2979 0312 2D18     		adds	r5, r5, r0
 2980              	.LVL87:
 2981              	.L51:
 2982              	.LBE12:
 701:main.c        ****                 {
 2983              		.loc 1 701 0 discriminator 2
 2984 0314 0134     		adds	r4, r4, #1
 2985              	.LVL88:
 2986 0316 01E0     		b	.L49
 2987              	.LVL89:
 2988              	.L58:
ARM GAS  C:\Users\310309~1\AppData\Local\Temp\ccowBZ3f.s 			page 73


 2989              	.LBE11:
 2990 0318 0024     		movs	r4, #0
 2991 031a 0025     		movs	r5, #0
 2992              	.LVL90:
 2993              	.L49:
 2994              	.LBB13:
 701:main.c        ****                 {
 2995              		.loc 1 701 0 is_stmt 0 discriminator 1
 2996 031c 174B     		ldr	r3, .L60+48
 2997 031e 1B88     		ldrh	r3, [r3]
 2998 0320 9C42     		cmp	r4, r3
 2999 0322 D7DB     		blt	.L52
 3000 0324 04E0     		b	.L53
 3001              	.LVL91:
 3002              	.L59:
 3003              	.LBE13:
 713:main.c        ****             }
 3004              		.loc 1 713 0 is_stmt 1
 3005 0326 1A49     		ldr	r1, .L60+68
 3006 0328 1848     		ldr	r0, .L60+64
 3007 032a FFF7FEFF 		bl	SimulateValues
 3008              	.LVL92:
 3009 032e 0500     		movs	r5, r0
 3010              	.LVL93:
 3011              	.L53:
 717:main.c        ****             
 3012              		.loc 1 717 0
 3013 0330 2900     		movs	r1, r5
 3014 0332 FA20     		movs	r0, #250
 3015 0334 FFF7FEFF 		bl	updateControlPointGetEndedDataSucces
 3016              	.LVL94:
 720:main.c        ****             Get_Ended_Data_Sub_SessionID = 0;
 3017              		.loc 1 720 0
 3018 0338 0023     		movs	r3, #0
 3019 033a 144A     		ldr	r2, .L60+64
 3020 033c 1380     		strh	r3, [r2]
 721:main.c        ****         }
 3021              		.loc 1 721 0
 3022 033e 144A     		ldr	r2, .L60+68
 3023 0340 1380     		strh	r3, [r2]
 3024              	.LVL95:
 3025              	.L48:
 3026              	.LBE10:
 724:main.c        ****     }
 3027              		.loc 1 724 0
 3028 0342 0320     		movs	r0, #3
 3029 0344 FFF7FEFF 		bl	CyBle_EnterLPM
 3030              	.LVL96:
 725:main.c        **** }
 3031              		.loc 1 725 0
 3032 0348 77E6     		b	.L54
 3033              	.L61:
 3034 034a C046     		.align	2
 3035              	.L60:
 3036 034c 00000000 		.word	apiResult
 3037 0350 00000000 		.word	Pin_SW2_Handler
 3038 0354 00000000 		.word	isr_timer_Handler
ARM GAS  C:\Users\310309~1\AppData\Local\Temp\ccowBZ3f.s 			page 74


 3039 0358 00000000 		.word	BleEventHandler
 3040 035c 00000000 		.word	cyBle_state
 3041 0360 00000000 		.word	cyBle_pendingFlashWrite
 3042 0364 08022440 		.word	1076101640
 3043 0368 00000000 		.word	Enquire_Sessions_Requested
 3044 036c 00000000 		.word	mySessions
 3045 0370 00000000 		.word	totalSessionCount
 3046 0374 00000000 		.word	Enquire_Sub_Sessions_Requested_For_ID
 3047 0378 00000000 		.word	mySubSessions
 3048 037c 00000000 		.word	totalSubSessionCount
 3049 0380 00000000 		.word	send_Deleted_Sessions
 3050 0384 00000000 		.word	myDeletedSessions
 3051 0388 00000000 		.word	totalDeletedSessions
 3052 038c 00000000 		.word	Get_Ended_Data_SessionID
 3053 0390 00000000 		.word	Get_Ended_Data_Sub_SessionID
 3054 0394 FFFF0000 		.word	65535
 3055              		.cfi_endproc
 3056              	.LFE39:
 3057              		.size	main, .-main
 3058              		.section	.text.HandleLeds,"ax",%progbits
 3059              		.align	2
 3060              		.global	HandleLeds
 3061              		.code	16
 3062              		.thumb_func
 3063              		.type	HandleLeds, %function
 3064              	HandleLeds:
 3065              	.LFB42:
1070:main.c        **** 
1071:main.c        **** void HandleLeds()
1072:main.c        **** {
 3066              		.loc 1 1072 0
 3067              		.cfi_startproc
 3068              		@ args = 0, pretend = 0, frame = 0
 3069              		@ frame_needed = 0, uses_anonymous_args = 0
 3070 0000 10B5     		push	{r4, lr}
 3071              		.cfi_def_cfa_offset 8
 3072              		.cfi_offset 4, -8
 3073              		.cfi_offset 14, -4
1073:main.c        ****     if(CyBle_GetState() == CYBLE_STATE_DISCONNECTED)
 3074              		.loc 1 1073 0
 3075 0002 114B     		ldr	r3, .L66
 3076 0004 1B78     		ldrb	r3, [r3]
 3077 0006 042B     		cmp	r3, #4
 3078 0008 08D1     		bne	.L63
1074:main.c        ****     {
1075:main.c        ****         pwm_Stop();
 3079              		.loc 1 1075 0
 3080 000a FFF7FEFF 		bl	pwm_Stop
 3081              	.LVL97:
1076:main.c        ****         connected_LED_Write(LED_OFF);
 3082              		.loc 1 1076 0
 3083 000e 0120     		movs	r0, #1
 3084 0010 FFF7FEFF 		bl	connected_LED_Write
 3085              	.LVL98:
1077:main.c        ****         disconnected_LED_Write(LED_ON);
 3086              		.loc 1 1077 0
 3087 0014 0020     		movs	r0, #0
ARM GAS  C:\Users\310309~1\AppData\Local\Temp\ccowBZ3f.s 			page 75


 3088 0016 FFF7FEFF 		bl	disconnected_LED_Write
 3089              	.LVL99:
 3090 001a 14E0     		b	.L62
 3091              	.L63:
1078:main.c        ****     }
1079:main.c        ****     else if(CyBle_GetState() == CYBLE_STATE_ADVERTISING)
 3092              		.loc 1 1079 0
 3093 001c 032B     		cmp	r3, #3
 3094 001e 08D1     		bne	.L65
1080:main.c        ****     {
1081:main.c        ****         connected_LED_Write(LED_OFF);
 3095              		.loc 1 1081 0
 3096 0020 0120     		movs	r0, #1
 3097 0022 FFF7FEFF 		bl	connected_LED_Write
 3098              	.LVL100:
1082:main.c        ****         disconnected_LED_Write(LED_OFF);
 3099              		.loc 1 1082 0
 3100 0026 0120     		movs	r0, #1
 3101 0028 FFF7FEFF 		bl	disconnected_LED_Write
 3102              	.LVL101:
1083:main.c        ****         pwm_Start();
 3103              		.loc 1 1083 0
 3104 002c FFF7FEFF 		bl	pwm_Start
 3105              	.LVL102:
 3106 0030 09E0     		b	.L62
 3107              	.L65:
1084:main.c        ****     }
1085:main.c        ****     else if(CyBle_GetState() == CYBLE_STATE_CONNECTED)
 3108              		.loc 1 1085 0
 3109 0032 022B     		cmp	r3, #2
 3110 0034 07D1     		bne	.L62
1086:main.c        ****     {
1087:main.c        ****         pwm_Stop();
 3111              		.loc 1 1087 0
 3112 0036 FFF7FEFF 		bl	pwm_Stop
 3113              	.LVL103:
1088:main.c        ****         disconnected_LED_Write(LED_OFF);
 3114              		.loc 1 1088 0
 3115 003a 0120     		movs	r0, #1
 3116 003c FFF7FEFF 		bl	disconnected_LED_Write
 3117              	.LVL104:
1089:main.c        ****         connected_LED_Write(LED_ON);
 3118              		.loc 1 1089 0
 3119 0040 0020     		movs	r0, #0
 3120 0042 FFF7FEFF 		bl	connected_LED_Write
 3121              	.LVL105:
 3122              	.L62:
1090:main.c        ****     }
1091:main.c        **** }
 3123              		.loc 1 1091 0
 3124              		@ sp needed
 3125 0046 10BD     		pop	{r4, pc}
 3126              	.L67:
 3127              		.align	2
 3128              	.L66:
 3129 0048 00000000 		.word	cyBle_state
 3130              		.cfi_endproc
ARM GAS  C:\Users\310309~1\AppData\Local\Temp\ccowBZ3f.s 			page 76


 3131              	.LFE42:
 3132              		.size	HandleLeds, .-HandleLeds
 3133              		.section	.text.BleEventHandler,"ax",%progbits
 3134              		.align	2
 3135              		.global	BleEventHandler
 3136              		.code	16
 3137              		.thumb_func
 3138              		.type	BleEventHandler, %function
 3139              	BleEventHandler:
 3140              	.LFB38:
  78:main.c        ****     if(0u != eventParam)
 3141              		.loc 1 78 0
 3142              		.cfi_startproc
 3143              		@ args = 0, pretend = 0, frame = 104
 3144              		@ frame_needed = 0, uses_anonymous_args = 0
 3145              	.LVL106:
 3146 0000 F0B5     		push	{r4, r5, r6, r7, lr}
 3147              		.cfi_def_cfa_offset 20
 3148              		.cfi_offset 4, -20
 3149              		.cfi_offset 5, -16
 3150              		.cfi_offset 6, -12
 3151              		.cfi_offset 7, -8
 3152              		.cfi_offset 14, -4
 3153 0002 4F46     		mov	r7, r9
 3154 0004 4646     		mov	r6, r8
 3155 0006 C0B4     		push	{r6, r7}
 3156              		.cfi_def_cfa_offset 28
 3157              		.cfi_offset 8, -28
 3158              		.cfi_offset 9, -24
 3159 0008 A1B0     		sub	sp, sp, #132
 3160              		.cfi_def_cfa_offset 160
 3161 000a 0C00     		movs	r4, r1
  86:main.c        ****     {
 3162              		.loc 1 86 0
 3163 000c 5428     		cmp	r0, #84
 3164 000e 01D9     		bls	.LCB3071
 3165 0010 00F05EFD 		bl	.L68	@far jump
 3166              	.LCB3071:
 3167 0014 8000     		lsls	r0, r0, #2
 3168              	.LVL107:
 3169 0016 E44B     		ldr	r3, .L158
 3170 0018 1B58     		ldr	r3, [r3, r0]
 3171 001a 9F46     		mov	pc, r3
 3172              		.section	.rodata
 3173              		.align	2
 3174              	.L71:
 3175 001c D00A0000 		.word	.L68
 3176 0020 1C000000 		.word	.L70
 3177 0024 D00A0000 		.word	.L68
 3178 0028 D00A0000 		.word	.L68
 3179 002c D00A0000 		.word	.L68
 3180 0030 D00A0000 		.word	.L68
 3181 0034 D00A0000 		.word	.L68
 3182 0038 D00A0000 		.word	.L68
 3183 003c D00A0000 		.word	.L68
 3184 0040 D00A0000 		.word	.L68
 3185 0044 D00A0000 		.word	.L68
ARM GAS  C:\Users\310309~1\AppData\Local\Temp\ccowBZ3f.s 			page 77


 3186 0048 D00A0000 		.word	.L68
 3187 004c D00A0000 		.word	.L68
 3188 0050 D00A0000 		.word	.L68
 3189 0054 D00A0000 		.word	.L68
 3190 0058 D00A0000 		.word	.L68
 3191 005c D00A0000 		.word	.L68
 3192 0060 D00A0000 		.word	.L68
 3193 0064 D00A0000 		.word	.L68
 3194 0068 D00A0000 		.word	.L68
 3195 006c D00A0000 		.word	.L68
 3196 0070 D00A0000 		.word	.L68
 3197 0074 D00A0000 		.word	.L68
 3198 0078 D00A0000 		.word	.L68
 3199 007c D00A0000 		.word	.L68
 3200 0080 D00A0000 		.word	.L68
 3201 0084 D00A0000 		.word	.L68
 3202 0088 D00A0000 		.word	.L68
 3203 008c D00A0000 		.word	.L68
 3204 0090 D00A0000 		.word	.L68
 3205 0094 D00A0000 		.word	.L68
 3206 0098 D00A0000 		.word	.L68
 3207 009c D00A0000 		.word	.L68
 3208 00a0 D00A0000 		.word	.L68
 3209 00a4 D00A0000 		.word	.L68
 3210 00a8 C2000000 		.word	.L72
 3211 00ac EE000000 		.word	.L73
 3212 00b0 D00A0000 		.word	.L68
 3213 00b4 94000000 		.word	.L74
 3214 00b8 86000000 		.word	.L75
 3215 00bc 1C000000 		.word	.L70
 3216 00c0 D4000000 		.word	.L76
 3217 00c4 D00A0000 		.word	.L68
 3218 00c8 D00A0000 		.word	.L68
 3219 00cc D00A0000 		.word	.L68
 3220 00d0 D00A0000 		.word	.L68
 3221 00d4 D00A0000 		.word	.L68
 3222 00d8 D00A0000 		.word	.L68
 3223 00dc D00A0000 		.word	.L68
 3224 00e0 D00A0000 		.word	.L68
 3225 00e4 D00A0000 		.word	.L68
 3226 00e8 D00A0000 		.word	.L68
 3227 00ec D00A0000 		.word	.L68
 3228 00f0 D00A0000 		.word	.L68
 3229 00f4 D00A0000 		.word	.L68
 3230 00f8 D00A0000 		.word	.L68
 3231 00fc D00A0000 		.word	.L68
 3232 0100 D00A0000 		.word	.L68
 3233 0104 D00A0000 		.word	.L68
 3234 0108 D00A0000 		.word	.L68
 3235 010c D00A0000 		.word	.L68
 3236 0110 D00A0000 		.word	.L68
 3237 0114 D00A0000 		.word	.L68
 3238 0118 D00A0000 		.word	.L68
 3239 011c D00A0000 		.word	.L68
 3240 0120 E0000000 		.word	.L77
 3241 0124 D00A0000 		.word	.L68
 3242 0128 D00A0000 		.word	.L68
ARM GAS  C:\Users\310309~1\AppData\Local\Temp\ccowBZ3f.s 			page 78


 3243 012c D00A0000 		.word	.L68
 3244 0130 D00A0000 		.word	.L68
 3245 0134 D00A0000 		.word	.L68
 3246 0138 D00A0000 		.word	.L68
 3247 013c D00A0000 		.word	.L68
 3248 0140 D00A0000 		.word	.L68
 3249 0144 D00A0000 		.word	.L68
 3250 0148 D00A0000 		.word	.L68
 3251 014c 02010000 		.word	.L78
 3252 0150 D00A0000 		.word	.L68
 3253 0154 D00A0000 		.word	.L68
 3254 0158 D00A0000 		.word	.L68
 3255 015c D00A0000 		.word	.L68
 3256 0160 D00A0000 		.word	.L68
 3257 0164 D00A0000 		.word	.L68
 3258 0168 D00A0000 		.word	.L68
 3259 016c B8000000 		.word	.L79
 3260              		.section	.text.BleEventHandler
 3261              	.L70:
 3262              	.LBB14:
  91:main.c        ****             DBG_PRINTF("Start Advertisement with addr: ");
 3263              		.loc 1 91 0
 3264 001c 0020     		movs	r0, #0
 3265 001e FFF7FEFF 		bl	CyBle_GappStartAdvertisement
 3266              	.LVL108:
  92:main.c        ****             CYBLE_GAP_BD_ADDR_T localAddr;
 3267              		.loc 1 92 0
 3268 0022 E248     		ldr	r0, .L158+4
 3269 0024 FFF7FEFF 		bl	printf
 3270              	.LVL109:
  94:main.c        ****             CyBle_GetDeviceAddress(&localAddr);
 3271              		.loc 1 94 0
 3272 0028 06A8     		add	r0, sp, #24
 3273 002a 0023     		movs	r3, #0
 3274 002c 8371     		strb	r3, [r0, #6]
  95:main.c        ****             for(uint8 i = CYBLE_GAP_BD_ADDR_SIZE; i > 0u; i--)
 3275              		.loc 1 95 0
 3276 002e FFF7FEFF 		bl	CyBle_GetDeviceAddress
 3277              	.LVL110:
 3278              	.LBB15:
  96:main.c        ****             {
 3279              		.loc 1 96 0
 3280 0032 0623     		movs	r3, #6
 3281 0034 06E0     		b	.L80
 3282              	.LVL111:
 3283              	.L81:
  98:main.c        ****             }
 3284              		.loc 1 98 0 discriminator 3
 3285 0036 5C1E     		subs	r4, r3, #1
 3286 0038 06AB     		add	r3, sp, #24
 3287              	.LVL112:
 3288 003a 195D     		ldrb	r1, [r3, r4]
 3289 003c DC48     		ldr	r0, .L158+8
 3290 003e FFF7FEFF 		bl	printf
 3291              	.LVL113:
  96:main.c        ****             {
 3292              		.loc 1 96 0 discriminator 3
ARM GAS  C:\Users\310309~1\AppData\Local\Temp\ccowBZ3f.s 			page 79


 3293 0042 E3B2     		uxtb	r3, r4
 3294              	.LVL114:
 3295              	.L80:
  96:main.c        ****             {
 3296              		.loc 1 96 0 is_stmt 0 discriminator 1
 3297 0044 002B     		cmp	r3, #0
 3298 0046 F6D1     		bne	.L81
 3299              	.LBE15:
 100:main.c        ****             DBG_PRINTF("CYBLE_EVT_GAP_DEVICE_DISCONNECTED \r\n");
 3300              		.loc 1 100 0 is_stmt 1
 3301 0048 DA48     		ldr	r0, .L158+12
 3302 004a FFF7FEFF 		bl	puts
 3303              	.LVL115:
 101:main.c        ****             HandleLeds();
 3304              		.loc 1 101 0
 3305 004e DA48     		ldr	r0, .L158+16
 3306 0050 FFF7FEFF 		bl	puts
 3307              	.LVL116:
 102:main.c        ****            
 3308              		.loc 1 102 0
 3309 0054 FFF7FEFF 		bl	HandleLeds
 3310              	.LVL117:
 104:main.c        ****             generalsummarydataIndicate = DISABLED;
 3311              		.loc 1 104 0
 3312 0058 0023     		movs	r3, #0
 3313 005a D84A     		ldr	r2, .L158+20
 3314 005c 1360     		str	r3, [r2]
 105:main.c        ****             cardiorespiratoryactivityinstantaneousdataNotify = DISABLED;
 3315              		.loc 1 105 0
 3316 005e D84A     		ldr	r2, .L158+24
 3317 0060 1360     		str	r3, [r2]
 106:main.c        ****             cardiorespiratoryactivitysummarydataIndicate = DISABLED;
 3318              		.loc 1 106 0
 3319 0062 D84A     		ldr	r2, .L158+28
 3320 0064 1360     		str	r3, [r2]
 107:main.c        ****             stepcounteractivitysummarydataIndicate = DISABLED;
 3321              		.loc 1 107 0
 3322 0066 D84A     		ldr	r2, .L158+32
 3323 0068 1360     		str	r3, [r2]
 108:main.c        ****             sleepactivityinstantaneousdataNotify = DISABLED;
 3324              		.loc 1 108 0
 3325 006a D84A     		ldr	r2, .L158+36
 3326 006c 1360     		str	r3, [r2]
 109:main.c        ****             sleepactivitysummarydataIndicate = DISABLED;
 3327              		.loc 1 109 0
 3328 006e D84A     		ldr	r2, .L158+40
 3329 0070 1360     		str	r3, [r2]
 110:main.c        ****             controlpointIndicate = DISABLED;
 3330              		.loc 1 110 0
 3331 0072 D84A     		ldr	r2, .L158+44
 3332 0074 1360     		str	r3, [r2]
 111:main.c        ****             currentsessionIndicate = DISABLED;
 3333              		.loc 1 111 0
 3334 0076 D84A     		ldr	r2, .L158+48
 3335 0078 1360     		str	r3, [r2]
 112:main.c        ****             sessionDescriptorIndicate = DISABLED;
 3336              		.loc 1 112 0
ARM GAS  C:\Users\310309~1\AppData\Local\Temp\ccowBZ3f.s 			page 80


 3337 007a D84A     		ldr	r2, .L158+52
 3338 007c 1360     		str	r3, [r2]
 113:main.c        ****             break;
 3339              		.loc 1 113 0
 3340 007e D84A     		ldr	r2, .L158+56
 3341 0080 1370     		strb	r3, [r2]
 3342 0082 00F025FD 		bl	.L68	@ far jump
 3343              	.LVL118:
 3344              	.L75:
 3345              	.LBE14:
 119:main.c        ****             HandleLeds();
 3346              		.loc 1 119 0
 3347 0086 D748     		ldr	r0, .L158+60
 3348 0088 FFF7FEFF 		bl	puts
 3349              	.LVL119:
 120:main.c        ****             break;
 3350              		.loc 1 120 0
 3351 008c FFF7FEFF 		bl	HandleLeds
 3352              	.LVL120:
 121:main.c        ****         }
 3353              		.loc 1 121 0
 3354 0090 00F01EFD 		bl	.L68	@ far jump
 3355              	.LVL121:
 3356              	.L74:
 125:main.c        ****             DBG_PRINTF("CYBLE_EVT_GAPP_ADVERTISEMENT_START_STOP \r\n");
 3357              		.loc 1 125 0
 3358 0094 FFF7FEFF 		bl	HandleLeds
 3359              	.LVL122:
 126:main.c        ****             if(CyBle_GetState() == CYBLE_STATE_DISCONNECTED)
 3360              		.loc 1 126 0
 3361 0098 D348     		ldr	r0, .L158+64
 3362 009a FFF7FEFF 		bl	puts
 3363              	.LVL123:
 127:main.c        ****             {
 3364              		.loc 1 127 0
 3365 009e D34B     		ldr	r3, .L158+68
 3366 00a0 1B78     		ldrb	r3, [r3]
 3367 00a2 042B     		cmp	r3, #4
 3368 00a4 01D0     		beq	.LCB3179
 3369 00a6 00F013FD 		bl	.L68	@far jump
 3370              	.LCB3179:
 132:main.c        ****                 CySysPmStop();
 3371              		.loc 1 132 0
 3372 00aa 0120     		movs	r0, #1
 3373 00ac FFF7FEFF 		bl	CySysPmSetWakeupPolarity
 3374              	.LVL124:
 133:main.c        ****             }
 3375              		.loc 1 133 0
 3376 00b0 FFF7FEFF 		bl	CySysPmStop
 3377              	.LVL125:
 3378 00b4 00F00CFD 		bl	.L68	@ far jump
 3379              	.LVL126:
 3380              	.L79:
 139:main.c        ****             break;
 3381              		.loc 1 139 0
 3382 00b8 CD48     		ldr	r0, .L158+72
 3383 00ba FFF7FEFF 		bl	puts
ARM GAS  C:\Users\310309~1\AppData\Local\Temp\ccowBZ3f.s 			page 81


 3384              	.LVL127:
 140:main.c        ****         }
 3385              		.loc 1 140 0
 3386 00be 00F007FD 		bl	.L68	@ far jump
 3387              	.LVL128:
 3388              	.L72:
 144:main.c        ****             DBG_PRINTF("CYBLE_EVT_GAP_PASSKEY_DISPLAY_REQUEST. Passkey is: %lu.\r\n",
 3389              		.loc 1 144 0
 3390 00c2 BC48     		ldr	r0, .L158+12
 3391 00c4 FFF7FEFF 		bl	puts
 3392              	.LVL129:
 145:main.c        ****                 *(uint32 *)eventParam);
 3393              		.loc 1 145 0
 3394 00c8 2168     		ldr	r1, [r4]
 3395 00ca CA48     		ldr	r0, .L158+76
 3396 00cc FFF7FEFF 		bl	printf
 3397              	.LVL130:
 147:main.c        ****         }
 3398              		.loc 1 147 0
 3399 00d0 00F0FEFC 		bl	.L68	@ far jump
 3400              	.LVL131:
 3401              	.L76:
 151:main.c        ****             break;
 3402              		.loc 1 151 0
 3403 00d4 0978     		ldrb	r1, [r1]
 3404              	.LVL132:
 3405 00d6 C848     		ldr	r0, .L158+80
 3406 00d8 FFF7FEFF 		bl	printf
 3407              	.LVL133:
 152:main.c        ****         }
 3408              		.loc 1 152 0
 3409 00dc 00F0F8FC 		bl	.L68	@ far jump
 3410              	.LVL134:
 3411              	.L77:
 156:main.c        ****                 ((CYBLE_CONN_HANDLE_T *)eventParam)->attId, ((CYBLE_CONN_HANDLE_T *)eventParam)->bd
 3412              		.loc 1 156 0
 3413 00e0 4978     		ldrb	r1, [r1, #1]
 3414              	.LVL135:
 3415 00e2 2278     		ldrb	r2, [r4]
 3416 00e4 C548     		ldr	r0, .L158+84
 3417 00e6 FFF7FEFF 		bl	printf
 3418              	.LVL136:
 158:main.c        ****         }
 3419              		.loc 1 158 0
 3420 00ea 00F0F1FC 		bl	.L68	@ far jump
 3421              	.LVL137:
 3422              	.L73:
 162:main.c        ****                         ((CYBLE_GAP_AUTH_INFO_T *)eventParam)->security,
 3423              		.loc 1 162 0
 3424 00ee 0978     		ldrb	r1, [r1]
 3425              	.LVL138:
 3426 00f0 6278     		ldrb	r2, [r4, #1]
 3427 00f2 A378     		ldrb	r3, [r4, #2]
 3428 00f4 E078     		ldrb	r0, [r4, #3]
 3429 00f6 0090     		str	r0, [sp]
 3430 00f8 C148     		ldr	r0, .L158+88
 3431 00fa FFF7FEFF 		bl	printf
ARM GAS  C:\Users\310309~1\AppData\Local\Temp\ccowBZ3f.s 			page 82


 3432              	.LVL139:
 167:main.c        ****         }
 3433              		.loc 1 167 0
 3434 00fe 00F0E7FC 		bl	.L68	@ far jump
 3435              	.LVL140:
 3436              	.L78:
 174:main.c        ****                 {
 3437              		.loc 1 174 0
 3438 0102 8B89     		ldrh	r3, [r1, #12]
 3439 0104 172B     		cmp	r3, #23
 3440 0106 15D1     		bne	.L82
 176:main.c        ****                     generalinstantaneousdataNotify = wrReqParam->handleValPair.value.val[0] & 0x01;
 3441              		.loc 1 176 0
 3442 0108 BE4D     		ldr	r5, .L158+92
 3443 010a 081D     		adds	r0, r1, #4
 3444 010c 2933     		adds	r3, r3, #41
 3445 010e 2A00     		movs	r2, r5
 3446 0110 0021     		movs	r1, #0
 3447              	.LVL141:
 3448 0112 FFF7FEFF 		bl	CyBle_GattsWriteAttributeValue
 3449              	.LVL142:
 177:main.c        ****                     CyBle_GattsWriteRsp(cyBle_connHandle);
 3450              		.loc 1 177 0
 3451 0116 6368     		ldr	r3, [r4, #4]
 3452 0118 1B78     		ldrb	r3, [r3]
 3453 011a 0122     		movs	r2, #1
 3454 011c 1340     		ands	r3, r2
 3455 011e A74A     		ldr	r2, .L158+20
 3456 0120 1360     		str	r3, [r2]
 178:main.c        ****                     DBG_PRINTF("Start/stop GENERAL ACTIVITY INSTANTANEOUS DATA Notifications \r\n")
 3457              		.loc 1 178 0
 3458 0122 2B78     		ldrb	r3, [r5]
 3459 0124 6878     		ldrb	r0, [r5, #1]
 3460 0126 0002     		lsls	r0, r0, #8
 3461 0128 1843     		orrs	r0, r3
 3462 012a FFF7FEFF 		bl	CyBle_GattsWriteRsp
 3463              	.LVL143:
 179:main.c        ****                 }
 3464              		.loc 1 179 0
 3465 012e B648     		ldr	r0, .L158+96
 3466 0130 FFF7FEFF 		bl	puts
 3467              	.LVL144:
 3468              	.L82:
 182:main.c        ****                 {
 3469              		.loc 1 182 0
 3470 0134 A389     		ldrh	r3, [r4, #12]
 3471 0136 1B2B     		cmp	r3, #27
 3472 0138 15D1     		bne	.L83
 184:main.c        ****                     generalsummarydataIndicate = wrReqParam->handleValPair.value.val[0] & 0x02;
 3473              		.loc 1 184 0
 3474 013a B24D     		ldr	r5, .L158+92
 3475 013c 201D     		adds	r0, r4, #4
 3476 013e 2533     		adds	r3, r3, #37
 3477 0140 2A00     		movs	r2, r5
 3478 0142 0021     		movs	r1, #0
 3479 0144 FFF7FEFF 		bl	CyBle_GattsWriteAttributeValue
 3480              	.LVL145:
ARM GAS  C:\Users\310309~1\AppData\Local\Temp\ccowBZ3f.s 			page 83


 185:main.c        ****                     CyBle_GattsWriteRsp(cyBle_connHandle);
 3481              		.loc 1 185 0
 3482 0148 6368     		ldr	r3, [r4, #4]
 3483 014a 1B78     		ldrb	r3, [r3]
 3484 014c 0222     		movs	r2, #2
 3485 014e 1340     		ands	r3, r2
 3486 0150 9B4A     		ldr	r2, .L158+24
 3487 0152 1360     		str	r3, [r2]
 186:main.c        ****                     DBG_PRINTF("Start/stop GENERAL ACTIVITY SUMMARY DATA Indications \r\n");
 3488              		.loc 1 186 0
 3489 0154 2B78     		ldrb	r3, [r5]
 3490 0156 6878     		ldrb	r0, [r5, #1]
 3491 0158 0002     		lsls	r0, r0, #8
 3492 015a 1843     		orrs	r0, r3
 3493 015c FFF7FEFF 		bl	CyBle_GattsWriteRsp
 3494              	.LVL146:
 187:main.c        ****                 }
 3495              		.loc 1 187 0
 3496 0160 AA48     		ldr	r0, .L158+100
 3497 0162 FFF7FEFF 		bl	puts
 3498              	.LVL147:
 3499              	.L83:
 190:main.c        ****                 {
 3500              		.loc 1 190 0
 3501 0166 A389     		ldrh	r3, [r4, #12]
 3502 0168 1F2B     		cmp	r3, #31
 3503 016a 15D1     		bne	.L84
 192:main.c        ****                     cardiorespiratoryactivityinstantaneousdataNotify = wrReqParam->handleValPair.va
 3504              		.loc 1 192 0
 3505 016c A54D     		ldr	r5, .L158+92
 3506 016e 201D     		adds	r0, r4, #4
 3507 0170 2133     		adds	r3, r3, #33
 3508 0172 2A00     		movs	r2, r5
 3509 0174 0021     		movs	r1, #0
 3510 0176 FFF7FEFF 		bl	CyBle_GattsWriteAttributeValue
 3511              	.LVL148:
 193:main.c        ****                     CyBle_GattsWriteRsp(cyBle_connHandle);
 3512              		.loc 1 193 0
 3513 017a 6368     		ldr	r3, [r4, #4]
 3514 017c 1B78     		ldrb	r3, [r3]
 3515 017e 0122     		movs	r2, #1
 3516 0180 1340     		ands	r3, r2
 3517 0182 904A     		ldr	r2, .L158+28
 3518 0184 1360     		str	r3, [r2]
 194:main.c        ****                     DBG_PRINTF("Start/stop CARDIORESPIRATORY ACTIVITY INSTANTANEOUS DATA Notificati
 3519              		.loc 1 194 0
 3520 0186 2B78     		ldrb	r3, [r5]
 3521 0188 6878     		ldrb	r0, [r5, #1]
 3522 018a 0002     		lsls	r0, r0, #8
 3523 018c 1843     		orrs	r0, r3
 3524 018e FFF7FEFF 		bl	CyBle_GattsWriteRsp
 3525              	.LVL149:
 195:main.c        ****                 }
 3526              		.loc 1 195 0
 3527 0192 9F48     		ldr	r0, .L158+104
 3528 0194 FFF7FEFF 		bl	puts
 3529              	.LVL150:
ARM GAS  C:\Users\310309~1\AppData\Local\Temp\ccowBZ3f.s 			page 84


 3530              	.L84:
 198:main.c        ****                 {
 3531              		.loc 1 198 0
 3532 0198 A389     		ldrh	r3, [r4, #12]
 3533 019a 232B     		cmp	r3, #35
 3534 019c 15D1     		bne	.L85
 200:main.c        ****                     cardiorespiratoryactivitysummarydataIndicate = wrReqParam->handleValPair.value.
 3535              		.loc 1 200 0
 3536 019e 994D     		ldr	r5, .L158+92
 3537 01a0 201D     		adds	r0, r4, #4
 3538 01a2 1D33     		adds	r3, r3, #29
 3539 01a4 2A00     		movs	r2, r5
 3540 01a6 0021     		movs	r1, #0
 3541 01a8 FFF7FEFF 		bl	CyBle_GattsWriteAttributeValue
 3542              	.LVL151:
 201:main.c        ****                     CyBle_GattsWriteRsp(cyBle_connHandle);
 3543              		.loc 1 201 0
 3544 01ac 6368     		ldr	r3, [r4, #4]
 3545 01ae 1B78     		ldrb	r3, [r3]
 3546 01b0 0222     		movs	r2, #2
 3547 01b2 1340     		ands	r3, r2
 3548 01b4 844A     		ldr	r2, .L158+32
 3549 01b6 1360     		str	r3, [r2]
 202:main.c        ****                     DBG_PRINTF("Start/stop CARDIORESPIRATORY ACTIVITY SUMMARY DATA Indications \r\n
 3550              		.loc 1 202 0
 3551 01b8 2B78     		ldrb	r3, [r5]
 3552 01ba 6878     		ldrb	r0, [r5, #1]
 3553 01bc 0002     		lsls	r0, r0, #8
 3554 01be 1843     		orrs	r0, r3
 3555 01c0 FFF7FEFF 		bl	CyBle_GattsWriteRsp
 3556              	.LVL152:
 203:main.c        ****                 }
 3557              		.loc 1 203 0
 3558 01c4 9348     		ldr	r0, .L158+108
 3559 01c6 FFF7FEFF 		bl	puts
 3560              	.LVL153:
 3561              	.L85:
 206:main.c        ****                 {
 3562              		.loc 1 206 0
 3563 01ca A389     		ldrh	r3, [r4, #12]
 3564 01cc 272B     		cmp	r3, #39
 3565 01ce 15D1     		bne	.L86
 208:main.c        ****                     stepcounteractivitysummarydataIndicate = wrReqParam->handleValPair.value.val[0]
 3566              		.loc 1 208 0
 3567 01d0 8C4D     		ldr	r5, .L158+92
 3568 01d2 201D     		adds	r0, r4, #4
 3569 01d4 1933     		adds	r3, r3, #25
 3570 01d6 2A00     		movs	r2, r5
 3571 01d8 0021     		movs	r1, #0
 3572 01da FFF7FEFF 		bl	CyBle_GattsWriteAttributeValue
 3573              	.LVL154:
 209:main.c        ****                     CyBle_GattsWriteRsp(cyBle_connHandle);
 3574              		.loc 1 209 0
 3575 01de 6368     		ldr	r3, [r4, #4]
 3576 01e0 1B78     		ldrb	r3, [r3]
 3577 01e2 0222     		movs	r2, #2
 3578 01e4 1340     		ands	r3, r2
ARM GAS  C:\Users\310309~1\AppData\Local\Temp\ccowBZ3f.s 			page 85


 3579 01e6 794A     		ldr	r2, .L158+36
 3580 01e8 1360     		str	r3, [r2]
 210:main.c        ****                     DBG_PRINTF("Start/stop STEP COUNTER ACTIVITY SUMMARY DATA Indications \r\n");
 3581              		.loc 1 210 0
 3582 01ea 2B78     		ldrb	r3, [r5]
 3583 01ec 6878     		ldrb	r0, [r5, #1]
 3584 01ee 0002     		lsls	r0, r0, #8
 3585 01f0 1843     		orrs	r0, r3
 3586 01f2 FFF7FEFF 		bl	CyBle_GattsWriteRsp
 3587              	.LVL155:
 211:main.c        ****                 }
 3588              		.loc 1 211 0
 3589 01f6 8848     		ldr	r0, .L158+112
 3590 01f8 FFF7FEFF 		bl	puts
 3591              	.LVL156:
 3592              	.L86:
 214:main.c        ****                 {
 3593              		.loc 1 214 0
 3594 01fc A389     		ldrh	r3, [r4, #12]
 3595 01fe 2B2B     		cmp	r3, #43
 3596 0200 15D1     		bne	.L87
 216:main.c        ****                     sleepactivityinstantaneousdataNotify = wrReqParam->handleValPair.value.val[0] &
 3597              		.loc 1 216 0
 3598 0202 804D     		ldr	r5, .L158+92
 3599 0204 201D     		adds	r0, r4, #4
 3600 0206 1533     		adds	r3, r3, #21
 3601 0208 2A00     		movs	r2, r5
 3602 020a 0021     		movs	r1, #0
 3603 020c FFF7FEFF 		bl	CyBle_GattsWriteAttributeValue
 3604              	.LVL157:
 217:main.c        ****                     CyBle_GattsWriteRsp(cyBle_connHandle);
 3605              		.loc 1 217 0
 3606 0210 6368     		ldr	r3, [r4, #4]
 3607 0212 1B78     		ldrb	r3, [r3]
 3608 0214 0122     		movs	r2, #1
 3609 0216 1340     		ands	r3, r2
 3610 0218 6D4A     		ldr	r2, .L158+40
 3611 021a 1360     		str	r3, [r2]
 218:main.c        ****                     DBG_PRINTF("Start/stop SLEEP ACTIVITY INSTANTANEOUS DATA Notifications \r\n");
 3612              		.loc 1 218 0
 3613 021c 2B78     		ldrb	r3, [r5]
 3614 021e 6878     		ldrb	r0, [r5, #1]
 3615 0220 0002     		lsls	r0, r0, #8
 3616 0222 1843     		orrs	r0, r3
 3617 0224 FFF7FEFF 		bl	CyBle_GattsWriteRsp
 3618              	.LVL158:
 219:main.c        ****                 }
 3619              		.loc 1 219 0
 3620 0228 7C48     		ldr	r0, .L158+116
 3621 022a FFF7FEFF 		bl	puts
 3622              	.LVL159:
 3623              	.L87:
 222:main.c        ****                 {
 3624              		.loc 1 222 0
 3625 022e A389     		ldrh	r3, [r4, #12]
 3626 0230 2F2B     		cmp	r3, #47
 3627 0232 15D1     		bne	.L88
ARM GAS  C:\Users\310309~1\AppData\Local\Temp\ccowBZ3f.s 			page 86


 224:main.c        ****                     sleepactivitysummarydataIndicate = wrReqParam->handleValPair.value.val[0] & 0x0
 3628              		.loc 1 224 0
 3629 0234 734D     		ldr	r5, .L158+92
 3630 0236 201D     		adds	r0, r4, #4
 3631 0238 1133     		adds	r3, r3, #17
 3632 023a 2A00     		movs	r2, r5
 3633 023c 0021     		movs	r1, #0
 3634 023e FFF7FEFF 		bl	CyBle_GattsWriteAttributeValue
 3635              	.LVL160:
 225:main.c        ****                     CyBle_GattsWriteRsp(cyBle_connHandle);
 3636              		.loc 1 225 0
 3637 0242 6368     		ldr	r3, [r4, #4]
 3638 0244 1B78     		ldrb	r3, [r3]
 3639 0246 0222     		movs	r2, #2
 3640 0248 1340     		ands	r3, r2
 3641 024a 624A     		ldr	r2, .L158+44
 3642 024c 1360     		str	r3, [r2]
 226:main.c        ****                     DBG_PRINTF("Start/stop SLEEP ACTIVITY SUMMARY DATA Indications \r\n");
 3643              		.loc 1 226 0
 3644 024e 2B78     		ldrb	r3, [r5]
 3645 0250 6878     		ldrb	r0, [r5, #1]
 3646 0252 0002     		lsls	r0, r0, #8
 3647 0254 1843     		orrs	r0, r3
 3648 0256 FFF7FEFF 		bl	CyBle_GattsWriteRsp
 3649              	.LVL161:
 227:main.c        ****                 }
 3650              		.loc 1 227 0
 3651 025a 7148     		ldr	r0, .L158+120
 3652 025c FFF7FEFF 		bl	puts
 3653              	.LVL162:
 3654              	.L88:
 230:main.c        ****                 {
 3655              		.loc 1 230 0
 3656 0260 A389     		ldrh	r3, [r4, #12]
 3657 0262 332B     		cmp	r3, #51
 3658 0264 15D1     		bne	.L89
 232:main.c        ****                     controlpointIndicate = wrReqParam->handleValPair.value.val[0] & 0x02;
 3659              		.loc 1 232 0
 3660 0266 674D     		ldr	r5, .L158+92
 3661 0268 201D     		adds	r0, r4, #4
 3662 026a 0D33     		adds	r3, r3, #13
 3663 026c 2A00     		movs	r2, r5
 3664 026e 0021     		movs	r1, #0
 3665 0270 FFF7FEFF 		bl	CyBle_GattsWriteAttributeValue
 3666              	.LVL163:
 233:main.c        ****                     CyBle_GattsWriteRsp(cyBle_connHandle);
 3667              		.loc 1 233 0
 3668 0274 6368     		ldr	r3, [r4, #4]
 3669 0276 1B78     		ldrb	r3, [r3]
 3670 0278 0222     		movs	r2, #2
 3671 027a 1340     		ands	r3, r2
 3672 027c 564A     		ldr	r2, .L158+48
 3673 027e 1360     		str	r3, [r2]
 234:main.c        ****                     DBG_PRINTF("Start/stop CONTROL POINT Indications \r\n");
 3674              		.loc 1 234 0
 3675 0280 2B78     		ldrb	r3, [r5]
 3676 0282 6878     		ldrb	r0, [r5, #1]
ARM GAS  C:\Users\310309~1\AppData\Local\Temp\ccowBZ3f.s 			page 87


 3677 0284 0002     		lsls	r0, r0, #8
 3678 0286 1843     		orrs	r0, r3
 3679 0288 FFF7FEFF 		bl	CyBle_GattsWriteRsp
 3680              	.LVL164:
 235:main.c        ****                 }
 3681              		.loc 1 235 0
 3682 028c 6548     		ldr	r0, .L158+124
 3683 028e FFF7FEFF 		bl	puts
 3684              	.LVL165:
 3685              	.L89:
 238:main.c        ****                 {
 3686              		.loc 1 238 0
 3687 0292 A389     		ldrh	r3, [r4, #12]
 3688 0294 372B     		cmp	r3, #55
 3689 0296 15D1     		bne	.L90
 240:main.c        ****                     currentsessionIndicate = wrReqParam->handleValPair.value.val[0] & 0x02;
 3690              		.loc 1 240 0
 3691 0298 5A4D     		ldr	r5, .L158+92
 3692 029a 201D     		adds	r0, r4, #4
 3693 029c 0933     		adds	r3, r3, #9
 3694 029e 2A00     		movs	r2, r5
 3695 02a0 0021     		movs	r1, #0
 3696 02a2 FFF7FEFF 		bl	CyBle_GattsWriteAttributeValue
 3697              	.LVL166:
 241:main.c        ****                     CyBle_GattsWriteRsp(cyBle_connHandle);
 3698              		.loc 1 241 0
 3699 02a6 6368     		ldr	r3, [r4, #4]
 3700 02a8 1B78     		ldrb	r3, [r3]
 3701 02aa 0222     		movs	r2, #2
 3702 02ac 1340     		ands	r3, r2
 3703 02ae 4B4A     		ldr	r2, .L158+52
 3704 02b0 1360     		str	r3, [r2]
 242:main.c        ****                     DBG_PRINTF("Start/stop CURRENT SESSION Indications \r\n");
 3705              		.loc 1 242 0
 3706 02b2 2B78     		ldrb	r3, [r5]
 3707 02b4 6878     		ldrb	r0, [r5, #1]
 3708 02b6 0002     		lsls	r0, r0, #8
 3709 02b8 1843     		orrs	r0, r3
 3710 02ba FFF7FEFF 		bl	CyBle_GattsWriteRsp
 3711              	.LVL167:
 243:main.c        ****                 }
 3712              		.loc 1 243 0
 3713 02be 5A48     		ldr	r0, .L158+128
 3714 02c0 FFF7FEFF 		bl	puts
 3715              	.LVL168:
 3716              	.L90:
 246:main.c        ****                 {
 3717              		.loc 1 246 0
 3718 02c4 A389     		ldrh	r3, [r4, #12]
 3719 02c6 3B2B     		cmp	r3, #59
 3720 02c8 15D1     		bne	.L91
 248:main.c        ****                     sessionDescriptorIndicate = wrReqParam->handleValPair.value.val[0] & 0x02;
 3721              		.loc 1 248 0
 3722 02ca 4E4D     		ldr	r5, .L158+92
 3723 02cc 201D     		adds	r0, r4, #4
 3724 02ce 0533     		adds	r3, r3, #5
 3725 02d0 2A00     		movs	r2, r5
ARM GAS  C:\Users\310309~1\AppData\Local\Temp\ccowBZ3f.s 			page 88


 3726 02d2 0021     		movs	r1, #0
 3727 02d4 FFF7FEFF 		bl	CyBle_GattsWriteAttributeValue
 3728              	.LVL169:
 249:main.c        ****                     CyBle_GattsWriteRsp(cyBle_connHandle);
 3729              		.loc 1 249 0
 3730 02d8 6368     		ldr	r3, [r4, #4]
 3731 02da 1B78     		ldrb	r3, [r3]
 3732 02dc 0222     		movs	r2, #2
 3733 02de 1340     		ands	r3, r2
 3734 02e0 3F4A     		ldr	r2, .L158+56
 3735 02e2 1370     		strb	r3, [r2]
 250:main.c        ****                     DBG_PRINTF("Start/stop SESSION DESCRIPTOR Indications \r\n");
 3736              		.loc 1 250 0
 3737 02e4 2B78     		ldrb	r3, [r5]
 3738 02e6 6878     		ldrb	r0, [r5, #1]
 3739 02e8 0002     		lsls	r0, r0, #8
 3740 02ea 1843     		orrs	r0, r3
 3741 02ec FFF7FEFF 		bl	CyBle_GattsWriteRsp
 3742              	.LVL170:
 251:main.c        ****                 }
 3743              		.loc 1 251 0
 3744 02f0 4E48     		ldr	r0, .L158+132
 3745 02f2 FFF7FEFF 		bl	puts
 3746              	.LVL171:
 3747              	.L91:
 256:main.c        ****                 {
 3748              		.loc 1 256 0
 3749 02f6 A389     		ldrh	r3, [r4, #12]
 3750 02f8 322B     		cmp	r3, #50
 3751 02fa 01D0     		beq	.LCB3563
 3752 02fc 00F0E8FB 		bl	.L68	@far jump
 3753              	.LCB3563:
 3754              	.LBB16:
 258:main.c        ****                     CYBLE_GATTS_ERR_PARAM_T err;
 3755              		.loc 1 258 0
 3756 0300 201D     		adds	r0, r4, #4
 3757 0302 0E33     		adds	r3, r3, #14
 3758 0304 3F4A     		ldr	r2, .L158+92
 3759 0306 0021     		movs	r1, #0
 3760 0308 FFF7FEFF 		bl	CyBle_GattsWriteAttributeValue
 3761              	.LVL172:
 260:main.c        ****                     err.opcode = CYBLE_GATT_WRITE_REQ;
 3762              		.loc 1 260 0
 3763 030c A289     		ldrh	r2, [r4, #12]
 3764 030e 06AB     		add	r3, sp, #24
 3765 0310 1A80     		strh	r2, [r3]
 261:main.c        ****                     
 3766              		.loc 1 261 0
 3767 0312 1222     		movs	r2, #18
 3768 0314 9A70     		strb	r2, [r3, #2]
 263:main.c        ****                     
 3769              		.loc 1 263 0
 3770 0316 6368     		ldr	r3, [r4, #4]
 3771 0318 1978     		ldrb	r1, [r3]
 3772 031a 4548     		ldr	r0, .L158+136
 3773 031c FFF7FEFF 		bl	printf
 3774              	.LVL173:
ARM GAS  C:\Users\310309~1\AppData\Local\Temp\ccowBZ3f.s 			page 89


 265:main.c        ****                     {
 3775              		.loc 1 265 0
 3776 0320 6268     		ldr	r2, [r4, #4]
 3777 0322 1378     		ldrb	r3, [r2]
 3778 0324 072B     		cmp	r3, #7
 3779 0326 00D9     		bls	.LCB3585
 3780 0328 BDE3     		b	.L92	@long jump
 3781              	.LCB3585:
 3782 032a 9B00     		lsls	r3, r3, #2
 3783 032c 4149     		ldr	r1, .L158+140
 3784 032e CB58     		ldr	r3, [r1, r3]
 3785 0330 9F46     		mov	pc, r3
 3786              		.section	.rodata
 3787              		.align	2
 3788              	.L94:
 3789 0170 A60A0000 		.word	.L92
 3790 0174 32030000 		.word	.L93
 3791 0178 90030000 		.word	.L95
 3792 017c 00050000 		.word	.L96
 3793 0180 FC060000 		.word	.L97
 3794 0184 9A080000 		.word	.L98
 3795 0188 E8080000 		.word	.L99
 3796 018c 92090000 		.word	.L100
 3797              		.section	.text.BleEventHandler
 3798              	.L93:
 269:main.c        ****                             if(!controlpointIndicate || !sessionDescriptorIndicate)
 3799              		.loc 1 269 0
 3800 0332 4148     		ldr	r0, .L158+144
 3801 0334 FFF7FEFF 		bl	puts
 3802              	.LVL174:
 270:main.c        ****                             {
 3803              		.loc 1 270 0
 3804 0338 274B     		ldr	r3, .L158+48
 3805 033a 1B68     		ldr	r3, [r3]
 3806 033c 002B     		cmp	r3, #0
 3807 033e 03D0     		beq	.L101
 270:main.c        ****                             {
 3808              		.loc 1 270 0 is_stmt 0 discriminator 1
 3809 0340 274B     		ldr	r3, .L158+56
 3810 0342 1B78     		ldrb	r3, [r3]
 3811 0344 002B     		cmp	r3, #0
 3812 0346 0DD1     		bne	.L102
 3813              	.L101:
 272:main.c        ****                                 err.errorCode = CYBLE_GATT_ERR_CCCD_IMPROPERLY_CONFIGURED;
 3814              		.loc 1 272 0 is_stmt 1
 3815 0348 3C48     		ldr	r0, .L158+148
 3816 034a FFF7FEFF 		bl	puts
 3817              	.LVL175:
 273:main.c        ****                                 (void)CyBle_GattsErrorRsp(cyBle_connHandle, &err);
 3818              		.loc 1 273 0
 3819 034e 06A9     		add	r1, sp, #24
 3820 0350 FD23     		movs	r3, #253
 3821 0352 CB70     		strb	r3, [r1, #3]
 274:main.c        ****                                 return;
 3822              		.loc 1 274 0
 3823 0354 2B4A     		ldr	r2, .L158+92
 3824 0356 1378     		ldrb	r3, [r2]
ARM GAS  C:\Users\310309~1\AppData\Local\Temp\ccowBZ3f.s 			page 90


 3825 0358 5078     		ldrb	r0, [r2, #1]
 3826 035a 0002     		lsls	r0, r0, #8
 3827 035c 1843     		orrs	r0, r3
 3828 035e FFF7FEFF 		bl	CyBle_GattsErrorRsp
 3829              	.LVL176:
 275:main.c        ****                                 
 3830              		.loc 1 275 0
 3831 0362 B5E3     		b	.L68
 3832              	.L102:
 278:main.c        ****                             {
 3833              		.loc 1 278 0
 3834 0364 364B     		ldr	r3, .L158+152
 3835 0366 1B88     		ldrh	r3, [r3]
 3836 0368 002B     		cmp	r3, #0
 3837 036a 03D0     		beq	.L104
 280:main.c        ****                             }
 3838              		.loc 1 280 0
 3839 036c 0122     		movs	r2, #1
 3840 036e 354B     		ldr	r3, .L158+156
 3841 0370 1A80     		strh	r2, [r3]
 289:main.c        ****                         }
 3842              		.loc 1 289 0
 3843 0372 A6E3     		b	.L105
 3844              	.L104:
 284:main.c        ****                                 err.errorCode = ERR_NO_SESSIONS_AVAILABLE;
 3845              		.loc 1 284 0
 3846 0374 3448     		ldr	r0, .L158+160
 3847 0376 FFF7FEFF 		bl	puts
 3848              	.LVL177:
 285:main.c        ****                                 (void)CyBle_GattsErrorRsp(cyBle_connHandle, &err);
 3849              		.loc 1 285 0
 3850 037a 06A9     		add	r1, sp, #24
 3851 037c 8523     		movs	r3, #133
 3852 037e CB70     		strb	r3, [r1, #3]
 286:main.c        ****                                 return;
 3853              		.loc 1 286 0
 3854 0380 204A     		ldr	r2, .L158+92
 3855 0382 1378     		ldrb	r3, [r2]
 3856 0384 5078     		ldrb	r0, [r2, #1]
 3857 0386 0002     		lsls	r0, r0, #8
 3858 0388 1843     		orrs	r0, r3
 3859 038a FFF7FEFF 		bl	CyBle_GattsErrorRsp
 3860              	.LVL178:
 287:main.c        ****                             }
 3861              		.loc 1 287 0
 3862 038e 9FE3     		b	.L68
 3863              	.L95:
 3864              	.LVL179:
 3865              	.LBB17:
 294:main.c        ****                                 else if(wrReqParam->handleValPair.value.val[1] == 0) { subSessionID
 3866              		.loc 1 294 0
 3867 0390 9378     		ldrb	r3, [r2, #2]
 3868 0392 002B     		cmp	r3, #0
 3869 0394 01D1     		bne	.L106
 294:main.c        ****                                 else if(wrReqParam->handleValPair.value.val[1] == 0) { subSessionID
 3870              		.loc 1 294 0 is_stmt 0 discriminator 1
 3871 0396 5478     		ldrb	r4, [r2, #1]
ARM GAS  C:\Users\310309~1\AppData\Local\Temp\ccowBZ3f.s 			page 91


 3872              	.LVL180:
 3873 0398 5BE0     		b	.L107
 3874              	.LVL181:
 3875              	.L106:
 295:main.c        ****                                 else { subSessionIDBuffer = wrReqParam->handleValPair.value.val[2] 
 3876              		.loc 1 295 0 is_stmt 1
 3877 039a 5278     		ldrb	r2, [r2, #1]
 3878 039c 002A     		cmp	r2, #0
 3879 039e 55D1     		bne	.L108
 295:main.c        ****                                 else { subSessionIDBuffer = wrReqParam->handleValPair.value.val[2] 
 3880              		.loc 1 295 0 is_stmt 0 discriminator 1
 3881 03a0 FF24     		movs	r4, #255
 3882              	.LVL182:
 3883 03a2 5C43     		muls	r4, r3
 3884              	.LVL183:
 3885 03a4 55E0     		b	.L107
 3886              	.L159:
 3887 03a6 C046     		.align	2
 3888              	.L158:
 3889 03a8 1C000000 		.word	.L71
 3890 03ac 10000000 		.word	.LC85
 3891 03b0 30000000 		.word	.LC87
 3892 03b4 38000000 		.word	.LC89
 3893 03b8 3C000000 		.word	.LC91
 3894 03bc 00000000 		.word	generalinstantaneousdataNotify
 3895 03c0 00000000 		.word	generalsummarydataIndicate
 3896 03c4 00000000 		.word	cardiorespiratoryactivityinstantaneousdataNotify
 3897 03c8 00000000 		.word	cardiorespiratoryactivitysummarydataIndicate
 3898 03cc 00000000 		.word	stepcounteractivitysummarydataIndicate
 3899 03d0 00000000 		.word	sleepactivityinstantaneousdataNotify
 3900 03d4 00000000 		.word	sleepactivitysummarydataIndicate
 3901 03d8 00000000 		.word	controlpointIndicate
 3902 03dc 00000000 		.word	currentsessionIndicate
 3903 03e0 00000000 		.word	sessionDescriptorIndicate
 3904 03e4 60000000 		.word	.LC103
 3905 03e8 84000000 		.word	.LC105
 3906 03ec 00000000 		.word	cyBle_state
 3907 03f0 B0000000 		.word	.LC108
 3908 03f4 CC000000 		.word	.LC110
 3909 03f8 08010000 		.word	.LC112
 3910 03fc 2C010000 		.word	.LC114
 3911 0400 64010000 		.word	.LC116
 3912 0404 00000000 		.word	cyBle_connHandle
 3913 0408 B8010000 		.word	.LC119
 3914 040c F8010000 		.word	.LC121
 3915 0410 30020000 		.word	.LC123
 3916 0414 7C020000 		.word	.LC125
 3917 0418 C0020000 		.word	.LC127
 3918 041c FC020000 		.word	.LC129
 3919 0420 3C030000 		.word	.LC131
 3920 0424 74030000 		.word	.LC133
 3921 0428 9C030000 		.word	.LC135
 3922 042c C8030000 		.word	.LC137
 3923 0430 F4030000 		.word	.LC139
 3924 0434 70010000 		.word	.L94
 3925 0438 1C040000 		.word	.LC142
 3926 043c 30040000 		.word	.LC144
ARM GAS  C:\Users\310309~1\AppData\Local\Temp\ccowBZ3f.s 			page 92


 3927 0440 00000000 		.word	totalSessionCount
 3928 0444 00000000 		.word	Enquire_Sessions_Requested
 3929 0448 7C040000 		.word	.LC148
 3930              	.LVL184:
 3931              	.L108:
 296:main.c        ****                                 
 3932              		.loc 1 296 0 is_stmt 1
 3933 044c 1C02     		lsls	r4, r3, #8
 3934              	.LVL185:
 3935 044e A418     		adds	r4, r4, r2
 3936 0450 A4B2     		uxth	r4, r4
 3937              	.LVL186:
 3938              	.L107:
 298:main.c        ****                             
 3939              		.loc 1 298 0
 3940 0452 2100     		movs	r1, r4
 3941 0454 CD48     		ldr	r0, .L160
 3942 0456 FFF7FEFF 		bl	printf
 3943              	.LVL187:
 300:main.c        ****                             {
 3944              		.loc 1 300 0
 3945 045a CD4B     		ldr	r3, .L160+4
 3946 045c 1B68     		ldr	r3, [r3]
 3947 045e 002B     		cmp	r3, #0
 3948 0460 03D0     		beq	.L109
 300:main.c        ****                             {
 3949              		.loc 1 300 0 is_stmt 0 discriminator 1
 3950 0462 CC4B     		ldr	r3, .L160+8
 3951 0464 1B78     		ldrb	r3, [r3]
 3952 0466 002B     		cmp	r3, #0
 3953 0468 0DD1     		bne	.L110
 3954              	.L109:
 302:main.c        ****                                 err.errorCode = CYBLE_GATT_ERR_CCCD_IMPROPERLY_CONFIGURED;
 3955              		.loc 1 302 0 is_stmt 1
 3956 046a CB48     		ldr	r0, .L160+12
 3957 046c FFF7FEFF 		bl	puts
 3958              	.LVL188:
 303:main.c        ****                                 (void)CyBle_GattsErrorRsp(cyBle_connHandle, &err);
 3959              		.loc 1 303 0
 3960 0470 06A9     		add	r1, sp, #24
 3961 0472 FD23     		movs	r3, #253
 3962 0474 CB70     		strb	r3, [r1, #3]
 304:main.c        ****                                 return;
 3963              		.loc 1 304 0
 3964 0476 C94A     		ldr	r2, .L160+16
 3965 0478 1378     		ldrb	r3, [r2]
 3966 047a 5078     		ldrb	r0, [r2, #1]
 3967 047c 0002     		lsls	r0, r0, #8
 3968 047e 1843     		orrs	r0, r3
 3969 0480 FFF7FEFF 		bl	CyBle_GattsErrorRsp
 3970              	.LVL189:
 305:main.c        ****                             }
 3971              		.loc 1 305 0
 3972 0484 24E3     		b	.L68
 3973              	.L110:
 307:main.c        ****                             {
 3974              		.loc 1 307 0
ARM GAS  C:\Users\310309~1\AppData\Local\Temp\ccowBZ3f.s 			page 93


 3975 0486 C64B     		ldr	r3, .L160+20
 3976 0488 1B88     		ldrh	r3, [r3]
 3977 048a 002B     		cmp	r3, #0
 3978 048c 0DD1     		bne	.L111
 309:main.c        ****                                 err.errorCode = ERR_NO_SESSIONS_AVAILABLE;
 3979              		.loc 1 309 0
 3980 048e C548     		ldr	r0, .L160+24
 3981 0490 FFF7FEFF 		bl	puts
 3982              	.LVL190:
 310:main.c        ****                                 (void)CyBle_GattsErrorRsp(cyBle_connHandle, &err);
 3983              		.loc 1 310 0
 3984 0494 06A9     		add	r1, sp, #24
 3985 0496 8523     		movs	r3, #133
 3986 0498 CB70     		strb	r3, [r1, #3]
 311:main.c        ****                                 return;
 3987              		.loc 1 311 0
 3988 049a C04A     		ldr	r2, .L160+16
 3989 049c 1378     		ldrb	r3, [r2]
 3990 049e 5078     		ldrb	r0, [r2, #1]
 3991 04a0 0002     		lsls	r0, r0, #8
 3992 04a2 1843     		orrs	r0, r3
 3993 04a4 FFF7FEFF 		bl	CyBle_GattsErrorRsp
 3994              	.LVL191:
 312:main.c        ****                             }
 3995              		.loc 1 312 0
 3996 04a8 12E3     		b	.L68
 3997              	.L111:
 3998              	.LBB18:
 316:main.c        ****                                 
 3999              		.loc 1 316 0
 4000 04aa BF4B     		ldr	r3, .L160+28
 4001 04ac 1C80     		strh	r4, [r3]
 4002              	.LVL192:
 4003              	.LBB19:
 319:main.c        ****                                 {
 4004              		.loc 1 319 0
 4005 04ae 0022     		movs	r2, #0
 4006              	.LBE19:
 318:main.c        ****                                 for(int i = 0; i < totalSubSessionCount; i++)
 4007              		.loc 1 318 0
 4008 04b0 1000     		movs	r0, r2
 4009              	.LBB20:
 319:main.c        ****                                 {
 4010              		.loc 1 319 0
 4011 04b2 0DE0     		b	.L112
 4012              	.LVL193:
 4013              	.L114:
 321:main.c        ****                                     {
 4014              		.loc 1 321 0
 4015 04b4 D300     		lsls	r3, r2, #3
 4016 04b6 9B1A     		subs	r3, r3, r2
 4017 04b8 9B00     		lsls	r3, r3, #2
 4018 04ba 9B18     		adds	r3, r3, r2
 4019 04bc BB49     		ldr	r1, .L160+32
 4020 04be CB18     		adds	r3, r1, r3
 4021 04c0 5978     		ldrb	r1, [r3, #1]
 4022 04c2 9B78     		ldrb	r3, [r3, #2]
ARM GAS  C:\Users\310309~1\AppData\Local\Temp\ccowBZ3f.s 			page 94


 4023 04c4 1B02     		lsls	r3, r3, #8
 4024 04c6 0B43     		orrs	r3, r1
 4025 04c8 9C42     		cmp	r4, r3
 4026 04ca 00D1     		bne	.L113
 323:main.c        ****                                     }
 4027              		.loc 1 323 0
 4028 04cc 0120     		movs	r0, #1
 4029              	.LVL194:
 4030              	.L113:
 319:main.c        ****                                 {
 4031              		.loc 1 319 0 discriminator 2
 4032 04ce 0132     		adds	r2, r2, #1
 4033              	.LVL195:
 4034              	.L112:
 319:main.c        ****                                 {
 4035              		.loc 1 319 0 is_stmt 0 discriminator 1
 4036 04d0 B74B     		ldr	r3, .L160+36
 4037 04d2 1B88     		ldrh	r3, [r3]
 4038 04d4 9A42     		cmp	r2, r3
 4039 04d6 EDDB     		blt	.L114
 4040              	.LBE20:
 326:main.c        ****                                 {
 4041              		.loc 1 326 0 is_stmt 1
 4042 04d8 0028     		cmp	r0, #0
 4043 04da 00D0     		beq	.LCB3855
 4044 04dc F1E2     		b	.L105	@long jump
 4045              	.LCB3855:
 328:main.c        ****                                     DBG_PRINTF("There are no Sessions with this ID thus no sub sess
 4046              		.loc 1 328 0
 4047 04de 0022     		movs	r2, #0
 4048              	.LVL196:
 4049 04e0 B14B     		ldr	r3, .L160+28
 4050 04e2 1A80     		strh	r2, [r3]
 329:main.c        ****                                     err.errorCode = ERR_INVALID_SESSION_ID;
 4051              		.loc 1 329 0
 4052 04e4 B348     		ldr	r0, .L160+40
 4053              	.LVL197:
 4054 04e6 FFF7FEFF 		bl	puts
 4055              	.LVL198:
 330:main.c        ****                                     (void)CyBle_GattsErrorRsp(cyBle_connHandle, &err);
 4056              		.loc 1 330 0
 4057 04ea 06A9     		add	r1, sp, #24
 4058 04ec 8123     		movs	r3, #129
 4059 04ee CB70     		strb	r3, [r1, #3]
 331:main.c        ****                                     return;
 4060              		.loc 1 331 0
 4061 04f0 AA4A     		ldr	r2, .L160+16
 4062 04f2 1378     		ldrb	r3, [r2]
 4063 04f4 5078     		ldrb	r0, [r2, #1]
 4064 04f6 0002     		lsls	r0, r0, #8
 4065 04f8 1843     		orrs	r0, r3
 4066 04fa FFF7FEFF 		bl	CyBle_GattsErrorRsp
 4067              	.LVL199:
 332:main.c        ****                                 }
 4068              		.loc 1 332 0
 4069 04fe E7E2     		b	.L68
 4070              	.LVL200:
ARM GAS  C:\Users\310309~1\AppData\Local\Temp\ccowBZ3f.s 			page 95


 4071              	.L96:
 4072              	.LBE18:
 4073              	.LBE17:
 339:main.c        ****                         {
 4074              		.loc 1 339 0
 4075 0500 A34B     		ldr	r3, .L160+4
 4076 0502 1B68     		ldr	r3, [r3]
 4077 0504 002B     		cmp	r3, #0
 4078 0506 0DD1     		bne	.L115
 341:main.c        ****                             err.errorCode = CYBLE_GATT_ERR_CCCD_IMPROPERLY_CONFIGURED;
 4079              		.loc 1 341 0
 4080 0508 AB48     		ldr	r0, .L160+44
 4081 050a FFF7FEFF 		bl	puts
 4082              	.LVL201:
 342:main.c        ****                             (void)CyBle_GattsErrorRsp(cyBle_connHandle, &err);
 4083              		.loc 1 342 0
 4084 050e 06A9     		add	r1, sp, #24
 4085 0510 FD23     		movs	r3, #253
 4086 0512 CB70     		strb	r3, [r1, #3]
 343:main.c        ****                             return;
 4087              		.loc 1 343 0
 4088 0514 A14A     		ldr	r2, .L160+16
 4089 0516 1378     		ldrb	r3, [r2]
 4090 0518 5078     		ldrb	r0, [r2, #1]
 4091 051a 0002     		lsls	r0, r0, #8
 4092 051c 1843     		orrs	r0, r3
 4093 051e FFF7FEFF 		bl	CyBle_GattsErrorRsp
 4094              	.LVL202:
 344:main.c        ****                         }
 4095              		.loc 1 344 0
 4096 0522 D5E2     		b	.L68
 4097              	.L115:
 346:main.c        ****                         {
 4098              		.loc 1 346 0
 4099 0524 9E4B     		ldr	r3, .L160+20
 4100 0526 1888     		ldrh	r0, [r3]
 4101 0528 0028     		cmp	r0, #0
 4102 052a 0DD1     		bne	.L116
 348:main.c        ****                             err.errorCode = ERR_NO_SESSIONS_AVAILABLE;
 4103              		.loc 1 348 0
 4104 052c 9D48     		ldr	r0, .L160+24
 4105 052e FFF7FEFF 		bl	puts
 4106              	.LVL203:
 349:main.c        ****                             (void)CyBle_GattsErrorRsp(cyBle_connHandle, &err);
 4107              		.loc 1 349 0
 4108 0532 06A9     		add	r1, sp, #24
 4109 0534 8523     		movs	r3, #133
 4110 0536 CB70     		strb	r3, [r1, #3]
 350:main.c        ****                         }
 4111              		.loc 1 350 0
 4112 0538 984A     		ldr	r2, .L160+16
 4113 053a 1378     		ldrb	r3, [r2]
 4114 053c 5078     		ldrb	r0, [r2, #1]
 4115 053e 0002     		lsls	r0, r0, #8
 4116 0540 1843     		orrs	r0, r3
 4117 0542 FFF7FEFF 		bl	CyBle_GattsErrorRsp
 4118              	.LVL204:
ARM GAS  C:\Users\310309~1\AppData\Local\Temp\ccowBZ3f.s 			page 96


 4119 0546 BCE2     		b	.L105
 4120              	.L116:
 352:main.c        ****                         {
 4121              		.loc 1 352 0
 4122 0548 5579     		ldrb	r5, [r2, #5]
 4123 054a 062D     		cmp	r5, #6
 4124 054c 0DD9     		bls	.L117
 354:main.c        ****                             err.errorCode = CYBLE_GATT_ERR_OP_CODE_NOT_SUPPORTED;
 4125              		.loc 1 354 0
 4126 054e 9B48     		ldr	r0, .L160+48
 4127 0550 FFF7FEFF 		bl	puts
 4128              	.LVL205:
 355:main.c        ****                             CyBle_GattsErrorRsp(cyBle_connHandle, &err);
 4129              		.loc 1 355 0
 4130 0554 06A9     		add	r1, sp, #24
 4131 0556 8023     		movs	r3, #128
 4132 0558 CB70     		strb	r3, [r1, #3]
 356:main.c        ****                             return;
 4133              		.loc 1 356 0
 4134 055a 904A     		ldr	r2, .L160+16
 4135 055c 1378     		ldrb	r3, [r2]
 4136 055e 5078     		ldrb	r0, [r2, #1]
 4137 0560 0002     		lsls	r0, r0, #8
 4138 0562 1843     		orrs	r0, r3
 4139 0564 FFF7FEFF 		bl	CyBle_GattsErrorRsp
 4140              	.LVL206:
 357:main.c        ****                         }
 4141              		.loc 1 357 0
 4142 0568 B2E2     		b	.L68
 4143              	.L117:
 4144              	.LVL207:
 4145              	.LBB21:
 363:main.c        ****                             else if(wrReqParam->handleValPair.value.val[1] == 0) { Get_Ended_Data_S
 4146              		.loc 1 363 0
 4147 056a 9378     		ldrb	r3, [r2, #2]
 4148 056c 002B     		cmp	r3, #0
 4149 056e 03D1     		bne	.L118
 363:main.c        ****                             else if(wrReqParam->handleValPair.value.val[1] == 0) { Get_Ended_Data_S
 4150              		.loc 1 363 0 is_stmt 0 discriminator 1
 4151 0570 5178     		ldrb	r1, [r2, #1]
 4152 0572 934B     		ldr	r3, .L160+52
 4153 0574 1980     		strh	r1, [r3]
 4154 0576 0BE0     		b	.L119
 4155              	.L118:
 364:main.c        ****                             else { Get_Ended_Data_SessionID = wrReqParam->handleValPair.value.val[2
 4156              		.loc 1 364 0 is_stmt 1
 4157 0578 5178     		ldrb	r1, [r2, #1]
 4158 057a 0029     		cmp	r1, #0
 4159 057c 04D1     		bne	.L120
 364:main.c        ****                             else { Get_Ended_Data_SessionID = wrReqParam->handleValPair.value.val[2
