ARM GAS  C:\Users\310309~1\AppData\Local\Temp\cc9D0Y1S.s 			page 1


   1              		.syntax unified
   2              		.cpu cortex-m0
   3              		.fpu softvfp
   4              		.eabi_attribute 20, 1
   5              		.eabi_attribute 21, 1
   6              		.eabi_attribute 23, 3
   7              		.eabi_attribute 24, 1
   8              		.eabi_attribute 25, 1
   9              		.eabi_attribute 26, 1
  10              		.eabi_attribute 30, 1
  11              		.eabi_attribute 34, 0
  12              		.eabi_attribute 18, 4
  13              		.thumb
  14              		.syntax unified
  15              		.file	"pamCraid.c"
  16              		.text
  17              	.Ltext0:
  18              		.cfi_sections	.debug_frame
  19              		.section	.text.getPresentCraidFields,"ax",%progbits
  20              		.align	2
  21              		.global	getPresentCraidFields
  22              		.code	16
  23              		.thumb_func
  24              		.type	getPresentCraidFields, %function
  25              	getPresentCraidFields:
  26              	.LFB37:
  27              		.file 1 "pamCraid.c"
   1:pamCraid.c    **** /* ========================================
   2:pamCraid.c    ****  *
   3:pamCraid.c    ****  * Copyright YOUR COMPANY, THE YEAR
   4:pamCraid.c    ****  * All Rights Reserved
   5:pamCraid.c    ****  * UNPUBLISHED, LICENSED SOFTWARE.
   6:pamCraid.c    ****  *
   7:pamCraid.c    ****  * CONFIDENTIAL AND PROPRIETARY INFORMATION
   8:pamCraid.c    ****  * WHICH IS THE PROPERTY OF your company.
   9:pamCraid.c    ****  *
  10:pamCraid.c    ****  * ========================================
  11:pamCraid.c    **** */
  12:pamCraid.c    **** 
  13:pamCraid.c    **** #include "pamCraid.h"
  14:pamCraid.c    **** 
  15:pamCraid.c    **** void UpdateCraid(void)
  16:pamCraid.c    **** {
  17:pamCraid.c    ****     CYBLE_GATTS_HANDLE_VALUE_NTF_T tempHandle;
  18:pamCraid.c    ****     
  19:pamCraid.c    ****     tempHandle.attrHandle = CYBLE_PHYSICAL_ACTIVITY_MONITOR_CARDIORESPIRATORY_ACTIVITY_INSTANTANEOU
  20:pamCraid.c    ****     tempHandle.value.val = (uint8 *)&CraiData;
  21:pamCraid.c    ****     tempHandle.value.len = sizeof(CraiData);
  22:pamCraid.c    ****     CyBle_GattsWriteAttributeValue(&tempHandle, 0, &cyBle_connHandle, 0);
  23:pamCraid.c    ****     
  24:pamCraid.c    ****     if(cardiorespiratoryactivityinstantaneousdataNotify)
  25:pamCraid.c    ****     {
  26:pamCraid.c    ****         uint8 PresentData[sizeof(CraiData)];
  27:pamCraid.c    ****         
  28:pamCraid.c    ****         uint8 presentDataLength = getPresentCraidFields(PresentData);
  29:pamCraid.c    ****         DBG_PRINTF("CARDIORESPIRATOTY ACTIVITY INSTANTANEOUS DATA presentdatalength = %i\r\n", pres
  30:pamCraid.c    ****         uint8 N = calculateNumberOfMessages(presentDataLength);
ARM GAS  C:\Users\310309~1\AppData\Local\Temp\cc9D0Y1S.s 			page 2


  31:pamCraid.c    ****         DBG_PRINTF("CARDIORESPIRATOTY ACTIVITY INSTANTANEOUS DATA N = %i\r\n", N);
  32:pamCraid.c    ****         
  33:pamCraid.c    ****         uint8 byteCount = 1u;//Starts at 1 because 0 is the header field
  34:pamCraid.c    ****         
  35:pamCraid.c    ****         CyBle_Set16ByPtr(&PresentData[byteCount], CraiData.Flags);
  36:pamCraid.c    ****         byteCount += sizeof(CraiData.Flags);
  37:pamCraid.c    ****         
  38:pamCraid.c    ****         CyBle_Set16ByPtr(&PresentData[byteCount], CraiData.SessionID);
  39:pamCraid.c    ****         byteCount += sizeof(CraiData.SessionID);
  40:pamCraid.c    ****         
  41:pamCraid.c    ****         CyBle_Set16ByPtr(&PresentData[byteCount], CraiData.SubSessionID);
  42:pamCraid.c    ****         byteCount += sizeof(CraiData.SubSessionID);
  43:pamCraid.c    ****         
  44:pamCraid.c    ****         CyBle_Set32ByPtr(&PresentData[byteCount], CraiData.RelativeTimestamp);
  45:pamCraid.c    ****         byteCount += sizeof(CraiData.RelativeTimestamp);
  46:pamCraid.c    ****         
  47:pamCraid.c    ****         CyBle_Set32ByPtr(&PresentData[byteCount], CraiData.SequenceNumber);
  48:pamCraid.c    ****         byteCount += sizeof(CraiData.SequenceNumber);
  49:pamCraid.c    ****         //size = 15
  50:pamCraid.c    ****         
  51:pamCraid.c    ****         char* my_struct_in_bytes = (char*)(&PresentData);
  52:pamCraid.c    ****         
  53:pamCraid.c    ****         uint8 Message[PAM_MAX_MESSAGE_DATA_SIZE + HEADER_SIZE];
  54:pamCraid.c    ****         uint8 MessageSize = 0;
  55:pamCraid.c    ****         
  56:pamCraid.c    ****         
  57:pamCraid.c    ****         for(uint8 x = 0; x < N; x++)
  58:pamCraid.c    ****         {
  59:pamCraid.c    ****             if(x == 0)
  60:pamCraid.c    ****             {
  61:pamCraid.c    ****                 Message[0] = 0x80 + N - 1;
  62:pamCraid.c    ****             }
  63:pamCraid.c    ****             else
  64:pamCraid.c    ****             {
  65:pamCraid.c    ****                 Message[0] = 0x00 + N - 1 - x;
  66:pamCraid.c    ****             }
  67:pamCraid.c    ****             
  68:pamCraid.c    ****             
  69:pamCraid.c    ****             for(uint8 i = 1; i < PAM_MAX_MESSAGE_DATA_SIZE + HEADER_SIZE; i++)
  70:pamCraid.c    ****             {
  71:pamCraid.c    ****                 if((x * PAM_MAX_MESSAGE_DATA_SIZE + i) < presentDataLength)
  72:pamCraid.c    ****                 {
  73:pamCraid.c    ****                     Message[i] = my_struct_in_bytes[i + x * PAM_MAX_MESSAGE_DATA_SIZE];
  74:pamCraid.c    ****                     MessageSize = i + HEADER_SIZE;
  75:pamCraid.c    ****                 }
  76:pamCraid.c    ****             }
  77:pamCraid.c    ****             ble_SendNotification(CYBLE_PHYSICAL_ACTIVITY_MONITOR_CARDIORESPIRATORY_ACTIVITY_INSTANT
  78:pamCraid.c    ****         }
  79:pamCraid.c    ****     }
  80:pamCraid.c    **** }
  81:pamCraid.c    **** 
  82:pamCraid.c    **** 
  83:pamCraid.c    **** uint8 getPresentCraidFields(uint8 *PresentData)
  84:pamCraid.c    **** {
  28              		.loc 1 84 0
  29              		.cfi_startproc
  30              		@ args = 0, pretend = 0, frame = 0
ARM GAS  C:\Users\310309~1\AppData\Local\Temp\cc9D0Y1S.s 			page 3


  31              		@ frame_needed = 0, uses_anonymous_args = 0
  32              	.LVL0:
  33 0000 70B5     		push	{r4, r5, r6, lr}
  34              		.cfi_def_cfa_offset 16
  35              		.cfi_offset 4, -16
  36              		.cfi_offset 5, -12
  37              		.cfi_offset 6, -8
  38              		.cfi_offset 14, -4
  39 0002 0500     		movs	r5, r0
  40              	.LVL1:
  85:pamCraid.c    ****     uint8 length = ALWAYS_PRESENT_CRAID_FIELD_LENGTH;
  86:pamCraid.c    ****     
  87:pamCraid.c    ****     if(CHECK_BIT(CraiData.Flags, 1/*VO2MAX PRESENT*/) &&
  41              		.loc 1 87 0
  42 0004 344B     		ldr	r3, .L18
  43 0006 5B78     		ldrb	r3, [r3, #1]
  44 0008 9B07     		lsls	r3, r3, #30
  45 000a 08D5     		bpl	.L16
  88:pamCraid.c    ****        CHECK_BIT(pamFeature, VO2_MAX_SUPPORTED))
  46              		.loc 1 88 0 discriminator 1
  47 000c 334B     		ldr	r3, .L18+4
  48 000e 1B68     		ldr	r3, [r3]
  87:pamCraid.c    ****        CHECK_BIT(pamFeature, VO2_MAX_SUPPORTED))
  49              		.loc 1 87 0 discriminator 1
  50 0010 5B00     		lsls	r3, r3, #1
  51 0012 06D5     		bpl	.L17
  89:pamCraid.c    ****     {
  90:pamCraid.c    ****         PresentData[length] = CraiData.VO2Max;
  52              		.loc 1 90 0 discriminator 1
  53 0014 304B     		ldr	r3, .L18
  54 0016 DB7B     		ldrb	r3, [r3, #15]
  55 0018 C373     		strb	r3, [r0, #15]
  56              	.LVL2:
  91:pamCraid.c    ****         length += sizeof(CraiData.VO2Max);
  57              		.loc 1 91 0 discriminator 1
  58 001a 1024     		movs	r4, #16
  59 001c 02E0     		b	.L2
  60              	.LVL3:
  61              	.L16:
  85:pamCraid.c    ****     
  62              		.loc 1 85 0
  63 001e 0F24     		movs	r4, #15
  64 0020 00E0     		b	.L2
  65              	.L17:
  66 0022 0F24     		movs	r4, #15
  67              	.LVL4:
  68              	.L2:
  92:pamCraid.c    ****     }
  93:pamCraid.c    ****     if(CHECK_BIT(CraiData.Flags, 1/*Heart rate Present*/) &&
  69              		.loc 1 93 0
  70 0024 2C4B     		ldr	r3, .L18
  71 0026 5B78     		ldrb	r3, [r3, #1]
  72 0028 9B07     		lsls	r3, r3, #30
  73 002a 08D5     		bpl	.L4
  94:pamCraid.c    ****        CHECK_BIT(pamFeature, HEART_RATE_SUPPORTED))
  74              		.loc 1 94 0 discriminator 1
  75 002c 2B4B     		ldr	r3, .L18+4
ARM GAS  C:\Users\310309~1\AppData\Local\Temp\cc9D0Y1S.s 			page 4


  76 002e 1B68     		ldr	r3, [r3]
  93:pamCraid.c    ****        CHECK_BIT(pamFeature, HEART_RATE_SUPPORTED))
  77              		.loc 1 93 0 discriminator 1
  78 0030 002B     		cmp	r3, #0
  79 0032 04DA     		bge	.L4
  95:pamCraid.c    ****     {
  96:pamCraid.c    ****         PresentData[length] = CraiData.HeartRate;
  80              		.loc 1 96 0 discriminator 1
  81 0034 284B     		ldr	r3, .L18
  82 0036 1B7C     		ldrb	r3, [r3, #16]
  83 0038 2B55     		strb	r3, [r5, r4]
  97:pamCraid.c    ****         length += sizeof(CraiData.HeartRate);
  84              		.loc 1 97 0 discriminator 1
  85 003a 0134     		adds	r4, r4, #1
  86              	.LVL5:
  87 003c E4B2     		uxtb	r4, r4
  88              	.LVL6:
  89              	.L4:
  98:pamCraid.c    ****     }
  99:pamCraid.c    ****     if(CHECK_BIT(CraiData.Flags, 1/*Pulse Inter Beat Interval present*/) &&
  90              		.loc 1 99 0
  91 003e 264B     		ldr	r3, .L18
  92 0040 5B78     		ldrb	r3, [r3, #1]
  93 0042 9B07     		lsls	r3, r3, #30
  94 0044 0DD5     		bpl	.L6
 100:pamCraid.c    ****        CHECK_BIT(pamFeature, PULSE_INTER_BEAT_INTERVAL_SUPPORTED))
  95              		.loc 1 100 0 discriminator 1
  96 0046 254B     		ldr	r3, .L18+4
  97 0048 5B68     		ldr	r3, [r3, #4]
  99:pamCraid.c    ****        CHECK_BIT(pamFeature, PULSE_INTER_BEAT_INTERVAL_SUPPORTED))
  98              		.loc 1 99 0 discriminator 1
  99 004a DB07     		lsls	r3, r3, #31
 100 004c 09D5     		bpl	.L6
 101:pamCraid.c    ****     {
 102:pamCraid.c    ****         CyBle_Set16ByPtr(&PresentData[length], CraiData.PulseInterBeatInterval);
 101              		.loc 1 102 0 discriminator 1
 102 004e 224A     		ldr	r2, .L18
 103 0050 537C     		ldrb	r3, [r2, #17]
 104 0052 917C     		ldrb	r1, [r2, #18]
 105 0054 0902     		lsls	r1, r1, #8
 106 0056 1943     		orrs	r1, r3
 107 0058 2819     		adds	r0, r5, r4
 108              	.LVL7:
 109 005a FFF7FEFF 		bl	CyBle_Set16ByPtr
 110              	.LVL8:
 103:pamCraid.c    ****         length += sizeof(CraiData.PulseInterBeatInterval);
 111              		.loc 1 103 0 discriminator 1
 112 005e 0234     		adds	r4, r4, #2
 113              	.LVL9:
 114 0060 E4B2     		uxtb	r4, r4
 115              	.LVL10:
 116              	.L6:
 104:pamCraid.c    ****     }
 105:pamCraid.c    ****     if(CHECK_BIT(CraiData.Flags, 1/*Resting heart rate present*/) &&
 117              		.loc 1 105 0
 118 0062 1D4B     		ldr	r3, .L18
 119 0064 5B78     		ldrb	r3, [r3, #1]
ARM GAS  C:\Users\310309~1\AppData\Local\Temp\cc9D0Y1S.s 			page 5


 120 0066 9B07     		lsls	r3, r3, #30
 121 0068 08D5     		bpl	.L8
 106:pamCraid.c    ****        CHECK_BIT(pamFeature, RESTING_HEART_RATE_SUPPORTED))
 122              		.loc 1 106 0 discriminator 1
 123 006a 1C4B     		ldr	r3, .L18+4
 124 006c 5B68     		ldr	r3, [r3, #4]
 105:pamCraid.c    ****        CHECK_BIT(pamFeature, RESTING_HEART_RATE_SUPPORTED))
 125              		.loc 1 105 0 discriminator 1
 126 006e 9B07     		lsls	r3, r3, #30
 127 0070 04D5     		bpl	.L8
 107:pamCraid.c    ****     {
 108:pamCraid.c    ****         PresentData[length] = CraiData.RestingHeartRate;
 128              		.loc 1 108 0 discriminator 1
 129 0072 194B     		ldr	r3, .L18
 130 0074 DB7C     		ldrb	r3, [r3, #19]
 131 0076 2B55     		strb	r3, [r5, r4]
 109:pamCraid.c    ****         length += sizeof(CraiData.RestingHeartRate);
 132              		.loc 1 109 0 discriminator 1
 133 0078 0134     		adds	r4, r4, #1
 134              	.LVL11:
 135 007a E4B2     		uxtb	r4, r4
 136              	.LVL12:
 137              	.L8:
 110:pamCraid.c    ****     }
 111:pamCraid.c    ****     if(CHECK_BIT(CraiData.Flags, 1/*Heart Rate Variability*/) &&
 138              		.loc 1 111 0
 139 007c 164B     		ldr	r3, .L18
 140 007e 5B78     		ldrb	r3, [r3, #1]
 141 0080 9B07     		lsls	r3, r3, #30
 142 0082 0DD5     		bpl	.L10
 112:pamCraid.c    ****        CHECK_BIT(pamFeature, HEART_RATE_VARIABILITY_SUPPORTED))
 143              		.loc 1 112 0 discriminator 1
 144 0084 154B     		ldr	r3, .L18+4
 145 0086 5B68     		ldr	r3, [r3, #4]
 111:pamCraid.c    ****        CHECK_BIT(pamFeature, HEART_RATE_VARIABILITY_SUPPORTED))
 146              		.loc 1 111 0 discriminator 1
 147 0088 5B07     		lsls	r3, r3, #29
 148 008a 09D5     		bpl	.L10
 113:pamCraid.c    ****     {
 114:pamCraid.c    ****         CyBle_Set16ByPtr(&PresentData[length], CraiData.HeartRateVariability);
 149              		.loc 1 114 0 discriminator 1
 150 008c 124A     		ldr	r2, .L18
 151 008e 137D     		ldrb	r3, [r2, #20]
 152 0090 517D     		ldrb	r1, [r2, #21]
 153 0092 0902     		lsls	r1, r1, #8
 154 0094 1943     		orrs	r1, r3
 155 0096 2819     		adds	r0, r5, r4
 156 0098 FFF7FEFF 		bl	CyBle_Set16ByPtr
 157              	.LVL13:
 115:pamCraid.c    ****         length += sizeof(CraiData.HeartRateVariability);
 158              		.loc 1 115 0 discriminator 1
 159 009c 0234     		adds	r4, r4, #2
 160              	.LVL14:
 161 009e E4B2     		uxtb	r4, r4
 162              	.LVL15:
 163              	.L10:
 116:pamCraid.c    ****     }
ARM GAS  C:\Users\310309~1\AppData\Local\Temp\cc9D0Y1S.s 			page 6


 117:pamCraid.c    ****     if(CHECK_BIT(CraiData.Flags, 1/*Respiration rate present*/) &&
 164              		.loc 1 117 0
 165 00a0 0D4B     		ldr	r3, .L18
 166 00a2 5B78     		ldrb	r3, [r3, #1]
 167 00a4 9B07     		lsls	r3, r3, #30
 168 00a6 08D5     		bpl	.L12
 118:pamCraid.c    ****        CHECK_BIT(pamFeature, RESPIRATION_RATE_SUPPORTED))
 169              		.loc 1 118 0 discriminator 1
 170 00a8 0C4B     		ldr	r3, .L18+4
 171 00aa 5B68     		ldr	r3, [r3, #4]
 117:pamCraid.c    ****        CHECK_BIT(pamFeature, RESPIRATION_RATE_SUPPORTED))
 172              		.loc 1 117 0 discriminator 1
 173 00ac 1B07     		lsls	r3, r3, #28
 174 00ae 04D5     		bpl	.L12
 119:pamCraid.c    ****     {
 120:pamCraid.c    ****         PresentData[length] = CraiData.RespirationRate;
 175              		.loc 1 120 0 discriminator 1
 176 00b0 094B     		ldr	r3, .L18
 177 00b2 9B7D     		ldrb	r3, [r3, #22]
 178 00b4 2B55     		strb	r3, [r5, r4]
 121:pamCraid.c    ****         length += sizeof(CraiData.RespirationRate);
 179              		.loc 1 121 0 discriminator 1
 180 00b6 0134     		adds	r4, r4, #1
 181              	.LVL16:
 182 00b8 E4B2     		uxtb	r4, r4
 183              	.LVL17:
 184              	.L12:
 122:pamCraid.c    ****     }
 123:pamCraid.c    ****     if(CHECK_BIT(CraiData.Flags, 1/*Resting Respiration rate*/) &&
 185              		.loc 1 123 0
 186 00ba 074B     		ldr	r3, .L18
 187 00bc 5B78     		ldrb	r3, [r3, #1]
 188 00be 9B07     		lsls	r3, r3, #30
 189 00c0 08D5     		bpl	.L14
 124:pamCraid.c    ****        CHECK_BIT(pamFeature, RESTING_RESPIRATION_RATE_SUPPORTED))
 190              		.loc 1 124 0 discriminator 1
 191 00c2 064B     		ldr	r3, .L18+4
 192 00c4 5B68     		ldr	r3, [r3, #4]
 123:pamCraid.c    ****        CHECK_BIT(pamFeature, RESTING_RESPIRATION_RATE_SUPPORTED))
 193              		.loc 1 123 0 discriminator 1
 194 00c6 DB06     		lsls	r3, r3, #27
 195 00c8 04D5     		bpl	.L14
 125:pamCraid.c    ****     {
 126:pamCraid.c    ****         PresentData[length] = CraiData.RestingRespirationRate;
 196              		.loc 1 126 0 discriminator 1
 197 00ca 034B     		ldr	r3, .L18
 198 00cc DB7D     		ldrb	r3, [r3, #23]
 199 00ce 2B55     		strb	r3, [r5, r4]
 127:pamCraid.c    ****         length += sizeof(CraiData.RestingRespirationRate);
 200              		.loc 1 127 0 discriminator 1
 201 00d0 0134     		adds	r4, r4, #1
 202              	.LVL18:
 203 00d2 E4B2     		uxtb	r4, r4
 204              	.LVL19:
 205              	.L14:
 128:pamCraid.c    ****     }
 129:pamCraid.c    ****     
ARM GAS  C:\Users\310309~1\AppData\Local\Temp\cc9D0Y1S.s 			page 7


 130:pamCraid.c    ****     return length;
 131:pamCraid.c    **** }
 206              		.loc 1 131 0
 207 00d4 2000     		movs	r0, r4
 208              		@ sp needed
 209              	.LVL20:
 210              	.LVL21:
 211 00d6 70BD     		pop	{r4, r5, r6, pc}
 212              	.L19:
 213              		.align	2
 214              	.L18:
 215 00d8 00000000 		.word	CraiData
 216 00dc 00000000 		.word	pamFeature
 217              		.cfi_endproc
 218              	.LFE37:
 219              		.size	getPresentCraidFields, .-getPresentCraidFields
 220              		.global	__aeabi_ui2d
 221              		.section	.text.UpdateCraid,"ax",%progbits
 222              		.align	2
 223              		.global	UpdateCraid
 224              		.code	16
 225              		.thumb_func
 226              		.type	UpdateCraid, %function
 227              	UpdateCraid:
 228              	.LFB36:
  16:pamCraid.c    ****     CYBLE_GATTS_HANDLE_VALUE_NTF_T tempHandle;
 229              		.loc 1 16 0
 230              		.cfi_startproc
 231              		@ args = 0, pretend = 0, frame = 56
 232              		@ frame_needed = 0, uses_anonymous_args = 0
 233 0000 F0B5     		push	{r4, r5, r6, r7, lr}
 234              		.cfi_def_cfa_offset 20
 235              		.cfi_offset 4, -20
 236              		.cfi_offset 5, -16
 237              		.cfi_offset 6, -12
 238              		.cfi_offset 7, -8
 239              		.cfi_offset 14, -4
 240 0002 8FB0     		sub	sp, sp, #60
 241              		.cfi_def_cfa_offset 80
  19:pamCraid.c    ****     tempHandle.value.val = (uint8 *)&CraiData;
 242              		.loc 1 19 0
 243 0004 0BA8     		add	r0, sp, #44
 244 0006 1E23     		movs	r3, #30
 245 0008 0381     		strh	r3, [r0, #8]
  20:pamCraid.c    ****     tempHandle.value.len = sizeof(CraiData);
 246              		.loc 1 20 0
 247 000a 424B     		ldr	r3, .L29
 248 000c 0B93     		str	r3, [sp, #44]
  21:pamCraid.c    ****     CyBle_GattsWriteAttributeValue(&tempHandle, 0, &cyBle_connHandle, 0);
 249              		.loc 1 21 0
 250 000e 1823     		movs	r3, #24
 251 0010 8380     		strh	r3, [r0, #4]
  22:pamCraid.c    ****     
 252              		.loc 1 22 0
 253 0012 0023     		movs	r3, #0
 254 0014 404A     		ldr	r2, .L29+4
 255 0016 0021     		movs	r1, #0
ARM GAS  C:\Users\310309~1\AppData\Local\Temp\cc9D0Y1S.s 			page 8


 256 0018 FFF7FEFF 		bl	CyBle_GattsWriteAttributeValue
 257              	.LVL22:
  24:pamCraid.c    ****     {
 258              		.loc 1 24 0
 259 001c 3F4B     		ldr	r3, .L29+8
 260 001e 1B68     		ldr	r3, [r3]
 261 0020 002B     		cmp	r3, #0
 262 0022 75D0     		beq	.L20
 263              	.LBB2:
  28:pamCraid.c    ****         DBG_PRINTF("CARDIORESPIRATOTY ACTIVITY INSTANTANEOUS DATA presentdatalength = %i\r\n", pres
 264              		.loc 1 28 0
 265 0024 05A8     		add	r0, sp, #20
 266 0026 FFF7FEFF 		bl	getPresentCraidFields
 267              	.LVL23:
 268 002a 0400     		movs	r4, r0
 269 002c 0600     		movs	r6, r0
 270              	.LVL24:
  29:pamCraid.c    ****         uint8 N = calculateNumberOfMessages(presentDataLength);
 271              		.loc 1 29 0
 272 002e 0100     		movs	r1, r0
 273 0030 3B48     		ldr	r0, .L29+12
 274              	.LVL25:
 275 0032 FFF7FEFF 		bl	printf
 276              	.LVL26:
  30:pamCraid.c    ****         DBG_PRINTF("CARDIORESPIRATOTY ACTIVITY INSTANTANEOUS DATA N = %i\r\n", N);
 277              		.loc 1 30 0
 278 0036 2000     		movs	r0, r4
 279 0038 FFF7FEFF 		bl	__aeabi_ui2d
 280              	.LVL27:
 281 003c FFF7FEFF 		bl	calculateNumberOfMessages
 282              	.LVL28:
 283 0040 0100     		movs	r1, r0
 284 0042 0700     		movs	r7, r0
 285              	.LVL29:
  31:pamCraid.c    ****         
 286              		.loc 1 31 0
 287 0044 3748     		ldr	r0, .L29+16
 288 0046 FFF7FEFF 		bl	printf
 289              	.LVL30:
  35:pamCraid.c    ****         byteCount += sizeof(CraiData.Flags);
 290              		.loc 1 35 0
 291 004a 324C     		ldr	r4, .L29
 292 004c 6378     		ldrb	r3, [r4, #1]
 293 004e A178     		ldrb	r1, [r4, #2]
 294 0050 0902     		lsls	r1, r1, #8
 295 0052 1943     		orrs	r1, r3
 296 0054 1520     		movs	r0, #21
 297 0056 6844     		add	r0, r0, sp
 298 0058 FFF7FEFF 		bl	CyBle_Set16ByPtr
 299              	.LVL31:
  38:pamCraid.c    ****         byteCount += sizeof(CraiData.SessionID);
 300              		.loc 1 38 0
 301 005c E378     		ldrb	r3, [r4, #3]
 302 005e 2179     		ldrb	r1, [r4, #4]
 303 0060 0902     		lsls	r1, r1, #8
 304 0062 1943     		orrs	r1, r3
 305 0064 1720     		movs	r0, #23
ARM GAS  C:\Users\310309~1\AppData\Local\Temp\cc9D0Y1S.s 			page 9


 306 0066 6844     		add	r0, r0, sp
 307 0068 FFF7FEFF 		bl	CyBle_Set16ByPtr
 308              	.LVL32:
  41:pamCraid.c    ****         byteCount += sizeof(CraiData.SubSessionID);
 309              		.loc 1 41 0
 310 006c 6379     		ldrb	r3, [r4, #5]
 311 006e A179     		ldrb	r1, [r4, #6]
 312 0070 0902     		lsls	r1, r1, #8
 313 0072 1943     		orrs	r1, r3
 314 0074 1920     		movs	r0, #25
 315 0076 6844     		add	r0, r0, sp
 316 0078 FFF7FEFF 		bl	CyBle_Set16ByPtr
 317              	.LVL33:
  44:pamCraid.c    ****         byteCount += sizeof(CraiData.RelativeTimestamp);
 318              		.loc 1 44 0
 319 007c E079     		ldrb	r0, [r4, #7]
 320 007e 237A     		ldrb	r3, [r4, #8]
 321 0080 1B02     		lsls	r3, r3, #8
 322 0082 0343     		orrs	r3, r0
 323 0084 1A00     		movs	r2, r3
 324 0086 617A     		ldrb	r1, [r4, #9]
 325 0088 0904     		lsls	r1, r1, #16
 326 008a 0B00     		movs	r3, r1
 327 008c 1343     		orrs	r3, r2
 328 008e A17A     		ldrb	r1, [r4, #10]
 329 0090 0906     		lsls	r1, r1, #24
 330 0092 1943     		orrs	r1, r3
 331 0094 1B20     		movs	r0, #27
 332 0096 6844     		add	r0, r0, sp
 333 0098 FFF7FEFF 		bl	CyBle_Set32ByPtr
 334              	.LVL34:
  47:pamCraid.c    ****         byteCount += sizeof(CraiData.SequenceNumber);
 335              		.loc 1 47 0
 336 009c E07A     		ldrb	r0, [r4, #11]
 337 009e 237B     		ldrb	r3, [r4, #12]
 338 00a0 1B02     		lsls	r3, r3, #8
 339 00a2 0343     		orrs	r3, r0
 340 00a4 1A00     		movs	r2, r3
 341 00a6 617B     		ldrb	r1, [r4, #13]
 342 00a8 0904     		lsls	r1, r1, #16
 343 00aa 0B00     		movs	r3, r1
 344 00ac 1343     		orrs	r3, r2
 345 00ae A17B     		ldrb	r1, [r4, #14]
 346 00b0 0906     		lsls	r1, r1, #24
 347 00b2 1943     		orrs	r1, r3
 348 00b4 1F20     		movs	r0, #31
 349 00b6 6844     		add	r0, r0, sp
 350 00b8 FFF7FEFF 		bl	CyBle_Set32ByPtr
 351              	.LVL35:
 352              	.LBB3:
  57:pamCraid.c    ****         {
 353              		.loc 1 57 0
 354 00bc 0024     		movs	r4, #0
 355              	.LBE3:
  54:pamCraid.c    ****         
 356              		.loc 1 54 0
 357 00be 0025     		movs	r5, #0
ARM GAS  C:\Users\310309~1\AppData\Local\Temp\cc9D0Y1S.s 			page 10


 358              	.LBB5:
  57:pamCraid.c    ****         {
 359              		.loc 1 57 0
 360 00c0 24E0     		b	.L22
 361              	.LVL36:
 362              	.L28:
  59:pamCraid.c    ****             {
 363              		.loc 1 59 0
 364 00c2 002C     		cmp	r4, #0
 365 00c4 05D1     		bne	.L23
  61:pamCraid.c    ****             }
 366              		.loc 1 61 0
 367 00c6 3B00     		movs	r3, r7
 368 00c8 7F33     		adds	r3, r3, #127
 369 00ca 6A46     		mov	r2, sp
 370 00cc 1370     		strb	r3, [r2]
 371              	.L25:
 372              	.LBE5:
 373              	.LBE2:
  16:pamCraid.c    ****     CYBLE_GATTS_HANDLE_VALUE_NTF_T tempHandle;
 374              		.loc 1 16 0 discriminator 1
 375 00ce 0122     		movs	r2, #1
 376 00d0 13E0     		b	.L24
 377              	.L23:
 378              	.LBB7:
 379              	.LBB6:
  65:pamCraid.c    ****             }
 380              		.loc 1 65 0
 381 00d2 3B1B     		subs	r3, r7, r4
 382 00d4 013B     		subs	r3, r3, #1
 383 00d6 6A46     		mov	r2, sp
 384 00d8 1370     		strb	r3, [r2]
 385 00da F8E7     		b	.L25
 386              	.LVL37:
 387              	.L27:
 388              	.LBB4:
  71:pamCraid.c    ****                 {
 389              		.loc 1 71 0
 390 00dc E300     		lsls	r3, r4, #3
 391 00de 1B19     		adds	r3, r3, r4
 392 00e0 5B00     		lsls	r3, r3, #1
 393 00e2 1B19     		adds	r3, r3, r4
 394 00e4 D318     		adds	r3, r2, r3
 395 00e6 B342     		cmp	r3, r6
 396 00e8 05D2     		bcs	.L26
  73:pamCraid.c    ****                     MessageSize = i + HEADER_SIZE;
 397              		.loc 1 73 0
 398 00ea 05A9     		add	r1, sp, #20
 399              	.LVL38:
 400 00ec CB5C     		ldrb	r3, [r1, r3]
 401 00ee 6946     		mov	r1, sp
 402              	.LVL39:
 403 00f0 8B54     		strb	r3, [r1, r2]
  74:pamCraid.c    ****                 }
 404              		.loc 1 74 0
 405 00f2 551C     		adds	r5, r2, #1
 406              	.LVL40:
ARM GAS  C:\Users\310309~1\AppData\Local\Temp\cc9D0Y1S.s 			page 11


 407 00f4 EDB2     		uxtb	r5, r5
 408              	.LVL41:
 409              	.L26:
  69:pamCraid.c    ****             {
 410              		.loc 1 69 0 discriminator 2
 411 00f6 0132     		adds	r2, r2, #1
 412              	.LVL42:
 413 00f8 D2B2     		uxtb	r2, r2
 414              	.LVL43:
 415              	.L24:
  69:pamCraid.c    ****             {
 416              		.loc 1 69 0 is_stmt 0 discriminator 1
 417 00fa 132A     		cmp	r2, #19
 418 00fc EED9     		bls	.L27
 419              	.LBE4:
  77:pamCraid.c    ****         }
 420              		.loc 1 77 0 is_stmt 1 discriminator 2
 421 00fe AAB2     		uxth	r2, r5
 422              	.LVL44:
 423 0100 6946     		mov	r1, sp
 424 0102 1E20     		movs	r0, #30
 425 0104 FFF7FEFF 		bl	ble_SendNotification
 426              	.LVL45:
  57:pamCraid.c    ****         {
 427              		.loc 1 57 0 discriminator 2
 428 0108 0134     		adds	r4, r4, #1
 429              	.LVL46:
 430 010a E4B2     		uxtb	r4, r4
 431              	.LVL47:
 432              	.L22:
  57:pamCraid.c    ****         {
 433              		.loc 1 57 0 is_stmt 0 discriminator 1
 434 010c BC42     		cmp	r4, r7
 435 010e D8D3     		bcc	.L28
 436              	.LVL48:
 437              	.L20:
 438              	.LBE6:
 439              	.LBE7:
  80:pamCraid.c    **** 
 440              		.loc 1 80 0 is_stmt 1
 441 0110 0FB0     		add	sp, sp, #60
 442              		@ sp needed
 443 0112 F0BD     		pop	{r4, r5, r6, r7, pc}
 444              	.L30:
 445              		.align	2
 446              	.L29:
 447 0114 00000000 		.word	CraiData
 448 0118 00000000 		.word	cyBle_connHandle
 449 011c 00000000 		.word	cardiorespiratoryactivityinstantaneousdataNotify
 450 0120 00000000 		.word	.LC5
 451 0124 48000000 		.word	.LC7
 452              		.cfi_endproc
 453              	.LFE36:
 454              		.size	UpdateCraid, .-UpdateCraid
 455              		.comm	cardiorespiratoryactivityinstantaneousdataNotify,4,4
 456              		.comm	CraiData,24,4
 457              		.comm	sessionDescriptorIndicate,1,1
ARM GAS  C:\Users\310309~1\AppData\Local\Temp\cc9D0Y1S.s 			page 12


 458              		.comm	pamFeature,8,8
 459              		.comm	UserDefinedActivityTypeAllSubSessions,625,4
 460              		.comm	Update_GASD_With_New_Activity,1,1
 461              		.comm	send_Deleted_Sessions,1,1
 462              		.comm	Get_Ended_Data_Value,1,1
 463              		.comm	Get_Ended_Data_Sub_SessionID,2,2
 464              		.comm	Get_Ended_Data_SessionID,2,2
 465              		.comm	Enquire_Sub_Sessions_Requested_For_ID,2,2
 466              		.comm	Enquire_Sessions_Requested,2,2
 467              		.section	.rodata.str1.4,"aMS",%progbits,1
 468              		.align	2
 469              	.LC5:
 470 0000 43415244 		.ascii	"CARDIORESPIRATOTY ACTIVITY INSTANTANEOUS DATA prese"
 470      494F5245 
 470      53504952 
 470      41544F54 
 470      59204143 
 471 0033 6E746461 		.ascii	"ntdatalength = %i\015\012\000"
 471      74616C65 
 471      6E677468 
 471      203D2025 
 471      690D0A00 
 472 0047 00       		.space	1
 473              	.LC7:
 474 0048 43415244 		.ascii	"CARDIORESPIRATOTY ACTIVITY INSTANTANEOUS DATA N = %"
 474      494F5245 
 474      53504952 
 474      41544F54 
 474      59204143 
 475 007b 690D0A00 		.ascii	"i\015\012\000"
 476              		.text
 477              	.Letext0:
 478              		.file 2 "Generated_Source\\PSoC4/cytypes.h"
 479              		.file 3 "Generated_Source\\PSoC4/ble_StackGatt.h"
 480              		.file 4 "Generated_Source\\PSoC4/ble_StackGattServer.h"
 481              		.file 5 "pamCraid.h"
 482              		.file 6 "Generated_Source\\PSoC4/ble_eventHandler.h"
 483              		.file 7 "pams.h"
 484              		.file 8 "pamFeatures.h"
 485              		.file 9 "pamSessDescr.h"
 486              		.file 10 "Generated_Source\\PSoC4/ble.h"
 487              		.file 11 "c:\\program files (x86)\\cypress\\psoc creator\\4.1\\psoc creator\\import\\gnu\\arm\\5.4
 488              		.file 12 "Generated_Source\\PSoC4/ble_StackGattDb.h"
 489              		.file 13 "Generated_Source\\PSoC4/ble_Stack.h"