ARM GAS  C:\Users\310309~1\AppData\Local\Temp\ccafrcoW.s 			page 1


   1              		.syntax unified
   2              		.cpu cortex-m0
   3              		.fpu softvfp
   4              		.eabi_attribute 20, 1
   5              		.eabi_attribute 21, 1
   6              		.eabi_attribute 23, 3
   7              		.eabi_attribute 24, 1
   8              		.eabi_attribute 25, 1
   9              		.eabi_attribute 26, 1
  10              		.eabi_attribute 30, 1
  11              		.eabi_attribute 34, 0
  12              		.eabi_attribute 18, 4
  13              		.thumb
  14              		.syntax unified
  15              		.file	"pamCurrSess.c"
  16              		.text
  17              	.Ltext0:
  18              		.cfi_sections	.debug_frame
  19              		.section	.text.UpdateCurrSession,"ax",%progbits
  20              		.align	2
  21              		.global	UpdateCurrSession
  22              		.code	16
  23              		.thumb_func
  24              		.type	UpdateCurrSession, %function
  25              	UpdateCurrSession:
  26              	.LFB36:
  27              		.file 1 "pamCurrSess.c"
   1:pamCurrSess.c **** /* ========================================
   2:pamCurrSess.c ****  *
   3:pamCurrSess.c ****  * Copyright YOUR COMPANY, THE YEAR
   4:pamCurrSess.c ****  * All Rights Reserved
   5:pamCurrSess.c ****  * UNPUBLISHED, LICENSED SOFTWARE.
   6:pamCurrSess.c ****  *
   7:pamCurrSess.c ****  * CONFIDENTIAL AND PROPRIETARY INFORMATION
   8:pamCurrSess.c ****  * WHICH IS THE PROPERTY OF your company.
   9:pamCurrSess.c ****  *
  10:pamCurrSess.c ****  * ========================================
  11:pamCurrSess.c **** */
  12:pamCurrSess.c **** 
  13:pamCurrSess.c **** #include "pamCurrSess.h"
  14:pamCurrSess.c **** 
  15:pamCurrSess.c **** void UpdateCurrSession(PAM_SESSIONDESCRIPTOR_VALUE_T *session)
  16:pamCurrSess.c **** {
  28              		.loc 1 16 0
  29              		.cfi_startproc
  30              		@ args = 0, pretend = 0, frame = 16
  31              		@ frame_needed = 0, uses_anonymous_args = 0
  32              	.LVL0:
  33 0000 30B5     		push	{r4, r5, lr}
  34              		.cfi_def_cfa_offset 12
  35              		.cfi_offset 4, -12
  36              		.cfi_offset 5, -8
  37              		.cfi_offset 14, -4
  38 0002 85B0     		sub	sp, sp, #20
  39              		.cfi_def_cfa_offset 32
  17:pamCurrSess.c ****     CYBLE_GATTS_HANDLE_VALUE_IND_T tempHandle;
  18:pamCurrSess.c ****     
ARM GAS  C:\Users\310309~1\AppData\Local\Temp\ccafrcoW.s 			page 2


  19:pamCurrSess.c ****     if(CHECK_BIT(session->Flags, SESSION_SUB_SESSION_RUNNING_FLAG))
  40              		.loc 1 19 0
  41 0004 0378     		ldrb	r3, [r0]
  42 0006 9B07     		lsls	r3, r3, #30
  43 0008 05D5     		bpl	.L2
  20:pamCurrSess.c ****     {
  21:pamCurrSess.c ****         SET_BIT(CurrSession.Flags, CURRENT_SESSION_SUB_SESSION_RUNNING_FLAG);
  44              		.loc 1 21 0
  45 000a 354A     		ldr	r2, .L5
  46 000c 1178     		ldrb	r1, [r2]
  47 000e 0123     		movs	r3, #1
  48 0010 0B43     		orrs	r3, r1
  49 0012 1370     		strb	r3, [r2]
  50 0014 04E0     		b	.L3
  51              	.L2:
  22:pamCurrSess.c ****     }
  23:pamCurrSess.c ****     else
  24:pamCurrSess.c ****     {
  25:pamCurrSess.c ****         UNSET_BIT(CurrSession.Flags, CURRENT_SESSION_SUB_SESSION_RUNNING_FLAG);
  52              		.loc 1 25 0
  53 0016 324A     		ldr	r2, .L5
  54 0018 1378     		ldrb	r3, [r2]
  55 001a 0121     		movs	r1, #1
  56 001c 8B43     		bics	r3, r1
  57 001e 1370     		strb	r3, [r2]
  58              	.L3:
  26:pamCurrSess.c ****     }
  27:pamCurrSess.c ****     
  28:pamCurrSess.c ****     
  29:pamCurrSess.c ****     
  30:pamCurrSess.c ****     CurrSession.SessionID = session->SessionID;
  59              		.loc 1 30 0
  60 0020 4378     		ldrb	r3, [r0, #1]
  61 0022 8278     		ldrb	r2, [r0, #2]
  62 0024 1202     		lsls	r2, r2, #8
  63 0026 1A43     		orrs	r2, r3
  64 0028 2D4B     		ldr	r3, .L5
  65 002a 5A70     		strb	r2, [r3, #1]
  66 002c 120A     		lsrs	r2, r2, #8
  67 002e 9A70     		strb	r2, [r3, #2]
  31:pamCurrSess.c ****     CurrSession.SessionStartBaseTime = session->SessionStartBaseTime;
  68              		.loc 1 31 0
  69 0030 C578     		ldrb	r5, [r0, #3]
  70 0032 0179     		ldrb	r1, [r0, #4]
  71 0034 0902     		lsls	r1, r1, #8
  72 0036 2943     		orrs	r1, r5
  73 0038 4279     		ldrb	r2, [r0, #5]
  74 003a 1204     		lsls	r2, r2, #16
  75 003c 0A43     		orrs	r2, r1
  76 003e 1100     		movs	r1, r2
  77 0040 8279     		ldrb	r2, [r0, #6]
  78 0042 1206     		lsls	r2, r2, #24
  79 0044 0A43     		orrs	r2, r1
  80 0046 DA70     		strb	r2, [r3, #3]
  81 0048 140A     		lsrs	r4, r2, #8
  82 004a 1C71     		strb	r4, [r3, #4]
  83 004c 140C     		lsrs	r4, r2, #16
ARM GAS  C:\Users\310309~1\AppData\Local\Temp\ccafrcoW.s 			page 3


  84 004e 5C71     		strb	r4, [r3, #5]
  85 0050 120E     		lsrs	r2, r2, #24
  86 0052 9A71     		strb	r2, [r3, #6]
  32:pamCurrSess.c ****     CurrSession.SessionStartTimeOffset = session->SessionStartTimeOffset;
  87              		.loc 1 32 0
  88 0054 C179     		ldrb	r1, [r0, #7]
  89 0056 027A     		ldrb	r2, [r0, #8]
  90 0058 1202     		lsls	r2, r2, #8
  91 005a 0A43     		orrs	r2, r1
  92 005c DA71     		strb	r2, [r3, #7]
  93 005e 120A     		lsrs	r2, r2, #8
  94 0060 1A72     		strb	r2, [r3, #8]
  33:pamCurrSess.c ****     CurrSession.SubSessionID = session->SubSessionID;
  95              		.loc 1 33 0
  96 0062 C17B     		ldrb	r1, [r0, #15]
  97 0064 027C     		ldrb	r2, [r0, #16]
  98 0066 1202     		lsls	r2, r2, #8
  99 0068 0A43     		orrs	r2, r1
 100 006a 5A72     		strb	r2, [r3, #9]
 101 006c 120A     		lsrs	r2, r2, #8
 102 006e 9A72     		strb	r2, [r3, #10]
  34:pamCurrSess.c ****     CurrSession.SubSessionStartBaseTime = session->SessionStartBaseTime;
 103              		.loc 1 34 0
 104 0070 C578     		ldrb	r5, [r0, #3]
 105 0072 0179     		ldrb	r1, [r0, #4]
 106 0074 0902     		lsls	r1, r1, #8
 107 0076 2943     		orrs	r1, r5
 108 0078 4279     		ldrb	r2, [r0, #5]
 109 007a 1204     		lsls	r2, r2, #16
 110 007c 0A43     		orrs	r2, r1
 111 007e 1100     		movs	r1, r2
 112 0080 8279     		ldrb	r2, [r0, #6]
 113 0082 1206     		lsls	r2, r2, #24
 114 0084 0A43     		orrs	r2, r1
 115 0086 DA72     		strb	r2, [r3, #11]
 116 0088 140A     		lsrs	r4, r2, #8
 117 008a 1C73     		strb	r4, [r3, #12]
 118 008c 140C     		lsrs	r4, r2, #16
 119 008e 5C73     		strb	r4, [r3, #13]
 120 0090 120E     		lsrs	r2, r2, #24
 121 0092 9A73     		strb	r2, [r3, #14]
  35:pamCurrSess.c ****     CurrSession.SubSessionStartTimeOffset = session->SessionStartTimeOffset;
 122              		.loc 1 35 0
 123 0094 C179     		ldrb	r1, [r0, #7]
 124 0096 027A     		ldrb	r2, [r0, #8]
 125 0098 1202     		lsls	r2, r2, #8
 126 009a 0A43     		orrs	r2, r1
 127 009c DA73     		strb	r2, [r3, #15]
 128 009e 120A     		lsrs	r2, r2, #8
 129 00a0 1A74     		strb	r2, [r3, #16]
  36:pamCurrSess.c ****     
  37:pamCurrSess.c ****     tempHandle.attrHandle = CYBLE_PHYSICAL_ACTIVITY_MONITOR_CURRENT_SESSION_CHAR_HANDLE;
 130              		.loc 1 37 0
 131 00a2 01A8     		add	r0, sp, #4
 132              	.LVL1:
 133 00a4 3622     		movs	r2, #54
 134 00a6 0281     		strh	r2, [r0, #8]
ARM GAS  C:\Users\310309~1\AppData\Local\Temp\ccafrcoW.s 			page 4


  38:pamCurrSess.c ****     tempHandle.value.val = (uint8 *)&CurrSession;
 135              		.loc 1 38 0
 136 00a8 0193     		str	r3, [sp, #4]
  39:pamCurrSess.c ****     tempHandle.value.len = sizeof(CurrSession);
 137              		.loc 1 39 0
 138 00aa 1123     		movs	r3, #17
 139 00ac 8380     		strh	r3, [r0, #4]
  40:pamCurrSess.c ****     CyBle_GattsWriteAttributeValue(&tempHandle, 0, &cyBle_connHandle, 0);
 140              		.loc 1 40 0
 141 00ae 0023     		movs	r3, #0
 142 00b0 0C4A     		ldr	r2, .L5+4
 143 00b2 0021     		movs	r1, #0
 144 00b4 FFF7FEFF 		bl	CyBle_GattsWriteAttributeValue
 145              	.LVL2:
  41:pamCurrSess.c ****     
  42:pamCurrSess.c ****     if(CyBle_GattGetBusStatus() == CYBLE_STACK_STATE_FREE && currentsessionIndicate == 2)
 146              		.loc 1 42 0
 147 00b8 0B4B     		ldr	r3, .L5+8
 148 00ba 1B78     		ldrb	r3, [r3]
 149 00bc 002B     		cmp	r3, #0
 150 00be 0CD1     		bne	.L1
 151              		.loc 1 42 0 is_stmt 0 discriminator 1
 152 00c0 0A4B     		ldr	r3, .L5+12
 153 00c2 1B68     		ldr	r3, [r3]
 154 00c4 022B     		cmp	r3, #2
 155 00c6 08D1     		bne	.L1
  43:pamCurrSess.c ****     {
  44:pamCurrSess.c ****         DBG_PRINTF("CURRENT SESSION SIZE = %i \r\n", sizeof(CurrSession));
 156              		.loc 1 44 0 is_stmt 1
 157 00c8 1121     		movs	r1, #17
 158 00ca 0948     		ldr	r0, .L5+16
 159 00cc FFF7FEFF 		bl	printf
 160              	.LVL3:
  45:pamCurrSess.c ****         ble_SendIndication(CYBLE_PHYSICAL_ACTIVITY_MONITOR_CURRENT_SESSION_CHAR_HANDLE, (uint8 *)&C
 161              		.loc 1 45 0
 162 00d0 1122     		movs	r2, #17
 163 00d2 0349     		ldr	r1, .L5
 164 00d4 3620     		movs	r0, #54
 165 00d6 FFF7FEFF 		bl	ble_SendIndication
 166              	.LVL4:
 167              	.L1:
  46:pamCurrSess.c ****     }
  47:pamCurrSess.c **** }
 168              		.loc 1 47 0
 169 00da 05B0     		add	sp, sp, #20
 170              		@ sp needed
 171 00dc 30BD     		pop	{r4, r5, pc}
 172              	.L6:
 173 00de C046     		.align	2
 174              	.L5:
 175 00e0 00000000 		.word	CurrSession
 176 00e4 00000000 		.word	cyBle_connHandle
 177 00e8 00000000 		.word	cyBle_busyStatus
 178 00ec 00000000 		.word	currentsessionIndicate
 179 00f0 00000000 		.word	.LC4
 180              		.cfi_endproc
 181              	.LFE36:
ARM GAS  C:\Users\310309~1\AppData\Local\Temp\ccafrcoW.s 			page 5


 182              		.size	UpdateCurrSession, .-UpdateCurrSession
 183              		.comm	currentsessionIndicate,4,4
 184              		.comm	CurrSession,17,4
 185              		.comm	sessionDescriptorIndicate,1,1
 186              		.comm	pamFeature,8,8
 187              		.comm	UserDefinedActivityTypeAllSubSessions,625,4
 188              		.comm	Update_GASD_With_New_Activity,1,1
 189              		.comm	send_Deleted_Sessions,1,1
 190              		.comm	Get_Ended_Data_Value,1,1
 191              		.comm	Get_Ended_Data_Sub_SessionID,2,2
 192              		.comm	Get_Ended_Data_SessionID,2,2
 193              		.comm	Enquire_Sub_Sessions_Requested_For_ID,2,2
 194              		.comm	Enquire_Sessions_Requested,2,2
 195              		.section	.rodata.str1.4,"aMS",%progbits,1
 196              		.align	2
 197              	.LC4:
 198 0000 43555252 		.ascii	"CURRENT SESSION SIZE = %i \015\012\000"
 198      454E5420 
 198      53455353 
 198      494F4E20 
 198      53495A45 
 199              		.text
 200              	.Letext0:
 201              		.file 2 "Generated_Source\\PSoC4/cytypes.h"
 202              		.file 3 "Generated_Source\\PSoC4/ble_StackGatt.h"
 203              		.file 4 "Generated_Source\\PSoC4/ble_StackGattServer.h"
 204              		.file 5 "Generated_Source\\PSoC4/ble_Stack.h"
 205              		.file 6 "Generated_Source\\PSoC4/ble_dis.h"
 206              		.file 7 "pamSessDescr.h"
 207              		.file 8 "pamCurrSess.h"
 208              		.file 9 "Generated_Source\\PSoC4/ble_eventHandler.h"
 209              		.file 10 "pams.h"
 210              		.file 11 "pamFeatures.h"
 211              		.file 12 "Generated_Source\\PSoC4/ble_StackGattDb.h"
 212              		.file 13 "c:\\program files (x86)\\cypress\\psoc creator\\4.1\\psoc creator\\import\\gnu\\arm\\5.4