ARM GAS  C:\Users\310309~1\AppData\Local\Temp\ccZa2HSw.s 			page 1


   1              		.syntax unified
   2              		.cpu cortex-m0
   3              		.fpu softvfp
   4              		.eabi_attribute 20, 1
   5              		.eabi_attribute 21, 1
   6              		.eabi_attribute 23, 3
   7              		.eabi_attribute 24, 1
   8              		.eabi_attribute 25, 1
   9              		.eabi_attribute 26, 1
  10              		.eabi_attribute 30, 1
  11              		.eabi_attribute 34, 0
  12              		.eabi_attribute 18, 4
  13              		.thumb
  14              		.syntax unified
  15              		.file	"pamCrasd.c"
  16              		.text
  17              	.Ltext0:
  18              		.cfi_sections	.debug_frame
  19              		.section	.text.getPresentCrasdFields,"ax",%progbits
  20              		.align	2
  21              		.global	getPresentCrasdFields
  22              		.code	16
  23              		.thumb_func
  24              		.type	getPresentCrasdFields, %function
  25              	getPresentCrasdFields:
  26              	.LFB37:
  27              		.file 1 "pamCrasd.c"
   1:pamCrasd.c    **** /* ========================================
   2:pamCrasd.c    ****  *
   3:pamCrasd.c    ****  * Copyright YOUR COMPANY, THE YEAR
   4:pamCrasd.c    ****  * All Rights Reserved
   5:pamCrasd.c    ****  * UNPUBLISHED, LICENSED SOFTWARE.
   6:pamCrasd.c    ****  *
   7:pamCrasd.c    ****  * CONFIDENTIAL AND PROPRIETARY INFORMATION
   8:pamCrasd.c    ****  * WHICH IS THE PROPERTY OF your company.
   9:pamCrasd.c    ****  *
  10:pamCrasd.c    ****  * ========================================
  11:pamCrasd.c    **** */
  12:pamCrasd.c    **** 
  13:pamCrasd.c    **** #include "pamCrasd.h"
  14:pamCrasd.c    **** 
  15:pamCrasd.c    **** void UpdateCrasd(void)
  16:pamCrasd.c    **** {
  17:pamCrasd.c    ****     CYBLE_GATTS_HANDLE_VALUE_NTF_T tempHandle;
  18:pamCrasd.c    ****     
  19:pamCrasd.c    ****     tempHandle.attrHandle = CYBLE_PHYSICAL_ACTIVITY_MONITOR_CARDIORESPIRATORY_ACTIVITY_SUMMARY_DATA
  20:pamCrasd.c    ****     tempHandle.value.val = (uint8 *)&CrasData;
  21:pamCrasd.c    ****     tempHandle.value.len = sizeof(CrasData);
  22:pamCrasd.c    ****     CyBle_GattsWriteAttributeValue(&tempHandle, 0, &cyBle_connHandle, 0);
  23:pamCrasd.c    ****     
  24:pamCrasd.c    ****     if(cardiorespiratoryactivitysummarydataIndicate)
  25:pamCrasd.c    ****     {
  26:pamCrasd.c    ****         uint8 PresentData[sizeof(CrasData)];
  27:pamCrasd.c    ****         
  28:pamCrasd.c    ****         uint8 presentDataLength = getPresentCrasdFields(PresentData);
  29:pamCrasd.c    ****         DBG_PRINTF("CARDIORESPIRATORY ACTIVITY SUMMARY DATA presentdatalength = %i\r\n", presentDat
  30:pamCrasd.c    ****         uint8 N = calculateNumberOfMessages(presentDataLength);
ARM GAS  C:\Users\310309~1\AppData\Local\Temp\ccZa2HSw.s 			page 2


  31:pamCrasd.c    ****         DBG_PRINTF("CARDIORESPIRATORY ACTIVITY SUMMARY DATA N = %i\r\n", N);
  32:pamCrasd.c    ****         
  33:pamCrasd.c    ****         uint8 byteCount = 1u;//Starts at 1 because 0 is the header field
  34:pamCrasd.c    ****         
  35:pamCrasd.c    ****         CyBle_Set32ByPtr(&PresentData[byteCount], CrasData.Flags);
  36:pamCrasd.c    ****         byteCount += sizeof(CrasData.Flags);
  37:pamCrasd.c    ****         
  38:pamCrasd.c    ****         CyBle_Set16ByPtr(&PresentData[byteCount], CrasData.SessionID);
  39:pamCrasd.c    ****         byteCount += sizeof(CrasData.SessionID);
  40:pamCrasd.c    ****         
  41:pamCrasd.c    ****         CyBle_Set16ByPtr(&PresentData[byteCount], CrasData.SubSessionID);
  42:pamCrasd.c    ****         byteCount += sizeof(CrasData.SubSessionID);
  43:pamCrasd.c    ****         
  44:pamCrasd.c    ****         CyBle_Set32ByPtr(&PresentData[byteCount], CrasData.RelativeTimestamp);
  45:pamCrasd.c    ****         byteCount += sizeof(CrasData.RelativeTimestamp);
  46:pamCrasd.c    ****         
  47:pamCrasd.c    ****         CyBle_Set32ByPtr(&PresentData[byteCount], CrasData.SequenceNumber);
  48:pamCrasd.c    ****         byteCount += sizeof(CrasData.SequenceNumber);
  49:pamCrasd.c    ****         //size = 15
  50:pamCrasd.c    ****         
  51:pamCrasd.c    ****         char* my_struct_in_bytes = (char*)(&PresentData);
  52:pamCrasd.c    ****         
  53:pamCrasd.c    ****         uint8 Message[PAM_MAX_MESSAGE_DATA_SIZE + HEADER_SIZE];
  54:pamCrasd.c    ****         uint8 MessageSize = 0;
  55:pamCrasd.c    ****         
  56:pamCrasd.c    ****         
  57:pamCrasd.c    ****         for(uint8 x = 0; x < N; x++)
  58:pamCrasd.c    ****         {
  59:pamCrasd.c    ****             if(x == 0)
  60:pamCrasd.c    ****             {
  61:pamCrasd.c    ****                 Message[0] = 0x80 + N - 1;
  62:pamCrasd.c    ****             }
  63:pamCrasd.c    ****             else
  64:pamCrasd.c    ****             {
  65:pamCrasd.c    ****                 Message[0] = 0x00 + N - 1 - x;
  66:pamCrasd.c    ****             }
  67:pamCrasd.c    ****             
  68:pamCrasd.c    ****             
  69:pamCrasd.c    ****             for(uint8 i = 1; i < PAM_MAX_MESSAGE_DATA_SIZE + HEADER_SIZE; i++)
  70:pamCrasd.c    ****             {
  71:pamCrasd.c    ****                 if((x * PAM_MAX_MESSAGE_DATA_SIZE + i) < presentDataLength)
  72:pamCrasd.c    ****                 {
  73:pamCrasd.c    ****                     Message[i] = my_struct_in_bytes[i + x * PAM_MAX_MESSAGE_DATA_SIZE];
  74:pamCrasd.c    ****                     MessageSize = i + HEADER_SIZE;
  75:pamCrasd.c    ****                 }
  76:pamCrasd.c    ****             }
  77:pamCrasd.c    ****             ble_SendIndication(CYBLE_PHYSICAL_ACTIVITY_MONITOR_CARDIORESPIRATORY_ACTIVITY_SUMMARY_D
  78:pamCrasd.c    ****         }
  79:pamCrasd.c    ****     }
  80:pamCrasd.c    **** }
  81:pamCrasd.c    **** 
  82:pamCrasd.c    **** 
  83:pamCrasd.c    **** uint8 getPresentCrasdFields(uint8 *PresentData)
  84:pamCrasd.c    **** {
  28              		.loc 1 84 0
  29              		.cfi_startproc
  30              		@ args = 0, pretend = 0, frame = 0
ARM GAS  C:\Users\310309~1\AppData\Local\Temp\ccZa2HSw.s 			page 3


  31              		@ frame_needed = 0, uses_anonymous_args = 0
  32              	.LVL0:
  33 0000 70B5     		push	{r4, r5, r6, lr}
  34              		.cfi_def_cfa_offset 16
  35              		.cfi_offset 4, -16
  36              		.cfi_offset 5, -12
  37              		.cfi_offset 6, -8
  38              		.cfi_offset 14, -4
  39 0002 0500     		movs	r5, r0
  40              	.LVL1:
  85:pamCrasd.c    ****     uint8 length = ALWAYS_PRESENT_CRASD_FIELD_LENGTH;
  86:pamCrasd.c    ****     
  87:pamCrasd.c    ****     if(CHECK_BIT(CrasData.Flags, 1/*TIMEZONE1 PRESENT*/) &&
  41              		.loc 1 87 0
  42 0004 C44B     		ldr	r3, .L44
  43 0006 5B78     		ldrb	r3, [r3, #1]
  44 0008 9B07     		lsls	r3, r3, #30
  45 000a 0CD5     		bpl	.L42
  88:pamCrasd.c    ****        CHECK_BIT(pamFeature, TIME_IN_HEART_RATE_ZONE1_SUPPORTED))
  46              		.loc 1 88 0 discriminator 1
  47 000c C34B     		ldr	r3, .L44+4
  48 000e 1B68     		ldr	r3, [r3]
  87:pamCrasd.c    ****        CHECK_BIT(pamFeature, TIME_IN_HEART_RATE_ZONE1_SUPPORTED))
  49              		.loc 1 87 0 discriminator 1
  50 0010 9B01     		lsls	r3, r3, #6
  51 0012 0AD5     		bpl	.L43
  89:pamCrasd.c    ****     {
  90:pamCrasd.c    ****         PresentData[length] = CrasData.TimeInHeartRateZone1[2];
  52              		.loc 1 90 0 discriminator 1
  53 0014 C04B     		ldr	r3, .L44
  54 0016 DA7C     		ldrb	r2, [r3, #19]
  55 0018 4274     		strb	r2, [r0, #17]
  91:pamCrasd.c    ****         PresentData[length+1] = CrasData.TimeInHeartRateZone1[1];
  56              		.loc 1 91 0 discriminator 1
  57 001a 9A7C     		ldrb	r2, [r3, #18]
  58 001c 8274     		strb	r2, [r0, #18]
  92:pamCrasd.c    ****         PresentData[length+2] = CrasData.TimeInHeartRateZone1[0];
  59              		.loc 1 92 0 discriminator 1
  60 001e 5B7C     		ldrb	r3, [r3, #17]
  61 0020 C374     		strb	r3, [r0, #19]
  62              	.LVL2:
  93:pamCrasd.c    ****         length += sizeof(CrasData.TimeInHeartRateZone1);
  63              		.loc 1 93 0 discriminator 1
  64 0022 1424     		movs	r4, #20
  65 0024 02E0     		b	.L2
  66              	.LVL3:
  67              	.L42:
  85:pamCrasd.c    ****     
  68              		.loc 1 85 0
  69 0026 1124     		movs	r4, #17
  70 0028 00E0     		b	.L2
  71              	.L43:
  72 002a 1124     		movs	r4, #17
  73              	.LVL4:
  74              	.L2:
  94:pamCrasd.c    ****     }
  95:pamCrasd.c    ****     if(CHECK_BIT(CrasData.Flags, 1/*TIMEZONE2 PRESENT*/) &&
ARM GAS  C:\Users\310309~1\AppData\Local\Temp\ccZa2HSw.s 			page 4


  75              		.loc 1 95 0
  76 002c BA4B     		ldr	r3, .L44
  77 002e 5B78     		ldrb	r3, [r3, #1]
  78 0030 9B07     		lsls	r3, r3, #30
  79 0032 0ED5     		bpl	.L4
  96:pamCrasd.c    ****        CHECK_BIT(pamFeature, TIME_IN_HEART_RATE_ZONE2_SUPPORTED))
  80              		.loc 1 96 0 discriminator 1
  81 0034 B94B     		ldr	r3, .L44+4
  82 0036 1B68     		ldr	r3, [r3]
  95:pamCrasd.c    ****        CHECK_BIT(pamFeature, TIME_IN_HEART_RATE_ZONE2_SUPPORTED))
  83              		.loc 1 95 0 discriminator 1
  84 0038 5B01     		lsls	r3, r3, #5
  85 003a 0AD5     		bpl	.L4
  97:pamCrasd.c    ****     {
  98:pamCrasd.c    ****         PresentData[length] = CrasData.TimeInHeartRateZone2[2];
  86              		.loc 1 98 0 discriminator 1
  87 003c B64B     		ldr	r3, .L44
  88 003e 9A7D     		ldrb	r2, [r3, #22]
  89 0040 2A55     		strb	r2, [r5, r4]
  99:pamCrasd.c    ****         PresentData[length+1] = CrasData.TimeInHeartRateZone2[1];
  90              		.loc 1 99 0 discriminator 1
  91 0042 621C     		adds	r2, r4, #1
  92 0044 597D     		ldrb	r1, [r3, #21]
  93 0046 A954     		strb	r1, [r5, r2]
 100:pamCrasd.c    ****         PresentData[length+2] = CrasData.TimeInHeartRateZone2[0];
  94              		.loc 1 100 0 discriminator 1
  95 0048 A21C     		adds	r2, r4, #2
  96 004a 1B7D     		ldrb	r3, [r3, #20]
  97 004c AB54     		strb	r3, [r5, r2]
 101:pamCrasd.c    ****         length += sizeof(CrasData.TimeInHeartRateZone2);
  98              		.loc 1 101 0 discriminator 1
  99 004e 0334     		adds	r4, r4, #3
 100              	.LVL5:
 101 0050 E4B2     		uxtb	r4, r4
 102              	.LVL6:
 103              	.L4:
 102:pamCrasd.c    ****     }
 103:pamCrasd.c    ****     if(CHECK_BIT(CrasData.Flags, 1/*TIMEZONE3 PRESENT*/) &&
 104              		.loc 1 103 0
 105 0052 B14B     		ldr	r3, .L44
 106 0054 5B78     		ldrb	r3, [r3, #1]
 107 0056 9B07     		lsls	r3, r3, #30
 108 0058 0ED5     		bpl	.L6
 104:pamCrasd.c    ****        CHECK_BIT(pamFeature, TIME_IN_HEART_RATE_ZONE3_SUPPORTED))
 109              		.loc 1 104 0 discriminator 1
 110 005a B04B     		ldr	r3, .L44+4
 111 005c 1B68     		ldr	r3, [r3]
 103:pamCrasd.c    ****        CHECK_BIT(pamFeature, TIME_IN_HEART_RATE_ZONE3_SUPPORTED))
 112              		.loc 1 103 0 discriminator 1
 113 005e 1B01     		lsls	r3, r3, #4
 114 0060 0AD5     		bpl	.L6
 105:pamCrasd.c    ****     {
 106:pamCrasd.c    ****         PresentData[length] = CrasData.TimeInHeartRateZone3[2];
 115              		.loc 1 106 0 discriminator 1
 116 0062 AD4B     		ldr	r3, .L44
 117 0064 5A7E     		ldrb	r2, [r3, #25]
 118 0066 2A55     		strb	r2, [r5, r4]
ARM GAS  C:\Users\310309~1\AppData\Local\Temp\ccZa2HSw.s 			page 5


 107:pamCrasd.c    ****         PresentData[length+1] = CrasData.TimeInHeartRateZone3[1];
 119              		.loc 1 107 0 discriminator 1
 120 0068 621C     		adds	r2, r4, #1
 121 006a 197E     		ldrb	r1, [r3, #24]
 122 006c A954     		strb	r1, [r5, r2]
 108:pamCrasd.c    ****         PresentData[length+2] = CrasData.TimeInHeartRateZone3[0];
 123              		.loc 1 108 0 discriminator 1
 124 006e A21C     		adds	r2, r4, #2
 125 0070 DB7D     		ldrb	r3, [r3, #23]
 126 0072 AB54     		strb	r3, [r5, r2]
 109:pamCrasd.c    ****         length += sizeof(CrasData.TimeInHeartRateZone3);
 127              		.loc 1 109 0 discriminator 1
 128 0074 0334     		adds	r4, r4, #3
 129              	.LVL7:
 130 0076 E4B2     		uxtb	r4, r4
 131              	.LVL8:
 132              	.L6:
 110:pamCrasd.c    ****     }
 111:pamCrasd.c    ****     if(CHECK_BIT(CrasData.Flags, 1/*TIMEZONE4 PRESENT*/) &&
 133              		.loc 1 111 0
 134 0078 A74B     		ldr	r3, .L44
 135 007a 5B78     		ldrb	r3, [r3, #1]
 136 007c 9B07     		lsls	r3, r3, #30
 137 007e 0ED5     		bpl	.L8
 112:pamCrasd.c    ****        CHECK_BIT(pamFeature, TIME_IN_HEART_RATE_ZONE4_SUPPORTED))
 138              		.loc 1 112 0 discriminator 1
 139 0080 A64B     		ldr	r3, .L44+4
 140 0082 1B68     		ldr	r3, [r3]
 111:pamCrasd.c    ****        CHECK_BIT(pamFeature, TIME_IN_HEART_RATE_ZONE4_SUPPORTED))
 141              		.loc 1 111 0 discriminator 1
 142 0084 DB00     		lsls	r3, r3, #3
 143 0086 0AD5     		bpl	.L8
 113:pamCrasd.c    ****     {
 114:pamCrasd.c    ****         PresentData[length] = CrasData.TimeInHeartRateZone4[2];
 144              		.loc 1 114 0 discriminator 1
 145 0088 A34B     		ldr	r3, .L44
 146 008a 1A7F     		ldrb	r2, [r3, #28]
 147 008c 2A55     		strb	r2, [r5, r4]
 115:pamCrasd.c    ****         PresentData[length+1] = CrasData.TimeInHeartRateZone4[1];
 148              		.loc 1 115 0 discriminator 1
 149 008e 621C     		adds	r2, r4, #1
 150 0090 D97E     		ldrb	r1, [r3, #27]
 151 0092 A954     		strb	r1, [r5, r2]
 116:pamCrasd.c    ****         PresentData[length+2] = CrasData.TimeInHeartRateZone4[0];
 152              		.loc 1 116 0 discriminator 1
 153 0094 A21C     		adds	r2, r4, #2
 154 0096 9B7E     		ldrb	r3, [r3, #26]
 155 0098 AB54     		strb	r3, [r5, r2]
 117:pamCrasd.c    ****         length += sizeof(CrasData.TimeInHeartRateZone4);
 156              		.loc 1 117 0 discriminator 1
 157 009a 0334     		adds	r4, r4, #3
 158              	.LVL9:
 159 009c E4B2     		uxtb	r4, r4
 160              	.LVL10:
 161              	.L8:
 118:pamCrasd.c    ****     }
 119:pamCrasd.c    ****     if(CHECK_BIT(CrasData.Flags, 1/*TIMEZONE5 PRESENT*/) &&
ARM GAS  C:\Users\310309~1\AppData\Local\Temp\ccZa2HSw.s 			page 6


 162              		.loc 1 119 0
 163 009e 9E4B     		ldr	r3, .L44
 164 00a0 5B78     		ldrb	r3, [r3, #1]
 165 00a2 9B07     		lsls	r3, r3, #30
 166 00a4 0ED5     		bpl	.L10
 120:pamCrasd.c    ****        CHECK_BIT(pamFeature, TIME_IN_HEART_RATE_ZONE5_SUPPORTED))
 167              		.loc 1 120 0 discriminator 1
 168 00a6 9D4B     		ldr	r3, .L44+4
 169 00a8 1B68     		ldr	r3, [r3]
 119:pamCrasd.c    ****        CHECK_BIT(pamFeature, TIME_IN_HEART_RATE_ZONE5_SUPPORTED))
 170              		.loc 1 119 0 discriminator 1
 171 00aa 9B00     		lsls	r3, r3, #2
 172 00ac 0AD5     		bpl	.L10
 121:pamCrasd.c    ****     {
 122:pamCrasd.c    ****         PresentData[length] = CrasData.TimeInHeartRateZone5[2];
 173              		.loc 1 122 0 discriminator 1
 174 00ae 9A4B     		ldr	r3, .L44
 175 00b0 DA7F     		ldrb	r2, [r3, #31]
 176 00b2 2A55     		strb	r2, [r5, r4]
 123:pamCrasd.c    ****         PresentData[length+1] = CrasData.TimeInHeartRateZone5[1];
 177              		.loc 1 123 0 discriminator 1
 178 00b4 621C     		adds	r2, r4, #1
 179 00b6 997F     		ldrb	r1, [r3, #30]
 180 00b8 A954     		strb	r1, [r5, r2]
 124:pamCrasd.c    ****         PresentData[length+2] = CrasData.TimeInHeartRateZone5[0];
 181              		.loc 1 124 0 discriminator 1
 182 00ba A21C     		adds	r2, r4, #2
 183 00bc 5B7F     		ldrb	r3, [r3, #29]
 184 00be AB54     		strb	r3, [r5, r2]
 125:pamCrasd.c    ****         length += sizeof(CrasData.TimeInHeartRateZone5);
 185              		.loc 1 125 0 discriminator 1
 186 00c0 0334     		adds	r4, r4, #3
 187              	.LVL11:
 188 00c2 E4B2     		uxtb	r4, r4
 189              	.LVL12:
 190              	.L10:
 126:pamCrasd.c    ****     }
 127:pamCrasd.c    ****     if(CHECK_BIT(pamFeature, VO2_MAX_SUPPORTED))
 191              		.loc 1 127 0
 192 00c4 954B     		ldr	r3, .L44+4
 193 00c6 1B68     		ldr	r3, [r3]
 194 00c8 5B00     		lsls	r3, r3, #1
 195 00ca 1DD5     		bpl	.L12
 128:pamCrasd.c    ****     {
 129:pamCrasd.c    ****         if(CHECK_BIT(CrasData.Flags, 1/*MIN VO2MAX PRESENT*/))
 196              		.loc 1 129 0
 197 00cc 924B     		ldr	r3, .L44
 198 00ce 5B78     		ldrb	r3, [r3, #1]
 199 00d0 9B07     		lsls	r3, r3, #30
 200 00d2 05D5     		bpl	.L14
 130:pamCrasd.c    ****         {
 131:pamCrasd.c    ****             PresentData[length] = CrasData.MinimumVO2Max;
 201              		.loc 1 131 0
 202 00d4 2023     		movs	r3, #32
 203 00d6 904A     		ldr	r2, .L44
 204 00d8 D35C     		ldrb	r3, [r2, r3]
 205 00da 2B55     		strb	r3, [r5, r4]
ARM GAS  C:\Users\310309~1\AppData\Local\Temp\ccZa2HSw.s 			page 7


 132:pamCrasd.c    ****             length += sizeof(CrasData.MaximumVO2Max);
 206              		.loc 1 132 0
 207 00dc 0134     		adds	r4, r4, #1
 208              	.LVL13:
 209 00de E4B2     		uxtb	r4, r4
 210              	.LVL14:
 211              	.L14:
 133:pamCrasd.c    ****         }
 134:pamCrasd.c    ****         if(CHECK_BIT(CrasData.Flags, 1/*MAX VO2MAX PRESENT*/))
 212              		.loc 1 134 0
 213 00e0 8D4B     		ldr	r3, .L44
 214 00e2 5B78     		ldrb	r3, [r3, #1]
 215 00e4 9B07     		lsls	r3, r3, #30
 216 00e6 05D5     		bpl	.L15
 135:pamCrasd.c    ****         {
 136:pamCrasd.c    ****             PresentData[length] = CrasData.MaximumVO2Max;
 217              		.loc 1 136 0
 218 00e8 2123     		movs	r3, #33
 219 00ea 8B4A     		ldr	r2, .L44
 220 00ec D35C     		ldrb	r3, [r2, r3]
 221 00ee 2B55     		strb	r3, [r5, r4]
 137:pamCrasd.c    ****             length += sizeof(CrasData.MaximumVO2Max);
 222              		.loc 1 137 0
 223 00f0 0134     		adds	r4, r4, #1
 224              	.LVL15:
 225 00f2 E4B2     		uxtb	r4, r4
 226              	.LVL16:
 227              	.L15:
 138:pamCrasd.c    ****         }
 139:pamCrasd.c    ****         if(CHECK_BIT(CrasData.Flags, 1/*AVG VO2MAX PRESENT*/))
 228              		.loc 1 139 0
 229 00f4 884B     		ldr	r3, .L44
 230 00f6 5B78     		ldrb	r3, [r3, #1]
 231 00f8 9B07     		lsls	r3, r3, #30
 232 00fa 05D5     		bpl	.L12
 140:pamCrasd.c    ****         {
 141:pamCrasd.c    ****             PresentData[length] = CrasData.AverageVO2Max;
 233              		.loc 1 141 0
 234 00fc 2223     		movs	r3, #34
 235 00fe 864A     		ldr	r2, .L44
 236 0100 D35C     		ldrb	r3, [r2, r3]
 237 0102 2B55     		strb	r3, [r5, r4]
 142:pamCrasd.c    ****             length += sizeof(CrasData.AverageVO2Max);
 238              		.loc 1 142 0
 239 0104 0134     		adds	r4, r4, #1
 240              	.LVL17:
 241 0106 E4B2     		uxtb	r4, r4
 242              	.LVL18:
 243              	.L12:
 143:pamCrasd.c    ****         }
 144:pamCrasd.c    ****     }
 145:pamCrasd.c    ****     if(CHECK_BIT(pamFeature, HEART_RATE_SUPPORTED))
 244              		.loc 1 145 0
 245 0108 844B     		ldr	r3, .L44+4
 246 010a 1B68     		ldr	r3, [r3]
 247 010c 002B     		cmp	r3, #0
 248 010e 1DDA     		bge	.L16
ARM GAS  C:\Users\310309~1\AppData\Local\Temp\ccZa2HSw.s 			page 8


 146:pamCrasd.c    ****     {
 147:pamCrasd.c    ****         if(CHECK_BIT(CrasData.Flags, 1/*MIN HEARTRATE PRESENT*/))
 249              		.loc 1 147 0
 250 0110 814B     		ldr	r3, .L44
 251 0112 5B78     		ldrb	r3, [r3, #1]
 252 0114 9B07     		lsls	r3, r3, #30
 253 0116 05D5     		bpl	.L18
 148:pamCrasd.c    ****         {
 149:pamCrasd.c    ****             PresentData[length] = CrasData.MinimumHeartRate;
 254              		.loc 1 149 0
 255 0118 2323     		movs	r3, #35
 256 011a 7F4A     		ldr	r2, .L44
 257 011c D35C     		ldrb	r3, [r2, r3]
 258 011e 2B55     		strb	r3, [r5, r4]
 150:pamCrasd.c    ****             length += sizeof(CrasData.MinimumHeartRate);
 259              		.loc 1 150 0
 260 0120 0134     		adds	r4, r4, #1
 261              	.LVL19:
 262 0122 E4B2     		uxtb	r4, r4
 263              	.LVL20:
 264              	.L18:
 151:pamCrasd.c    ****         }
 152:pamCrasd.c    ****         if(CHECK_BIT(CrasData.Flags, 1/*MAX HEARTRATE PRESENT*/))
 265              		.loc 1 152 0
 266 0124 7C4B     		ldr	r3, .L44
 267 0126 5B78     		ldrb	r3, [r3, #1]
 268 0128 9B07     		lsls	r3, r3, #30
 269 012a 05D5     		bpl	.L19
 153:pamCrasd.c    ****         {
 154:pamCrasd.c    ****             PresentData[length] = CrasData.MaximumHeartRate;
 270              		.loc 1 154 0
 271 012c 2423     		movs	r3, #36
 272 012e 7A4A     		ldr	r2, .L44
 273 0130 D35C     		ldrb	r3, [r2, r3]
 274 0132 2B55     		strb	r3, [r5, r4]
 155:pamCrasd.c    ****             length += sizeof(CrasData.MaximumHeartRate);
 275              		.loc 1 155 0
 276 0134 0134     		adds	r4, r4, #1
 277              	.LVL21:
 278 0136 E4B2     		uxtb	r4, r4
 279              	.LVL22:
 280              	.L19:
 156:pamCrasd.c    ****         }
 157:pamCrasd.c    ****         if(CHECK_BIT(CrasData.Flags, 1/*AVG HEARTRATE PRESENT*/))
 281              		.loc 1 157 0
 282 0138 774B     		ldr	r3, .L44
 283 013a 5B78     		ldrb	r3, [r3, #1]
 284 013c 9B07     		lsls	r3, r3, #30
 285 013e 05D5     		bpl	.L16
 158:pamCrasd.c    ****         {
 159:pamCrasd.c    ****             PresentData[length] = CrasData.AverageHeartRate;
 286              		.loc 1 159 0
 287 0140 2523     		movs	r3, #37
 288 0142 754A     		ldr	r2, .L44
 289 0144 D35C     		ldrb	r3, [r2, r3]
 290 0146 2B55     		strb	r3, [r5, r4]
 160:pamCrasd.c    ****             length += sizeof(CrasData.AverageHeartRate);
ARM GAS  C:\Users\310309~1\AppData\Local\Temp\ccZa2HSw.s 			page 9


 291              		.loc 1 160 0
 292 0148 0134     		adds	r4, r4, #1
 293              	.LVL23:
 294 014a E4B2     		uxtb	r4, r4
 295              	.LVL24:
 296              	.L16:
 161:pamCrasd.c    ****         }
 162:pamCrasd.c    ****     }
 163:pamCrasd.c    ****     if(CHECK_BIT(pamFeature, PULSE_INTER_BEAT_INTERVAL_SUPPORTED))
 297              		.loc 1 163 0
 298 014c 734B     		ldr	r3, .L44+4
 299 014e 5B68     		ldr	r3, [r3, #4]
 300 0150 DB07     		lsls	r3, r3, #31
 301 0152 2FD5     		bpl	.L20
 164:pamCrasd.c    ****     {
 165:pamCrasd.c    ****         if(CHECK_BIT(CrasData.Flags, 1/*MIN PULSE INTERBEAT INTERVAL PRESENT*/))
 302              		.loc 1 165 0
 303 0154 704B     		ldr	r3, .L44
 304 0156 5B78     		ldrb	r3, [r3, #1]
 305 0158 9B07     		lsls	r3, r3, #30
 306 015a 0BD5     		bpl	.L22
 166:pamCrasd.c    ****         {
 167:pamCrasd.c    ****             CyBle_Set16ByPtr(&PresentData[length], CrasData.MinimumPulseInterbeatInterval);
 307              		.loc 1 167 0
 308 015c 6E4A     		ldr	r2, .L44
 309 015e 2623     		movs	r3, #38
 310 0160 D35C     		ldrb	r3, [r2, r3]
 311 0162 2721     		movs	r1, #39
 312 0164 515C     		ldrb	r1, [r2, r1]
 313 0166 0902     		lsls	r1, r1, #8
 314 0168 1943     		orrs	r1, r3
 315 016a 2819     		adds	r0, r5, r4
 316              	.LVL25:
 317 016c FFF7FEFF 		bl	CyBle_Set16ByPtr
 318              	.LVL26:
 168:pamCrasd.c    ****             length += sizeof(CrasData.MinimumPulseInterbeatInterval);
 319              		.loc 1 168 0
 320 0170 0234     		adds	r4, r4, #2
 321              	.LVL27:
 322 0172 E4B2     		uxtb	r4, r4
 323              	.LVL28:
 324              	.L22:
 169:pamCrasd.c    ****         }
 170:pamCrasd.c    ****         if(CHECK_BIT(CrasData.Flags, 1/*MAX PULSE INTERBEAT INTERVAL PRESENT*/))
 325              		.loc 1 170 0
 326 0174 684B     		ldr	r3, .L44
 327 0176 5B78     		ldrb	r3, [r3, #1]
 328 0178 9B07     		lsls	r3, r3, #30
 329 017a 0BD5     		bpl	.L23
 171:pamCrasd.c    ****         {
 172:pamCrasd.c    ****             CyBle_Set16ByPtr(&PresentData[length], CrasData.MaximumPulseInterbeatInterval);
 330              		.loc 1 172 0
 331 017c 664A     		ldr	r2, .L44
 332 017e 2823     		movs	r3, #40
 333 0180 D35C     		ldrb	r3, [r2, r3]
 334 0182 2921     		movs	r1, #41
 335 0184 515C     		ldrb	r1, [r2, r1]
ARM GAS  C:\Users\310309~1\AppData\Local\Temp\ccZa2HSw.s 			page 10


 336 0186 0902     		lsls	r1, r1, #8
 337 0188 1943     		orrs	r1, r3
 338 018a 2819     		adds	r0, r5, r4
 339 018c FFF7FEFF 		bl	CyBle_Set16ByPtr
 340              	.LVL29:
 173:pamCrasd.c    ****             length += sizeof(CrasData.MaximumPulseInterbeatInterval);
 341              		.loc 1 173 0
 342 0190 0234     		adds	r4, r4, #2
 343              	.LVL30:
 344 0192 E4B2     		uxtb	r4, r4
 345              	.LVL31:
 346              	.L23:
 174:pamCrasd.c    ****         }
 175:pamCrasd.c    ****         if(CHECK_BIT(CrasData.Flags, 1/*AVG PULSE INTERBEAT INTERVAL PRESENT*/))
 347              		.loc 1 175 0
 348 0194 604B     		ldr	r3, .L44
 349 0196 5B78     		ldrb	r3, [r3, #1]
 350 0198 9B07     		lsls	r3, r3, #30
 351 019a 0BD5     		bpl	.L20
 176:pamCrasd.c    ****         {
 177:pamCrasd.c    ****             CyBle_Set16ByPtr(&PresentData[length], CrasData.AveragePulseInterbeatInterval);
 352              		.loc 1 177 0
 353 019c 5E4A     		ldr	r2, .L44
 354 019e 2A23     		movs	r3, #42
 355 01a0 D35C     		ldrb	r3, [r2, r3]
 356 01a2 2B21     		movs	r1, #43
 357 01a4 515C     		ldrb	r1, [r2, r1]
 358 01a6 0902     		lsls	r1, r1, #8
 359 01a8 1943     		orrs	r1, r3
 360 01aa 2819     		adds	r0, r5, r4
 361 01ac FFF7FEFF 		bl	CyBle_Set16ByPtr
 362              	.LVL32:
 178:pamCrasd.c    ****             length += sizeof(CrasData.AveragePulseInterbeatInterval);
 363              		.loc 1 178 0
 364 01b0 0234     		adds	r4, r4, #2
 365              	.LVL33:
 366 01b2 E4B2     		uxtb	r4, r4
 367              	.LVL34:
 368              	.L20:
 179:pamCrasd.c    ****         }
 180:pamCrasd.c    ****     }
 181:pamCrasd.c    ****     if(CHECK_BIT(pamFeature, RESTING_HEART_RATE_SUPPORTED))
 369              		.loc 1 181 0
 370 01b4 594B     		ldr	r3, .L44+4
 371 01b6 5B68     		ldr	r3, [r3, #4]
 372 01b8 9B07     		lsls	r3, r3, #30
 373 01ba 1DD5     		bpl	.L24
 182:pamCrasd.c    ****     {
 183:pamCrasd.c    ****         if(CHECK_BIT(CrasData.Flags, 1/*MIN REST HEART RATE PRESENT*/))
 374              		.loc 1 183 0
 375 01bc 564B     		ldr	r3, .L44
 376 01be 5B78     		ldrb	r3, [r3, #1]
 377 01c0 9B07     		lsls	r3, r3, #30
 378 01c2 05D5     		bpl	.L26
 184:pamCrasd.c    ****         {
 185:pamCrasd.c    ****             PresentData[length] = CrasData.MinimumRestingHeartRate;
 379              		.loc 1 185 0
ARM GAS  C:\Users\310309~1\AppData\Local\Temp\ccZa2HSw.s 			page 11


 380 01c4 2C23     		movs	r3, #44
 381 01c6 544A     		ldr	r2, .L44
 382 01c8 D35C     		ldrb	r3, [r2, r3]
 383 01ca 2B55     		strb	r3, [r5, r4]
 186:pamCrasd.c    ****             length += sizeof(CrasData.MinimumRestingHeartRate);
 384              		.loc 1 186 0
 385 01cc 0134     		adds	r4, r4, #1
 386              	.LVL35:
 387 01ce E4B2     		uxtb	r4, r4
 388              	.LVL36:
 389              	.L26:
 187:pamCrasd.c    ****         }
 188:pamCrasd.c    ****         if(CHECK_BIT(CrasData.Flags, 1/*MAX REST HEART RATE PRESENT*/))
 390              		.loc 1 188 0
 391 01d0 514B     		ldr	r3, .L44
 392 01d2 5B78     		ldrb	r3, [r3, #1]
 393 01d4 9B07     		lsls	r3, r3, #30
 394 01d6 05D5     		bpl	.L27
 189:pamCrasd.c    ****         {
 190:pamCrasd.c    ****             PresentData[length] = CrasData.MaximumRestingHeartRate;
 395              		.loc 1 190 0
 396 01d8 2D23     		movs	r3, #45
 397 01da 4F4A     		ldr	r2, .L44
 398 01dc D35C     		ldrb	r3, [r2, r3]
 399 01de 2B55     		strb	r3, [r5, r4]
 191:pamCrasd.c    ****             length += sizeof(CrasData.MaximumRestingHeartRate);
 400              		.loc 1 191 0
 401 01e0 0134     		adds	r4, r4, #1
 402              	.LVL37:
 403 01e2 E4B2     		uxtb	r4, r4
 404              	.LVL38:
 405              	.L27:
 192:pamCrasd.c    ****         }
 193:pamCrasd.c    ****         if(CHECK_BIT(CrasData.Flags, 1/*AVG REST HEART RATE PRESENT*/))
 406              		.loc 1 193 0
 407 01e4 4C4B     		ldr	r3, .L44
 408 01e6 5B78     		ldrb	r3, [r3, #1]
 409 01e8 9B07     		lsls	r3, r3, #30
 410 01ea 05D5     		bpl	.L24
 194:pamCrasd.c    ****         {
 195:pamCrasd.c    ****             PresentData[length] = CrasData.AverageRestingHeartRate;
 411              		.loc 1 195 0
 412 01ec 2E23     		movs	r3, #46
 413 01ee 4A4A     		ldr	r2, .L44
 414 01f0 D35C     		ldrb	r3, [r2, r3]
 415 01f2 2B55     		strb	r3, [r5, r4]
 196:pamCrasd.c    ****             length += sizeof(CrasData.AverageRestingHeartRate);
 416              		.loc 1 196 0
 417 01f4 0134     		adds	r4, r4, #1
 418              	.LVL39:
 419 01f6 E4B2     		uxtb	r4, r4
 420              	.LVL40:
 421              	.L24:
 197:pamCrasd.c    ****         }
 198:pamCrasd.c    ****     }
 199:pamCrasd.c    ****     if(CHECK_BIT(pamFeature, HEART_RATE_VARIABILITY_SUPPORTED))
 422              		.loc 1 199 0
ARM GAS  C:\Users\310309~1\AppData\Local\Temp\ccZa2HSw.s 			page 12


 423 01f8 484B     		ldr	r3, .L44+4
 424 01fa 5B68     		ldr	r3, [r3, #4]
 425 01fc 5B07     		lsls	r3, r3, #29
 426 01fe 2FD5     		bpl	.L28
 200:pamCrasd.c    ****     {
 201:pamCrasd.c    ****         if(CHECK_BIT(CrasData.Flags, 1/*MIN HEART RATE VARIABILITY PRESENT*/))
 427              		.loc 1 201 0
 428 0200 454B     		ldr	r3, .L44
 429 0202 5B78     		ldrb	r3, [r3, #1]
 430 0204 9B07     		lsls	r3, r3, #30
 431 0206 0BD5     		bpl	.L30
 202:pamCrasd.c    ****         {
 203:pamCrasd.c    ****             CyBle_Set16ByPtr(&PresentData[length], CrasData.MinimumHeartRateVariability);
 432              		.loc 1 203 0
 433 0208 434A     		ldr	r2, .L44
 434 020a 2F23     		movs	r3, #47
 435 020c D35C     		ldrb	r3, [r2, r3]
 436 020e 3021     		movs	r1, #48
 437 0210 515C     		ldrb	r1, [r2, r1]
 438 0212 0902     		lsls	r1, r1, #8
 439 0214 1943     		orrs	r1, r3
 440 0216 2819     		adds	r0, r5, r4
 441 0218 FFF7FEFF 		bl	CyBle_Set16ByPtr
 442              	.LVL41:
 204:pamCrasd.c    ****             length += sizeof(CrasData.MinimumHeartRateVariability);
 443              		.loc 1 204 0
 444 021c 0234     		adds	r4, r4, #2
 445              	.LVL42:
 446 021e E4B2     		uxtb	r4, r4
 447              	.LVL43:
 448              	.L30:
 205:pamCrasd.c    ****         }
 206:pamCrasd.c    ****         if(CHECK_BIT(CrasData.Flags, 1/*MAX HEART RATE VARIABILITY PRESENT*/))
 449              		.loc 1 206 0
 450 0220 3D4B     		ldr	r3, .L44
 451 0222 5B78     		ldrb	r3, [r3, #1]
 452 0224 9B07     		lsls	r3, r3, #30
 453 0226 0BD5     		bpl	.L31
 207:pamCrasd.c    ****         {
 208:pamCrasd.c    ****             CyBle_Set16ByPtr(&PresentData[length], CrasData.MaximumHeartRateVariability);
 454              		.loc 1 208 0
 455 0228 3B4A     		ldr	r2, .L44
 456 022a 3123     		movs	r3, #49
 457 022c D35C     		ldrb	r3, [r2, r3]
 458 022e 3221     		movs	r1, #50
 459 0230 515C     		ldrb	r1, [r2, r1]
 460 0232 0902     		lsls	r1, r1, #8
 461 0234 1943     		orrs	r1, r3
 462 0236 2819     		adds	r0, r5, r4
 463 0238 FFF7FEFF 		bl	CyBle_Set16ByPtr
 464              	.LVL44:
 209:pamCrasd.c    ****             length += sizeof(CrasData.MaximumHeartRateVariability);
 465              		.loc 1 209 0
 466 023c 0234     		adds	r4, r4, #2
 467              	.LVL45:
 468 023e E4B2     		uxtb	r4, r4
 469              	.LVL46:
ARM GAS  C:\Users\310309~1\AppData\Local\Temp\ccZa2HSw.s 			page 13


 470              	.L31:
 210:pamCrasd.c    ****         }
 211:pamCrasd.c    ****         if(CHECK_BIT(CrasData.Flags, 1/*AVG HEART RATE VARIABILITY PRESENT*/))
 471              		.loc 1 211 0
 472 0240 354B     		ldr	r3, .L44
 473 0242 5B78     		ldrb	r3, [r3, #1]
 474 0244 9B07     		lsls	r3, r3, #30
 475 0246 0BD5     		bpl	.L28
 212:pamCrasd.c    ****         {
 213:pamCrasd.c    ****             CyBle_Set16ByPtr(&PresentData[length], CrasData.AverageHeartRateVariability);
 476              		.loc 1 213 0
 477 0248 334A     		ldr	r2, .L44
 478 024a 3323     		movs	r3, #51
 479 024c D35C     		ldrb	r3, [r2, r3]
 480 024e 3421     		movs	r1, #52
 481 0250 515C     		ldrb	r1, [r2, r1]
 482 0252 0902     		lsls	r1, r1, #8
 483 0254 1943     		orrs	r1, r3
 484 0256 2819     		adds	r0, r5, r4
 485 0258 FFF7FEFF 		bl	CyBle_Set16ByPtr
 486              	.LVL47:
 214:pamCrasd.c    ****             length += sizeof(CrasData.AverageHeartRateVariability);
 487              		.loc 1 214 0
 488 025c 0234     		adds	r4, r4, #2
 489              	.LVL48:
 490 025e E4B2     		uxtb	r4, r4
 491              	.LVL49:
 492              	.L28:
 215:pamCrasd.c    ****         }
 216:pamCrasd.c    ****     }
 217:pamCrasd.c    ****     if(CHECK_BIT(pamFeature, RESPIRATION_RATE_SUPPORTED))
 493              		.loc 1 217 0
 494 0260 2E4B     		ldr	r3, .L44+4
 495 0262 5B68     		ldr	r3, [r3, #4]
 496 0264 1B07     		lsls	r3, r3, #28
 497 0266 1DD5     		bpl	.L32
 218:pamCrasd.c    ****     {
 219:pamCrasd.c    ****         if(CHECK_BIT(CrasData.Flags, 1/*MIN RESPIRATION RATE PRESENT*/))
 498              		.loc 1 219 0
 499 0268 2B4B     		ldr	r3, .L44
 500 026a 5B78     		ldrb	r3, [r3, #1]
 501 026c 9B07     		lsls	r3, r3, #30
 502 026e 05D5     		bpl	.L34
 220:pamCrasd.c    ****         {
 221:pamCrasd.c    ****             PresentData[length] = CrasData.MinimumRespirationRate;
 503              		.loc 1 221 0
 504 0270 3523     		movs	r3, #53
 505 0272 294A     		ldr	r2, .L44
 506 0274 D35C     		ldrb	r3, [r2, r3]
 507 0276 2B55     		strb	r3, [r5, r4]
 222:pamCrasd.c    ****             length += sizeof(CrasData.MinimumRespirationRate);
 508              		.loc 1 222 0
 509 0278 0134     		adds	r4, r4, #1
 510              	.LVL50:
 511 027a E4B2     		uxtb	r4, r4
 512              	.LVL51:
 513              	.L34:
ARM GAS  C:\Users\310309~1\AppData\Local\Temp\ccZa2HSw.s 			page 14


 223:pamCrasd.c    ****         }
 224:pamCrasd.c    ****         if(CHECK_BIT(CrasData.Flags, 1/*MAX RESPIRATION RATE PRESENT*/))
 514              		.loc 1 224 0
 515 027c 264B     		ldr	r3, .L44
 516 027e 5B78     		ldrb	r3, [r3, #1]
 517 0280 9B07     		lsls	r3, r3, #30
 518 0282 05D5     		bpl	.L35
 225:pamCrasd.c    ****         {
 226:pamCrasd.c    ****             PresentData[length] = CrasData.MaximumRespirationRate;
 519              		.loc 1 226 0
 520 0284 3623     		movs	r3, #54
 521 0286 244A     		ldr	r2, .L44
 522 0288 D35C     		ldrb	r3, [r2, r3]
 523 028a 2B55     		strb	r3, [r5, r4]
 227:pamCrasd.c    ****             length += sizeof(CrasData.MaximumRespirationRate);
 524              		.loc 1 227 0
 525 028c 0134     		adds	r4, r4, #1
 526              	.LVL52:
 527 028e E4B2     		uxtb	r4, r4
 528              	.LVL53:
 529              	.L35:
 228:pamCrasd.c    ****         }
 229:pamCrasd.c    ****         if(CHECK_BIT(CrasData.Flags, 1/*AVG RESPIRATION RATE PRESENT*/))
 530              		.loc 1 229 0
 531 0290 214B     		ldr	r3, .L44
 532 0292 5B78     		ldrb	r3, [r3, #1]
 533 0294 9B07     		lsls	r3, r3, #30
 534 0296 05D5     		bpl	.L32
 230:pamCrasd.c    ****         {
 231:pamCrasd.c    ****             PresentData[length] = CrasData.AverageRespirationRate;
 535              		.loc 1 231 0
 536 0298 3723     		movs	r3, #55
 537 029a 1F4A     		ldr	r2, .L44
 538 029c D35C     		ldrb	r3, [r2, r3]
 539 029e 2B55     		strb	r3, [r5, r4]
 232:pamCrasd.c    ****             length += sizeof(CrasData.AverageRespirationRate);
 540              		.loc 1 232 0
 541 02a0 0134     		adds	r4, r4, #1
 542              	.LVL54:
 543 02a2 E4B2     		uxtb	r4, r4
 544              	.LVL55:
 545              	.L32:
 233:pamCrasd.c    ****         }
 234:pamCrasd.c    ****     }
 235:pamCrasd.c    ****     if(CHECK_BIT(pamFeature, RESTING_RESPIRATION_RATE_SUPPORTED))
 546              		.loc 1 235 0
 547 02a4 1D4B     		ldr	r3, .L44+4
 548 02a6 5B68     		ldr	r3, [r3, #4]
 549 02a8 DB06     		lsls	r3, r3, #27
 550 02aa 1DD5     		bpl	.L36
 236:pamCrasd.c    ****     {
 237:pamCrasd.c    ****         if(CHECK_BIT(CrasData.Flags, 1/*MIN RESTING RESPIRATION RATE PRESENT*/))
 551              		.loc 1 237 0
 552 02ac 1A4B     		ldr	r3, .L44
 553 02ae 5B78     		ldrb	r3, [r3, #1]
 554 02b0 9B07     		lsls	r3, r3, #30
 555 02b2 05D5     		bpl	.L38
ARM GAS  C:\Users\310309~1\AppData\Local\Temp\ccZa2HSw.s 			page 15


 238:pamCrasd.c    ****         {
 239:pamCrasd.c    ****             PresentData[length] = CrasData.MinimumRestingRespirationRate;
 556              		.loc 1 239 0
 557 02b4 3823     		movs	r3, #56
 558 02b6 184A     		ldr	r2, .L44
 559 02b8 D35C     		ldrb	r3, [r2, r3]
 560 02ba 2B55     		strb	r3, [r5, r4]
 240:pamCrasd.c    ****             length += sizeof(CrasData.MinimumRestingRespirationRate);
 561              		.loc 1 240 0
 562 02bc 0134     		adds	r4, r4, #1
 563              	.LVL56:
 564 02be E4B2     		uxtb	r4, r4
 565              	.LVL57:
 566              	.L38:
 241:pamCrasd.c    ****         }
 242:pamCrasd.c    ****         if(CHECK_BIT(CrasData.Flags, 1/*MAX RESTING RESPIRATION RATE PRESENT*/))
 567              		.loc 1 242 0
 568 02c0 154B     		ldr	r3, .L44
 569 02c2 5B78     		ldrb	r3, [r3, #1]
 570 02c4 9B07     		lsls	r3, r3, #30
 571 02c6 05D5     		bpl	.L39
 243:pamCrasd.c    ****         {
 244:pamCrasd.c    ****             PresentData[length] = CrasData.MaximumRestingRespirationRate;
 572              		.loc 1 244 0
 573 02c8 3923     		movs	r3, #57
 574 02ca 134A     		ldr	r2, .L44
 575 02cc D35C     		ldrb	r3, [r2, r3]
 576 02ce 2B55     		strb	r3, [r5, r4]
 245:pamCrasd.c    ****             length += sizeof(CrasData.MaximumRestingRespirationRate);
 577              		.loc 1 245 0
 578 02d0 0134     		adds	r4, r4, #1
 579              	.LVL58:
 580 02d2 E4B2     		uxtb	r4, r4
 581              	.LVL59:
 582              	.L39:
 246:pamCrasd.c    ****         }
 247:pamCrasd.c    ****         if(CHECK_BIT(CrasData.Flags, 1/*AVG RESTING RESPIRATION RATE PRESENT*/))
 583              		.loc 1 247 0
 584 02d4 104B     		ldr	r3, .L44
 585 02d6 5B78     		ldrb	r3, [r3, #1]
 586 02d8 9B07     		lsls	r3, r3, #30
 587 02da 05D5     		bpl	.L36
 248:pamCrasd.c    ****         {
 249:pamCrasd.c    ****             PresentData[length] = CrasData.AverageRestingRespirationRate;
 588              		.loc 1 249 0
 589 02dc 3A23     		movs	r3, #58
 590 02de 0E4A     		ldr	r2, .L44
 591 02e0 D35C     		ldrb	r3, [r2, r3]
 592 02e2 2B55     		strb	r3, [r5, r4]
 250:pamCrasd.c    ****             length += sizeof(CrasData.AverageRestingRespirationRate);
 593              		.loc 1 250 0
 594 02e4 0134     		adds	r4, r4, #1
 595              	.LVL60:
 596 02e6 E4B2     		uxtb	r4, r4
 597              	.LVL61:
 598              	.L36:
 251:pamCrasd.c    ****         }
ARM GAS  C:\Users\310309~1\AppData\Local\Temp\ccZa2HSw.s 			page 16


 252:pamCrasd.c    ****     }
 253:pamCrasd.c    ****     if(CHECK_BIT(CrasData.Flags, 1/*WORN DURATION PRESENT*/) &&
 599              		.loc 1 253 0
 600 02e8 0B4B     		ldr	r3, .L44
 601 02ea 5B78     		ldrb	r3, [r3, #1]
 602 02ec 9B07     		lsls	r3, r3, #30
 603 02ee 11D5     		bpl	.L40
 254:pamCrasd.c    ****        CHECK_BIT(pamFeature, WORN_DURATION_SUPPORTED))
 604              		.loc 1 254 0 discriminator 1
 605 02f0 0A4B     		ldr	r3, .L44+4
 606 02f2 1B68     		ldr	r3, [r3]
 253:pamCrasd.c    ****        CHECK_BIT(pamFeature, WORN_DURATION_SUPPORTED))
 607              		.loc 1 253 0 discriminator 1
 608 02f4 DB01     		lsls	r3, r3, #7
 609 02f6 0DD5     		bpl	.L40
 255:pamCrasd.c    ****     {
 256:pamCrasd.c    ****         PresentData[length] = CrasData.WornDuration[2];
 610              		.loc 1 256 0 discriminator 1
 611 02f8 074B     		ldr	r3, .L44
 612 02fa 3D22     		movs	r2, #61
 613 02fc 9A5C     		ldrb	r2, [r3, r2]
 614 02fe 2A55     		strb	r2, [r5, r4]
 257:pamCrasd.c    ****         PresentData[length + 1] = CrasData.WornDuration[1];
 615              		.loc 1 257 0 discriminator 1
 616 0300 621C     		adds	r2, r4, #1
 617 0302 3C21     		movs	r1, #60
 618 0304 595C     		ldrb	r1, [r3, r1]
 619 0306 A954     		strb	r1, [r5, r2]
 258:pamCrasd.c    ****         PresentData[length + 2] = CrasData.WornDuration[0];
 620              		.loc 1 258 0 discriminator 1
 621 0308 A21C     		adds	r2, r4, #2
 622 030a 3B21     		movs	r1, #59
 623 030c 5B5C     		ldrb	r3, [r3, r1]
 624 030e AB54     		strb	r3, [r5, r2]
 259:pamCrasd.c    ****         length += sizeof(CrasData.WornDuration);
 625              		.loc 1 259 0 discriminator 1
 626 0310 0334     		adds	r4, r4, #3
 627              	.LVL62:
 628 0312 E4B2     		uxtb	r4, r4
 629              	.LVL63:
 630              	.L40:
 260:pamCrasd.c    ****     }
 261:pamCrasd.c    ****     
 262:pamCrasd.c    ****     return length;
 263:pamCrasd.c    **** }
 631              		.loc 1 263 0
 632 0314 2000     		movs	r0, r4
 633              		@ sp needed
 634              	.LVL64:
 635              	.LVL65:
 636 0316 70BD     		pop	{r4, r5, r6, pc}
 637              	.L45:
 638              		.align	2
 639              	.L44:
 640 0318 00000000 		.word	CrasData
 641 031c 00000000 		.word	pamFeature
 642              		.cfi_endproc
ARM GAS  C:\Users\310309~1\AppData\Local\Temp\ccZa2HSw.s 			page 17


 643              	.LFE37:
 644              		.size	getPresentCrasdFields, .-getPresentCrasdFields
 645              		.global	__aeabi_ui2d
 646              		.section	.text.UpdateCrasd,"ax",%progbits
 647              		.align	2
 648              		.global	UpdateCrasd
 649              		.code	16
 650              		.thumb_func
 651              		.type	UpdateCrasd, %function
 652              	UpdateCrasd:
 653              	.LFB36:
  16:pamCrasd.c    ****     CYBLE_GATTS_HANDLE_VALUE_NTF_T tempHandle;
 654              		.loc 1 16 0
 655              		.cfi_startproc
 656              		@ args = 0, pretend = 0, frame = 96
 657              		@ frame_needed = 0, uses_anonymous_args = 0
 658 0000 F0B5     		push	{r4, r5, r6, r7, lr}
 659              		.cfi_def_cfa_offset 20
 660              		.cfi_offset 4, -20
 661              		.cfi_offset 5, -16
 662              		.cfi_offset 6, -12
 663              		.cfi_offset 7, -8
 664              		.cfi_offset 14, -4
 665 0002 99B0     		sub	sp, sp, #100
 666              		.cfi_def_cfa_offset 120
  19:pamCrasd.c    ****     tempHandle.value.val = (uint8 *)&CrasData;
 667              		.loc 1 19 0
 668 0004 15A8     		add	r0, sp, #84
 669 0006 2223     		movs	r3, #34
 670 0008 0381     		strh	r3, [r0, #8]
  20:pamCrasd.c    ****     tempHandle.value.len = sizeof(CrasData);
 671              		.loc 1 20 0
 672 000a 464B     		ldr	r3, .L55
 673 000c 1593     		str	r3, [sp, #84]
  21:pamCrasd.c    ****     CyBle_GattsWriteAttributeValue(&tempHandle, 0, &cyBle_connHandle, 0);
 674              		.loc 1 21 0
 675 000e 3E23     		movs	r3, #62
 676 0010 8380     		strh	r3, [r0, #4]
  22:pamCrasd.c    ****     
 677              		.loc 1 22 0
 678 0012 0023     		movs	r3, #0
 679 0014 444A     		ldr	r2, .L55+4
 680 0016 0021     		movs	r1, #0
 681 0018 FFF7FEFF 		bl	CyBle_GattsWriteAttributeValue
 682              	.LVL66:
  24:pamCrasd.c    ****     {
 683              		.loc 1 24 0
 684 001c 434B     		ldr	r3, .L55+8
 685 001e 1B68     		ldr	r3, [r3]
 686 0020 002B     		cmp	r3, #0
 687 0022 7DD0     		beq	.L46
 688              	.LBB2:
  28:pamCrasd.c    ****         DBG_PRINTF("CARDIORESPIRATORY ACTIVITY SUMMARY DATA presentdatalength = %i\r\n", presentDat
 689              		.loc 1 28 0
 690 0024 05A8     		add	r0, sp, #20
 691 0026 FFF7FEFF 		bl	getPresentCrasdFields
 692              	.LVL67:
ARM GAS  C:\Users\310309~1\AppData\Local\Temp\ccZa2HSw.s 			page 18


 693 002a 0400     		movs	r4, r0
 694 002c 0600     		movs	r6, r0
 695              	.LVL68:
  29:pamCrasd.c    ****         uint8 N = calculateNumberOfMessages(presentDataLength);
 696              		.loc 1 29 0
 697 002e 0100     		movs	r1, r0
 698 0030 3F48     		ldr	r0, .L55+12
 699              	.LVL69:
 700 0032 FFF7FEFF 		bl	printf
 701              	.LVL70:
  30:pamCrasd.c    ****         DBG_PRINTF("CARDIORESPIRATORY ACTIVITY SUMMARY DATA N = %i\r\n", N);
 702              		.loc 1 30 0
 703 0036 2000     		movs	r0, r4
 704 0038 FFF7FEFF 		bl	__aeabi_ui2d
 705              	.LVL71:
 706 003c FFF7FEFF 		bl	calculateNumberOfMessages
 707              	.LVL72:
 708 0040 0100     		movs	r1, r0
 709 0042 0700     		movs	r7, r0
 710              	.LVL73:
  31:pamCrasd.c    ****         
 711              		.loc 1 31 0
 712 0044 3B48     		ldr	r0, .L55+16
 713 0046 FFF7FEFF 		bl	printf
 714              	.LVL74:
  35:pamCrasd.c    ****         byteCount += sizeof(CrasData.Flags);
 715              		.loc 1 35 0
 716 004a 364C     		ldr	r4, .L55
 717 004c 6078     		ldrb	r0, [r4, #1]
 718 004e A378     		ldrb	r3, [r4, #2]
 719 0050 1B02     		lsls	r3, r3, #8
 720 0052 0343     		orrs	r3, r0
 721 0054 1A00     		movs	r2, r3
 722 0056 E178     		ldrb	r1, [r4, #3]
 723 0058 0904     		lsls	r1, r1, #16
 724 005a 0B00     		movs	r3, r1
 725 005c 1343     		orrs	r3, r2
 726 005e 2179     		ldrb	r1, [r4, #4]
 727 0060 0906     		lsls	r1, r1, #24
 728 0062 1943     		orrs	r1, r3
 729 0064 1520     		movs	r0, #21
 730 0066 6844     		add	r0, r0, sp
 731 0068 FFF7FEFF 		bl	CyBle_Set32ByPtr
 732              	.LVL75:
  38:pamCrasd.c    ****         byteCount += sizeof(CrasData.SessionID);
 733              		.loc 1 38 0
 734 006c 6379     		ldrb	r3, [r4, #5]
 735 006e A179     		ldrb	r1, [r4, #6]
 736 0070 0902     		lsls	r1, r1, #8
 737 0072 1943     		orrs	r1, r3
 738 0074 1920     		movs	r0, #25
 739 0076 6844     		add	r0, r0, sp
 740 0078 FFF7FEFF 		bl	CyBle_Set16ByPtr
 741              	.LVL76:
  41:pamCrasd.c    ****         byteCount += sizeof(CrasData.SubSessionID);
 742              		.loc 1 41 0
 743 007c E379     		ldrb	r3, [r4, #7]
ARM GAS  C:\Users\310309~1\AppData\Local\Temp\ccZa2HSw.s 			page 19


 744 007e 217A     		ldrb	r1, [r4, #8]
 745 0080 0902     		lsls	r1, r1, #8
 746 0082 1943     		orrs	r1, r3
 747 0084 1B20     		movs	r0, #27
 748 0086 6844     		add	r0, r0, sp
 749 0088 FFF7FEFF 		bl	CyBle_Set16ByPtr
 750              	.LVL77:
  44:pamCrasd.c    ****         byteCount += sizeof(CrasData.RelativeTimestamp);
 751              		.loc 1 44 0
 752 008c 607A     		ldrb	r0, [r4, #9]
 753 008e A37A     		ldrb	r3, [r4, #10]
 754 0090 1B02     		lsls	r3, r3, #8
 755 0092 0343     		orrs	r3, r0
 756 0094 1A00     		movs	r2, r3
 757 0096 E17A     		ldrb	r1, [r4, #11]
 758 0098 0904     		lsls	r1, r1, #16
 759 009a 0B00     		movs	r3, r1
 760 009c 1343     		orrs	r3, r2
 761 009e 217B     		ldrb	r1, [r4, #12]
 762 00a0 0906     		lsls	r1, r1, #24
 763 00a2 1943     		orrs	r1, r3
 764 00a4 1D20     		movs	r0, #29
 765 00a6 6844     		add	r0, r0, sp
 766 00a8 FFF7FEFF 		bl	CyBle_Set32ByPtr
 767              	.LVL78:
  47:pamCrasd.c    ****         byteCount += sizeof(CrasData.SequenceNumber);
 768              		.loc 1 47 0
 769 00ac 607B     		ldrb	r0, [r4, #13]
 770 00ae A37B     		ldrb	r3, [r4, #14]
 771 00b0 1B02     		lsls	r3, r3, #8
 772 00b2 0343     		orrs	r3, r0
 773 00b4 1A00     		movs	r2, r3
 774 00b6 E17B     		ldrb	r1, [r4, #15]
 775 00b8 0904     		lsls	r1, r1, #16
 776 00ba 0B00     		movs	r3, r1
 777 00bc 1343     		orrs	r3, r2
 778 00be 217C     		ldrb	r1, [r4, #16]
 779 00c0 0906     		lsls	r1, r1, #24
 780 00c2 1943     		orrs	r1, r3
 781 00c4 2120     		movs	r0, #33
 782 00c6 6844     		add	r0, r0, sp
 783 00c8 FFF7FEFF 		bl	CyBle_Set32ByPtr
 784              	.LVL79:
 785              	.LBB3:
  57:pamCrasd.c    ****         {
 786              		.loc 1 57 0
 787 00cc 0024     		movs	r4, #0
 788              	.LBE3:
  54:pamCrasd.c    ****         
 789              		.loc 1 54 0
 790 00ce 0025     		movs	r5, #0
 791              	.LBB5:
  57:pamCrasd.c    ****         {
 792              		.loc 1 57 0
 793 00d0 24E0     		b	.L48
 794              	.LVL80:
 795              	.L54:
ARM GAS  C:\Users\310309~1\AppData\Local\Temp\ccZa2HSw.s 			page 20


  59:pamCrasd.c    ****             {
 796              		.loc 1 59 0
 797 00d2 002C     		cmp	r4, #0
 798 00d4 05D1     		bne	.L49
  61:pamCrasd.c    ****             }
 799              		.loc 1 61 0
 800 00d6 3B00     		movs	r3, r7
 801 00d8 7F33     		adds	r3, r3, #127
 802 00da 6A46     		mov	r2, sp
 803 00dc 1370     		strb	r3, [r2]
 804              	.L51:
 805              	.LBE5:
 806              	.LBE2:
  16:pamCrasd.c    ****     CYBLE_GATTS_HANDLE_VALUE_NTF_T tempHandle;
 807              		.loc 1 16 0 discriminator 1
 808 00de 0122     		movs	r2, #1
 809 00e0 13E0     		b	.L50
 810              	.L49:
 811              	.LBB7:
 812              	.LBB6:
  65:pamCrasd.c    ****             }
 813              		.loc 1 65 0
 814 00e2 3B1B     		subs	r3, r7, r4
 815 00e4 013B     		subs	r3, r3, #1
 816 00e6 6A46     		mov	r2, sp
 817 00e8 1370     		strb	r3, [r2]
 818 00ea F8E7     		b	.L51
 819              	.LVL81:
 820              	.L53:
 821              	.LBB4:
  71:pamCrasd.c    ****                 {
 822              		.loc 1 71 0
 823 00ec E300     		lsls	r3, r4, #3
 824 00ee 1B19     		adds	r3, r3, r4
 825 00f0 5B00     		lsls	r3, r3, #1
 826 00f2 1B19     		adds	r3, r3, r4
 827 00f4 D318     		adds	r3, r2, r3
 828 00f6 B342     		cmp	r3, r6
 829 00f8 05D2     		bcs	.L52
  73:pamCrasd.c    ****                     MessageSize = i + HEADER_SIZE;
 830              		.loc 1 73 0
 831 00fa 05A9     		add	r1, sp, #20
 832              	.LVL82:
 833 00fc CB5C     		ldrb	r3, [r1, r3]
 834 00fe 6946     		mov	r1, sp
 835              	.LVL83:
 836 0100 8B54     		strb	r3, [r1, r2]
  74:pamCrasd.c    ****                 }
 837              		.loc 1 74 0
 838 0102 551C     		adds	r5, r2, #1
 839              	.LVL84:
 840 0104 EDB2     		uxtb	r5, r5
 841              	.LVL85:
 842              	.L52:
  69:pamCrasd.c    ****             {
 843              		.loc 1 69 0 discriminator 2
 844 0106 0132     		adds	r2, r2, #1
ARM GAS  C:\Users\310309~1\AppData\Local\Temp\ccZa2HSw.s 			page 21


 845              	.LVL86:
 846 0108 D2B2     		uxtb	r2, r2
 847              	.LVL87:
 848              	.L50:
  69:pamCrasd.c    ****             {
 849              		.loc 1 69 0 is_stmt 0 discriminator 1
 850 010a 132A     		cmp	r2, #19
 851 010c EED9     		bls	.L53
 852              	.LBE4:
  77:pamCrasd.c    ****         }
 853              		.loc 1 77 0 is_stmt 1 discriminator 2
 854 010e AAB2     		uxth	r2, r5
 855              	.LVL88:
 856 0110 6946     		mov	r1, sp
 857 0112 2220     		movs	r0, #34
 858 0114 FFF7FEFF 		bl	ble_SendIndication
 859              	.LVL89:
  57:pamCrasd.c    ****         {
 860              		.loc 1 57 0 discriminator 2
 861 0118 0134     		adds	r4, r4, #1
 862              	.LVL90:
 863 011a E4B2     		uxtb	r4, r4
 864              	.LVL91:
 865              	.L48:
  57:pamCrasd.c    ****         {
 866              		.loc 1 57 0 is_stmt 0 discriminator 1
 867 011c BC42     		cmp	r4, r7
 868 011e D8D3     		bcc	.L54
 869              	.LVL92:
 870              	.L46:
 871              	.LBE6:
 872              	.LBE7:
  80:pamCrasd.c    **** 
 873              		.loc 1 80 0 is_stmt 1
 874 0120 19B0     		add	sp, sp, #100
 875              		@ sp needed
 876 0122 F0BD     		pop	{r4, r5, r6, r7, pc}
 877              	.L56:
 878              		.align	2
 879              	.L55:
 880 0124 00000000 		.word	CrasData
 881 0128 00000000 		.word	cyBle_connHandle
 882 012c 00000000 		.word	cardiorespiratoryactivitysummarydataIndicate
 883 0130 00000000 		.word	.LC5
 884 0134 44000000 		.word	.LC7
 885              		.cfi_endproc
 886              	.LFE36:
 887              		.size	UpdateCrasd, .-UpdateCrasd
 888              		.comm	cardiorespiratoryactivitysummarydataIndicate,4,4
 889              		.comm	CrasData,62,4
 890              		.comm	sessionDescriptorIndicate,1,1
 891              		.comm	pamFeature,8,8
 892              		.comm	UserDefinedActivityTypeAllSubSessions,625,4
 893              		.comm	Update_GASD_With_New_Activity,1,1
 894              		.comm	send_Deleted_Sessions,1,1
 895              		.comm	Get_Ended_Data_Value,1,1
 896              		.comm	Get_Ended_Data_Sub_SessionID,2,2
ARM GAS  C:\Users\310309~1\AppData\Local\Temp\ccZa2HSw.s 			page 22


 897              		.comm	Get_Ended_Data_SessionID,2,2
 898              		.comm	Enquire_Sub_Sessions_Requested_For_ID,2,2
 899              		.comm	Enquire_Sessions_Requested,2,2
 900              		.section	.rodata.str1.4,"aMS",%progbits,1
 901              		.align	2
 902              	.LC5:
 903 0000 43415244 		.ascii	"CARDIORESPIRATORY ACTIVITY SUMMARY DATA presentdata"
 903      494F5245 
 903      53504952 
 903      41544F52 
 903      59204143 
 904 0033 6C656E67 		.ascii	"length = %i\015\012\000"
 904      7468203D 
 904      2025690D 
 904      0A00
 905 0041 000000   		.space	3
 906              	.LC7:
 907 0044 43415244 		.ascii	"CARDIORESPIRATORY ACTIVITY SUMMARY DATA N = %i\015\012"
 907      494F5245 
 907      53504952 
 907      41544F52 
 907      59204143 
 908 0074 00       		.ascii	"\000"
 909              		.text
 910              	.Letext0:
 911              		.file 2 "Generated_Source\\PSoC4/cytypes.h"
 912              		.file 3 "Generated_Source\\PSoC4/ble_StackGatt.h"
 913              		.file 4 "Generated_Source\\PSoC4/ble_StackGattServer.h"
 914              		.file 5 "Generated_Source\\PSoC4/ble_Stack.h"
 915              		.file 6 "Generated_Source\\PSoC4/ble_dis.h"
 916              		.file 7 "pamCrasd.h"
 917              		.file 8 "Generated_Source\\PSoC4/ble_eventHandler.h"
 918              		.file 9 "pams.h"
 919              		.file 10 "pamFeatures.h"
 920              		.file 11 "pamSessDescr.h"
 921              		.file 12 "Generated_Source\\PSoC4/ble.h"
 922              		.file 13 "c:\\program files (x86)\\cypress\\psoc creator\\4.1\\psoc creator\\import\\gnu\\arm\\5.4
 923              		.file 14 "Generated_Source\\PSoC4/ble_StackGattDb.h"