ARM GAS  C:\Users\310309~1\AppData\Local\Temp\ccKhHTrv.s 			page 1


   1              		.syntax unified
   2              		.cpu cortex-m0
   3              		.fpu softvfp
   4              		.eabi_attribute 20, 1
   5              		.eabi_attribute 21, 1
   6              		.eabi_attribute 23, 3
   7              		.eabi_attribute 24, 1
   8              		.eabi_attribute 25, 1
   9              		.eabi_attribute 26, 1
  10              		.eabi_attribute 30, 1
  11              		.eabi_attribute 34, 0
  12              		.eabi_attribute 18, 4
  13              		.thumb
  14              		.syntax unified
  15              		.file	"pamGasd.c"
  16              		.text
  17              	.Ltext0:
  18              		.cfi_sections	.debug_frame
  19              		.section	.text.getPresentGasdFields,"ax",%progbits
  20              		.align	2
  21              		.global	getPresentGasdFields
  22              		.code	16
  23              		.thumb_func
  24              		.type	getPresentGasdFields, %function
  25              	getPresentGasdFields:
  26              	.LFB37:
  27              		.file 1 "pamGasd.c"
   1:pamGasd.c     **** /* ========================================
   2:pamGasd.c     ****  *
   3:pamGasd.c     ****  * Copyright YOUR COMPANY, THE YEAR
   4:pamGasd.c     ****  * All Rights Reserved
   5:pamGasd.c     ****  * UNPUBLISHED, LICENSED SOFTWARE.
   6:pamGasd.c     ****  *
   7:pamGasd.c     ****  * CONFIDENTIAL AND PROPRIETARY INFORMATION
   8:pamGasd.c     ****  * WHICH IS THE PROPERTY OF your company.
   9:pamGasd.c     ****  *
  10:pamGasd.c     ****  * ========================================
  11:pamGasd.c     **** */
  12:pamGasd.c     **** 
  13:pamGasd.c     **** #include "pamGasd.h"
  14:pamGasd.c     **** 
  15:pamGasd.c     **** void UpdateGasd(void)
  16:pamGasd.c     **** {
  17:pamGasd.c     ****     CYBLE_GATTS_HANDLE_VALUE_NTF_T tempHandle;
  18:pamGasd.c     ****     
  19:pamGasd.c     ****     tempHandle.attrHandle = CYBLE_PHYSICAL_ACTIVITY_MONITOR_GENERAL_ACTIVITY_INSTANTANEOUS_DATA_CHA
  20:pamGasd.c     ****     tempHandle.value.val = (uint8 *)&GasData;
  21:pamGasd.c     ****     tempHandle.value.len = sizeof(GasData);
  22:pamGasd.c     ****     CyBle_GattsWriteAttributeValue(&tempHandle, 0, &cyBle_connHandle, 0);
  23:pamGasd.c     ****     
  24:pamGasd.c     ****     if(generalsummarydataIndicate)
  25:pamGasd.c     ****     {
  26:pamGasd.c     ****         uint8 PresentData[sizeof(GasData)];
  27:pamGasd.c     ****         
  28:pamGasd.c     ****         uint8 presentDataLength = getPresentGasdFields(PresentData);
  29:pamGasd.c     ****         DBG_PRINTF("GENERAL ACTIVITY SUMMARY DATA presentdatalength = %i\r\n", presentDataLength);
  30:pamGasd.c     ****         uint8 N = calculateNumberOfMessages(presentDataLength);
ARM GAS  C:\Users\310309~1\AppData\Local\Temp\ccKhHTrv.s 			page 2


  31:pamGasd.c     ****         DBG_PRINTF("GENERAL ACTIVITY SUMMARY DATA N = %i\r\n", N);
  32:pamGasd.c     ****         
  33:pamGasd.c     ****         uint8 byteCount = 1u; //Starts at 1 because 0 is the header field
  34:pamGasd.c     ****         
  35:pamGasd.c     ****         CyBle_Set32ByPtr(&PresentData[byteCount], GasData.Flags);
  36:pamGasd.c     ****         byteCount += sizeof(GasData.Flags);
  37:pamGasd.c     ****         
  38:pamGasd.c     ****         CyBle_Set16ByPtr(&PresentData[byteCount], GasData.SessionID);
  39:pamGasd.c     ****         byteCount += sizeof(GasData.SessionID);
  40:pamGasd.c     ****         
  41:pamGasd.c     ****         CyBle_Set16ByPtr(&PresentData[byteCount], GasData.SubSessionID);
  42:pamGasd.c     ****         byteCount += sizeof(GasData.SubSessionID);
  43:pamGasd.c     ****         
  44:pamGasd.c     ****         CyBle_Set32ByPtr(&PresentData[byteCount], GasData.RelativeTimestamp);
  45:pamGasd.c     ****         byteCount += sizeof(GasData.RelativeTimestamp);
  46:pamGasd.c     ****         
  47:pamGasd.c     ****         CyBle_Set32ByPtr(&PresentData[byteCount], GasData.SequenceNumber);
  48:pamGasd.c     ****         byteCount += sizeof(GasData.SequenceNumber);
  49:pamGasd.c     ****         //size = 17
  50:pamGasd.c     ****         
  51:pamGasd.c     ****         char* my_struct_in_bytes = (char*)(&PresentData);
  52:pamGasd.c     ****         
  53:pamGasd.c     ****         uint8 Message[PAM_MAX_MESSAGE_DATA_SIZE + HEADER_SIZE];
  54:pamGasd.c     ****         uint8 MessageSize = 0;
  55:pamGasd.c     ****         
  56:pamGasd.c     ****         for(uint8 x = 0; x < N; x++)
  57:pamGasd.c     ****         {
  58:pamGasd.c     ****             if(x == 0)
  59:pamGasd.c     ****             {
  60:pamGasd.c     ****                 Message[0] = 0x80 + N - 1;
  61:pamGasd.c     ****             }
  62:pamGasd.c     ****             else
  63:pamGasd.c     ****             {
  64:pamGasd.c     ****                 Message[0] = 0x00 + N - 1 - x;
  65:pamGasd.c     ****             }
  66:pamGasd.c     ****             
  67:pamGasd.c     ****             
  68:pamGasd.c     ****             for(uint8 i = 1; i < PAM_MAX_MESSAGE_DATA_SIZE + HEADER_SIZE; i++)
  69:pamGasd.c     ****             {
  70:pamGasd.c     ****                 if((x * PAM_MAX_MESSAGE_DATA_SIZE + i) < presentDataLength)
  71:pamGasd.c     ****                 {
  72:pamGasd.c     ****                     Message[i] = my_struct_in_bytes[i + x * PAM_MAX_MESSAGE_DATA_SIZE];
  73:pamGasd.c     ****                     MessageSize = i + HEADER_SIZE;
  74:pamGasd.c     ****                 }
  75:pamGasd.c     ****             }
  76:pamGasd.c     ****             ble_SendIndication(CYBLE_PHYSICAL_ACTIVITY_MONITOR_GENERAL_ACTIVITY_SUMMARY_DATA_CHAR_H
  77:pamGasd.c     ****         }
  78:pamGasd.c     ****     }
  79:pamGasd.c     **** }
  80:pamGasd.c     **** 
  81:pamGasd.c     **** uint8 getPresentGasdFields(uint8 *PresentData)
  82:pamGasd.c     **** {
  28              		.loc 1 82 0
  29              		.cfi_startproc
  30              		@ args = 0, pretend = 0, frame = 0
  31              		@ frame_needed = 0, uses_anonymous_args = 0
  32              	.LVL0:
ARM GAS  C:\Users\310309~1\AppData\Local\Temp\ccKhHTrv.s 			page 3


  33 0000 70B5     		push	{r4, r5, r6, lr}
  34              		.cfi_def_cfa_offset 16
  35              		.cfi_offset 4, -16
  36              		.cfi_offset 5, -12
  37              		.cfi_offset 6, -8
  38              		.cfi_offset 14, -4
  39 0002 0500     		movs	r5, r0
  40              	.LVL1:
  83:pamGasd.c     ****     uint8 length = ALWAYS_PRESENT_GASD_FIELD_LENGTH;
  84:pamGasd.c     ****     
  85:pamGasd.c     ****     if(CHECK_BIT(GasData.Flags, NORMAL_WALKING_ENERGY_EXPENDITURE_PRESENT) &&
  41              		.loc 1 85 0
  42 0004 0E4B     		ldr	r3, .L46
  43 0006 5B78     		ldrb	r3, [r3, #1]
  44 0008 DB07     		lsls	r3, r3, #31
  45 000a 16D5     		bpl	.L44
  86:pamGasd.c     ****        CHECK_BIT(pamFeature, NORMAL_WALKING_ENERGY_EXPENDITURE_SUPPORTED))
  46              		.loc 1 86 0 discriminator 1
  47 000c 0D4B     		ldr	r3, .L46+4
  48 000e 1B68     		ldr	r3, [r3]
  85:pamGasd.c     ****        CHECK_BIT(pamFeature, NORMAL_WALKING_ENERGY_EXPENDITURE_SUPPORTED))
  49              		.loc 1 85 0 discriminator 1
  50 0010 5B07     		lsls	r3, r3, #29
  51 0012 19D5     		bpl	.L45
  87:pamGasd.c     ****     {
  88:pamGasd.c     ****         CyBle_Set32ByPtr(&PresentData[length], GasData.NormalWalkingEnergyExpenditure);
  52              		.loc 1 88 0 discriminator 1
  53 0014 0A4C     		ldr	r4, .L46
  54 0016 607C     		ldrb	r0, [r4, #17]
  55              	.LVL2:
  56 0018 A37C     		ldrb	r3, [r4, #18]
  57 001a 1B02     		lsls	r3, r3, #8
  58 001c 0343     		orrs	r3, r0
  59 001e 1A00     		movs	r2, r3
  60 0020 E17C     		ldrb	r1, [r4, #19]
  61 0022 0904     		lsls	r1, r1, #16
  62 0024 0B00     		movs	r3, r1
  63 0026 1343     		orrs	r3, r2
  64 0028 217D     		ldrb	r1, [r4, #20]
  65 002a 0906     		lsls	r1, r1, #24
  66 002c 1943     		orrs	r1, r3
  67 002e 2800     		movs	r0, r5
  68 0030 1130     		adds	r0, r0, #17
  69 0032 FFF7FEFF 		bl	CyBle_Set32ByPtr
  70              	.LVL3:
  89:pamGasd.c     ****         length += sizeof(GasData.NormalWalkingEnergyExpenditure);
  71              		.loc 1 89 0 discriminator 1
  72 0036 1524     		movs	r4, #21
  73 0038 07E0     		b	.L2
  74              	.LVL4:
  75              	.L44:
  83:pamGasd.c     ****     
  76              		.loc 1 83 0
  77 003a 1124     		movs	r4, #17
  78 003c 05E0     		b	.L2
  79              	.L47:
  80 003e C046     		.align	2
ARM GAS  C:\Users\310309~1\AppData\Local\Temp\ccKhHTrv.s 			page 4


  81              	.L46:
  82 0040 00000000 		.word	GasData
  83 0044 00000000 		.word	pamFeature
  84              	.L45:
  85 0048 1124     		movs	r4, #17
  86              	.LVL5:
  87              	.L2:
  90:pamGasd.c     ****     }
  91:pamGasd.c     ****     if(CHECK_BIT(GasData.Flags, INTENSITY_ENERGY_EXPENDITURE_PRESENT) &&
  88              		.loc 1 91 0
  89 004a D94B     		ldr	r3, .L48
  90 004c 5B78     		ldrb	r3, [r3, #1]
  91 004e 9B07     		lsls	r3, r3, #30
  92 0050 15D5     		bpl	.L4
  92:pamGasd.c     ****        CHECK_BIT(pamFeature, INTENSITY_ENERGY_EXPENDITURE_SUPPORTED))
  93              		.loc 1 92 0 discriminator 1
  94 0052 D84B     		ldr	r3, .L48+4
  95 0054 1B68     		ldr	r3, [r3]
  91:pamGasd.c     ****        CHECK_BIT(pamFeature, INTENSITY_ENERGY_EXPENDITURE_SUPPORTED))
  96              		.loc 1 91 0 discriminator 1
  97 0056 DB06     		lsls	r3, r3, #27
  98 0058 11D5     		bpl	.L4
  93:pamGasd.c     ****     {
  94:pamGasd.c     ****         CyBle_Set32ByPtr(&PresentData[length], GasData.IntensityEnergyExpenditure);
  99              		.loc 1 94 0 discriminator 1
 100 005a D54E     		ldr	r6, .L48
 101 005c 707D     		ldrb	r0, [r6, #21]
 102 005e B37D     		ldrb	r3, [r6, #22]
 103 0060 1B02     		lsls	r3, r3, #8
 104 0062 0343     		orrs	r3, r0
 105 0064 1A00     		movs	r2, r3
 106 0066 F17D     		ldrb	r1, [r6, #23]
 107 0068 0904     		lsls	r1, r1, #16
 108 006a 0B00     		movs	r3, r1
 109 006c 1343     		orrs	r3, r2
 110 006e 317E     		ldrb	r1, [r6, #24]
 111 0070 0906     		lsls	r1, r1, #24
 112 0072 1943     		orrs	r1, r3
 113 0074 2819     		adds	r0, r5, r4
 114 0076 FFF7FEFF 		bl	CyBle_Set32ByPtr
 115              	.LVL6:
  95:pamGasd.c     ****         length += sizeof(GasData.IntensityEnergyExpenditure);
 116              		.loc 1 95 0 discriminator 1
 117 007a 0434     		adds	r4, r4, #4
 118              	.LVL7:
 119 007c E4B2     		uxtb	r4, r4
 120              	.LVL8:
 121              	.L4:
  96:pamGasd.c     ****     }
  97:pamGasd.c     ****     if(CHECK_BIT(GasData.Flags, TOTAL_ENERGY_EXPENDITURE_PRESENT) &&
 122              		.loc 1 97 0
 123 007e CC4B     		ldr	r3, .L48
 124 0080 5B78     		ldrb	r3, [r3, #1]
 125 0082 5B07     		lsls	r3, r3, #29
 126 0084 15D5     		bpl	.L6
  98:pamGasd.c     ****        CHECK_BIT(pamFeature, TOTAL_ENERGY_EXPENDITURE_SUPPORTED))
 127              		.loc 1 98 0 discriminator 1
ARM GAS  C:\Users\310309~1\AppData\Local\Temp\ccKhHTrv.s 			page 5


 128 0086 CB4B     		ldr	r3, .L48+4
 129 0088 1B68     		ldr	r3, [r3]
  97:pamGasd.c     ****        CHECK_BIT(pamFeature, TOTAL_ENERGY_EXPENDITURE_SUPPORTED))
 130              		.loc 1 97 0 discriminator 1
 131 008a 5B06     		lsls	r3, r3, #25
 132 008c 11D5     		bpl	.L6
  99:pamGasd.c     ****     {
 100:pamGasd.c     ****         CyBle_Set32ByPtr(&PresentData[length], GasData.TotalEnergyExpenditure);
 133              		.loc 1 100 0 discriminator 1
 134 008e C84E     		ldr	r6, .L48
 135 0090 707E     		ldrb	r0, [r6, #25]
 136 0092 B37E     		ldrb	r3, [r6, #26]
 137 0094 1B02     		lsls	r3, r3, #8
 138 0096 0343     		orrs	r3, r0
 139 0098 1A00     		movs	r2, r3
 140 009a F17E     		ldrb	r1, [r6, #27]
 141 009c 0904     		lsls	r1, r1, #16
 142 009e 0B00     		movs	r3, r1
 143 00a0 1343     		orrs	r3, r2
 144 00a2 317F     		ldrb	r1, [r6, #28]
 145 00a4 0906     		lsls	r1, r1, #24
 146 00a6 1943     		orrs	r1, r3
 147 00a8 2819     		adds	r0, r5, r4
 148 00aa FFF7FEFF 		bl	CyBle_Set32ByPtr
 149              	.LVL9:
 101:pamGasd.c     ****         length += sizeof(GasData.TotalEnergyExpenditure);
 150              		.loc 1 101 0 discriminator 1
 151 00ae 0434     		adds	r4, r4, #4
 152              	.LVL10:
 153 00b0 E4B2     		uxtb	r4, r4
 154              	.LVL11:
 155              	.L6:
 102:pamGasd.c     ****     }
 103:pamGasd.c     ****     if(CHECK_BIT(GasData.Flags, FAT_BURNED_PRESENT) &&
 156              		.loc 1 103 0
 157 00b2 BF4B     		ldr	r3, .L48
 158 00b4 5B78     		ldrb	r3, [r3, #1]
 159 00b6 1B07     		lsls	r3, r3, #28
 160 00b8 0DD5     		bpl	.L8
 104:pamGasd.c     ****        CHECK_BIT(pamFeature, FAT_BURNED_SUPPORTED))
 161              		.loc 1 104 0 discriminator 1
 162 00ba BE4B     		ldr	r3, .L48+4
 163 00bc 1B68     		ldr	r3, [r3]
 103:pamGasd.c     ****        CHECK_BIT(pamFeature, FAT_BURNED_SUPPORTED))
 164              		.loc 1 103 0 discriminator 1
 165 00be DB05     		lsls	r3, r3, #23
 166 00c0 09D5     		bpl	.L8
 105:pamGasd.c     ****     {
 106:pamGasd.c     ****         CyBle_Set16ByPtr(&PresentData[length], GasData.FatBurned);
 167              		.loc 1 106 0 discriminator 1
 168 00c2 BB4A     		ldr	r2, .L48
 169 00c4 537F     		ldrb	r3, [r2, #29]
 170 00c6 917F     		ldrb	r1, [r2, #30]
 171 00c8 0902     		lsls	r1, r1, #8
 172 00ca 1943     		orrs	r1, r3
 173 00cc 2819     		adds	r0, r5, r4
 174 00ce FFF7FEFF 		bl	CyBle_Set16ByPtr
ARM GAS  C:\Users\310309~1\AppData\Local\Temp\ccKhHTrv.s 			page 6


 175              	.LVL12:
 107:pamGasd.c     ****         length += sizeof(GasData.FatBurned);
 176              		.loc 1 107 0 discriminator 1
 177 00d2 0234     		adds	r4, r4, #2
 178              	.LVL13:
 179 00d4 E4B2     		uxtb	r4, r4
 180              	.LVL14:
 181              	.L8:
 108:pamGasd.c     ****     }
 109:pamGasd.c     ****     if(CHECK_BIT(pamFeature, METABOLIC_EQUIVALENT_SUPPORTED))
 182              		.loc 1 109 0
 183 00d6 B74B     		ldr	r3, .L48+4
 184 00d8 1B68     		ldr	r3, [r3]
 185 00da 5B05     		lsls	r3, r3, #21
 186 00dc 1CD5     		bpl	.L10
 110:pamGasd.c     ****     {
 111:pamGasd.c     ****         if(CHECK_BIT(GasData.Flags, MINIMUM_METABOLIC_EQUIVALENT_PRESENT))
 187              		.loc 1 111 0
 188 00de B44B     		ldr	r3, .L48
 189 00e0 5B78     		ldrb	r3, [r3, #1]
 190 00e2 DB06     		lsls	r3, r3, #27
 191 00e4 04D5     		bpl	.L12
 112:pamGasd.c     ****         {
 113:pamGasd.c     ****             PresentData[length] = GasData.MinimumMetabolicEquivalent;
 192              		.loc 1 113 0
 193 00e6 B24B     		ldr	r3, .L48
 194 00e8 DB7F     		ldrb	r3, [r3, #31]
 195 00ea 2B55     		strb	r3, [r5, r4]
 114:pamGasd.c     ****             length += sizeof(GasData.MinimumMetabolicEquivalent);
 196              		.loc 1 114 0
 197 00ec 0134     		adds	r4, r4, #1
 198              	.LVL15:
 199 00ee E4B2     		uxtb	r4, r4
 200              	.LVL16:
 201              	.L12:
 115:pamGasd.c     ****         }
 116:pamGasd.c     ****         if(CHECK_BIT(GasData.Flags, MAXIMUM_METABOLIC_EQUIVALENT_PRESENT))
 202              		.loc 1 116 0
 203 00f0 AF4B     		ldr	r3, .L48
 204 00f2 5B78     		ldrb	r3, [r3, #1]
 205 00f4 9B06     		lsls	r3, r3, #26
 206 00f6 05D5     		bpl	.L13
 117:pamGasd.c     ****         {
 118:pamGasd.c     ****             PresentData[length] = GasData.MaximumMetabolicEquivalent;
 207              		.loc 1 118 0
 208 00f8 2023     		movs	r3, #32
 209 00fa AD4A     		ldr	r2, .L48
 210 00fc D35C     		ldrb	r3, [r2, r3]
 211 00fe 2B55     		strb	r3, [r5, r4]
 119:pamGasd.c     ****             length += sizeof(GasData.MaximumMetabolicEquivalent);
 212              		.loc 1 119 0
 213 0100 0134     		adds	r4, r4, #1
 214              	.LVL17:
 215 0102 E4B2     		uxtb	r4, r4
 216              	.LVL18:
 217              	.L13:
 120:pamGasd.c     ****         }
ARM GAS  C:\Users\310309~1\AppData\Local\Temp\ccKhHTrv.s 			page 7


 121:pamGasd.c     ****         if(CHECK_BIT(GasData.Flags, AVERAGE_METABOLIC_EQUIVALENT_PRESENT))
 218              		.loc 1 121 0
 219 0104 AA4B     		ldr	r3, .L48
 220 0106 5B78     		ldrb	r3, [r3, #1]
 221 0108 5B06     		lsls	r3, r3, #25
 222 010a 05D5     		bpl	.L10
 122:pamGasd.c     ****         {
 123:pamGasd.c     ****             PresentData[length] = GasData.AverageMetabolicEquivalent;
 223              		.loc 1 123 0
 224 010c 2123     		movs	r3, #33
 225 010e A84A     		ldr	r2, .L48
 226 0110 D35C     		ldrb	r3, [r2, r3]
 227 0112 2B55     		strb	r3, [r5, r4]
 124:pamGasd.c     ****             length += sizeof(GasData.AverageMetabolicEquivalent);
 228              		.loc 1 124 0
 229 0114 0134     		adds	r4, r4, #1
 230              	.LVL19:
 231 0116 E4B2     		uxtb	r4, r4
 232              	.LVL20:
 233              	.L10:
 125:pamGasd.c     ****         }
 126:pamGasd.c     ****     }
 127:pamGasd.c     ****     if(CHECK_BIT(GasData.Flags, DISTANCE_PRESENT) &&
 234              		.loc 1 127 0
 235 0118 A54B     		ldr	r3, .L48
 236 011a 5A78     		ldrb	r2, [r3, #1]
 237 011c 9B78     		ldrb	r3, [r3, #2]
 238 011e 1B02     		lsls	r3, r3, #8
 239 0120 1343     		orrs	r3, r2
 240 0122 1B06     		lsls	r3, r3, #24
 241 0124 11D5     		bpl	.L14
 128:pamGasd.c     ****        CHECK_BIT(pamFeature, DISTANCE_SUPPORTED))
 242              		.loc 1 128 0 discriminator 1
 243 0126 A34B     		ldr	r3, .L48+4
 244 0128 1B68     		ldr	r3, [r3]
 127:pamGasd.c     ****        CHECK_BIT(pamFeature, DISTANCE_SUPPORTED))
 245              		.loc 1 127 0 discriminator 1
 246 012a 1B05     		lsls	r3, r3, #20
 247 012c 0DD5     		bpl	.L14
 129:pamGasd.c     ****     {
 130:pamGasd.c     ****         PresentData[length] = GasData.Distance[2];
 248              		.loc 1 130 0 discriminator 1
 249 012e A04B     		ldr	r3, .L48
 250 0130 2422     		movs	r2, #36
 251 0132 9A5C     		ldrb	r2, [r3, r2]
 252 0134 2A55     		strb	r2, [r5, r4]
 131:pamGasd.c     ****         PresentData[length + 1] = GasData.Distance[1];
 253              		.loc 1 131 0 discriminator 1
 254 0136 621C     		adds	r2, r4, #1
 255 0138 2321     		movs	r1, #35
 256 013a 595C     		ldrb	r1, [r3, r1]
 257 013c A954     		strb	r1, [r5, r2]
 132:pamGasd.c     ****         PresentData[length + 2] = GasData.Distance[0];
 258              		.loc 1 132 0 discriminator 1
 259 013e A21C     		adds	r2, r4, #2
 260 0140 2221     		movs	r1, #34
 261 0142 5B5C     		ldrb	r3, [r3, r1]
ARM GAS  C:\Users\310309~1\AppData\Local\Temp\ccKhHTrv.s 			page 8


 262 0144 AB54     		strb	r3, [r5, r2]
 133:pamGasd.c     ****         length += sizeof(GasData.Distance);
 263              		.loc 1 133 0 discriminator 1
 264 0146 0334     		adds	r4, r4, #3
 265              	.LVL21:
 266 0148 E4B2     		uxtb	r4, r4
 267              	.LVL22:
 268              	.L14:
 134:pamGasd.c     ****     }
 135:pamGasd.c     ****     if(CHECK_BIT(pamFeature, SPEED_SUPPORTED))
 269              		.loc 1 135 0
 270 014a 9A4B     		ldr	r3, .L48+4
 271 014c 1B68     		ldr	r3, [r3]
 272 014e DB04     		lsls	r3, r3, #19
 273 0150 2FD5     		bpl	.L16
 136:pamGasd.c     ****     {
 137:pamGasd.c     ****         if(CHECK_BIT(GasData.Flags, MINIMUM_SPEED_PRESENT))
 274              		.loc 1 137 0
 275 0152 974B     		ldr	r3, .L48
 276 0154 9B78     		ldrb	r3, [r3, #2]
 277 0156 DB07     		lsls	r3, r3, #31
 278 0158 0BD5     		bpl	.L18
 138:pamGasd.c     ****         {
 139:pamGasd.c     ****             CyBle_Set16ByPtr(&PresentData[length], GasData.MinimumSpeed);
 279              		.loc 1 139 0
 280 015a 954A     		ldr	r2, .L48
 281 015c 2523     		movs	r3, #37
 282 015e D35C     		ldrb	r3, [r2, r3]
 283 0160 2621     		movs	r1, #38
 284 0162 515C     		ldrb	r1, [r2, r1]
 285 0164 0902     		lsls	r1, r1, #8
 286 0166 1943     		orrs	r1, r3
 287 0168 2819     		adds	r0, r5, r4
 288 016a FFF7FEFF 		bl	CyBle_Set16ByPtr
 289              	.LVL23:
 140:pamGasd.c     ****             length += sizeof(GasData.MinimumSpeed);
 290              		.loc 1 140 0
 291 016e 0234     		adds	r4, r4, #2
 292              	.LVL24:
 293 0170 E4B2     		uxtb	r4, r4
 294              	.LVL25:
 295              	.L18:
 141:pamGasd.c     ****         }
 142:pamGasd.c     ****         if(CHECK_BIT(GasData.Flags, MAXIMUM_SPEED_PRESENT))
 296              		.loc 1 142 0
 297 0172 8F4B     		ldr	r3, .L48
 298 0174 9B78     		ldrb	r3, [r3, #2]
 299 0176 9B07     		lsls	r3, r3, #30
 300 0178 0BD5     		bpl	.L19
 143:pamGasd.c     ****         {
 144:pamGasd.c     ****             CyBle_Set16ByPtr(&PresentData[length], GasData.MaximumSpeed);
 301              		.loc 1 144 0
 302 017a 8D4A     		ldr	r2, .L48
 303 017c 2723     		movs	r3, #39
 304 017e D35C     		ldrb	r3, [r2, r3]
 305 0180 2821     		movs	r1, #40
 306 0182 515C     		ldrb	r1, [r2, r1]
ARM GAS  C:\Users\310309~1\AppData\Local\Temp\ccKhHTrv.s 			page 9


 307 0184 0902     		lsls	r1, r1, #8
 308 0186 1943     		orrs	r1, r3
 309 0188 2819     		adds	r0, r5, r4
 310 018a FFF7FEFF 		bl	CyBle_Set16ByPtr
 311              	.LVL26:
 145:pamGasd.c     ****             length += sizeof(GasData.MaximumSpeed);
 312              		.loc 1 145 0
 313 018e 0234     		adds	r4, r4, #2
 314              	.LVL27:
 315 0190 E4B2     		uxtb	r4, r4
 316              	.LVL28:
 317              	.L19:
 146:pamGasd.c     ****         }
 147:pamGasd.c     ****         if(CHECK_BIT(GasData.Flags, AVERAGE_SPEED_PRESENT))
 318              		.loc 1 147 0
 319 0192 874B     		ldr	r3, .L48
 320 0194 9B78     		ldrb	r3, [r3, #2]
 321 0196 5B07     		lsls	r3, r3, #29
 322 0198 0BD5     		bpl	.L16
 148:pamGasd.c     ****         {
 149:pamGasd.c     ****             CyBle_Set16ByPtr(&PresentData[length], GasData.AverageSpeed);
 323              		.loc 1 149 0
 324 019a 854A     		ldr	r2, .L48
 325 019c 2923     		movs	r3, #41
 326 019e D35C     		ldrb	r3, [r2, r3]
 327 01a0 2A21     		movs	r1, #42
 328 01a2 515C     		ldrb	r1, [r2, r1]
 329 01a4 0902     		lsls	r1, r1, #8
 330 01a6 1943     		orrs	r1, r3
 331 01a8 2819     		adds	r0, r5, r4
 332 01aa FFF7FEFF 		bl	CyBle_Set16ByPtr
 333              	.LVL29:
 150:pamGasd.c     ****             length += sizeof(GasData.AverageSpeed);
 334              		.loc 1 150 0
 335 01ae 0234     		adds	r4, r4, #2
 336              	.LVL30:
 337 01b0 E4B2     		uxtb	r4, r4
 338              	.LVL31:
 339              	.L16:
 151:pamGasd.c     ****         }
 152:pamGasd.c     ****     }
 153:pamGasd.c     ****     if(CHECK_BIT(GasData.Flags, DURATION_OF_NORMAL_WALKING_EPISODES_PRESENT) &&
 340              		.loc 1 153 0
 341 01b2 7F4B     		ldr	r3, .L48
 342 01b4 9B78     		ldrb	r3, [r3, #2]
 343 01b6 1B07     		lsls	r3, r3, #28
 344 01b8 11D5     		bpl	.L20
 154:pamGasd.c     ****        CHECK_BIT(pamFeature, DURATION_OF_NORMAL_WALKING_EPISODES_SUPPORTED))
 345              		.loc 1 154 0 discriminator 1
 346 01ba 7E4B     		ldr	r3, .L48+4
 347 01bc 1B68     		ldr	r3, [r3]
 153:pamGasd.c     ****        CHECK_BIT(pamFeature, DURATION_OF_NORMAL_WALKING_EPISODES_SUPPORTED))
 348              		.loc 1 153 0 discriminator 1
 349 01be 9B04     		lsls	r3, r3, #18
 350 01c0 0DD5     		bpl	.L20
 155:pamGasd.c     ****     {
 156:pamGasd.c     ****         PresentData[length] = GasData.DurationOfNormalWalkingEpisodes[2];
ARM GAS  C:\Users\310309~1\AppData\Local\Temp\ccKhHTrv.s 			page 10


 351              		.loc 1 156 0 discriminator 1
 352 01c2 7B4B     		ldr	r3, .L48
 353 01c4 2D22     		movs	r2, #45
 354 01c6 9A5C     		ldrb	r2, [r3, r2]
 355 01c8 2A55     		strb	r2, [r5, r4]
 157:pamGasd.c     ****         PresentData[length + 1] = GasData.DurationOfNormalWalkingEpisodes[1];
 356              		.loc 1 157 0 discriminator 1
 357 01ca 621C     		adds	r2, r4, #1
 358 01cc 2C21     		movs	r1, #44
 359 01ce 595C     		ldrb	r1, [r3, r1]
 360 01d0 A954     		strb	r1, [r5, r2]
 158:pamGasd.c     ****         PresentData[length + 2] = GasData.DurationOfNormalWalkingEpisodes[0];
 361              		.loc 1 158 0 discriminator 1
 362 01d2 A21C     		adds	r2, r4, #2
 363 01d4 2B21     		movs	r1, #43
 364 01d6 5B5C     		ldrb	r3, [r3, r1]
 365 01d8 AB54     		strb	r3, [r5, r2]
 159:pamGasd.c     ****         length += sizeof(GasData.DurationOfNormalWalkingEpisodes);
 366              		.loc 1 159 0 discriminator 1
 367 01da 0334     		adds	r4, r4, #3
 368              	.LVL32:
 369 01dc E4B2     		uxtb	r4, r4
 370              	.LVL33:
 371              	.L20:
 160:pamGasd.c     ****     }
 161:pamGasd.c     ****     if(CHECK_BIT(GasData.Flags, DURATION_OF_INTENSITY_WALKING_EPISODES_PRESENT) &&
 372              		.loc 1 161 0
 373 01de 744B     		ldr	r3, .L48
 374 01e0 9B78     		ldrb	r3, [r3, #2]
 375 01e2 DB06     		lsls	r3, r3, #27
 376 01e4 11D5     		bpl	.L22
 162:pamGasd.c     ****        CHECK_BIT(pamFeature, DURATION_OF_INTENSITY_WALKING_EPISODES_SUPPORTED))
 377              		.loc 1 162 0 discriminator 1
 378 01e6 734B     		ldr	r3, .L48+4
 379 01e8 1B68     		ldr	r3, [r3]
 161:pamGasd.c     ****        CHECK_BIT(pamFeature, DURATION_OF_INTENSITY_WALKING_EPISODES_SUPPORTED))
 380              		.loc 1 161 0 discriminator 1
 381 01ea 5B04     		lsls	r3, r3, #17
 382 01ec 0DD5     		bpl	.L22
 163:pamGasd.c     ****     {
 164:pamGasd.c     ****         PresentData[length] = GasData.DurationOfIntensityWalkingEpisodes[2];
 383              		.loc 1 164 0 discriminator 1
 384 01ee 704B     		ldr	r3, .L48
 385 01f0 3022     		movs	r2, #48
 386 01f2 9A5C     		ldrb	r2, [r3, r2]
 387 01f4 2A55     		strb	r2, [r5, r4]
 165:pamGasd.c     ****         PresentData[length + 1] = GasData.DurationOfIntensityWalkingEpisodes[1];
 388              		.loc 1 165 0 discriminator 1
 389 01f6 621C     		adds	r2, r4, #1
 390 01f8 2F21     		movs	r1, #47
 391 01fa 595C     		ldrb	r1, [r3, r1]
 392 01fc A954     		strb	r1, [r5, r2]
 166:pamGasd.c     ****         PresentData[length + 2] = GasData.DurationOfIntensityWalkingEpisodes[0];
 393              		.loc 1 166 0 discriminator 1
 394 01fe A21C     		adds	r2, r4, #2
 395 0200 2E21     		movs	r1, #46
 396 0202 5B5C     		ldrb	r3, [r3, r1]
ARM GAS  C:\Users\310309~1\AppData\Local\Temp\ccKhHTrv.s 			page 11


 397 0204 AB54     		strb	r3, [r5, r2]
 167:pamGasd.c     ****         length += sizeof(GasData.DurationOfIntensityWalkingEpisodes);
 398              		.loc 1 167 0 discriminator 1
 399 0206 0334     		adds	r4, r4, #3
 400              	.LVL34:
 401 0208 E4B2     		uxtb	r4, r4
 402              	.LVL35:
 403              	.L22:
 168:pamGasd.c     ****     }
 169:pamGasd.c     ****     if(CHECK_BIT(pamFeature, MOTION_CADENCE_SUPPORTED))
 404              		.loc 1 169 0
 405 020a 6A4B     		ldr	r3, .L48+4
 406 020c 1B68     		ldr	r3, [r3]
 407 020e 1B04     		lsls	r3, r3, #16
 408 0210 35D5     		bpl	.L24
 170:pamGasd.c     ****     {
 171:pamGasd.c     ****         if(CHECK_BIT(GasData.Flags, MINIMUM_MOTION_CADENCE_PRESENT))
 409              		.loc 1 171 0
 410 0212 674B     		ldr	r3, .L48
 411 0214 9B78     		ldrb	r3, [r3, #2]
 412 0216 9B06     		lsls	r3, r3, #26
 413 0218 0BD5     		bpl	.L26
 172:pamGasd.c     ****         {
 173:pamGasd.c     ****             CyBle_Set16ByPtr(&PresentData[length], GasData.MinimumMotionCadence);
 414              		.loc 1 173 0
 415 021a 654A     		ldr	r2, .L48
 416 021c 3123     		movs	r3, #49
 417 021e D35C     		ldrb	r3, [r2, r3]
 418 0220 3221     		movs	r1, #50
 419 0222 515C     		ldrb	r1, [r2, r1]
 420 0224 0902     		lsls	r1, r1, #8
 421 0226 1943     		orrs	r1, r3
 422 0228 2819     		adds	r0, r5, r4
 423 022a FFF7FEFF 		bl	CyBle_Set16ByPtr
 424              	.LVL36:
 174:pamGasd.c     ****             length += sizeof(GasData.MinimumMotionCadence);
 425              		.loc 1 174 0
 426 022e 0234     		adds	r4, r4, #2
 427              	.LVL37:
 428 0230 E4B2     		uxtb	r4, r4
 429              	.LVL38:
 430              	.L26:
 175:pamGasd.c     ****         }
 176:pamGasd.c     ****         if(CHECK_BIT(GasData.Flags, MAXIMUM_MOTION_CADENCE_PRESENT))
 431              		.loc 1 176 0
 432 0232 5F4B     		ldr	r3, .L48
 433 0234 9B78     		ldrb	r3, [r3, #2]
 434 0236 5B06     		lsls	r3, r3, #25
 435 0238 0BD5     		bpl	.L27
 177:pamGasd.c     ****         {
 178:pamGasd.c     ****             CyBle_Set16ByPtr(&PresentData[length], GasData.MaximumMotionCadence);
 436              		.loc 1 178 0
 437 023a 5D4A     		ldr	r2, .L48
 438 023c 3323     		movs	r3, #51
 439 023e D35C     		ldrb	r3, [r2, r3]
 440 0240 3421     		movs	r1, #52
 441 0242 515C     		ldrb	r1, [r2, r1]
ARM GAS  C:\Users\310309~1\AppData\Local\Temp\ccKhHTrv.s 			page 12


 442 0244 0902     		lsls	r1, r1, #8
 443 0246 1943     		orrs	r1, r3
 444 0248 2819     		adds	r0, r5, r4
 445 024a FFF7FEFF 		bl	CyBle_Set16ByPtr
 446              	.LVL39:
 179:pamGasd.c     ****             length += sizeof(GasData.MaximumMotionCadence);
 447              		.loc 1 179 0
 448 024e 0234     		adds	r4, r4, #2
 449              	.LVL40:
 450 0250 E4B2     		uxtb	r4, r4
 451              	.LVL41:
 452              	.L27:
 180:pamGasd.c     ****         }
 181:pamGasd.c     ****         if(CHECK_BIT(GasData.Flags, AVERAGE_MOTION_CADENCE_PRESENT))
 453              		.loc 1 181 0
 454 0252 5748     		ldr	r0, .L48
 455 0254 4178     		ldrb	r1, [r0, #1]
 456 0256 8378     		ldrb	r3, [r0, #2]
 457 0258 1B02     		lsls	r3, r3, #8
 458 025a 0B43     		orrs	r3, r1
 459 025c 1A00     		movs	r2, r3
 460 025e C378     		ldrb	r3, [r0, #3]
 461 0260 1B04     		lsls	r3, r3, #16
 462 0262 1343     		orrs	r3, r2
 463 0264 1B04     		lsls	r3, r3, #16
 464 0266 0AD5     		bpl	.L24
 182:pamGasd.c     ****         {
 183:pamGasd.c     ****             CyBle_Set16ByPtr(&PresentData[length], GasData.AverageMotionCadence);
 465              		.loc 1 183 0
 466 0268 3523     		movs	r3, #53
 467 026a C35C     		ldrb	r3, [r0, r3]
 468 026c 3621     		movs	r1, #54
 469 026e 415C     		ldrb	r1, [r0, r1]
 470 0270 0902     		lsls	r1, r1, #8
 471 0272 1943     		orrs	r1, r3
 472 0274 2819     		adds	r0, r5, r4
 473 0276 FFF7FEFF 		bl	CyBle_Set16ByPtr
 474              	.LVL42:
 184:pamGasd.c     ****             length += sizeof(GasData.AverageMotionCadence);
 475              		.loc 1 184 0
 476 027a 0234     		adds	r4, r4, #2
 477              	.LVL43:
 478 027c E4B2     		uxtb	r4, r4
 479              	.LVL44:
 480              	.L24:
 185:pamGasd.c     ****         }
 186:pamGasd.c     ****     }
 187:pamGasd.c     ****     if(CHECK_BIT(GasData.Flags, FLOORS_PRESENT) &&
 481              		.loc 1 187 0
 482 027e 4C4B     		ldr	r3, .L48
 483 0280 DB78     		ldrb	r3, [r3, #3]
 484 0282 DB07     		lsls	r3, r3, #31
 485 0284 09D5     		bpl	.L28
 188:pamGasd.c     ****        CHECK_BIT(pamFeature, FLOORS_SUPPORTED))
 486              		.loc 1 188 0 discriminator 1
 487 0286 4B4B     		ldr	r3, .L48+4
 488 0288 1B68     		ldr	r3, [r3]
ARM GAS  C:\Users\310309~1\AppData\Local\Temp\ccKhHTrv.s 			page 13


 187:pamGasd.c     ****        CHECK_BIT(pamFeature, FLOORS_SUPPORTED))
 489              		.loc 1 187 0 discriminator 1
 490 028a DB03     		lsls	r3, r3, #15
 491 028c 05D5     		bpl	.L28
 189:pamGasd.c     ****     {
 190:pamGasd.c     ****         PresentData[length] = GasData.Floors;
 492              		.loc 1 190 0 discriminator 1
 493 028e 3723     		movs	r3, #55
 494 0290 474A     		ldr	r2, .L48
 495 0292 D356     		ldrsb	r3, [r2, r3]
 496 0294 2B55     		strb	r3, [r5, r4]
 191:pamGasd.c     ****         length += sizeof(GasData.Floors);
 497              		.loc 1 191 0 discriminator 1
 498 0296 0134     		adds	r4, r4, #1
 499              	.LVL45:
 500 0298 E4B2     		uxtb	r4, r4
 501              	.LVL46:
 502              	.L28:
 192:pamGasd.c     ****     }
 193:pamGasd.c     ****     if(CHECK_BIT(GasData.Flags, POSITIVE_ELEVATION_GAIN_PRESENT) &&
 503              		.loc 1 193 0
 504 029a 454B     		ldr	r3, .L48
 505 029c DB78     		ldrb	r3, [r3, #3]
 506 029e 9B07     		lsls	r3, r3, #30
 507 02a0 11D5     		bpl	.L30
 194:pamGasd.c     ****        CHECK_BIT(pamFeature, POSITIVE_ELEVATION_GAIN_SUPPORTED))
 508              		.loc 1 194 0 discriminator 1
 509 02a2 444B     		ldr	r3, .L48+4
 510 02a4 1B68     		ldr	r3, [r3]
 193:pamGasd.c     ****        CHECK_BIT(pamFeature, POSITIVE_ELEVATION_GAIN_SUPPORTED))
 511              		.loc 1 193 0 discriminator 1
 512 02a6 9B03     		lsls	r3, r3, #14
 513 02a8 0DD5     		bpl	.L30
 195:pamGasd.c     ****     {
 196:pamGasd.c     ****         PresentData[length] = GasData.PositiveElevationGain[2];
 514              		.loc 1 196 0 discriminator 1
 515 02aa 414B     		ldr	r3, .L48
 516 02ac 3A22     		movs	r2, #58
 517 02ae 9A5C     		ldrb	r2, [r3, r2]
 518 02b0 2A55     		strb	r2, [r5, r4]
 197:pamGasd.c     ****         PresentData[length + 1] = GasData.PositiveElevationGain[1];
 519              		.loc 1 197 0 discriminator 1
 520 02b2 621C     		adds	r2, r4, #1
 521 02b4 3921     		movs	r1, #57
 522 02b6 595C     		ldrb	r1, [r3, r1]
 523 02b8 A954     		strb	r1, [r5, r2]
 198:pamGasd.c     ****         PresentData[length + 2] = GasData.PositiveElevationGain[0];
 524              		.loc 1 198 0 discriminator 1
 525 02ba A21C     		adds	r2, r4, #2
 526 02bc 3821     		movs	r1, #56
 527 02be 5B5C     		ldrb	r3, [r3, r1]
 528 02c0 AB54     		strb	r3, [r5, r2]
 199:pamGasd.c     ****         length += sizeof(GasData.PositiveElevationGain);
 529              		.loc 1 199 0 discriminator 1
 530 02c2 0334     		adds	r4, r4, #3
 531              	.LVL47:
 532 02c4 E4B2     		uxtb	r4, r4
ARM GAS  C:\Users\310309~1\AppData\Local\Temp\ccKhHTrv.s 			page 14


 533              	.LVL48:
 534              	.L30:
 200:pamGasd.c     ****     }
 201:pamGasd.c     ****     if(CHECK_BIT(GasData.Flags, NEGATIVE_ELEVATION_GAIN_PRESENT) &&
 535              		.loc 1 201 0
 536 02c6 3A4B     		ldr	r3, .L48
 537 02c8 DB78     		ldrb	r3, [r3, #3]
 538 02ca 5B07     		lsls	r3, r3, #29
 539 02cc 11D5     		bpl	.L32
 202:pamGasd.c     ****        CHECK_BIT(pamFeature, NEGATIVE_ELEVATION_GAIN_SUPPORTED))
 540              		.loc 1 202 0 discriminator 1
 541 02ce 394B     		ldr	r3, .L48+4
 542 02d0 1B68     		ldr	r3, [r3]
 201:pamGasd.c     ****        CHECK_BIT(pamFeature, NEGATIVE_ELEVATION_GAIN_SUPPORTED))
 543              		.loc 1 201 0 discriminator 1
 544 02d2 5B03     		lsls	r3, r3, #13
 545 02d4 0DD5     		bpl	.L32
 203:pamGasd.c     ****     {
 204:pamGasd.c     ****         PresentData[length] = GasData.NegativeElevationGain[2];
 546              		.loc 1 204 0 discriminator 1
 547 02d6 364B     		ldr	r3, .L48
 548 02d8 3D22     		movs	r2, #61
 549 02da 9A5C     		ldrb	r2, [r3, r2]
 550 02dc 2A55     		strb	r2, [r5, r4]
 205:pamGasd.c     ****         PresentData[length + 1] = GasData.NegativeElevationGain[1];
 551              		.loc 1 205 0 discriminator 1
 552 02de 621C     		adds	r2, r4, #1
 553 02e0 3C21     		movs	r1, #60
 554 02e2 595C     		ldrb	r1, [r3, r1]
 555 02e4 A954     		strb	r1, [r5, r2]
 206:pamGasd.c     ****         PresentData[length + 2] = GasData.NegativeElevationGain[0];
 556              		.loc 1 206 0 discriminator 1
 557 02e6 A21C     		adds	r2, r4, #2
 558 02e8 3B21     		movs	r1, #59
 559 02ea 5B5C     		ldrb	r3, [r3, r1]
 560 02ec AB54     		strb	r3, [r5, r2]
 207:pamGasd.c     ****         length += sizeof(GasData.NegativeElevationGain);
 561              		.loc 1 207 0 discriminator 1
 562 02ee 0334     		adds	r4, r4, #3
 563              	.LVL49:
 564 02f0 E4B2     		uxtb	r4, r4
 565              	.LVL50:
 566              	.L32:
 208:pamGasd.c     ****     }
 209:pamGasd.c     ****     if(CHECK_BIT(GasData.Flags, ACTIVITY_COUNT_PRESENT) &&
 567              		.loc 1 209 0
 568 02f2 2F4B     		ldr	r3, .L48
 569 02f4 DB78     		ldrb	r3, [r3, #3]
 570 02f6 1B07     		lsls	r3, r3, #28
 571 02f8 19D5     		bpl	.L34
 210:pamGasd.c     ****        CHECK_BIT(pamFeature, ACTIVITY_COUNT_SUPPORTED))
 572              		.loc 1 210 0 discriminator 1
 573 02fa 2E4B     		ldr	r3, .L48+4
 574 02fc 1B68     		ldr	r3, [r3]
 209:pamGasd.c     ****        CHECK_BIT(pamFeature, ACTIVITY_COUNT_SUPPORTED))
 575              		.loc 1 209 0 discriminator 1
 576 02fe DB02     		lsls	r3, r3, #11
ARM GAS  C:\Users\310309~1\AppData\Local\Temp\ccKhHTrv.s 			page 15


 577 0300 15D5     		bpl	.L34
 211:pamGasd.c     ****     {
 212:pamGasd.c     ****         CyBle_Set32ByPtr(&PresentData[length], GasData.ActivityCount);
 578              		.loc 1 212 0 discriminator 1
 579 0302 2B4E     		ldr	r6, .L48
 580 0304 3E23     		movs	r3, #62
 581 0306 F05C     		ldrb	r0, [r6, r3]
 582 0308 0133     		adds	r3, r3, #1
 583 030a F35C     		ldrb	r3, [r6, r3]
 584 030c 1B02     		lsls	r3, r3, #8
 585 030e 0343     		orrs	r3, r0
 586 0310 1A00     		movs	r2, r3
 587 0312 4023     		movs	r3, #64
 588 0314 F15C     		ldrb	r1, [r6, r3]
 589 0316 0904     		lsls	r1, r1, #16
 590 0318 0B00     		movs	r3, r1
 591 031a 1343     		orrs	r3, r2
 592 031c 4122     		movs	r2, #65
 593 031e B15C     		ldrb	r1, [r6, r2]
 594 0320 0906     		lsls	r1, r1, #24
 595 0322 1943     		orrs	r1, r3
 596 0324 2819     		adds	r0, r5, r4
 597 0326 FFF7FEFF 		bl	CyBle_Set32ByPtr
 598              	.LVL51:
 213:pamGasd.c     ****         length += sizeof(GasData.ActivityCount);
 599              		.loc 1 213 0 discriminator 1
 600 032a 0434     		adds	r4, r4, #4
 601              	.LVL52:
 602 032c E4B2     		uxtb	r4, r4
 603              	.LVL53:
 604              	.L34:
 214:pamGasd.c     ****     }
 215:pamGasd.c     ****     if(CHECK_BIT(pamFeature, ACTIVITY_LEVEL_SUPPORTED))
 605              		.loc 1 215 0
 606 032e 214B     		ldr	r3, .L48+4
 607 0330 1B68     		ldr	r3, [r3]
 608 0332 5B02     		lsls	r3, r3, #9
 609 0334 2FD5     		bpl	.L36
 216:pamGasd.c     ****     {
 217:pamGasd.c     ****         if(CHECK_BIT(GasData.Flags, MINIMUM_ACTIVITY_LEVEL_PRESENT))
 610              		.loc 1 217 0
 611 0336 1E4B     		ldr	r3, .L48
 612 0338 DB78     		ldrb	r3, [r3, #3]
 613 033a DB06     		lsls	r3, r3, #27
 614 033c 0BD5     		bpl	.L38
 218:pamGasd.c     ****         {
 219:pamGasd.c     ****             CyBle_Set16ByPtr(&PresentData[length], GasData.MinimumActivityLevel);
 615              		.loc 1 219 0
 616 033e 1C4A     		ldr	r2, .L48
 617 0340 4223     		movs	r3, #66
 618 0342 D35C     		ldrb	r3, [r2, r3]
 619 0344 4321     		movs	r1, #67
 620 0346 515C     		ldrb	r1, [r2, r1]
 621 0348 0902     		lsls	r1, r1, #8
 622 034a 1943     		orrs	r1, r3
 623 034c 2819     		adds	r0, r5, r4
 624 034e FFF7FEFF 		bl	CyBle_Set16ByPtr
ARM GAS  C:\Users\310309~1\AppData\Local\Temp\ccKhHTrv.s 			page 16


 625              	.LVL54:
 220:pamGasd.c     ****             length += sizeof(GasData.MinimumActivityLevel);
 626              		.loc 1 220 0
 627 0352 0234     		adds	r4, r4, #2
 628              	.LVL55:
 629 0354 E4B2     		uxtb	r4, r4
 630              	.LVL56:
 631              	.L38:
 221:pamGasd.c     ****         }
 222:pamGasd.c     ****         if(CHECK_BIT(GasData.Flags, MAXIMUM_ACTIVITY_LEVEL_PRESENT))
 632              		.loc 1 222 0
 633 0356 164B     		ldr	r3, .L48
 634 0358 DB78     		ldrb	r3, [r3, #3]
 635 035a 9B06     		lsls	r3, r3, #26
 636 035c 0BD5     		bpl	.L39
 223:pamGasd.c     ****         {
 224:pamGasd.c     ****             CyBle_Set16ByPtr(&PresentData[length], GasData.MaximumActivityLevel);
 637              		.loc 1 224 0
 638 035e 144A     		ldr	r2, .L48
 639 0360 4423     		movs	r3, #68
 640 0362 D35C     		ldrb	r3, [r2, r3]
 641 0364 4521     		movs	r1, #69
 642 0366 515C     		ldrb	r1, [r2, r1]
 643 0368 0902     		lsls	r1, r1, #8
 644 036a 1943     		orrs	r1, r3
 645 036c 2819     		adds	r0, r5, r4
 646 036e FFF7FEFF 		bl	CyBle_Set16ByPtr
 647              	.LVL57:
 225:pamGasd.c     ****             length += sizeof(GasData.MaximumActivityLevel);
 648              		.loc 1 225 0
 649 0372 0234     		adds	r4, r4, #2
 650              	.LVL58:
 651 0374 E4B2     		uxtb	r4, r4
 652              	.LVL59:
 653              	.L39:
 226:pamGasd.c     ****         }
 227:pamGasd.c     ****         if(CHECK_BIT(GasData.Flags, AVERAGE_ACTIVITY_LEVEL_PRESENT))
 654              		.loc 1 227 0
 655 0376 0E4B     		ldr	r3, .L48
 656 0378 DB78     		ldrb	r3, [r3, #3]
 657 037a 5B06     		lsls	r3, r3, #25
 658 037c 0BD5     		bpl	.L36
 228:pamGasd.c     ****         {
 229:pamGasd.c     ****             CyBle_Set16ByPtr(&PresentData[length], GasData.AverageActivityLevel);
 659              		.loc 1 229 0
 660 037e 0C4A     		ldr	r2, .L48
 661 0380 4623     		movs	r3, #70
 662 0382 D35C     		ldrb	r3, [r2, r3]
 663 0384 4721     		movs	r1, #71
 664 0386 515C     		ldrb	r1, [r2, r1]
 665 0388 0902     		lsls	r1, r1, #8
 666 038a 1943     		orrs	r1, r3
 667 038c 2819     		adds	r0, r5, r4
 668 038e FFF7FEFF 		bl	CyBle_Set16ByPtr
 669              	.LVL60:
 230:pamGasd.c     ****             length += sizeof(GasData.AverageActivityLevel);
 670              		.loc 1 230 0
ARM GAS  C:\Users\310309~1\AppData\Local\Temp\ccKhHTrv.s 			page 17


 671 0392 0234     		adds	r4, r4, #2
 672              	.LVL61:
 673 0394 E4B2     		uxtb	r4, r4
 674              	.LVL62:
 675              	.L36:
 231:pamGasd.c     ****         }
 232:pamGasd.c     ****     }
 233:pamGasd.c     ****     if(CHECK_BIT(GasData.Flags, AVERAGE_ACTIVITY_TYPE_PRESENT) &&
 676              		.loc 1 233 0
 677 0396 064E     		ldr	r6, .L48
 678 0398 7078     		ldrb	r0, [r6, #1]
 679 039a B278     		ldrb	r2, [r6, #2]
 680 039c 1202     		lsls	r2, r2, #8
 681 039e 0243     		orrs	r2, r0
 682 03a0 F378     		ldrb	r3, [r6, #3]
 683 03a2 1B04     		lsls	r3, r3, #16
 684 03a4 1343     		orrs	r3, r2
 685 03a6 1A00     		movs	r2, r3
 686 03a8 3379     		ldrb	r3, [r6, #4]
 687 03aa 1B06     		lsls	r3, r3, #24
 688 03ac 1343     		orrs	r3, r2
 689 03ae 03E0     		b	.L49
 690              	.L50:
 691              		.align	2
 692              	.L48:
 693 03b0 00000000 		.word	GasData
 694 03b4 00000000 		.word	pamFeature
 695              	.L49:
 696 03b8 1B02     		lsls	r3, r3, #8
 697 03ba 0ED5     		bpl	.L40
 234:pamGasd.c     ****        CHECK_BIT(pamFeature, ACTIVITY_TYPE_SUPPORTED))
 698              		.loc 1 234 0 discriminator 1
 699 03bc 134B     		ldr	r3, .L51
 700 03be 1B68     		ldr	r3, [r3]
 233:pamGasd.c     ****        CHECK_BIT(pamFeature, ACTIVITY_TYPE_SUPPORTED))
 701              		.loc 1 233 0 discriminator 1
 702 03c0 1B02     		lsls	r3, r3, #8
 703 03c2 0AD5     		bpl	.L40
 235:pamGasd.c     ****     {
 236:pamGasd.c     ****         CyBle_Set16ByPtr(&PresentData[length], GasData.AverageActivityType);
 704              		.loc 1 236 0 discriminator 1
 705 03c4 4823     		movs	r3, #72
 706 03c6 F35C     		ldrb	r3, [r6, r3]
 707 03c8 4921     		movs	r1, #73
 708 03ca 715C     		ldrb	r1, [r6, r1]
 709 03cc 0902     		lsls	r1, r1, #8
 710 03ce 1943     		orrs	r1, r3
 711 03d0 2819     		adds	r0, r5, r4
 712 03d2 FFF7FEFF 		bl	CyBle_Set16ByPtr
 713              	.LVL63:
 237:pamGasd.c     ****         length += sizeof(GasData.AverageActivityType);
 714              		.loc 1 237 0 discriminator 1
 715 03d6 0234     		adds	r4, r4, #2
 716              	.LVL64:
 717 03d8 E4B2     		uxtb	r4, r4
 718              	.LVL65:
 719              	.L40:
ARM GAS  C:\Users\310309~1\AppData\Local\Temp\ccKhHTrv.s 			page 18


 238:pamGasd.c     ****     }
 239:pamGasd.c     ****     if(CHECK_BIT(GasData.Flags, WORN_DURATION_PRESENT) &&
 720              		.loc 1 239 0
 721 03da 0D4B     		ldr	r3, .L51+4
 722 03dc 1B79     		ldrb	r3, [r3, #4]
 723 03de DB07     		lsls	r3, r3, #31
 724 03e0 11D5     		bpl	.L42
 240:pamGasd.c     ****        CHECK_BIT(pamFeature, WORN_DURATION_SUPPORTED))
 725              		.loc 1 240 0 discriminator 1
 726 03e2 0A4B     		ldr	r3, .L51
 727 03e4 1B68     		ldr	r3, [r3]
 239:pamGasd.c     ****        CHECK_BIT(pamFeature, WORN_DURATION_SUPPORTED))
 728              		.loc 1 239 0 discriminator 1
 729 03e6 DB01     		lsls	r3, r3, #7
 730 03e8 0DD5     		bpl	.L42
 241:pamGasd.c     ****     {
 242:pamGasd.c     ****         PresentData[length] = GasData.WornDuration[2];
 731              		.loc 1 242 0 discriminator 1
 732 03ea 094B     		ldr	r3, .L51+4
 733 03ec 4C22     		movs	r2, #76
 734 03ee 9A5C     		ldrb	r2, [r3, r2]
 735 03f0 2A55     		strb	r2, [r5, r4]
 243:pamGasd.c     ****         PresentData[length + 1] = GasData.WornDuration[1];
 736              		.loc 1 243 0 discriminator 1
 737 03f2 621C     		adds	r2, r4, #1
 738 03f4 4B21     		movs	r1, #75
 739 03f6 595C     		ldrb	r1, [r3, r1]
 740 03f8 A954     		strb	r1, [r5, r2]
 244:pamGasd.c     ****         PresentData[length + 2] = GasData.WornDuration[0];
 741              		.loc 1 244 0 discriminator 1
 742 03fa A21C     		adds	r2, r4, #2
 743 03fc 4A21     		movs	r1, #74
 744 03fe 5B5C     		ldrb	r3, [r3, r1]
 745 0400 AB54     		strb	r3, [r5, r2]
 245:pamGasd.c     ****         length += sizeof(GasData.WornDuration);
 746              		.loc 1 245 0 discriminator 1
 747 0402 0334     		adds	r4, r4, #3
 748              	.LVL66:
 749 0404 E4B2     		uxtb	r4, r4
 750              	.LVL67:
 751              	.L42:
 246:pamGasd.c     ****     }
 247:pamGasd.c     ****     
 248:pamGasd.c     ****     return length;
 249:pamGasd.c     **** }
 752              		.loc 1 249 0
 753 0406 2000     		movs	r0, r4
 754              		@ sp needed
 755              	.LVL68:
 756              	.LVL69:
 757 0408 70BD     		pop	{r4, r5, r6, pc}
 758              	.L52:
 759 040a C046     		.align	2
 760              	.L51:
 761 040c 00000000 		.word	pamFeature
 762 0410 00000000 		.word	GasData
 763              		.cfi_endproc
ARM GAS  C:\Users\310309~1\AppData\Local\Temp\ccKhHTrv.s 			page 19


 764              	.LFE37:
 765              		.size	getPresentGasdFields, .-getPresentGasdFields
 766              		.global	__aeabi_ui2d
 767              		.section	.text.UpdateGasd,"ax",%progbits
 768              		.align	2
 769              		.global	UpdateGasd
 770              		.code	16
 771              		.thumb_func
 772              		.type	UpdateGasd, %function
 773              	UpdateGasd:
 774              	.LFB36:
  16:pamGasd.c     ****     CYBLE_GATTS_HANDLE_VALUE_NTF_T tempHandle;
 775              		.loc 1 16 0
 776              		.cfi_startproc
 777              		@ args = 0, pretend = 0, frame = 112
 778              		@ frame_needed = 0, uses_anonymous_args = 0
 779 0000 F0B5     		push	{r4, r5, r6, r7, lr}
 780              		.cfi_def_cfa_offset 20
 781              		.cfi_offset 4, -20
 782              		.cfi_offset 5, -16
 783              		.cfi_offset 6, -12
 784              		.cfi_offset 7, -8
 785              		.cfi_offset 14, -4
 786 0002 9DB0     		sub	sp, sp, #116
 787              		.cfi_def_cfa_offset 136
  19:pamGasd.c     ****     tempHandle.value.val = (uint8 *)&GasData;
 788              		.loc 1 19 0
 789 0004 19A8     		add	r0, sp, #100
 790 0006 1623     		movs	r3, #22
 791 0008 0381     		strh	r3, [r0, #8]
  20:pamGasd.c     ****     tempHandle.value.len = sizeof(GasData);
 792              		.loc 1 20 0
 793 000a 464B     		ldr	r3, .L62
 794 000c 1993     		str	r3, [sp, #100]
  21:pamGasd.c     ****     CyBle_GattsWriteAttributeValue(&tempHandle, 0, &cyBle_connHandle, 0);
 795              		.loc 1 21 0
 796 000e 4D23     		movs	r3, #77
 797 0010 8380     		strh	r3, [r0, #4]
  22:pamGasd.c     ****     
 798              		.loc 1 22 0
 799 0012 0023     		movs	r3, #0
 800 0014 444A     		ldr	r2, .L62+4
 801 0016 0021     		movs	r1, #0
 802 0018 FFF7FEFF 		bl	CyBle_GattsWriteAttributeValue
 803              	.LVL70:
  24:pamGasd.c     ****     {
 804              		.loc 1 24 0
 805 001c 434B     		ldr	r3, .L62+8
 806 001e 1B68     		ldr	r3, [r3]
 807 0020 002B     		cmp	r3, #0
 808 0022 7DD0     		beq	.L53
 809              	.LBB2:
  28:pamGasd.c     ****         DBG_PRINTF("GENERAL ACTIVITY SUMMARY DATA presentdatalength = %i\r\n", presentDataLength);
 810              		.loc 1 28 0
 811 0024 05A8     		add	r0, sp, #20
 812 0026 FFF7FEFF 		bl	getPresentGasdFields
 813              	.LVL71:
ARM GAS  C:\Users\310309~1\AppData\Local\Temp\ccKhHTrv.s 			page 20


 814 002a 0400     		movs	r4, r0
 815 002c 0600     		movs	r6, r0
 816              	.LVL72:
  29:pamGasd.c     ****         uint8 N = calculateNumberOfMessages(presentDataLength);
 817              		.loc 1 29 0
 818 002e 0100     		movs	r1, r0
 819 0030 3F48     		ldr	r0, .L62+12
 820              	.LVL73:
 821 0032 FFF7FEFF 		bl	printf
 822              	.LVL74:
  30:pamGasd.c     ****         DBG_PRINTF("GENERAL ACTIVITY SUMMARY DATA N = %i\r\n", N);
 823              		.loc 1 30 0
 824 0036 2000     		movs	r0, r4
 825 0038 FFF7FEFF 		bl	__aeabi_ui2d
 826              	.LVL75:
 827 003c FFF7FEFF 		bl	calculateNumberOfMessages
 828              	.LVL76:
 829 0040 0100     		movs	r1, r0
 830 0042 0700     		movs	r7, r0
 831              	.LVL77:
  31:pamGasd.c     ****         
 832              		.loc 1 31 0
 833 0044 3B48     		ldr	r0, .L62+16
 834 0046 FFF7FEFF 		bl	printf
 835              	.LVL78:
  35:pamGasd.c     ****         byteCount += sizeof(GasData.Flags);
 836              		.loc 1 35 0
 837 004a 364C     		ldr	r4, .L62
 838 004c 6078     		ldrb	r0, [r4, #1]
 839 004e A378     		ldrb	r3, [r4, #2]
 840 0050 1B02     		lsls	r3, r3, #8
 841 0052 0343     		orrs	r3, r0
 842 0054 1A00     		movs	r2, r3
 843 0056 E178     		ldrb	r1, [r4, #3]
 844 0058 0904     		lsls	r1, r1, #16
 845 005a 0B00     		movs	r3, r1
 846 005c 1343     		orrs	r3, r2
 847 005e 2179     		ldrb	r1, [r4, #4]
 848 0060 0906     		lsls	r1, r1, #24
 849 0062 1943     		orrs	r1, r3
 850 0064 1520     		movs	r0, #21
 851 0066 6844     		add	r0, r0, sp
 852 0068 FFF7FEFF 		bl	CyBle_Set32ByPtr
 853              	.LVL79:
  38:pamGasd.c     ****         byteCount += sizeof(GasData.SessionID);
 854              		.loc 1 38 0
 855 006c 6379     		ldrb	r3, [r4, #5]
 856 006e A179     		ldrb	r1, [r4, #6]
 857 0070 0902     		lsls	r1, r1, #8
 858 0072 1943     		orrs	r1, r3
 859 0074 1920     		movs	r0, #25
 860 0076 6844     		add	r0, r0, sp
 861 0078 FFF7FEFF 		bl	CyBle_Set16ByPtr
 862              	.LVL80:
  41:pamGasd.c     ****         byteCount += sizeof(GasData.SubSessionID);
 863              		.loc 1 41 0
 864 007c E379     		ldrb	r3, [r4, #7]
ARM GAS  C:\Users\310309~1\AppData\Local\Temp\ccKhHTrv.s 			page 21


 865 007e 217A     		ldrb	r1, [r4, #8]
 866 0080 0902     		lsls	r1, r1, #8
 867 0082 1943     		orrs	r1, r3
 868 0084 1B20     		movs	r0, #27
 869 0086 6844     		add	r0, r0, sp
 870 0088 FFF7FEFF 		bl	CyBle_Set16ByPtr
 871              	.LVL81:
  44:pamGasd.c     ****         byteCount += sizeof(GasData.RelativeTimestamp);
 872              		.loc 1 44 0
 873 008c 607A     		ldrb	r0, [r4, #9]
 874 008e A37A     		ldrb	r3, [r4, #10]
 875 0090 1B02     		lsls	r3, r3, #8
 876 0092 0343     		orrs	r3, r0
 877 0094 1A00     		movs	r2, r3
 878 0096 E17A     		ldrb	r1, [r4, #11]
 879 0098 0904     		lsls	r1, r1, #16
 880 009a 0B00     		movs	r3, r1
 881 009c 1343     		orrs	r3, r2
 882 009e 217B     		ldrb	r1, [r4, #12]
 883 00a0 0906     		lsls	r1, r1, #24
 884 00a2 1943     		orrs	r1, r3
 885 00a4 1D20     		movs	r0, #29
 886 00a6 6844     		add	r0, r0, sp
 887 00a8 FFF7FEFF 		bl	CyBle_Set32ByPtr
 888              	.LVL82:
  47:pamGasd.c     ****         byteCount += sizeof(GasData.SequenceNumber);
 889              		.loc 1 47 0
 890 00ac 607B     		ldrb	r0, [r4, #13]
 891 00ae A37B     		ldrb	r3, [r4, #14]
 892 00b0 1B02     		lsls	r3, r3, #8
 893 00b2 0343     		orrs	r3, r0
 894 00b4 1A00     		movs	r2, r3
 895 00b6 E17B     		ldrb	r1, [r4, #15]
 896 00b8 0904     		lsls	r1, r1, #16
 897 00ba 0B00     		movs	r3, r1
 898 00bc 1343     		orrs	r3, r2
 899 00be 217C     		ldrb	r1, [r4, #16]
 900 00c0 0906     		lsls	r1, r1, #24
 901 00c2 1943     		orrs	r1, r3
 902 00c4 2120     		movs	r0, #33
 903 00c6 6844     		add	r0, r0, sp
 904 00c8 FFF7FEFF 		bl	CyBle_Set32ByPtr
 905              	.LVL83:
 906              	.LBB3:
  56:pamGasd.c     ****         {
 907              		.loc 1 56 0
 908 00cc 0024     		movs	r4, #0
 909              	.LBE3:
  54:pamGasd.c     ****         
 910              		.loc 1 54 0
 911 00ce 0025     		movs	r5, #0
 912              	.LBB5:
  56:pamGasd.c     ****         {
 913              		.loc 1 56 0
 914 00d0 24E0     		b	.L55
 915              	.LVL84:
 916              	.L61:
ARM GAS  C:\Users\310309~1\AppData\Local\Temp\ccKhHTrv.s 			page 22


  58:pamGasd.c     ****             {
 917              		.loc 1 58 0
 918 00d2 002C     		cmp	r4, #0
 919 00d4 05D1     		bne	.L56
  60:pamGasd.c     ****             }
 920              		.loc 1 60 0
 921 00d6 3B00     		movs	r3, r7
 922 00d8 7F33     		adds	r3, r3, #127
 923 00da 6A46     		mov	r2, sp
 924 00dc 1370     		strb	r3, [r2]
 925              	.L58:
 926              	.LBE5:
 927              	.LBE2:
  16:pamGasd.c     ****     CYBLE_GATTS_HANDLE_VALUE_NTF_T tempHandle;
 928              		.loc 1 16 0 discriminator 1
 929 00de 0122     		movs	r2, #1
 930 00e0 13E0     		b	.L57
 931              	.L56:
 932              	.LBB7:
 933              	.LBB6:
  64:pamGasd.c     ****             }
 934              		.loc 1 64 0
 935 00e2 3B1B     		subs	r3, r7, r4
 936 00e4 013B     		subs	r3, r3, #1
 937 00e6 6A46     		mov	r2, sp
 938 00e8 1370     		strb	r3, [r2]
 939 00ea F8E7     		b	.L58
 940              	.LVL85:
 941              	.L60:
 942              	.LBB4:
  70:pamGasd.c     ****                 {
 943              		.loc 1 70 0
 944 00ec E300     		lsls	r3, r4, #3
 945 00ee 1B19     		adds	r3, r3, r4
 946 00f0 5B00     		lsls	r3, r3, #1
 947 00f2 1B19     		adds	r3, r3, r4
 948 00f4 D318     		adds	r3, r2, r3
 949 00f6 B342     		cmp	r3, r6
 950 00f8 05D2     		bcs	.L59
  72:pamGasd.c     ****                     MessageSize = i + HEADER_SIZE;
 951              		.loc 1 72 0
 952 00fa 05A9     		add	r1, sp, #20
 953              	.LVL86:
 954 00fc CB5C     		ldrb	r3, [r1, r3]
 955 00fe 6946     		mov	r1, sp
 956              	.LVL87:
 957 0100 8B54     		strb	r3, [r1, r2]
  73:pamGasd.c     ****                 }
 958              		.loc 1 73 0
 959 0102 551C     		adds	r5, r2, #1
 960              	.LVL88:
 961 0104 EDB2     		uxtb	r5, r5
 962              	.LVL89:
 963              	.L59:
  68:pamGasd.c     ****             {
 964              		.loc 1 68 0 discriminator 2
 965 0106 0132     		adds	r2, r2, #1
ARM GAS  C:\Users\310309~1\AppData\Local\Temp\ccKhHTrv.s 			page 23


 966              	.LVL90:
 967 0108 D2B2     		uxtb	r2, r2
 968              	.LVL91:
 969              	.L57:
  68:pamGasd.c     ****             {
 970              		.loc 1 68 0 is_stmt 0 discriminator 1
 971 010a 132A     		cmp	r2, #19
 972 010c EED9     		bls	.L60
 973              	.LBE4:
  76:pamGasd.c     ****         }
 974              		.loc 1 76 0 is_stmt 1 discriminator 2
 975 010e AAB2     		uxth	r2, r5
 976              	.LVL92:
 977 0110 6946     		mov	r1, sp
 978 0112 1A20     		movs	r0, #26
 979 0114 FFF7FEFF 		bl	ble_SendIndication
 980              	.LVL93:
  56:pamGasd.c     ****         {
 981              		.loc 1 56 0 discriminator 2
 982 0118 0134     		adds	r4, r4, #1
 983              	.LVL94:
 984 011a E4B2     		uxtb	r4, r4
 985              	.LVL95:
 986              	.L55:
  56:pamGasd.c     ****         {
 987              		.loc 1 56 0 is_stmt 0 discriminator 1
 988 011c BC42     		cmp	r4, r7
 989 011e D8D3     		bcc	.L61
 990              	.LVL96:
 991              	.L53:
 992              	.LBE6:
 993              	.LBE7:
  79:pamGasd.c     **** 
 994              		.loc 1 79 0 is_stmt 1
 995 0120 1DB0     		add	sp, sp, #116
 996              		@ sp needed
 997 0122 F0BD     		pop	{r4, r5, r6, r7, pc}
 998              	.L63:
 999              		.align	2
 1000              	.L62:
 1001 0124 00000000 		.word	GasData
 1002 0128 00000000 		.word	cyBle_connHandle
 1003 012c 00000000 		.word	generalsummarydataIndicate
 1004 0130 00000000 		.word	.LC5
 1005 0134 38000000 		.word	.LC7
 1006              		.cfi_endproc
 1007              	.LFE36:
 1008              		.size	UpdateGasd, .-UpdateGasd
 1009              		.comm	generalsummarydataIndicate,4,4
 1010              		.comm	GasData,77,4
 1011              		.comm	sessionDescriptorIndicate,1,1
 1012              		.comm	pamFeature,8,8
 1013              		.comm	UserDefinedActivityTypeAllSubSessions,625,4
 1014              		.comm	Update_GASD_With_New_Activity,1,1
 1015              		.comm	send_Deleted_Sessions,1,1
 1016              		.comm	Get_Ended_Data_Value,1,1
 1017              		.comm	Get_Ended_Data_Sub_SessionID,2,2
ARM GAS  C:\Users\310309~1\AppData\Local\Temp\ccKhHTrv.s 			page 24


 1018              		.comm	Get_Ended_Data_SessionID,2,2
 1019              		.comm	Enquire_Sub_Sessions_Requested_For_ID,2,2
 1020              		.comm	Enquire_Sessions_Requested,2,2
 1021              		.section	.rodata.str1.4,"aMS",%progbits,1
 1022              		.align	2
 1023              	.LC5:
 1024 0000 47454E45 		.ascii	"GENERAL ACTIVITY SUMMARY DATA presentdatalength = %"
 1024      52414C20 
 1024      41435449 
 1024      56495459 
 1024      2053554D 
 1025 0033 690D0A00 		.ascii	"i\015\012\000"
 1026 0037 00       		.space	1
 1027              	.LC7:
 1028 0038 47454E45 		.ascii	"GENERAL ACTIVITY SUMMARY DATA N = %i\015\012\000"
 1028      52414C20 
 1028      41435449 
 1028      56495459 
 1028      2053554D 
 1029              		.text
 1030              	.Letext0:
 1031              		.file 2 "Generated_Source\\PSoC4/cytypes.h"
 1032              		.file 3 "Generated_Source\\PSoC4/ble_StackGatt.h"
 1033              		.file 4 "Generated_Source\\PSoC4/ble_StackGattServer.h"
 1034              		.file 5 "pamGasd.h"
 1035              		.file 6 "Generated_Source\\PSoC4/ble_eventHandler.h"
 1036              		.file 7 "pams.h"
 1037              		.file 8 "pamFeatures.h"
 1038              		.file 9 "pamSessDescr.h"
 1039              		.file 10 "Generated_Source\\PSoC4/ble.h"
 1040              		.file 11 "c:\\program files (x86)\\cypress\\psoc creator\\4.1\\psoc creator\\import\\gnu\\arm\\5.4
 1041              		.file 12 "Generated_Source\\PSoC4/ble_StackGattDb.h"
 1042              		.file 13 "Generated_Source\\PSoC4/ble_Stack.h"