ARM GAS  C:\Users\310309~1\AppData\Local\Temp\cc6uyAhf.s 			page 1


   1              		.syntax unified
   2              		.cpu cortex-m0
   3              		.fpu softvfp
   4              		.eabi_attribute 20, 1
   5              		.eabi_attribute 21, 1
   6              		.eabi_attribute 23, 3
   7              		.eabi_attribute 24, 1
   8              		.eabi_attribute 25, 1
   9              		.eabi_attribute 26, 1
  10              		.eabi_attribute 30, 1
  11              		.eabi_attribute 34, 0
  12              		.eabi_attribute 18, 4
  13              		.thumb
  14              		.syntax unified
  15              		.file	"pamGaid.c"
  16              		.text
  17              	.Ltext0:
  18              		.cfi_sections	.debug_frame
  19              		.section	.text.getPresentGaidFields,"ax",%progbits
  20              		.align	2
  21              		.global	getPresentGaidFields
  22              		.code	16
  23              		.thumb_func
  24              		.type	getPresentGaidFields, %function
  25              	getPresentGaidFields:
  26              	.LFB37:
  27              		.file 1 "pamGaid.c"
   1:pamGaid.c     **** /* ========================================
   2:pamGaid.c     ****  *
   3:pamGaid.c     ****  * Copyright YOUR COMPANY, THE YEAR
   4:pamGaid.c     ****  * All Rights Reserved
   5:pamGaid.c     ****  * UNPUBLISHED, LICENSED SOFTWARE.
   6:pamGaid.c     ****  *
   7:pamGaid.c     ****  * CONFIDENTIAL AND PROPRIETARY INFORMATION
   8:pamGaid.c     ****  * WHICH IS THE PROPERTY OF your company.
   9:pamGaid.c     ****  *
  10:pamGaid.c     ****  * ========================================
  11:pamGaid.c     **** */
  12:pamGaid.c     **** 
  13:pamGaid.c     **** #include "pamGaid.h"
  14:pamGaid.c     **** 
  15:pamGaid.c     **** void UpdateGaid(void)
  16:pamGaid.c     **** {
  17:pamGaid.c     ****     CYBLE_GATTS_HANDLE_VALUE_NTF_T tempHandle;
  18:pamGaid.c     ****     
  19:pamGaid.c     ****     tempHandle.attrHandle = CYBLE_PHYSICAL_ACTIVITY_MONITOR_GENERAL_ACTIVITY_INSTANTANEOUS_DATA_CHA
  20:pamGaid.c     ****     tempHandle.value.val = (uint8 *)&GaiData;
  21:pamGaid.c     ****     tempHandle.value.len = sizeof(GaiData);
  22:pamGaid.c     ****     CyBle_GattsWriteAttributeValue(&tempHandle, 0, &cyBle_connHandle, 0);
  23:pamGaid.c     ****     
  24:pamGaid.c     ****     if(generalinstantaneousdataNotify)
  25:pamGaid.c     ****     {
  26:pamGaid.c     ****         uint8 PresentData[sizeof(GaiData)];
  27:pamGaid.c     ****         
  28:pamGaid.c     ****         uint8 presentDataLength = getPresentGaidFields(PresentData);
  29:pamGaid.c     ****         DBG_PRINTF("GENERAL ACTIVITY INSTANTANEOUS DATA presentdatalength = %i\r\n", presentDataLen
  30:pamGaid.c     ****         uint8 N = calculateNumberOfMessages(presentDataLength);
ARM GAS  C:\Users\310309~1\AppData\Local\Temp\cc6uyAhf.s 			page 2


  31:pamGaid.c     ****         DBG_PRINTF("GENERAL ACTIVITY INSTANTANEOUS DATA N = %i\r\n", N);
  32:pamGaid.c     ****         
  33:pamGaid.c     ****         uint8 byteCount = 1u;//Starts at 1 because 0 is the header field
  34:pamGaid.c     ****         
  35:pamGaid.c     ****         PresentData[byteCount++] = GaiData.Flags[0];
  36:pamGaid.c     ****         PresentData[byteCount++] = GaiData.Flags[1];
  37:pamGaid.c     ****         PresentData[byteCount++] = GaiData.Flags[2];
  38:pamGaid.c     ****         
  39:pamGaid.c     ****         CyBle_Set16ByPtr(&PresentData[byteCount], GaiData.SessionID);
  40:pamGaid.c     ****         byteCount += sizeof(GaiData.SessionID);
  41:pamGaid.c     ****         
  42:pamGaid.c     ****         CyBle_Set16ByPtr(&PresentData[byteCount], GaiData.SubSessionID);
  43:pamGaid.c     ****         byteCount += sizeof(GaiData.SubSessionID);
  44:pamGaid.c     ****         
  45:pamGaid.c     ****         CyBle_Set32ByPtr(&PresentData[byteCount], GaiData.RelativeTimestamp);
  46:pamGaid.c     ****         byteCount += sizeof(GaiData.RelativeTimestamp);
  47:pamGaid.c     ****         
  48:pamGaid.c     ****         CyBle_Set32ByPtr(&PresentData[byteCount], GaiData.SequenceNumber);
  49:pamGaid.c     ****         byteCount += sizeof(GaiData.SequenceNumber);
  50:pamGaid.c     ****         //size = 16
  51:pamGaid.c     ****         
  52:pamGaid.c     ****         char* my_struct_in_bytes = (char*)(&PresentData);
  53:pamGaid.c     ****         
  54:pamGaid.c     ****         uint8 Message[PAM_MAX_MESSAGE_DATA_SIZE + HEADER_SIZE];
  55:pamGaid.c     ****         uint8 MessageSize = 0;
  56:pamGaid.c     ****         
  57:pamGaid.c     ****         
  58:pamGaid.c     ****         for(uint8 x = 0; x < N; x++)
  59:pamGaid.c     ****         {
  60:pamGaid.c     ****             if(x == 0)
  61:pamGaid.c     ****             {
  62:pamGaid.c     ****                 Message[0] = 0x80 + N - 1; 
  63:pamGaid.c     ****             }
  64:pamGaid.c     ****             else
  65:pamGaid.c     ****             {
  66:pamGaid.c     ****                 Message[0] = 0x00 + N - 1 - x;
  67:pamGaid.c     ****             }
  68:pamGaid.c     ****             
  69:pamGaid.c     ****             
  70:pamGaid.c     ****             for(uint8 i = 1; i < PAM_MAX_MESSAGE_DATA_SIZE + HEADER_SIZE; i++)
  71:pamGaid.c     ****             {
  72:pamGaid.c     ****                 if((x * PAM_MAX_MESSAGE_DATA_SIZE + i) < presentDataLength)
  73:pamGaid.c     ****                 {
  74:pamGaid.c     ****                     Message[i] = my_struct_in_bytes[i + x * PAM_MAX_MESSAGE_DATA_SIZE];
  75:pamGaid.c     ****                     MessageSize = i + HEADER_SIZE;
  76:pamGaid.c     ****                 }
  77:pamGaid.c     ****             }
  78:pamGaid.c     ****             ble_SendNotification(CYBLE_PHYSICAL_ACTIVITY_MONITOR_GENERAL_ACTIVITY_INSTANTANEOUS_DAT
  79:pamGaid.c     ****         }
  80:pamGaid.c     ****     }
  81:pamGaid.c     **** }
  82:pamGaid.c     **** 
  83:pamGaid.c     **** 
  84:pamGaid.c     **** uint8 getPresentGaidFields(uint8 *PresentData)
  85:pamGaid.c     **** {
  28              		.loc 1 85 0
  29              		.cfi_startproc
ARM GAS  C:\Users\310309~1\AppData\Local\Temp\cc6uyAhf.s 			page 3


  30              		@ args = 0, pretend = 0, frame = 0
  31              		@ frame_needed = 0, uses_anonymous_args = 0
  32              	.LVL0:
  33 0000 70B5     		push	{r4, r5, r6, lr}
  34              		.cfi_def_cfa_offset 16
  35              		.cfi_offset 4, -16
  36              		.cfi_offset 5, -12
  37              		.cfi_offset 6, -8
  38              		.cfi_offset 14, -4
  39 0002 0500     		movs	r5, r0
  40              	.LVL1:
  86:pamGaid.c     ****     uint8 length = ALWAYS_PRESENT_GAID_FIELD_LENGTH;
  87:pamGaid.c     ****     
  88:pamGaid.c     ****     if(CHECK_BIT(GaiData.Flags[0], NORMAL_WALKING_ENERGY_EXPENDITURE_PER_HOUR_PRESENT) &&
  41              		.loc 1 88 0
  42 0004 684B     		ldr	r3, .L26
  43 0006 5B78     		ldrb	r3, [r3, #1]
  44 0008 DB07     		lsls	r3, r3, #31
  45 000a 0DD5     		bpl	.L24
  89:pamGaid.c     ****        CHECK_BIT(pamFeature, NORMAL_WALKING_ENERGY_EXPENDITURE_PER_HOUR_SUPPORTED))
  46              		.loc 1 89 0 discriminator 1
  47 000c 674B     		ldr	r3, .L26+4
  48 000e 1B68     		ldr	r3, [r3]
  88:pamGaid.c     ****        CHECK_BIT(pamFeature, NORMAL_WALKING_ENERGY_EXPENDITURE_PER_HOUR_SUPPORTED))
  49              		.loc 1 88 0 discriminator 1
  50 0010 1B07     		lsls	r3, r3, #28
  51 0012 0BD5     		bpl	.L25
  90:pamGaid.c     ****     {
  91:pamGaid.c     ****         CyBle_Set16ByPtr(&PresentData[length], GaiData.NormalWalkingEnergyExpenditurePerHour);
  52              		.loc 1 91 0 discriminator 1
  53 0014 644A     		ldr	r2, .L26
  54 0016 137C     		ldrb	r3, [r2, #16]
  55 0018 517C     		ldrb	r1, [r2, #17]
  56 001a 0902     		lsls	r1, r1, #8
  57 001c 1943     		orrs	r1, r3
  58 001e 1030     		adds	r0, r0, #16
  59              	.LVL2:
  60 0020 FFF7FEFF 		bl	CyBle_Set16ByPtr
  61              	.LVL3:
  92:pamGaid.c     ****         length += sizeof(GaiData.NormalWalkingEnergyExpenditurePerHour);
  62              		.loc 1 92 0 discriminator 1
  63 0024 1224     		movs	r4, #18
  64 0026 02E0     		b	.L2
  65              	.LVL4:
  66              	.L24:
  86:pamGaid.c     ****     
  67              		.loc 1 86 0
  68 0028 1024     		movs	r4, #16
  69 002a 00E0     		b	.L2
  70              	.L25:
  71 002c 1024     		movs	r4, #16
  72              	.LVL5:
  73              	.L2:
  93:pamGaid.c     ****     }
  94:pamGaid.c     ****     if(CHECK_BIT(GaiData.Flags[0], INTENSITY_ENERGY_EXPENDITURE_PER_HOUR_PRESENT) &&
  74              		.loc 1 94 0
  75 002e 5E4B     		ldr	r3, .L26
ARM GAS  C:\Users\310309~1\AppData\Local\Temp\cc6uyAhf.s 			page 4


  76 0030 5B78     		ldrb	r3, [r3, #1]
  77 0032 9B07     		lsls	r3, r3, #30
  78 0034 0DD5     		bpl	.L4
  95:pamGaid.c     ****        CHECK_BIT(pamFeature, INTENSITY_ENERGY_EXPENDITURE_PER_HOUR_SUPPORTED))
  79              		.loc 1 95 0 discriminator 1
  80 0036 5D4B     		ldr	r3, .L26+4
  81 0038 1B68     		ldr	r3, [r3]
  94:pamGaid.c     ****        CHECK_BIT(pamFeature, INTENSITY_ENERGY_EXPENDITURE_PER_HOUR_SUPPORTED))
  82              		.loc 1 94 0 discriminator 1
  83 003a 9B06     		lsls	r3, r3, #26
  84 003c 09D5     		bpl	.L4
  96:pamGaid.c     ****     {
  97:pamGaid.c     ****         CyBle_Set16ByPtr(&PresentData[length], GaiData.IntensityEnergyExpenditurePerHour);
  85              		.loc 1 97 0 discriminator 1
  86 003e 5A4A     		ldr	r2, .L26
  87 0040 937C     		ldrb	r3, [r2, #18]
  88 0042 D17C     		ldrb	r1, [r2, #19]
  89 0044 0902     		lsls	r1, r1, #8
  90 0046 1943     		orrs	r1, r3
  91 0048 2819     		adds	r0, r5, r4
  92 004a FFF7FEFF 		bl	CyBle_Set16ByPtr
  93              	.LVL6:
  98:pamGaid.c     ****         length += sizeof(GaiData.IntensityEnergyExpenditurePerHour);
  94              		.loc 1 98 0 discriminator 1
  95 004e 0234     		adds	r4, r4, #2
  96              	.LVL7:
  97 0050 E4B2     		uxtb	r4, r4
  98              	.LVL8:
  99              	.L4:
  99:pamGaid.c     ****     }
 100:pamGaid.c     ****     if(CHECK_BIT(GaiData.Flags[0], TOTAL_ENERGY_EXPENDITURE_PER_HOUR_PRESENT) &&
 100              		.loc 1 100 0
 101 0052 554B     		ldr	r3, .L26
 102 0054 5B78     		ldrb	r3, [r3, #1]
 103 0056 5B07     		lsls	r3, r3, #29
 104 0058 0DD5     		bpl	.L6
 101:pamGaid.c     ****        CHECK_BIT(pamFeature, TOTAL_ENERGY_EXPENDITURE_PER_HOUR_SUPPORTED))
 105              		.loc 1 101 0 discriminator 1
 106 005a 544B     		ldr	r3, .L26+4
 107 005c 1B68     		ldr	r3, [r3]
 100:pamGaid.c     ****        CHECK_BIT(pamFeature, TOTAL_ENERGY_EXPENDITURE_PER_HOUR_SUPPORTED))
 108              		.loc 1 100 0 discriminator 1
 109 005e 1B06     		lsls	r3, r3, #24
 110 0060 09D5     		bpl	.L6
 102:pamGaid.c     ****     {
 103:pamGaid.c     ****         CyBle_Set16ByPtr(&PresentData[length], GaiData.TotalEnergyExpenditurePerHour);
 111              		.loc 1 103 0 discriminator 1
 112 0062 514A     		ldr	r2, .L26
 113 0064 137D     		ldrb	r3, [r2, #20]
 114 0066 517D     		ldrb	r1, [r2, #21]
 115 0068 0902     		lsls	r1, r1, #8
 116 006a 1943     		orrs	r1, r3
 117 006c 2819     		adds	r0, r5, r4
 118 006e FFF7FEFF 		bl	CyBle_Set16ByPtr
 119              	.LVL9:
 104:pamGaid.c     ****         length += sizeof(GaiData.TotalEnergyExpenditurePerHour);
 120              		.loc 1 104 0 discriminator 1
ARM GAS  C:\Users\310309~1\AppData\Local\Temp\cc6uyAhf.s 			page 5


 121 0072 0234     		adds	r4, r4, #2
 122              	.LVL10:
 123 0074 E4B2     		uxtb	r4, r4
 124              	.LVL11:
 125              	.L6:
 105:pamGaid.c     ****     }
 106:pamGaid.c     ****     if(CHECK_BIT(GaiData.Flags[0], FAT_BURNED_PER_HOUR_PRESENT) &&
 126              		.loc 1 106 0
 127 0076 4C4B     		ldr	r3, .L26
 128 0078 5B78     		ldrb	r3, [r3, #1]
 129 007a 1B07     		lsls	r3, r3, #28
 130 007c 0DD5     		bpl	.L8
 107:pamGaid.c     ****        CHECK_BIT(pamFeature, FAT_BURNED_PER_HOUR_SUPPORTED))
 131              		.loc 1 107 0 discriminator 1
 132 007e 4B4B     		ldr	r3, .L26+4
 133 0080 1B68     		ldr	r3, [r3]
 106:pamGaid.c     ****        CHECK_BIT(pamFeature, FAT_BURNED_PER_HOUR_SUPPORTED))
 134              		.loc 1 106 0 discriminator 1
 135 0082 9B05     		lsls	r3, r3, #22
 136 0084 09D5     		bpl	.L8
 108:pamGaid.c     ****     {
 109:pamGaid.c     ****         CyBle_Set16ByPtr(&PresentData[length], GaiData.FatBurnedPerHour);
 137              		.loc 1 109 0 discriminator 1
 138 0086 484A     		ldr	r2, .L26
 139 0088 937D     		ldrb	r3, [r2, #22]
 140 008a D17D     		ldrb	r1, [r2, #23]
 141 008c 0902     		lsls	r1, r1, #8
 142 008e 1943     		orrs	r1, r3
 143 0090 2819     		adds	r0, r5, r4
 144 0092 FFF7FEFF 		bl	CyBle_Set16ByPtr
 145              	.LVL12:
 110:pamGaid.c     ****         length += sizeof(GaiData.FatBurnedPerHour);
 146              		.loc 1 110 0 discriminator 1
 147 0096 0234     		adds	r4, r4, #2
 148              	.LVL13:
 149 0098 E4B2     		uxtb	r4, r4
 150              	.LVL14:
 151              	.L8:
 111:pamGaid.c     ****     }
 112:pamGaid.c     ****     if(CHECK_BIT(GaiData.Flags[0], METABOLIC_EQUIVALENT_PRESENT) &&
 152              		.loc 1 112 0
 153 009a 434B     		ldr	r3, .L26
 154 009c 5B78     		ldrb	r3, [r3, #1]
 155 009e DB06     		lsls	r3, r3, #27
 156 00a0 08D5     		bpl	.L10
 113:pamGaid.c     ****        CHECK_BIT(pamFeature, METABOLIC_EQUIVALENT_SUPPORTED))
 157              		.loc 1 113 0 discriminator 1
 158 00a2 424B     		ldr	r3, .L26+4
 159 00a4 1B68     		ldr	r3, [r3]
 112:pamGaid.c     ****        CHECK_BIT(pamFeature, METABOLIC_EQUIVALENT_SUPPORTED))
 160              		.loc 1 112 0 discriminator 1
 161 00a6 5B05     		lsls	r3, r3, #21
 162 00a8 04D5     		bpl	.L10
 114:pamGaid.c     ****     {
 115:pamGaid.c     ****         PresentData[length] = GaiData.MetabolicEquivalent;
 163              		.loc 1 115 0 discriminator 1
 164 00aa 3F4B     		ldr	r3, .L26
ARM GAS  C:\Users\310309~1\AppData\Local\Temp\cc6uyAhf.s 			page 6


 165 00ac 1B7E     		ldrb	r3, [r3, #24]
 166 00ae 2B55     		strb	r3, [r5, r4]
 116:pamGaid.c     ****         length += sizeof(GaiData.MetabolicEquivalent);
 167              		.loc 1 116 0 discriminator 1
 168 00b0 0134     		adds	r4, r4, #1
 169              	.LVL15:
 170 00b2 E4B2     		uxtb	r4, r4
 171              	.LVL16:
 172              	.L10:
 117:pamGaid.c     ****     }
 118:pamGaid.c     ****     if(CHECK_BIT(GaiData.Flags[0], SPEED_PRESENT) &&
 173              		.loc 1 118 0
 174 00b4 3C4B     		ldr	r3, .L26
 175 00b6 5B78     		ldrb	r3, [r3, #1]
 176 00b8 9B06     		lsls	r3, r3, #26
 177 00ba 0DD5     		bpl	.L12
 119:pamGaid.c     ****        CHECK_BIT(pamFeature, SPEED_SUPPORTED))
 178              		.loc 1 119 0 discriminator 1
 179 00bc 3B4B     		ldr	r3, .L26+4
 180 00be 1B68     		ldr	r3, [r3]
 118:pamGaid.c     ****        CHECK_BIT(pamFeature, SPEED_SUPPORTED))
 181              		.loc 1 118 0 discriminator 1
 182 00c0 DB04     		lsls	r3, r3, #19
 183 00c2 09D5     		bpl	.L12
 120:pamGaid.c     ****     {
 121:pamGaid.c     ****         CyBle_Set16ByPtr(&PresentData[length], GaiData.Speed);
 184              		.loc 1 121 0 discriminator 1
 185 00c4 384A     		ldr	r2, .L26
 186 00c6 537E     		ldrb	r3, [r2, #25]
 187 00c8 917E     		ldrb	r1, [r2, #26]
 188 00ca 0902     		lsls	r1, r1, #8
 189 00cc 1943     		orrs	r1, r3
 190 00ce 2819     		adds	r0, r5, r4
 191 00d0 FFF7FEFF 		bl	CyBle_Set16ByPtr
 192              	.LVL17:
 122:pamGaid.c     ****         length += sizeof(GaiData.Speed);
 193              		.loc 1 122 0 discriminator 1
 194 00d4 0234     		adds	r4, r4, #2
 195              	.LVL18:
 196 00d6 E4B2     		uxtb	r4, r4
 197              	.LVL19:
 198              	.L12:
 123:pamGaid.c     ****     }
 124:pamGaid.c     ****     if(CHECK_BIT(GaiData.Flags[0], MOTION_CADENCE_PRESENT) &&
 199              		.loc 1 124 0
 200 00d8 334B     		ldr	r3, .L26
 201 00da 5B78     		ldrb	r3, [r3, #1]
 202 00dc 5B06     		lsls	r3, r3, #25
 203 00de 0DD5     		bpl	.L14
 125:pamGaid.c     ****        CHECK_BIT(pamFeature, MOTION_CADENCE_SUPPORTED))
 204              		.loc 1 125 0 discriminator 1
 205 00e0 324B     		ldr	r3, .L26+4
 206 00e2 1B68     		ldr	r3, [r3]
 124:pamGaid.c     ****        CHECK_BIT(pamFeature, MOTION_CADENCE_SUPPORTED))
 207              		.loc 1 124 0 discriminator 1
 208 00e4 1B04     		lsls	r3, r3, #16
 209 00e6 09D5     		bpl	.L14
ARM GAS  C:\Users\310309~1\AppData\Local\Temp\cc6uyAhf.s 			page 7


 126:pamGaid.c     ****     {
 127:pamGaid.c     ****         CyBle_Set16ByPtr(&PresentData[length], GaiData.MotionCadence);
 210              		.loc 1 127 0 discriminator 1
 211 00e8 2F4A     		ldr	r2, .L26
 212 00ea D37E     		ldrb	r3, [r2, #27]
 213 00ec 117F     		ldrb	r1, [r2, #28]
 214 00ee 0902     		lsls	r1, r1, #8
 215 00f0 1943     		orrs	r1, r3
 216 00f2 2819     		adds	r0, r5, r4
 217 00f4 FFF7FEFF 		bl	CyBle_Set16ByPtr
 218              	.LVL20:
 128:pamGaid.c     ****         length += sizeof(GaiData.MotionCadence);
 219              		.loc 1 128 0 discriminator 1
 220 00f8 0234     		adds	r4, r4, #2
 221              	.LVL21:
 222 00fa E4B2     		uxtb	r4, r4
 223              	.LVL22:
 224              	.L14:
 129:pamGaid.c     ****     }
 130:pamGaid.c     ****     if(CHECK_BIT(GaiData.Flags[0], ELEVATION_PRESENT) &&
 225              		.loc 1 130 0
 226 00fc 2A4B     		ldr	r3, .L26
 227 00fe 5B78     		ldrb	r3, [r3, #1]
 228 0100 5BB2     		sxtb	r3, r3
 229 0102 002B     		cmp	r3, #0
 230 0104 11DA     		bge	.L16
 131:pamGaid.c     ****        CHECK_BIT(pamFeature, ELEVATION_SUPPORTED))
 231              		.loc 1 131 0 discriminator 1
 232 0106 294B     		ldr	r3, .L26+4
 233 0108 1B68     		ldr	r3, [r3]
 130:pamGaid.c     ****        CHECK_BIT(pamFeature, ELEVATION_SUPPORTED))
 234              		.loc 1 130 0 discriminator 1
 235 010a 1B03     		lsls	r3, r3, #12
 236 010c 0DD5     		bpl	.L16
 132:pamGaid.c     ****     {
 133:pamGaid.c     ****         PresentData[length] = GaiData.Elevation[2];
 237              		.loc 1 133 0 discriminator 1
 238 010e 264B     		ldr	r3, .L26
 239 0110 1F22     		movs	r2, #31
 240 0112 9A56     		ldrsb	r2, [r3, r2]
 241 0114 2A55     		strb	r2, [r5, r4]
 134:pamGaid.c     ****         PresentData[length + 1] = GaiData.Elevation[1];
 242              		.loc 1 134 0 discriminator 1
 243 0116 621C     		adds	r2, r4, #1
 244 0118 1E21     		movs	r1, #30
 245 011a 5956     		ldrsb	r1, [r3, r1]
 246 011c A954     		strb	r1, [r5, r2]
 135:pamGaid.c     ****         PresentData[length + 2] = GaiData.Elevation[0];
 247              		.loc 1 135 0 discriminator 1
 248 011e A21C     		adds	r2, r4, #2
 249 0120 5B7F     		ldrb	r3, [r3, #29]
 250 0122 5BB2     		sxtb	r3, r3
 251 0124 AB54     		strb	r3, [r5, r2]
 136:pamGaid.c     ****         length += sizeof(GaiData.Elevation);
 252              		.loc 1 136 0 discriminator 1
 253 0126 0334     		adds	r4, r4, #3
 254              	.LVL23:
ARM GAS  C:\Users\310309~1\AppData\Local\Temp\cc6uyAhf.s 			page 8


 255 0128 E4B2     		uxtb	r4, r4
 256              	.LVL24:
 257              	.L16:
 137:pamGaid.c     ****     }
 138:pamGaid.c     ****     if(CHECK_BIT(GaiData.Flags[1], ACTIVITY_COUNT_PER_MINUTE_PRESENT - ONE_BYTE) &&
 258              		.loc 1 138 0
 259 012a 1F4B     		ldr	r3, .L26
 260 012c 9B78     		ldrb	r3, [r3, #2]
 261 012e DB07     		lsls	r3, r3, #31
 262 0130 0FD5     		bpl	.L18
 139:pamGaid.c     ****        CHECK_BIT(pamFeature, ACTIVITY_COUNT_PER_MINUTE_SUPPORTED))
 263              		.loc 1 139 0 discriminator 1
 264 0132 1E4B     		ldr	r3, .L26+4
 265 0134 1B68     		ldr	r3, [r3]
 138:pamGaid.c     ****        CHECK_BIT(pamFeature, ACTIVITY_COUNT_PER_MINUTE_SUPPORTED))
 266              		.loc 1 138 0 discriminator 1
 267 0136 9B02     		lsls	r3, r3, #10
 268 0138 0BD5     		bpl	.L18
 140:pamGaid.c     ****     {
 141:pamGaid.c     ****         CyBle_Set16ByPtr(&PresentData[length], GaiData.ActivityCountPerMinute);
 269              		.loc 1 141 0 discriminator 1
 270 013a 1B4A     		ldr	r2, .L26
 271 013c 2023     		movs	r3, #32
 272 013e D35C     		ldrb	r3, [r2, r3]
 273 0140 2121     		movs	r1, #33
 274 0142 515C     		ldrb	r1, [r2, r1]
 275 0144 0902     		lsls	r1, r1, #8
 276 0146 1943     		orrs	r1, r3
 277 0148 2819     		adds	r0, r5, r4
 278 014a FFF7FEFF 		bl	CyBle_Set16ByPtr
 279              	.LVL25:
 142:pamGaid.c     ****         length += sizeof(GaiData.ActivityCountPerMinute);
 280              		.loc 1 142 0 discriminator 1
 281 014e 0234     		adds	r4, r4, #2
 282              	.LVL26:
 283 0150 E4B2     		uxtb	r4, r4
 284              	.LVL27:
 285              	.L18:
 143:pamGaid.c     ****     }
 144:pamGaid.c     ****     if(CHECK_BIT(GaiData.Flags[1], ACTIVITY_LEVEL_PRESENT - ONE_BYTE) &&
 286              		.loc 1 144 0
 287 0152 154B     		ldr	r3, .L26
 288 0154 9B78     		ldrb	r3, [r3, #2]
 289 0156 9B07     		lsls	r3, r3, #30
 290 0158 0FD5     		bpl	.L20
 145:pamGaid.c     ****        CHECK_BIT(pamFeature, ACTIVITY_LEVEL_SUPPORTED))
 291              		.loc 1 145 0 discriminator 1
 292 015a 144B     		ldr	r3, .L26+4
 293 015c 1B68     		ldr	r3, [r3]
 144:pamGaid.c     ****        CHECK_BIT(pamFeature, ACTIVITY_LEVEL_SUPPORTED))
 294              		.loc 1 144 0 discriminator 1
 295 015e 5B02     		lsls	r3, r3, #9
 296 0160 0BD5     		bpl	.L20
 146:pamGaid.c     ****     {
 147:pamGaid.c     ****         CyBle_Set16ByPtr(&PresentData[length], GaiData.ActivityLevel);
 297              		.loc 1 147 0 discriminator 1
 298 0162 114A     		ldr	r2, .L26
ARM GAS  C:\Users\310309~1\AppData\Local\Temp\cc6uyAhf.s 			page 9


 299 0164 2223     		movs	r3, #34
 300 0166 D35C     		ldrb	r3, [r2, r3]
 301 0168 2321     		movs	r1, #35
 302 016a 515C     		ldrb	r1, [r2, r1]
 303 016c 0902     		lsls	r1, r1, #8
 304 016e 1943     		orrs	r1, r3
 305 0170 2819     		adds	r0, r5, r4
 306 0172 FFF7FEFF 		bl	CyBle_Set16ByPtr
 307              	.LVL28:
 148:pamGaid.c     ****         length += sizeof(GaiData.ActivityLevel);
 308              		.loc 1 148 0 discriminator 1
 309 0176 0234     		adds	r4, r4, #2
 310              	.LVL29:
 311 0178 E4B2     		uxtb	r4, r4
 312              	.LVL30:
 313              	.L20:
 149:pamGaid.c     ****     }
 150:pamGaid.c     ****     if(CHECK_BIT(GaiData.Flags[1], ACTIVITY_TYPE_PRESENT - ONE_BYTE) &&
 314              		.loc 1 150 0
 315 017a 0B4B     		ldr	r3, .L26
 316 017c 9B78     		ldrb	r3, [r3, #2]
 317 017e 5B07     		lsls	r3, r3, #29
 318 0180 0FD5     		bpl	.L22
 151:pamGaid.c     ****        CHECK_BIT(pamFeature, ACTIVITY_TYPE_SUPPORTED))
 319              		.loc 1 151 0 discriminator 1
 320 0182 0A4B     		ldr	r3, .L26+4
 321 0184 1B68     		ldr	r3, [r3]
 150:pamGaid.c     ****        CHECK_BIT(pamFeature, ACTIVITY_TYPE_SUPPORTED))
 322              		.loc 1 150 0 discriminator 1
 323 0186 1B02     		lsls	r3, r3, #8
 324 0188 0BD5     		bpl	.L22
 152:pamGaid.c     ****     {
 153:pamGaid.c     ****         CyBle_Set16ByPtr(&PresentData[length], GaiData.ActivityType);
 325              		.loc 1 153 0 discriminator 1
 326 018a 074A     		ldr	r2, .L26
 327 018c 2423     		movs	r3, #36
 328 018e D35C     		ldrb	r3, [r2, r3]
 329 0190 2521     		movs	r1, #37
 330 0192 515C     		ldrb	r1, [r2, r1]
 331 0194 0902     		lsls	r1, r1, #8
 332 0196 1943     		orrs	r1, r3
 333 0198 2819     		adds	r0, r5, r4
 334 019a FFF7FEFF 		bl	CyBle_Set16ByPtr
 335              	.LVL31:
 154:pamGaid.c     ****         length += sizeof(GaiData.ActivityType);
 336              		.loc 1 154 0 discriminator 1
 337 019e 0234     		adds	r4, r4, #2
 338              	.LVL32:
 339 01a0 E4B2     		uxtb	r4, r4
 340              	.LVL33:
 341              	.L22:
 155:pamGaid.c     ****     }
 156:pamGaid.c     ****     
 157:pamGaid.c     ****     return length;
 158:pamGaid.c     **** }
 342              		.loc 1 158 0
 343 01a2 2000     		movs	r0, r4
ARM GAS  C:\Users\310309~1\AppData\Local\Temp\cc6uyAhf.s 			page 10


 344              		@ sp needed
 345              	.LVL34:
 346              	.LVL35:
 347 01a4 70BD     		pop	{r4, r5, r6, pc}
 348              	.L27:
 349 01a6 C046     		.align	2
 350              	.L26:
 351 01a8 00000000 		.word	GaiData
 352 01ac 00000000 		.word	pamFeature
 353              		.cfi_endproc
 354              	.LFE37:
 355              		.size	getPresentGaidFields, .-getPresentGaidFields
 356              		.global	__aeabi_ui2d
 357              		.section	.text.UpdateGaid,"ax",%progbits
 358              		.align	2
 359              		.global	UpdateGaid
 360              		.code	16
 361              		.thumb_func
 362              		.type	UpdateGaid, %function
 363              	UpdateGaid:
 364              	.LFB36:
  16:pamGaid.c     ****     CYBLE_GATTS_HANDLE_VALUE_NTF_T tempHandle;
 365              		.loc 1 16 0
 366              		.cfi_startproc
 367              		@ args = 0, pretend = 0, frame = 72
 368              		@ frame_needed = 0, uses_anonymous_args = 0
 369 0000 F0B5     		push	{r4, r5, r6, r7, lr}
 370              		.cfi_def_cfa_offset 20
 371              		.cfi_offset 4, -20
 372              		.cfi_offset 5, -16
 373              		.cfi_offset 6, -12
 374              		.cfi_offset 7, -8
 375              		.cfi_offset 14, -4
 376 0002 93B0     		sub	sp, sp, #76
 377              		.cfi_def_cfa_offset 96
  19:pamGaid.c     ****     tempHandle.value.val = (uint8 *)&GaiData;
 378              		.loc 1 19 0
 379 0004 0FA8     		add	r0, sp, #60
 380 0006 1623     		movs	r3, #22
 381 0008 0381     		strh	r3, [r0, #8]
  20:pamGaid.c     ****     tempHandle.value.len = sizeof(GaiData);
 382              		.loc 1 20 0
 383 000a 404B     		ldr	r3, .L37
 384 000c 0F93     		str	r3, [sp, #60]
  21:pamGaid.c     ****     CyBle_GattsWriteAttributeValue(&tempHandle, 0, &cyBle_connHandle, 0);
 385              		.loc 1 21 0
 386 000e 2623     		movs	r3, #38
 387 0010 8380     		strh	r3, [r0, #4]
  22:pamGaid.c     ****     
 388              		.loc 1 22 0
 389 0012 0023     		movs	r3, #0
 390 0014 3E4A     		ldr	r2, .L37+4
 391 0016 0021     		movs	r1, #0
 392 0018 FFF7FEFF 		bl	CyBle_GattsWriteAttributeValue
 393              	.LVL36:
  24:pamGaid.c     ****     {
 394              		.loc 1 24 0
ARM GAS  C:\Users\310309~1\AppData\Local\Temp\cc6uyAhf.s 			page 11


 395 001c 3D4B     		ldr	r3, .L37+8
 396 001e 1B68     		ldr	r3, [r3]
 397 0020 002B     		cmp	r3, #0
 398 0022 71D0     		beq	.L28
 399              	.LBB2:
  28:pamGaid.c     ****         DBG_PRINTF("GENERAL ACTIVITY INSTANTANEOUS DATA presentdatalength = %i\r\n", presentDataLen
 400              		.loc 1 28 0
 401 0024 05AD     		add	r5, sp, #20
 402 0026 2800     		movs	r0, r5
 403 0028 FFF7FEFF 		bl	getPresentGaidFields
 404              	.LVL37:
 405 002c 0400     		movs	r4, r0
 406 002e 0600     		movs	r6, r0
 407              	.LVL38:
  29:pamGaid.c     ****         uint8 N = calculateNumberOfMessages(presentDataLength);
 408              		.loc 1 29 0
 409 0030 0100     		movs	r1, r0
 410 0032 3948     		ldr	r0, .L37+12
 411              	.LVL39:
 412 0034 FFF7FEFF 		bl	printf
 413              	.LVL40:
  30:pamGaid.c     ****         DBG_PRINTF("GENERAL ACTIVITY INSTANTANEOUS DATA N = %i\r\n", N);
 414              		.loc 1 30 0
 415 0038 2000     		movs	r0, r4
 416 003a FFF7FEFF 		bl	__aeabi_ui2d
 417              	.LVL41:
 418 003e FFF7FEFF 		bl	calculateNumberOfMessages
 419              	.LVL42:
 420 0042 0100     		movs	r1, r0
 421 0044 0700     		movs	r7, r0
 422              	.LVL43:
  31:pamGaid.c     ****         
 423              		.loc 1 31 0
 424 0046 3548     		ldr	r0, .L37+16
 425 0048 FFF7FEFF 		bl	printf
 426              	.LVL44:
  35:pamGaid.c     ****         PresentData[byteCount++] = GaiData.Flags[1];
 427              		.loc 1 35 0
 428 004c 2F4C     		ldr	r4, .L37
 429 004e 6378     		ldrb	r3, [r4, #1]
 430 0050 6B70     		strb	r3, [r5, #1]
 431              	.LVL45:
  36:pamGaid.c     ****         PresentData[byteCount++] = GaiData.Flags[2];
 432              		.loc 1 36 0
 433 0052 A378     		ldrb	r3, [r4, #2]
 434 0054 AB70     		strb	r3, [r5, #2]
 435              	.LVL46:
  37:pamGaid.c     ****         
 436              		.loc 1 37 0
 437 0056 E378     		ldrb	r3, [r4, #3]
 438 0058 EB70     		strb	r3, [r5, #3]
  39:pamGaid.c     ****         byteCount += sizeof(GaiData.SessionID);
 439              		.loc 1 39 0
 440 005a 2379     		ldrb	r3, [r4, #4]
 441 005c 6179     		ldrb	r1, [r4, #5]
 442 005e 0902     		lsls	r1, r1, #8
 443 0060 1943     		orrs	r1, r3
ARM GAS  C:\Users\310309~1\AppData\Local\Temp\cc6uyAhf.s 			page 12


 444 0062 06A8     		add	r0, sp, #24
 445 0064 FFF7FEFF 		bl	CyBle_Set16ByPtr
 446              	.LVL47:
  42:pamGaid.c     ****         byteCount += sizeof(GaiData.SubSessionID);
 447              		.loc 1 42 0
 448 0068 A379     		ldrb	r3, [r4, #6]
 449 006a E179     		ldrb	r1, [r4, #7]
 450 006c 0902     		lsls	r1, r1, #8
 451 006e 1943     		orrs	r1, r3
 452 0070 1A20     		movs	r0, #26
 453 0072 6844     		add	r0, r0, sp
 454 0074 FFF7FEFF 		bl	CyBle_Set16ByPtr
 455              	.LVL48:
  45:pamGaid.c     ****         byteCount += sizeof(GaiData.RelativeTimestamp);
 456              		.loc 1 45 0
 457 0078 207A     		ldrb	r0, [r4, #8]
 458 007a 637A     		ldrb	r3, [r4, #9]
 459 007c 1B02     		lsls	r3, r3, #8
 460 007e 0343     		orrs	r3, r0
 461 0080 1A00     		movs	r2, r3
 462 0082 A17A     		ldrb	r1, [r4, #10]
 463 0084 0904     		lsls	r1, r1, #16
 464 0086 0B00     		movs	r3, r1
 465 0088 1343     		orrs	r3, r2
 466 008a E17A     		ldrb	r1, [r4, #11]
 467 008c 0906     		lsls	r1, r1, #24
 468 008e 1943     		orrs	r1, r3
 469 0090 07A8     		add	r0, sp, #28
 470 0092 FFF7FEFF 		bl	CyBle_Set32ByPtr
 471              	.LVL49:
  48:pamGaid.c     ****         byteCount += sizeof(GaiData.SequenceNumber);
 472              		.loc 1 48 0
 473 0096 207B     		ldrb	r0, [r4, #12]
 474 0098 637B     		ldrb	r3, [r4, #13]
 475 009a 1B02     		lsls	r3, r3, #8
 476 009c 0343     		orrs	r3, r0
 477 009e 1A00     		movs	r2, r3
 478 00a0 A17B     		ldrb	r1, [r4, #14]
 479 00a2 0904     		lsls	r1, r1, #16
 480 00a4 0B00     		movs	r3, r1
 481 00a6 1343     		orrs	r3, r2
 482 00a8 E17B     		ldrb	r1, [r4, #15]
 483 00aa 0906     		lsls	r1, r1, #24
 484 00ac 1943     		orrs	r1, r3
 485 00ae 08A8     		add	r0, sp, #32
 486 00b0 FFF7FEFF 		bl	CyBle_Set32ByPtr
 487              	.LVL50:
 488              	.LBB3:
  58:pamGaid.c     ****         {
 489              		.loc 1 58 0
 490 00b4 0024     		movs	r4, #0
 491              	.LBE3:
  55:pamGaid.c     ****         
 492              		.loc 1 55 0
 493 00b6 0025     		movs	r5, #0
 494              	.LVL51:
 495              	.LBB5:
ARM GAS  C:\Users\310309~1\AppData\Local\Temp\cc6uyAhf.s 			page 13


  58:pamGaid.c     ****         {
 496              		.loc 1 58 0
 497 00b8 24E0     		b	.L30
 498              	.LVL52:
 499              	.L36:
  60:pamGaid.c     ****             {
 500              		.loc 1 60 0
 501 00ba 002C     		cmp	r4, #0
 502 00bc 05D1     		bne	.L31
  62:pamGaid.c     ****             }
 503              		.loc 1 62 0
 504 00be 3B00     		movs	r3, r7
 505 00c0 7F33     		adds	r3, r3, #127
 506 00c2 6A46     		mov	r2, sp
 507 00c4 1370     		strb	r3, [r2]
 508              	.L33:
 509              	.LBE5:
 510              	.LBE2:
  16:pamGaid.c     ****     CYBLE_GATTS_HANDLE_VALUE_NTF_T tempHandle;
 511              		.loc 1 16 0 discriminator 1
 512 00c6 0122     		movs	r2, #1
 513 00c8 13E0     		b	.L32
 514              	.L31:
 515              	.LBB7:
 516              	.LBB6:
  66:pamGaid.c     ****             }
 517              		.loc 1 66 0
 518 00ca 3B1B     		subs	r3, r7, r4
 519 00cc 013B     		subs	r3, r3, #1
 520 00ce 6A46     		mov	r2, sp
 521 00d0 1370     		strb	r3, [r2]
 522 00d2 F8E7     		b	.L33
 523              	.LVL53:
 524              	.L35:
 525              	.LBB4:
  72:pamGaid.c     ****                 {
 526              		.loc 1 72 0
 527 00d4 E300     		lsls	r3, r4, #3
 528 00d6 1B19     		adds	r3, r3, r4
 529 00d8 5B00     		lsls	r3, r3, #1
 530 00da 1B19     		adds	r3, r3, r4
 531 00dc D318     		adds	r3, r2, r3
 532 00de B342     		cmp	r3, r6
 533 00e0 05D2     		bcs	.L34
  74:pamGaid.c     ****                     MessageSize = i + HEADER_SIZE;
 534              		.loc 1 74 0
 535 00e2 05A9     		add	r1, sp, #20
 536              	.LVL54:
 537 00e4 CB5C     		ldrb	r3, [r1, r3]
 538 00e6 6946     		mov	r1, sp
 539              	.LVL55:
 540 00e8 8B54     		strb	r3, [r1, r2]
  75:pamGaid.c     ****                 }
 541              		.loc 1 75 0
 542 00ea 551C     		adds	r5, r2, #1
 543              	.LVL56:
 544 00ec EDB2     		uxtb	r5, r5
ARM GAS  C:\Users\310309~1\AppData\Local\Temp\cc6uyAhf.s 			page 14


 545              	.LVL57:
 546              	.L34:
  70:pamGaid.c     ****             {
 547              		.loc 1 70 0 discriminator 2
 548 00ee 0132     		adds	r2, r2, #1
 549              	.LVL58:
 550 00f0 D2B2     		uxtb	r2, r2
 551              	.LVL59:
 552              	.L32:
  70:pamGaid.c     ****             {
 553              		.loc 1 70 0 is_stmt 0 discriminator 1
 554 00f2 132A     		cmp	r2, #19
 555 00f4 EED9     		bls	.L35
 556              	.LBE4:
  78:pamGaid.c     ****         }
 557              		.loc 1 78 0 is_stmt 1 discriminator 2
 558 00f6 AAB2     		uxth	r2, r5
 559              	.LVL60:
 560 00f8 6946     		mov	r1, sp
 561 00fa 1620     		movs	r0, #22
 562 00fc FFF7FEFF 		bl	ble_SendNotification
 563              	.LVL61:
  58:pamGaid.c     ****         {
 564              		.loc 1 58 0 discriminator 2
 565 0100 0134     		adds	r4, r4, #1
 566              	.LVL62:
 567 0102 E4B2     		uxtb	r4, r4
 568              	.LVL63:
 569              	.L30:
  58:pamGaid.c     ****         {
 570              		.loc 1 58 0 is_stmt 0 discriminator 1
 571 0104 BC42     		cmp	r4, r7
 572 0106 D8D3     		bcc	.L36
 573              	.LVL64:
 574              	.L28:
 575              	.LBE6:
 576              	.LBE7:
  81:pamGaid.c     **** 
 577              		.loc 1 81 0 is_stmt 1
 578 0108 13B0     		add	sp, sp, #76
 579              		@ sp needed
 580 010a F0BD     		pop	{r4, r5, r6, r7, pc}
 581              	.L38:
 582              		.align	2
 583              	.L37:
 584 010c 00000000 		.word	GaiData
 585 0110 00000000 		.word	cyBle_connHandle
 586 0114 00000000 		.word	generalinstantaneousdataNotify
 587 0118 00000000 		.word	.LC5
 588 011c 40000000 		.word	.LC7
 589              		.cfi_endproc
 590              	.LFE36:
 591              		.size	UpdateGaid, .-UpdateGaid
 592              		.comm	generalinstantaneousdataNotify,4,4
 593              		.comm	GaiData,38,4
 594              		.comm	sessionDescriptorIndicate,1,1
 595              		.comm	pamFeature,8,8
ARM GAS  C:\Users\310309~1\AppData\Local\Temp\cc6uyAhf.s 			page 15


 596              		.comm	UserDefinedActivityTypeAllSubSessions,625,4
 597              		.comm	Update_GASD_With_New_Activity,1,1
 598              		.comm	send_Deleted_Sessions,1,1
 599              		.comm	Get_Ended_Data_Value,1,1
 600              		.comm	Get_Ended_Data_Sub_SessionID,2,2
 601              		.comm	Get_Ended_Data_SessionID,2,2
 602              		.comm	Enquire_Sub_Sessions_Requested_For_ID,2,2
 603              		.comm	Enquire_Sessions_Requested,2,2
 604              		.section	.rodata.str1.4,"aMS",%progbits,1
 605              		.align	2
 606              	.LC5:
 607 0000 47454E45 		.ascii	"GENERAL ACTIVITY INSTANTANEOUS DATA presentdataleng"
 607      52414C20 
 607      41435449 
 607      56495459 
 607      20494E53 
 608 0033 7468203D 		.ascii	"th = %i\015\012\000"
 608      2025690D 
 608      0A00
 609 003d 000000   		.space	3
 610              	.LC7:
 611 0040 47454E45 		.ascii	"GENERAL ACTIVITY INSTANTANEOUS DATA N = %i\015\012\000"
 611      52414C20 
 611      41435449 
 611      56495459 
 611      20494E53 
 612              		.text
 613              	.Letext0:
 614              		.file 2 "Generated_Source\\PSoC4/cytypes.h"
 615              		.file 3 "Generated_Source\\PSoC4/ble_StackGatt.h"
 616              		.file 4 "Generated_Source\\PSoC4/ble_StackGattServer.h"
 617              		.file 5 "Generated_Source\\PSoC4/ble_Stack.h"
 618              		.file 6 "Generated_Source\\PSoC4/ble_dis.h"
 619              		.file 7 "pamGaid.h"
 620              		.file 8 "Generated_Source\\PSoC4/ble_eventHandler.h"
 621              		.file 9 "pams.h"
 622              		.file 10 "pamFeatures.h"
 623              		.file 11 "pamSessDescr.h"
 624              		.file 12 "Generated_Source\\PSoC4/ble.h"
 625              		.file 13 "c:\\program files (x86)\\cypress\\psoc creator\\4.1\\psoc creator\\import\\gnu\\arm\\5.4
 626              		.file 14 "Generated_Source\\PSoC4/ble_StackGattDb.h"