ARM GAS  C:\Users\310309~1\AppData\Local\Temp\ccDzyGy0.s 			page 1


   1              		.syntax unified
   2              		.cpu cortex-m0
   3              		.fpu softvfp
   4              		.eabi_attribute 20, 1
   5              		.eabi_attribute 21, 1
   6              		.eabi_attribute 23, 3
   7              		.eabi_attribute 24, 1
   8              		.eabi_attribute 25, 1
   9              		.eabi_attribute 26, 1
  10              		.eabi_attribute 30, 1
  11              		.eabi_attribute 34, 0
  12              		.eabi_attribute 18, 4
  13              		.thumb
  14              		.syntax unified
  15              		.file	"pamScasd.c"
  16              		.text
  17              	.Ltext0:
  18              		.cfi_sections	.debug_frame
  19              		.section	.text.getPresentScasdFields,"ax",%progbits
  20              		.align	2
  21              		.global	getPresentScasdFields
  22              		.code	16
  23              		.thumb_func
  24              		.type	getPresentScasdFields, %function
  25              	getPresentScasdFields:
  26              	.LFB37:
  27              		.file 1 "pamScasd.c"
   1:pamScasd.c    **** /* ========================================
   2:pamScasd.c    ****  *
   3:pamScasd.c    ****  * Copyright YOUR COMPANY, THE YEAR
   4:pamScasd.c    ****  * All Rights Reserved
   5:pamScasd.c    ****  * UNPUBLISHED, LICENSED SOFTWARE.
   6:pamScasd.c    ****  *
   7:pamScasd.c    ****  * CONFIDENTIAL AND PROPRIETARY INFORMATION
   8:pamScasd.c    ****  * WHICH IS THE PROPERTY OF your company.
   9:pamScasd.c    ****  *
  10:pamScasd.c    ****  * ========================================
  11:pamScasd.c    **** */
  12:pamScasd.c    **** 
  13:pamScasd.c    **** #include "pamScasd.h"
  14:pamScasd.c    **** 
  15:pamScasd.c    **** void UpdateScasd(void)
  16:pamScasd.c    **** {
  17:pamScasd.c    ****     CYBLE_GATTS_HANDLE_VALUE_NTF_T tempHandle;
  18:pamScasd.c    ****     
  19:pamScasd.c    ****     tempHandle.attrHandle = CYBLE_PHYSICAL_ACTIVITY_MONITOR_STEP_COUNTER_ACTIVITY_SUMMARY_DATA_CHAR
  20:pamScasd.c    ****     tempHandle.value.val = (uint8 *)&ScasData;
  21:pamScasd.c    ****     tempHandle.value.len = sizeof(ScasData);
  22:pamScasd.c    ****     CyBle_GattsWriteAttributeValue(&tempHandle, 0, &cyBle_connHandle, 0);
  23:pamScasd.c    ****     
  24:pamScasd.c    ****     if(stepcounteractivitysummarydataIndicate)
  25:pamScasd.c    ****     {
  26:pamScasd.c    ****         uint8 PresentData[sizeof(ScasData)];
  27:pamScasd.c    ****         
  28:pamScasd.c    ****         uint8 presentDataLength = getPresentScasdFields(PresentData);
  29:pamScasd.c    ****         DBG_PRINTF("STEP COUNTER ACTIVITY SUMMARY DATA presentdatalength = %i\r\n", presentDataLeng
  30:pamScasd.c    ****         uint8 N = calculateNumberOfMessages(presentDataLength);
ARM GAS  C:\Users\310309~1\AppData\Local\Temp\ccDzyGy0.s 			page 2


  31:pamScasd.c    ****         DBG_PRINTF("STEP COUNTER ACTIVITY SUMMARY DATA N = %i\r\n", N);
  32:pamScasd.c    ****         
  33:pamScasd.c    ****         uint8 byteCount = 1u;//Starts at 1 because 0 is the header field
  34:pamScasd.c    ****         
  35:pamScasd.c    ****         PresentData[byteCount] = ScasData.Flags;
  36:pamScasd.c    ****         byteCount += sizeof(ScasData.Flags);
  37:pamScasd.c    ****         
  38:pamScasd.c    ****         CyBle_Set16ByPtr(&PresentData[byteCount], ScasData.SessionID);
  39:pamScasd.c    ****         byteCount += sizeof(ScasData.SessionID);
  40:pamScasd.c    ****         
  41:pamScasd.c    ****         CyBle_Set16ByPtr(&PresentData[byteCount], ScasData.SubSessionID);
  42:pamScasd.c    ****         byteCount += sizeof(ScasData.SubSessionID);
  43:pamScasd.c    ****         
  44:pamScasd.c    ****         CyBle_Set32ByPtr(&PresentData[byteCount], ScasData.RelativeTimestamp);
  45:pamScasd.c    ****         byteCount += sizeof(ScasData.RelativeTimestamp);
  46:pamScasd.c    ****         
  47:pamScasd.c    ****         CyBle_Set32ByPtr(&PresentData[byteCount], ScasData.SequenceNumber);
  48:pamScasd.c    ****         byteCount += sizeof(ScasData.SequenceNumber);
  49:pamScasd.c    ****         //size = 14
  50:pamScasd.c    ****         
  51:pamScasd.c    ****         char* my_struct_in_bytes = (char*)(&PresentData);
  52:pamScasd.c    ****         
  53:pamScasd.c    ****         uint8 Message[PAM_MAX_MESSAGE_DATA_SIZE + HEADER_SIZE];
  54:pamScasd.c    ****         uint8 MessageSize = 0;
  55:pamScasd.c    ****         
  56:pamScasd.c    ****         
  57:pamScasd.c    ****         for(uint8 x = 0; x < N; x++)
  58:pamScasd.c    ****         {
  59:pamScasd.c    ****             if(x == 0)
  60:pamScasd.c    ****             {
  61:pamScasd.c    ****                 Message[0] = 0x80 + N - 1;
  62:pamScasd.c    ****             }
  63:pamScasd.c    ****             else
  64:pamScasd.c    ****             {
  65:pamScasd.c    ****                 Message[0] = 0x00 + N - 1 - x;
  66:pamScasd.c    ****             }
  67:pamScasd.c    ****             
  68:pamScasd.c    ****             
  69:pamScasd.c    ****             for(uint8 i = 1; i < PAM_MAX_MESSAGE_DATA_SIZE + HEADER_SIZE; i++)
  70:pamScasd.c    ****             {
  71:pamScasd.c    ****                 if((x * PAM_MAX_MESSAGE_DATA_SIZE + i) < presentDataLength)
  72:pamScasd.c    ****                 {
  73:pamScasd.c    ****                     Message[i] = my_struct_in_bytes[i + x * PAM_MAX_MESSAGE_DATA_SIZE];
  74:pamScasd.c    ****                     MessageSize = i + HEADER_SIZE;
  75:pamScasd.c    ****                 }
  76:pamScasd.c    ****             }
  77:pamScasd.c    ****             ble_SendIndication(CYBLE_PHYSICAL_ACTIVITY_MONITOR_STEP_COUNTER_ACTIVITY_SUMMARY_DATA_C
  78:pamScasd.c    ****         }
  79:pamScasd.c    ****     }
  80:pamScasd.c    **** }
  81:pamScasd.c    **** 
  82:pamScasd.c    **** 
  83:pamScasd.c    **** uint8 getPresentScasdFields(uint8 *PresentData)
  84:pamScasd.c    **** {
  28              		.loc 1 84 0
  29              		.cfi_startproc
  30              		@ args = 0, pretend = 0, frame = 0
ARM GAS  C:\Users\310309~1\AppData\Local\Temp\ccDzyGy0.s 			page 3


  31              		@ frame_needed = 0, uses_anonymous_args = 0
  32              	.LVL0:
  33 0000 10B5     		push	{r4, lr}
  34              		.cfi_def_cfa_offset 8
  35              		.cfi_offset 4, -8
  36              		.cfi_offset 14, -4
  37 0002 0300     		movs	r3, r0
  38              	.LVL1:
  85:pamScasd.c    ****     uint8 length = ALWAYS_PRESENT_SCASD_FIELD_LENGTH;
  86:pamScasd.c    ****     
  87:pamScasd.c    ****     if(CHECK_BIT(ScasData.Flags, 1/*NORMAL WALKING STEPS PRESENT*/) &&
  39              		.loc 1 87 0
  40 0004 304A     		ldr	r2, .L14
  41 0006 5278     		ldrb	r2, [r2, #1]
  42 0008 9207     		lsls	r2, r2, #30
  43 000a 0CD5     		bpl	.L12
  88:pamScasd.c    ****        CHECK_BIT(pamFeature, NORMAL_WALKING_STEPS_SUPPORTED))
  44              		.loc 1 88 0 discriminator 1
  45 000c 2F4A     		ldr	r2, .L14+4
  46 000e 5268     		ldr	r2, [r2, #4]
  87:pamScasd.c    ****        CHECK_BIT(pamFeature, NORMAL_WALKING_STEPS_SUPPORTED))
  47              		.loc 1 87 0 discriminator 1
  48 0010 9206     		lsls	r2, r2, #26
  49 0012 0AD5     		bpl	.L13
  89:pamScasd.c    ****     {
  90:pamScasd.c    ****         PresentData[length] = ScasData.NormalWalkingSteps[2];
  50              		.loc 1 90 0 discriminator 1
  51 0014 2C4A     		ldr	r2, .L14
  52 0016 117C     		ldrb	r1, [r2, #16]
  53 0018 8173     		strb	r1, [r0, #14]
  91:pamScasd.c    ****         PresentData[length+1] = ScasData.NormalWalkingSteps[1];
  54              		.loc 1 91 0 discriminator 1
  55 001a D17B     		ldrb	r1, [r2, #15]
  56 001c C173     		strb	r1, [r0, #15]
  92:pamScasd.c    ****         PresentData[length+2] = ScasData.NormalWalkingSteps[0];
  57              		.loc 1 92 0 discriminator 1
  58 001e 927B     		ldrb	r2, [r2, #14]
  59 0020 0274     		strb	r2, [r0, #16]
  60              	.LVL2:
  93:pamScasd.c    ****         length += sizeof(ScasData.NormalWalkingSteps);
  61              		.loc 1 93 0 discriminator 1
  62 0022 1120     		movs	r0, #17
  63              	.LVL3:
  64 0024 02E0     		b	.L2
  65              	.LVL4:
  66              	.L12:
  85:pamScasd.c    ****     
  67              		.loc 1 85 0
  68 0026 0E20     		movs	r0, #14
  69              	.LVL5:
  70 0028 00E0     		b	.L2
  71              	.LVL6:
  72              	.L13:
  73 002a 0E20     		movs	r0, #14
  74              	.LVL7:
  75              	.L2:
  94:pamScasd.c    ****     }
ARM GAS  C:\Users\310309~1\AppData\Local\Temp\ccDzyGy0.s 			page 4


  95:pamScasd.c    ****     if(CHECK_BIT(ScasData.Flags, 1/*INTENSITY STEPS PRESENT*/) &&
  76              		.loc 1 95 0
  77 002c 264A     		ldr	r2, .L14
  78 002e 5278     		ldrb	r2, [r2, #1]
  79 0030 9207     		lsls	r2, r2, #30
  80 0032 0ED5     		bpl	.L4
  96:pamScasd.c    ****        CHECK_BIT(pamFeature, INTENSITY_STEPS_SUPPORTED))
  81              		.loc 1 96 0 discriminator 1
  82 0034 254A     		ldr	r2, .L14+4
  83 0036 5268     		ldr	r2, [r2, #4]
  95:pamScasd.c    ****        CHECK_BIT(pamFeature, INTENSITY_STEPS_SUPPORTED))
  84              		.loc 1 95 0 discriminator 1
  85 0038 5206     		lsls	r2, r2, #25
  86 003a 0AD5     		bpl	.L4
  97:pamScasd.c    ****     {
  98:pamScasd.c    ****         PresentData[length] = ScasData.IntensitySteps[2];
  87              		.loc 1 98 0 discriminator 1
  88 003c 224A     		ldr	r2, .L14
  89 003e D17C     		ldrb	r1, [r2, #19]
  90 0040 1954     		strb	r1, [r3, r0]
  99:pamScasd.c    ****         PresentData[length+1] = ScasData.IntensitySteps[1];
  91              		.loc 1 99 0 discriminator 1
  92 0042 411C     		adds	r1, r0, #1
  93 0044 947C     		ldrb	r4, [r2, #18]
  94 0046 5C54     		strb	r4, [r3, r1]
 100:pamScasd.c    ****         PresentData[length+2] = ScasData.IntensitySteps[0];
  95              		.loc 1 100 0 discriminator 1
  96 0048 811C     		adds	r1, r0, #2
  97 004a 527C     		ldrb	r2, [r2, #17]
  98 004c 5A54     		strb	r2, [r3, r1]
 101:pamScasd.c    ****         length += sizeof(ScasData.IntensitySteps);
  99              		.loc 1 101 0 discriminator 1
 100 004e 0330     		adds	r0, r0, #3
 101              	.LVL8:
 102 0050 C0B2     		uxtb	r0, r0
 103              	.LVL9:
 104              	.L4:
 102:pamScasd.c    ****     }
 103:pamScasd.c    ****     if(CHECK_BIT(ScasData.Flags, 1/*FLOOR STEPS PRESENT*/) &&
 105              		.loc 1 103 0
 106 0052 1D4A     		ldr	r2, .L14
 107 0054 5278     		ldrb	r2, [r2, #1]
 108 0056 9207     		lsls	r2, r2, #30
 109 0058 0ED5     		bpl	.L6
 104:pamScasd.c    ****        CHECK_BIT(pamFeature, FLOOR_STEPS_SUPPORTED))
 110              		.loc 1 104 0 discriminator 1
 111 005a 1C4A     		ldr	r2, .L14+4
 112 005c 5268     		ldr	r2, [r2, #4]
 103:pamScasd.c    ****        CHECK_BIT(pamFeature, FLOOR_STEPS_SUPPORTED))
 113              		.loc 1 103 0 discriminator 1
 114 005e 1206     		lsls	r2, r2, #24
 115 0060 0AD5     		bpl	.L6
 105:pamScasd.c    ****     {
 106:pamScasd.c    ****         PresentData[length] = ScasData.FloorSteps[2];
 116              		.loc 1 106 0 discriminator 1
 117 0062 194A     		ldr	r2, .L14
 118 0064 917D     		ldrb	r1, [r2, #22]
ARM GAS  C:\Users\310309~1\AppData\Local\Temp\ccDzyGy0.s 			page 5


 119 0066 1954     		strb	r1, [r3, r0]
 107:pamScasd.c    ****         PresentData[length+1] = ScasData.FloorSteps[1];
 120              		.loc 1 107 0 discriminator 1
 121 0068 411C     		adds	r1, r0, #1
 122 006a 547D     		ldrb	r4, [r2, #21]
 123 006c 5C54     		strb	r4, [r3, r1]
 108:pamScasd.c    ****         PresentData[length+2] = ScasData.FloorSteps[0];
 124              		.loc 1 108 0 discriminator 1
 125 006e 811C     		adds	r1, r0, #2
 126 0070 127D     		ldrb	r2, [r2, #20]
 127 0072 5A54     		strb	r2, [r3, r1]
 109:pamScasd.c    ****         length += sizeof(ScasData.FloorSteps);
 128              		.loc 1 109 0 discriminator 1
 129 0074 0330     		adds	r0, r0, #3
 130              	.LVL10:
 131 0076 C0B2     		uxtb	r0, r0
 132              	.LVL11:
 133              	.L6:
 110:pamScasd.c    ****     }
 111:pamScasd.c    ****     if(CHECK_BIT(ScasData.Flags, 1/*Distance PRESENT*/) &&
 134              		.loc 1 111 0
 135 0078 134A     		ldr	r2, .L14
 136 007a 5278     		ldrb	r2, [r2, #1]
 137 007c 9207     		lsls	r2, r2, #30
 138 007e 0ED5     		bpl	.L8
 112:pamScasd.c    ****        CHECK_BIT(pamFeature, DISTANCE_SUPPORTED))
 139              		.loc 1 112 0 discriminator 1
 140 0080 124A     		ldr	r2, .L14+4
 141 0082 1268     		ldr	r2, [r2]
 111:pamScasd.c    ****        CHECK_BIT(pamFeature, DISTANCE_SUPPORTED))
 142              		.loc 1 111 0 discriminator 1
 143 0084 1205     		lsls	r2, r2, #20
 144 0086 0AD5     		bpl	.L8
 113:pamScasd.c    ****     {
 114:pamScasd.c    ****         PresentData[length] = ScasData.Distance[2];
 145              		.loc 1 114 0 discriminator 1
 146 0088 0F4A     		ldr	r2, .L14
 147 008a 517E     		ldrb	r1, [r2, #25]
 148 008c 1954     		strb	r1, [r3, r0]
 115:pamScasd.c    ****         PresentData[length+1] = ScasData.Distance[1];
 149              		.loc 1 115 0 discriminator 1
 150 008e 411C     		adds	r1, r0, #1
 151 0090 147E     		ldrb	r4, [r2, #24]
 152 0092 5C54     		strb	r4, [r3, r1]
 116:pamScasd.c    ****         PresentData[length+2] = ScasData.Distance[0];
 153              		.loc 1 116 0 discriminator 1
 154 0094 811C     		adds	r1, r0, #2
 155 0096 D27D     		ldrb	r2, [r2, #23]
 156 0098 5A54     		strb	r2, [r3, r1]
 117:pamScasd.c    ****         length += sizeof(ScasData.Distance);
 157              		.loc 1 117 0 discriminator 1
 158 009a 0330     		adds	r0, r0, #3
 159              	.LVL12:
 160 009c C0B2     		uxtb	r0, r0
 161              	.LVL13:
 162              	.L8:
 118:pamScasd.c    ****     }
ARM GAS  C:\Users\310309~1\AppData\Local\Temp\ccDzyGy0.s 			page 6


 119:pamScasd.c    ****     if(CHECK_BIT(ScasData.Flags, 1/*WORN DURATION PRESENT*/) &&
 163              		.loc 1 119 0
 164 009e 0A4A     		ldr	r2, .L14
 165 00a0 5278     		ldrb	r2, [r2, #1]
 166 00a2 9207     		lsls	r2, r2, #30
 167 00a4 0ED5     		bpl	.L10
 120:pamScasd.c    ****        CHECK_BIT(pamFeature, WORN_DURATION_SUPPORTED))
 168              		.loc 1 120 0 discriminator 1
 169 00a6 094A     		ldr	r2, .L14+4
 170 00a8 1268     		ldr	r2, [r2]
 119:pamScasd.c    ****        CHECK_BIT(pamFeature, WORN_DURATION_SUPPORTED))
 171              		.loc 1 119 0 discriminator 1
 172 00aa D201     		lsls	r2, r2, #7
 173 00ac 0AD5     		bpl	.L10
 121:pamScasd.c    ****     {
 122:pamScasd.c    ****         PresentData[length] = ScasData.WornDuration[2];
 174              		.loc 1 122 0 discriminator 1
 175 00ae 064A     		ldr	r2, .L14
 176 00b0 117F     		ldrb	r1, [r2, #28]
 177 00b2 1954     		strb	r1, [r3, r0]
 123:pamScasd.c    ****         PresentData[length+1] = ScasData.WornDuration[1];
 178              		.loc 1 123 0 discriminator 1
 179 00b4 411C     		adds	r1, r0, #1
 180 00b6 D47E     		ldrb	r4, [r2, #27]
 181 00b8 5C54     		strb	r4, [r3, r1]
 124:pamScasd.c    ****         PresentData[length+2] = ScasData.WornDuration[0];
 182              		.loc 1 124 0 discriminator 1
 183 00ba 811C     		adds	r1, r0, #2
 184 00bc 927E     		ldrb	r2, [r2, #26]
 185 00be 5A54     		strb	r2, [r3, r1]
 125:pamScasd.c    ****         length += sizeof(ScasData.WornDuration);
 186              		.loc 1 125 0 discriminator 1
 187 00c0 0330     		adds	r0, r0, #3
 188              	.LVL14:
 189 00c2 C0B2     		uxtb	r0, r0
 190              	.LVL15:
 191              	.L10:
 126:pamScasd.c    ****     }
 127:pamScasd.c    ****     
 128:pamScasd.c    ****     return length;
 129:pamScasd.c    **** }
 192              		.loc 1 129 0
 193              		@ sp needed
 194 00c4 10BD     		pop	{r4, pc}
 195              	.L15:
 196 00c6 C046     		.align	2
 197              	.L14:
 198 00c8 00000000 		.word	ScasData
 199 00cc 00000000 		.word	pamFeature
 200              		.cfi_endproc
 201              	.LFE37:
 202              		.size	getPresentScasdFields, .-getPresentScasdFields
 203              		.global	__aeabi_ui2d
 204              		.section	.text.UpdateScasd,"ax",%progbits
 205              		.align	2
 206              		.global	UpdateScasd
 207              		.code	16
ARM GAS  C:\Users\310309~1\AppData\Local\Temp\ccDzyGy0.s 			page 7


 208              		.thumb_func
 209              		.type	UpdateScasd, %function
 210              	UpdateScasd:
 211              	.LFB36:
  16:pamScasd.c    ****     CYBLE_GATTS_HANDLE_VALUE_NTF_T tempHandle;
 212              		.loc 1 16 0
 213              		.cfi_startproc
 214              		@ args = 0, pretend = 0, frame = 64
 215              		@ frame_needed = 0, uses_anonymous_args = 0
 216 0000 F0B5     		push	{r4, r5, r6, r7, lr}
 217              		.cfi_def_cfa_offset 20
 218              		.cfi_offset 4, -20
 219              		.cfi_offset 5, -16
 220              		.cfi_offset 6, -12
 221              		.cfi_offset 7, -8
 222              		.cfi_offset 14, -4
 223 0002 91B0     		sub	sp, sp, #68
 224              		.cfi_def_cfa_offset 88
  19:pamScasd.c    ****     tempHandle.value.val = (uint8 *)&ScasData;
 225              		.loc 1 19 0
 226 0004 0DA8     		add	r0, sp, #52
 227 0006 2623     		movs	r3, #38
 228 0008 0381     		strh	r3, [r0, #8]
  20:pamScasd.c    ****     tempHandle.value.len = sizeof(ScasData);
 229              		.loc 1 20 0
 230 000a 3F4B     		ldr	r3, .L25
 231 000c 0D93     		str	r3, [sp, #52]
  21:pamScasd.c    ****     CyBle_GattsWriteAttributeValue(&tempHandle, 0, &cyBle_connHandle, 0);
 232              		.loc 1 21 0
 233 000e 1D23     		movs	r3, #29
 234 0010 8380     		strh	r3, [r0, #4]
  22:pamScasd.c    ****     
 235              		.loc 1 22 0
 236 0012 0023     		movs	r3, #0
 237 0014 3D4A     		ldr	r2, .L25+4
 238 0016 0021     		movs	r1, #0
 239 0018 FFF7FEFF 		bl	CyBle_GattsWriteAttributeValue
 240              	.LVL16:
  24:pamScasd.c    ****     {
 241              		.loc 1 24 0
 242 001c 3C4B     		ldr	r3, .L25+8
 243 001e 1B68     		ldr	r3, [r3]
 244 0020 002B     		cmp	r3, #0
 245 0022 6FD0     		beq	.L16
 246              	.LBB2:
  28:pamScasd.c    ****         DBG_PRINTF("STEP COUNTER ACTIVITY SUMMARY DATA presentdatalength = %i\r\n", presentDataLeng
 247              		.loc 1 28 0
 248 0024 05AD     		add	r5, sp, #20
 249 0026 2800     		movs	r0, r5
 250 0028 FFF7FEFF 		bl	getPresentScasdFields
 251              	.LVL17:
 252 002c 0400     		movs	r4, r0
 253 002e 0600     		movs	r6, r0
 254              	.LVL18:
  29:pamScasd.c    ****         uint8 N = calculateNumberOfMessages(presentDataLength);
 255              		.loc 1 29 0
 256 0030 0100     		movs	r1, r0
ARM GAS  C:\Users\310309~1\AppData\Local\Temp\ccDzyGy0.s 			page 8


 257 0032 3848     		ldr	r0, .L25+12
 258              	.LVL19:
 259 0034 FFF7FEFF 		bl	printf
 260              	.LVL20:
  30:pamScasd.c    ****         DBG_PRINTF("STEP COUNTER ACTIVITY SUMMARY DATA N = %i\r\n", N);
 261              		.loc 1 30 0
 262 0038 2000     		movs	r0, r4
 263 003a FFF7FEFF 		bl	__aeabi_ui2d
 264              	.LVL21:
 265 003e FFF7FEFF 		bl	calculateNumberOfMessages
 266              	.LVL22:
 267 0042 0100     		movs	r1, r0
 268 0044 0700     		movs	r7, r0
 269              	.LVL23:
  31:pamScasd.c    ****         
 270              		.loc 1 31 0
 271 0046 3448     		ldr	r0, .L25+16
 272 0048 FFF7FEFF 		bl	printf
 273              	.LVL24:
  35:pamScasd.c    ****         byteCount += sizeof(ScasData.Flags);
 274              		.loc 1 35 0
 275 004c 2E4C     		ldr	r4, .L25
 276 004e 6378     		ldrb	r3, [r4, #1]
 277 0050 6B70     		strb	r3, [r5, #1]
 278              	.LVL25:
  38:pamScasd.c    ****         byteCount += sizeof(ScasData.SessionID);
 279              		.loc 1 38 0
 280 0052 A378     		ldrb	r3, [r4, #2]
 281 0054 E178     		ldrb	r1, [r4, #3]
 282 0056 0902     		lsls	r1, r1, #8
 283 0058 1943     		orrs	r1, r3
 284 005a 1620     		movs	r0, #22
 285 005c 6844     		add	r0, r0, sp
 286 005e FFF7FEFF 		bl	CyBle_Set16ByPtr
 287              	.LVL26:
  41:pamScasd.c    ****         byteCount += sizeof(ScasData.SubSessionID);
 288              		.loc 1 41 0
 289 0062 2379     		ldrb	r3, [r4, #4]
 290 0064 6179     		ldrb	r1, [r4, #5]
 291 0066 0902     		lsls	r1, r1, #8
 292 0068 1943     		orrs	r1, r3
 293 006a 06A8     		add	r0, sp, #24
 294 006c FFF7FEFF 		bl	CyBle_Set16ByPtr
 295              	.LVL27:
  44:pamScasd.c    ****         byteCount += sizeof(ScasData.RelativeTimestamp);
 296              		.loc 1 44 0
 297 0070 A079     		ldrb	r0, [r4, #6]
 298 0072 E379     		ldrb	r3, [r4, #7]
 299 0074 1B02     		lsls	r3, r3, #8
 300 0076 0343     		orrs	r3, r0
 301 0078 1A00     		movs	r2, r3
 302 007a 217A     		ldrb	r1, [r4, #8]
 303 007c 0904     		lsls	r1, r1, #16
 304 007e 0B00     		movs	r3, r1
 305 0080 1343     		orrs	r3, r2
 306 0082 617A     		ldrb	r1, [r4, #9]
 307 0084 0906     		lsls	r1, r1, #24
ARM GAS  C:\Users\310309~1\AppData\Local\Temp\ccDzyGy0.s 			page 9


 308 0086 1943     		orrs	r1, r3
 309 0088 1A20     		movs	r0, #26
 310 008a 6844     		add	r0, r0, sp
 311 008c FFF7FEFF 		bl	CyBle_Set32ByPtr
 312              	.LVL28:
  47:pamScasd.c    ****         byteCount += sizeof(ScasData.SequenceNumber);
 313              		.loc 1 47 0
 314 0090 A07A     		ldrb	r0, [r4, #10]
 315 0092 E37A     		ldrb	r3, [r4, #11]
 316 0094 1B02     		lsls	r3, r3, #8
 317 0096 0343     		orrs	r3, r0
 318 0098 1A00     		movs	r2, r3
 319 009a 217B     		ldrb	r1, [r4, #12]
 320 009c 0904     		lsls	r1, r1, #16
 321 009e 0B00     		movs	r3, r1
 322 00a0 1343     		orrs	r3, r2
 323 00a2 617B     		ldrb	r1, [r4, #13]
 324 00a4 0906     		lsls	r1, r1, #24
 325 00a6 1943     		orrs	r1, r3
 326 00a8 1E20     		movs	r0, #30
 327 00aa 6844     		add	r0, r0, sp
 328 00ac FFF7FEFF 		bl	CyBle_Set32ByPtr
 329              	.LVL29:
 330              	.LBB3:
  57:pamScasd.c    ****         {
 331              		.loc 1 57 0
 332 00b0 0024     		movs	r4, #0
 333              	.LBE3:
  54:pamScasd.c    ****         
 334              		.loc 1 54 0
 335 00b2 0025     		movs	r5, #0
 336              	.LVL30:
 337              	.LBB5:
  57:pamScasd.c    ****         {
 338              		.loc 1 57 0
 339 00b4 24E0     		b	.L18
 340              	.LVL31:
 341              	.L24:
  59:pamScasd.c    ****             {
 342              		.loc 1 59 0
 343 00b6 002C     		cmp	r4, #0
 344 00b8 05D1     		bne	.L19
  61:pamScasd.c    ****             }
 345              		.loc 1 61 0
 346 00ba 3B00     		movs	r3, r7
 347 00bc 7F33     		adds	r3, r3, #127
 348 00be 6A46     		mov	r2, sp
 349 00c0 1370     		strb	r3, [r2]
 350              	.L21:
 351              	.LBE5:
 352              	.LBE2:
  16:pamScasd.c    ****     CYBLE_GATTS_HANDLE_VALUE_NTF_T tempHandle;
 353              		.loc 1 16 0 discriminator 1
 354 00c2 0122     		movs	r2, #1
 355 00c4 13E0     		b	.L20
 356              	.L19:
 357              	.LBB7:
ARM GAS  C:\Users\310309~1\AppData\Local\Temp\ccDzyGy0.s 			page 10


 358              	.LBB6:
  65:pamScasd.c    ****             }
 359              		.loc 1 65 0
 360 00c6 3B1B     		subs	r3, r7, r4
 361 00c8 013B     		subs	r3, r3, #1
 362 00ca 6A46     		mov	r2, sp
 363 00cc 1370     		strb	r3, [r2]
 364 00ce F8E7     		b	.L21
 365              	.LVL32:
 366              	.L23:
 367              	.LBB4:
  71:pamScasd.c    ****                 {
 368              		.loc 1 71 0
 369 00d0 E300     		lsls	r3, r4, #3
 370 00d2 1B19     		adds	r3, r3, r4
 371 00d4 5B00     		lsls	r3, r3, #1
 372 00d6 1B19     		adds	r3, r3, r4
 373 00d8 D318     		adds	r3, r2, r3
 374 00da B342     		cmp	r3, r6
 375 00dc 05D2     		bcs	.L22
  73:pamScasd.c    ****                     MessageSize = i + HEADER_SIZE;
 376              		.loc 1 73 0
 377 00de 05A9     		add	r1, sp, #20
 378              	.LVL33:
 379 00e0 CB5C     		ldrb	r3, [r1, r3]
 380 00e2 6946     		mov	r1, sp
 381              	.LVL34:
 382 00e4 8B54     		strb	r3, [r1, r2]
  74:pamScasd.c    ****                 }
 383              		.loc 1 74 0
 384 00e6 551C     		adds	r5, r2, #1
 385              	.LVL35:
 386 00e8 EDB2     		uxtb	r5, r5
 387              	.LVL36:
 388              	.L22:
  69:pamScasd.c    ****             {
 389              		.loc 1 69 0 discriminator 2
 390 00ea 0132     		adds	r2, r2, #1
 391              	.LVL37:
 392 00ec D2B2     		uxtb	r2, r2
 393              	.LVL38:
 394              	.L20:
  69:pamScasd.c    ****             {
 395              		.loc 1 69 0 is_stmt 0 discriminator 1
 396 00ee 132A     		cmp	r2, #19
 397 00f0 EED9     		bls	.L23
 398              	.LBE4:
  77:pamScasd.c    ****         }
 399              		.loc 1 77 0 is_stmt 1 discriminator 2
 400 00f2 AAB2     		uxth	r2, r5
 401              	.LVL39:
 402 00f4 6946     		mov	r1, sp
 403 00f6 2620     		movs	r0, #38
 404 00f8 FFF7FEFF 		bl	ble_SendIndication
 405              	.LVL40:
  57:pamScasd.c    ****         {
 406              		.loc 1 57 0 discriminator 2
ARM GAS  C:\Users\310309~1\AppData\Local\Temp\ccDzyGy0.s 			page 11


 407 00fc 0134     		adds	r4, r4, #1
 408              	.LVL41:
 409 00fe E4B2     		uxtb	r4, r4
 410              	.LVL42:
 411              	.L18:
  57:pamScasd.c    ****         {
 412              		.loc 1 57 0 is_stmt 0 discriminator 1
 413 0100 BC42     		cmp	r4, r7
 414 0102 D8D3     		bcc	.L24
 415              	.LVL43:
 416              	.L16:
 417              	.LBE6:
 418              	.LBE7:
  80:pamScasd.c    **** 
 419              		.loc 1 80 0 is_stmt 1
 420 0104 11B0     		add	sp, sp, #68
 421              		@ sp needed
 422 0106 F0BD     		pop	{r4, r5, r6, r7, pc}
 423              	.L26:
 424              		.align	2
 425              	.L25:
 426 0108 00000000 		.word	ScasData
 427 010c 00000000 		.word	cyBle_connHandle
 428 0110 00000000 		.word	stepcounteractivitysummarydataIndicate
 429 0114 00000000 		.word	.LC5
 430 0118 3C000000 		.word	.LC7
 431              		.cfi_endproc
 432              	.LFE36:
 433              		.size	UpdateScasd, .-UpdateScasd
 434              		.comm	stepcounteractivitysummarydataIndicate,4,4
 435              		.comm	ScasData,29,4
 436              		.comm	sessionDescriptorIndicate,1,1
 437              		.comm	pamFeature,8,8
 438              		.comm	UserDefinedActivityTypeAllSubSessions,625,4
 439              		.comm	Update_GASD_With_New_Activity,1,1
 440              		.comm	send_Deleted_Sessions,1,1
 441              		.comm	Get_Ended_Data_Value,1,1
 442              		.comm	Get_Ended_Data_Sub_SessionID,2,2
 443              		.comm	Get_Ended_Data_SessionID,2,2
 444              		.comm	Enquire_Sub_Sessions_Requested_For_ID,2,2
 445              		.comm	Enquire_Sessions_Requested,2,2
 446              		.section	.rodata.str1.4,"aMS",%progbits,1
 447              		.align	2
 448              	.LC5:
 449 0000 53544550 		.ascii	"STEP COUNTER ACTIVITY SUMMARY DATA presentdatalengt"
 449      20434F55 
 449      4E544552 
 449      20414354 
 449      49564954 
 450 0033 68203D20 		.ascii	"h = %i\015\012\000"
 450      25690D0A 
 450      00
 451              	.LC7:
 452 003c 53544550 		.ascii	"STEP COUNTER ACTIVITY SUMMARY DATA N = %i\015\012\000"
 452      20434F55 
 452      4E544552 
 452      20414354 
ARM GAS  C:\Users\310309~1\AppData\Local\Temp\ccDzyGy0.s 			page 12


 452      49564954 
 453              		.text
 454              	.Letext0:
 455              		.file 2 "Generated_Source\\PSoC4/cytypes.h"
 456              		.file 3 "Generated_Source\\PSoC4/ble_StackGatt.h"
 457              		.file 4 "Generated_Source\\PSoC4/ble_StackGattServer.h"
 458              		.file 5 "pamScasd.h"
 459              		.file 6 "Generated_Source\\PSoC4/ble_eventHandler.h"
 460              		.file 7 "pams.h"
 461              		.file 8 "pamFeatures.h"
 462              		.file 9 "pamSessDescr.h"
 463              		.file 10 "c:\\program files (x86)\\cypress\\psoc creator\\4.1\\psoc creator\\import\\gnu\\arm\\5.4
 464              		.file 11 "Generated_Source\\PSoC4/ble.h"
 465              		.file 12 "Generated_Source\\PSoC4/ble_StackGattDb.h"
 466              		.file 13 "Generated_Source\\PSoC4/ble_Stack.h"