ARM GAS  C:\Users\310309~1\AppData\Local\Temp\cczv1s0P.s 			page 1


   1              		.syntax unified
   2              		.cpu cortex-m0
   3              		.fpu softvfp
   4              		.eabi_attribute 20, 1
   5              		.eabi_attribute 21, 1
   6              		.eabi_attribute 23, 3
   7              		.eabi_attribute 24, 1
   8              		.eabi_attribute 25, 1
   9              		.eabi_attribute 26, 1
  10              		.eabi_attribute 30, 1
  11              		.eabi_attribute 34, 0
  12              		.eabi_attribute 18, 4
  13              		.thumb
  14              		.syntax unified
  15              		.file	"pamSasd.c"
  16              		.text
  17              	.Ltext0:
  18              		.cfi_sections	.debug_frame
  19              		.section	.text.getPresentSasdFields,"ax",%progbits
  20              		.align	2
  21              		.global	getPresentSasdFields
  22              		.code	16
  23              		.thumb_func
  24              		.type	getPresentSasdFields, %function
  25              	getPresentSasdFields:
  26              	.LFB37:
  27              		.file 1 "pamSasd.c"
   1:pamSasd.c     **** /* ========================================
   2:pamSasd.c     ****  *
   3:pamSasd.c     ****  * Copyright YOUR COMPANY, THE YEAR
   4:pamSasd.c     ****  * All Rights Reserved
   5:pamSasd.c     ****  * UNPUBLISHED, LICENSED SOFTWARE.
   6:pamSasd.c     ****  *
   7:pamSasd.c     ****  * CONFIDENTIAL AND PROPRIETARY INFORMATION
   8:pamSasd.c     ****  * WHICH IS THE PROPERTY OF your company.
   9:pamSasd.c     ****  *
  10:pamSasd.c     ****  * ========================================
  11:pamSasd.c     **** */
  12:pamSasd.c     **** 
  13:pamSasd.c     **** #include "pamSasd.h"
  14:pamSasd.c     **** 
  15:pamSasd.c     **** void UpdateSasd(void)
  16:pamSasd.c     **** {
  17:pamSasd.c     ****     CYBLE_GATTS_HANDLE_VALUE_NTF_T tempHandle;
  18:pamSasd.c     ****     
  19:pamSasd.c     ****     tempHandle.attrHandle = CYBLE_PHYSICAL_ACTIVITY_MONITOR_SLEEP_ACTIVITY_SUMMARY_DATA_CHAR_HANDLE
  20:pamSasd.c     ****     tempHandle.value.val = (uint8 *)&SasData;
  21:pamSasd.c     ****     tempHandle.value.len = sizeof(SasData);
  22:pamSasd.c     ****     CyBle_GattsWriteAttributeValue(&tempHandle, 0, &cyBle_connHandle, 0);
  23:pamSasd.c     ****     
  24:pamSasd.c     ****     if(sleepactivitysummarydataIndicate)
  25:pamSasd.c     ****     {
  26:pamSasd.c     ****         uint8 PresentData[sizeof(SasData)];
  27:pamSasd.c     ****         
  28:pamSasd.c     ****         uint8 presentDataLength = getPresentSasdFields(PresentData);
  29:pamSasd.c     ****         DBG_PRINTF("SLEEP ACTIVITY SUMMARY DATA presentdatalength = %i\r\n", presentDataLength);
  30:pamSasd.c     ****         uint8 N = calculateNumberOfMessages(presentDataLength);
ARM GAS  C:\Users\310309~1\AppData\Local\Temp\cczv1s0P.s 			page 2


  31:pamSasd.c     ****         DBG_PRINTF("SLEEP ACTIVITY SUMMARY DATA N = %i\r\n", N);
  32:pamSasd.c     ****         
  33:pamSasd.c     ****         uint8 byteCount = 1u;//Starts at 1 because 0 is the header field
  34:pamSasd.c     ****         
  35:pamSasd.c     ****         PresentData[byteCount] = SasData.Flags[0];
  36:pamSasd.c     ****         PresentData[byteCount + 1] = SasData.Flags[1];
  37:pamSasd.c     ****         PresentData[byteCount + 2] = SasData.Flags[2];
  38:pamSasd.c     ****         byteCount += sizeof(SasData.Flags);
  39:pamSasd.c     ****         
  40:pamSasd.c     ****         CyBle_Set16ByPtr(&PresentData[byteCount], SasData.SessionID);
  41:pamSasd.c     ****         byteCount += sizeof(SasData.SessionID);
  42:pamSasd.c     ****         
  43:pamSasd.c     ****         CyBle_Set16ByPtr(&PresentData[byteCount], SasData.SubSessionID);
  44:pamSasd.c     ****         byteCount += sizeof(SasData.SubSessionID);
  45:pamSasd.c     ****         
  46:pamSasd.c     ****         CyBle_Set32ByPtr(&PresentData[byteCount], SasData.RelativeTimestamp);
  47:pamSasd.c     ****         byteCount += sizeof(SasData.RelativeTimestamp);
  48:pamSasd.c     ****         
  49:pamSasd.c     ****         CyBle_Set32ByPtr(&PresentData[byteCount], SasData.SequenceNumber);
  50:pamSasd.c     ****         byteCount += sizeof(SasData.SequenceNumber);
  51:pamSasd.c     ****         //size = 15
  52:pamSasd.c     ****         
  53:pamSasd.c     ****         char* my_struct_in_bytes = (char*)(&PresentData);
  54:pamSasd.c     ****         
  55:pamSasd.c     ****         uint8 Message[PAM_MAX_MESSAGE_DATA_SIZE + HEADER_SIZE];
  56:pamSasd.c     ****         uint8 MessageSize = 0;
  57:pamSasd.c     ****         
  58:pamSasd.c     ****         
  59:pamSasd.c     ****         for(uint8 x = 0; x < N; x++)
  60:pamSasd.c     ****         {
  61:pamSasd.c     ****             if(x == 0)
  62:pamSasd.c     ****             {
  63:pamSasd.c     ****                 Message[0] = 0x80 + N - 1;
  64:pamSasd.c     ****             }
  65:pamSasd.c     ****             else
  66:pamSasd.c     ****             {
  67:pamSasd.c     ****                 Message[0] = 0x00 + N - 1 - x;
  68:pamSasd.c     ****             }
  69:pamSasd.c     ****             
  70:pamSasd.c     ****             
  71:pamSasd.c     ****             for(uint8 i = 1; i < PAM_MAX_MESSAGE_DATA_SIZE + HEADER_SIZE; i++)
  72:pamSasd.c     ****             {
  73:pamSasd.c     ****                 if((x * PAM_MAX_MESSAGE_DATA_SIZE + i) < presentDataLength)
  74:pamSasd.c     ****                 {
  75:pamSasd.c     ****                     Message[i] = my_struct_in_bytes[i + x * PAM_MAX_MESSAGE_DATA_SIZE];
  76:pamSasd.c     ****                     MessageSize = i + HEADER_SIZE;
  77:pamSasd.c     ****                 }
  78:pamSasd.c     ****             }
  79:pamSasd.c     ****             ble_SendIndication(CYBLE_PHYSICAL_ACTIVITY_MONITOR_SLEEP_ACTIVITY_SUMMARY_DATA_CHAR_HAN
  80:pamSasd.c     ****         }
  81:pamSasd.c     ****     }
  82:pamSasd.c     **** }
  83:pamSasd.c     **** 
  84:pamSasd.c     **** 
  85:pamSasd.c     **** uint8 getPresentSasdFields(uint8 *PresentData)
  86:pamSasd.c     **** {
  28              		.loc 1 86 0
ARM GAS  C:\Users\310309~1\AppData\Local\Temp\cczv1s0P.s 			page 3


  29              		.cfi_startproc
  30              		@ args = 0, pretend = 0, frame = 0
  31              		@ frame_needed = 0, uses_anonymous_args = 0
  32              	.LVL0:
  33 0000 70B5     		push	{r4, r5, r6, lr}
  34              		.cfi_def_cfa_offset 16
  35              		.cfi_offset 4, -16
  36              		.cfi_offset 5, -12
  37              		.cfi_offset 6, -8
  38              		.cfi_offset 14, -4
  39 0002 0500     		movs	r5, r0
  40              	.LVL1:
  87:pamSasd.c     ****     uint8 length = ALWAYS_PRESENT_SASD_FIELD_LENGTH;
  88:pamSasd.c     **** 
  89:pamSasd.c     ****     if(CHECK_BIT(SasData.Flags[0], 1/*TOTAL SLEEP TIME PRESENT*/) &&
  41              		.loc 1 89 0
  42 0004 BD4B     		ldr	r3, .L38
  43 0006 5B78     		ldrb	r3, [r3, #1]
  44 0008 9B07     		lsls	r3, r3, #30
  45 000a 0CD5     		bpl	.L36
  90:pamSasd.c     ****        CHECK_BIT(pamFeature, TOTAL_SLEEP_TIME_SUPPORTED))
  46              		.loc 1 90 0 discriminator 1
  47 000c BC4B     		ldr	r3, .L38+4
  48 000e 5B68     		ldr	r3, [r3, #4]
  89:pamSasd.c     ****        CHECK_BIT(pamFeature, TOTAL_SLEEP_TIME_SUPPORTED))
  49              		.loc 1 89 0 discriminator 1
  50 0010 DB05     		lsls	r3, r3, #23
  51 0012 0AD5     		bpl	.L37
  91:pamSasd.c     ****     {
  92:pamSasd.c     ****         PresentData[length] = SasData.TotalSleepTime[0];
  52              		.loc 1 92 0 discriminator 1
  53 0014 B94B     		ldr	r3, .L38
  54 0016 1A7C     		ldrb	r2, [r3, #16]
  55 0018 0274     		strb	r2, [r0, #16]
  93:pamSasd.c     ****         PresentData[length+1] = SasData.TotalSleepTime[1];
  56              		.loc 1 93 0 discriminator 1
  57 001a 5A7C     		ldrb	r2, [r3, #17]
  58 001c 4274     		strb	r2, [r0, #17]
  94:pamSasd.c     ****         PresentData[length+2] = SasData.TotalSleepTime[2];
  59              		.loc 1 94 0 discriminator 1
  60 001e 9B7C     		ldrb	r3, [r3, #18]
  61 0020 8374     		strb	r3, [r0, #18]
  62              	.LVL2:
  95:pamSasd.c     ****         length += sizeof(SasData.TotalSleepTime);
  63              		.loc 1 95 0 discriminator 1
  64 0022 1324     		movs	r4, #19
  65 0024 02E0     		b	.L2
  66              	.LVL3:
  67              	.L36:
  87:pamSasd.c     **** 
  68              		.loc 1 87 0
  69 0026 1024     		movs	r4, #16
  70 0028 00E0     		b	.L2
  71              	.L37:
  72 002a 1024     		movs	r4, #16
  73              	.LVL4:
  74              	.L2:
ARM GAS  C:\Users\310309~1\AppData\Local\Temp\cczv1s0P.s 			page 4


  96:pamSasd.c     ****     }
  97:pamSasd.c     ****     if(CHECK_BIT(SasData.Flags[0], 1/*TOTAL WAKE TIME PRESENT*/) &&
  75              		.loc 1 97 0
  76 002c B34B     		ldr	r3, .L38
  77 002e 5B78     		ldrb	r3, [r3, #1]
  78 0030 9B07     		lsls	r3, r3, #30
  79 0032 0ED5     		bpl	.L4
  98:pamSasd.c     ****        CHECK_BIT(pamFeature, TOTAL_WAKE_TIME_SUPPORTED))
  80              		.loc 1 98 0 discriminator 1
  81 0034 B24B     		ldr	r3, .L38+4
  82 0036 5B68     		ldr	r3, [r3, #4]
  97:pamSasd.c     ****        CHECK_BIT(pamFeature, TOTAL_WAKE_TIME_SUPPORTED))
  83              		.loc 1 97 0 discriminator 1
  84 0038 9B05     		lsls	r3, r3, #22
  85 003a 0AD5     		bpl	.L4
  99:pamSasd.c     ****     {
 100:pamSasd.c     ****         PresentData[length] = SasData.TotalWakeTime[0];
  86              		.loc 1 100 0 discriminator 1
  87 003c AF4B     		ldr	r3, .L38
  88 003e DA7C     		ldrb	r2, [r3, #19]
  89 0040 2A55     		strb	r2, [r5, r4]
 101:pamSasd.c     ****         PresentData[length+1] = SasData.TotalWakeTime[1];
  90              		.loc 1 101 0 discriminator 1
  91 0042 621C     		adds	r2, r4, #1
  92 0044 197D     		ldrb	r1, [r3, #20]
  93 0046 A954     		strb	r1, [r5, r2]
 102:pamSasd.c     ****         PresentData[length+2] = SasData.TotalWakeTime[2];
  94              		.loc 1 102 0 discriminator 1
  95 0048 A21C     		adds	r2, r4, #2
  96 004a 5B7D     		ldrb	r3, [r3, #21]
  97 004c AB54     		strb	r3, [r5, r2]
 103:pamSasd.c     ****         length += sizeof(SasData.TotalWakeTime);
  98              		.loc 1 103 0 discriminator 1
  99 004e 0334     		adds	r4, r4, #3
 100              	.LVL5:
 101 0050 E4B2     		uxtb	r4, r4
 102              	.LVL6:
 103              	.L4:
 104:pamSasd.c     ****     }
 105:pamSasd.c     ****     if(CHECK_BIT(SasData.Flags[0], 1/*TOTAL BED TIME PRESENT*/) &&
 104              		.loc 1 105 0
 105 0052 AA4B     		ldr	r3, .L38
 106 0054 5B78     		ldrb	r3, [r3, #1]
 107 0056 9B07     		lsls	r3, r3, #30
 108 0058 0ED5     		bpl	.L6
 106:pamSasd.c     ****        CHECK_BIT(pamFeature, TOTAL_BED_TIME_SUPPORTED))
 109              		.loc 1 106 0 discriminator 1
 110 005a A94B     		ldr	r3, .L38+4
 111 005c 5B68     		ldr	r3, [r3, #4]
 105:pamSasd.c     ****        CHECK_BIT(pamFeature, TOTAL_BED_TIME_SUPPORTED))
 112              		.loc 1 105 0 discriminator 1
 113 005e 5B05     		lsls	r3, r3, #21
 114 0060 0AD5     		bpl	.L6
 107:pamSasd.c     ****     {
 108:pamSasd.c     ****         PresentData[length] = SasData.TotalBedTime[0];
 115              		.loc 1 108 0 discriminator 1
 116 0062 A64B     		ldr	r3, .L38
ARM GAS  C:\Users\310309~1\AppData\Local\Temp\cczv1s0P.s 			page 5


 117 0064 9A7D     		ldrb	r2, [r3, #22]
 118 0066 2A55     		strb	r2, [r5, r4]
 109:pamSasd.c     ****         PresentData[length+1] = SasData.TotalBedTime[1];
 119              		.loc 1 109 0 discriminator 1
 120 0068 621C     		adds	r2, r4, #1
 121 006a D97D     		ldrb	r1, [r3, #23]
 122 006c A954     		strb	r1, [r5, r2]
 110:pamSasd.c     ****         PresentData[length+2] = SasData.TotalBedTime[2];
 123              		.loc 1 110 0 discriminator 1
 124 006e A21C     		adds	r2, r4, #2
 125 0070 1B7E     		ldrb	r3, [r3, #24]
 126 0072 AB54     		strb	r3, [r5, r2]
 111:pamSasd.c     ****         length += sizeof(SasData.TotalBedTime);
 127              		.loc 1 111 0 discriminator 1
 128 0074 0334     		adds	r4, r4, #3
 129              	.LVL7:
 130 0076 E4B2     		uxtb	r4, r4
 131              	.LVL8:
 132              	.L6:
 112:pamSasd.c     ****     }
 113:pamSasd.c     ****     if(CHECK_BIT(SasData.Flags[0], 1/*NR OF AWAKENINGS PRESENT*/) &&
 133              		.loc 1 113 0
 134 0078 A04B     		ldr	r3, .L38
 135 007a 5B78     		ldrb	r3, [r3, #1]
 136 007c 9B07     		lsls	r3, r3, #30
 137 007e 0DD5     		bpl	.L8
 114:pamSasd.c     ****        CHECK_BIT(pamFeature, NUMBER_OF_AWAKENINGS_SUPPORTED))
 138              		.loc 1 114 0 discriminator 1
 139 0080 9F4B     		ldr	r3, .L38+4
 140 0082 5B68     		ldr	r3, [r3, #4]
 113:pamSasd.c     ****        CHECK_BIT(pamFeature, NUMBER_OF_AWAKENINGS_SUPPORTED))
 141              		.loc 1 113 0 discriminator 1
 142 0084 1B05     		lsls	r3, r3, #20
 143 0086 09D5     		bpl	.L8
 115:pamSasd.c     ****     {
 116:pamSasd.c     ****         CyBle_Set16ByPtr(&PresentData[length], SasData.NumberOfAwakenings);
 144              		.loc 1 116 0 discriminator 1
 145 0088 9C4A     		ldr	r2, .L38
 146 008a 537E     		ldrb	r3, [r2, #25]
 147 008c 917E     		ldrb	r1, [r2, #26]
 148 008e 0902     		lsls	r1, r1, #8
 149 0090 1943     		orrs	r1, r3
 150 0092 2819     		adds	r0, r5, r4
 151              	.LVL9:
 152 0094 FFF7FEFF 		bl	CyBle_Set16ByPtr
 153              	.LVL10:
 117:pamSasd.c     ****         length += sizeof(SasData.NumberOfAwakenings);
 154              		.loc 1 117 0 discriminator 1
 155 0098 0234     		adds	r4, r4, #2
 156              	.LVL11:
 157 009a E4B2     		uxtb	r4, r4
 158              	.LVL12:
 159              	.L8:
 118:pamSasd.c     ****     }
 119:pamSasd.c     ****     if(CHECK_BIT(SasData.Flags[0], 1/*SLEEP LATENCY PRESENT*/) &&
 160              		.loc 1 119 0
 161 009c 974B     		ldr	r3, .L38
ARM GAS  C:\Users\310309~1\AppData\Local\Temp\cczv1s0P.s 			page 6


 162 009e 5B78     		ldrb	r3, [r3, #1]
 163 00a0 9B07     		lsls	r3, r3, #30
 164 00a2 0DD5     		bpl	.L10
 120:pamSasd.c     ****        CHECK_BIT(pamFeature, SLEEP_LATENCY_SUPPORTED))
 165              		.loc 1 120 0 discriminator 1
 166 00a4 964B     		ldr	r3, .L38+4
 167 00a6 5B68     		ldr	r3, [r3, #4]
 119:pamSasd.c     ****        CHECK_BIT(pamFeature, SLEEP_LATENCY_SUPPORTED))
 168              		.loc 1 119 0 discriminator 1
 169 00a8 DB04     		lsls	r3, r3, #19
 170 00aa 09D5     		bpl	.L10
 121:pamSasd.c     ****     {
 122:pamSasd.c     ****         CyBle_Set16ByPtr(&PresentData[length], SasData.SleepLatency);
 171              		.loc 1 122 0 discriminator 1
 172 00ac 934A     		ldr	r2, .L38
 173 00ae D37E     		ldrb	r3, [r2, #27]
 174 00b0 117F     		ldrb	r1, [r2, #28]
 175 00b2 0902     		lsls	r1, r1, #8
 176 00b4 1943     		orrs	r1, r3
 177 00b6 2819     		adds	r0, r5, r4
 178 00b8 FFF7FEFF 		bl	CyBle_Set16ByPtr
 179              	.LVL13:
 123:pamSasd.c     ****         length += sizeof(SasData.SleepLatency);
 180              		.loc 1 123 0 discriminator 1
 181 00bc 0234     		adds	r4, r4, #2
 182              	.LVL14:
 183 00be E4B2     		uxtb	r4, r4
 184              	.LVL15:
 185              	.L10:
 124:pamSasd.c     ****     }
 125:pamSasd.c     ****     if(CHECK_BIT(SasData.Flags[0], 1/*SLEEP EDDICIENCY PRESENT*/) &&
 186              		.loc 1 125 0
 187 00c0 8E4B     		ldr	r3, .L38
 188 00c2 5B78     		ldrb	r3, [r3, #1]
 189 00c4 9B07     		lsls	r3, r3, #30
 190 00c6 08D5     		bpl	.L12
 126:pamSasd.c     ****        CHECK_BIT(pamFeature, SLEEP_EFFICIENCY_SUPPORTED))
 191              		.loc 1 126 0 discriminator 1
 192 00c8 8D4B     		ldr	r3, .L38+4
 193 00ca 5B68     		ldr	r3, [r3, #4]
 125:pamSasd.c     ****        CHECK_BIT(pamFeature, SLEEP_EFFICIENCY_SUPPORTED))
 194              		.loc 1 125 0 discriminator 1
 195 00cc 9B04     		lsls	r3, r3, #18
 196 00ce 04D5     		bpl	.L12
 127:pamSasd.c     ****     {
 128:pamSasd.c     ****         PresentData[length] = SasData.SleepEfficiency;
 197              		.loc 1 128 0 discriminator 1
 198 00d0 8A4B     		ldr	r3, .L38
 199 00d2 5B7F     		ldrb	r3, [r3, #29]
 200 00d4 2B55     		strb	r3, [r5, r4]
 129:pamSasd.c     ****         length += sizeof(SasData.SleepEfficiency);
 201              		.loc 1 129 0 discriminator 1
 202 00d6 0134     		adds	r4, r4, #1
 203              	.LVL16:
 204 00d8 E4B2     		uxtb	r4, r4
 205              	.LVL17:
 206              	.L12:
ARM GAS  C:\Users\310309~1\AppData\Local\Temp\cczv1s0P.s 			page 7


 130:pamSasd.c     ****     }
 131:pamSasd.c     ****     if(CHECK_BIT(SasData.Flags[0], 1/*SNOOZE TIME PRESENT*/) &&
 207              		.loc 1 131 0
 208 00da 884B     		ldr	r3, .L38
 209 00dc 5B78     		ldrb	r3, [r3, #1]
 210 00de 9B07     		lsls	r3, r3, #30
 211 00e0 0DD5     		bpl	.L14
 132:pamSasd.c     ****        CHECK_BIT(pamFeature, SNOOZE_TIME_SUPPORTED))
 212              		.loc 1 132 0 discriminator 1
 213 00e2 874B     		ldr	r3, .L38+4
 214 00e4 5B68     		ldr	r3, [r3, #4]
 131:pamSasd.c     ****        CHECK_BIT(pamFeature, SNOOZE_TIME_SUPPORTED))
 215              		.loc 1 131 0 discriminator 1
 216 00e6 5B04     		lsls	r3, r3, #17
 217 00e8 09D5     		bpl	.L14
 133:pamSasd.c     ****     {
 134:pamSasd.c     ****         CyBle_Set16ByPtr(&PresentData[length], SasData.SnoozeTime);
 218              		.loc 1 134 0 discriminator 1
 219 00ea 844A     		ldr	r2, .L38
 220 00ec 937F     		ldrb	r3, [r2, #30]
 221 00ee D17F     		ldrb	r1, [r2, #31]
 222 00f0 0902     		lsls	r1, r1, #8
 223 00f2 1943     		orrs	r1, r3
 224 00f4 2819     		adds	r0, r5, r4
 225 00f6 FFF7FEFF 		bl	CyBle_Set16ByPtr
 226              	.LVL18:
 135:pamSasd.c     ****         length += sizeof(SasData.SnoozeTime);
 227              		.loc 1 135 0 discriminator 1
 228 00fa 0234     		adds	r4, r4, #2
 229              	.LVL19:
 230 00fc E4B2     		uxtb	r4, r4
 231              	.LVL20:
 232              	.L14:
 136:pamSasd.c     ****     }
 137:pamSasd.c     ****     if(CHECK_BIT(SasData.Flags[0], 1/*NROF TOSSNTURN EVENTS PRESENT*/) &&
 233              		.loc 1 137 0
 234 00fe 7F4B     		ldr	r3, .L38
 235 0100 5B78     		ldrb	r3, [r3, #1]
 236 0102 9B07     		lsls	r3, r3, #30
 237 0104 0FD5     		bpl	.L16
 138:pamSasd.c     ****        CHECK_BIT(pamFeature, NUMBER_OF_TOSS_N_TURN_EVENTS_SUPPORTED))
 238              		.loc 1 138 0 discriminator 1
 239 0106 7E4B     		ldr	r3, .L38+4
 240 0108 5B68     		ldr	r3, [r3, #4]
 137:pamSasd.c     ****        CHECK_BIT(pamFeature, NUMBER_OF_TOSS_N_TURN_EVENTS_SUPPORTED))
 241              		.loc 1 137 0 discriminator 1
 242 010a 1B04     		lsls	r3, r3, #16
 243 010c 0BD5     		bpl	.L16
 139:pamSasd.c     ****     {
 140:pamSasd.c     ****         CyBle_Set16ByPtr(&PresentData[length], SasData.NumberOfTossNturnEvents);
 244              		.loc 1 140 0 discriminator 1
 245 010e 7B4A     		ldr	r2, .L38
 246 0110 2023     		movs	r3, #32
 247 0112 D35C     		ldrb	r3, [r2, r3]
 248 0114 2121     		movs	r1, #33
 249 0116 515C     		ldrb	r1, [r2, r1]
 250 0118 0902     		lsls	r1, r1, #8
ARM GAS  C:\Users\310309~1\AppData\Local\Temp\cczv1s0P.s 			page 8


 251 011a 1943     		orrs	r1, r3
 252 011c 2819     		adds	r0, r5, r4
 253 011e FFF7FEFF 		bl	CyBle_Set16ByPtr
 254              	.LVL21:
 141:pamSasd.c     ****         length += sizeof(SasData.NumberOfTossNturnEvents);
 255              		.loc 1 141 0 discriminator 1
 256 0122 0234     		adds	r4, r4, #2
 257              	.LVL22:
 258 0124 E4B2     		uxtb	r4, r4
 259              	.LVL23:
 260              	.L16:
 142:pamSasd.c     ****     }
 143:pamSasd.c     ****     if(CHECK_BIT(SasData.Flags[1], 8 - ONE_BYTE/*TIME OF AWEKENING AFTER ALARM PRESENT*/) &&
 261              		.loc 1 143 0
 262 0126 754B     		ldr	r3, .L38
 263 0128 9B78     		ldrb	r3, [r3, #2]
 264 012a DB07     		lsls	r3, r3, #31
 265 012c 11D5     		bpl	.L18
 144:pamSasd.c     ****        CHECK_BIT(pamFeature, TIME_OF_AWAKENING_AFTER_ALARM_SUPPORTED))
 266              		.loc 1 144 0 discriminator 1
 267 012e 744B     		ldr	r3, .L38+4
 268 0130 5B68     		ldr	r3, [r3, #4]
 143:pamSasd.c     ****        CHECK_BIT(pamFeature, TIME_OF_AWAKENING_AFTER_ALARM_SUPPORTED))
 269              		.loc 1 143 0 discriminator 1
 270 0132 DB03     		lsls	r3, r3, #15
 271 0134 0DD5     		bpl	.L18
 145:pamSasd.c     ****     {
 146:pamSasd.c     ****         PresentData[length] = SasData.TimeOfAwakeningAfterAlarm[0];
 272              		.loc 1 146 0 discriminator 1
 273 0136 714B     		ldr	r3, .L38
 274 0138 2222     		movs	r2, #34
 275 013a 9A5C     		ldrb	r2, [r3, r2]
 276 013c 2A55     		strb	r2, [r5, r4]
 147:pamSasd.c     ****         PresentData[length+1] = SasData.TimeOfAwakeningAfterAlarm[1];
 277              		.loc 1 147 0 discriminator 1
 278 013e 621C     		adds	r2, r4, #1
 279 0140 2321     		movs	r1, #35
 280 0142 595C     		ldrb	r1, [r3, r1]
 281 0144 A954     		strb	r1, [r5, r2]
 148:pamSasd.c     ****         PresentData[length+2] = SasData.TimeOfAwakeningAfterAlarm[2];
 282              		.loc 1 148 0 discriminator 1
 283 0146 A21C     		adds	r2, r4, #2
 284 0148 2421     		movs	r1, #36
 285 014a 5B5C     		ldrb	r3, [r3, r1]
 286 014c AB54     		strb	r3, [r5, r2]
 149:pamSasd.c     ****         length += sizeof(SasData.TimeOfAwakeningAfterAlarm);
 287              		.loc 1 149 0 discriminator 1
 288 014e 0334     		adds	r4, r4, #3
 289              	.LVL24:
 290 0150 E4B2     		uxtb	r4, r4
 291              	.LVL25:
 292              	.L18:
 150:pamSasd.c     ****     }
 151:pamSasd.c     ****     if(CHECK_BIT(pamFeature, VISIBLE_LIGHT_LEVEL_SUPPORTED))
 293              		.loc 1 151 0
 294 0152 6B4B     		ldr	r3, .L38+4
 295 0154 5B68     		ldr	r3, [r3, #4]
ARM GAS  C:\Users\310309~1\AppData\Local\Temp\cczv1s0P.s 			page 9


 296 0156 9B03     		lsls	r3, r3, #14
 297 0158 35D5     		bpl	.L20
 152:pamSasd.c     ****     {
 153:pamSasd.c     ****         if(CHECK_BIT(SasData.Flags[1], 8 - ONE_BYTE/*MinimumVisibleLightLevel PRESENT*/))
 298              		.loc 1 153 0
 299 015a 684B     		ldr	r3, .L38
 300 015c 9B78     		ldrb	r3, [r3, #2]
 301 015e DB07     		lsls	r3, r3, #31
 302 0160 0DD5     		bpl	.L22
 154:pamSasd.c     ****         {
 155:pamSasd.c     ****             PresentData[length] = SasData.MinimumVisibleLightLevel[0];
 303              		.loc 1 155 0
 304 0162 664B     		ldr	r3, .L38
 305 0164 2522     		movs	r2, #37
 306 0166 9A5C     		ldrb	r2, [r3, r2]
 307 0168 2A55     		strb	r2, [r5, r4]
 156:pamSasd.c     ****             PresentData[length+1] = SasData.MinimumVisibleLightLevel[1];
 308              		.loc 1 156 0
 309 016a 621C     		adds	r2, r4, #1
 310 016c 2621     		movs	r1, #38
 311 016e 595C     		ldrb	r1, [r3, r1]
 312 0170 A954     		strb	r1, [r5, r2]
 157:pamSasd.c     ****             PresentData[length+2] = SasData.MinimumVisibleLightLevel[2];
 313              		.loc 1 157 0
 314 0172 A21C     		adds	r2, r4, #2
 315 0174 2721     		movs	r1, #39
 316 0176 5B5C     		ldrb	r3, [r3, r1]
 317 0178 AB54     		strb	r3, [r5, r2]
 158:pamSasd.c     ****             length += sizeof(SasData.MinimumVisibleLightLevel);
 318              		.loc 1 158 0
 319 017a 0334     		adds	r4, r4, #3
 320              	.LVL26:
 321 017c E4B2     		uxtb	r4, r4
 322              	.LVL27:
 323              	.L22:
 159:pamSasd.c     ****         }
 160:pamSasd.c     ****         if(CHECK_BIT(SasData.Flags[1], 8 - ONE_BYTE/*MAXIMUMVisibleLightLevel PRESENT*/))
 324              		.loc 1 160 0
 325 017e 5F4B     		ldr	r3, .L38
 326 0180 9B78     		ldrb	r3, [r3, #2]
 327 0182 DB07     		lsls	r3, r3, #31
 328 0184 0DD5     		bpl	.L23
 161:pamSasd.c     ****         {
 162:pamSasd.c     ****             PresentData[length] = SasData.MaximumVisibleLightLevel[0];
 329              		.loc 1 162 0
 330 0186 5D4B     		ldr	r3, .L38
 331 0188 2822     		movs	r2, #40
 332 018a 9A5C     		ldrb	r2, [r3, r2]
 333 018c 2A55     		strb	r2, [r5, r4]
 163:pamSasd.c     ****             PresentData[length+1] = SasData.MaximumVisibleLightLevel[1];
 334              		.loc 1 163 0
 335 018e 621C     		adds	r2, r4, #1
 336 0190 2921     		movs	r1, #41
 337 0192 595C     		ldrb	r1, [r3, r1]
 338 0194 A954     		strb	r1, [r5, r2]
 164:pamSasd.c     ****             PresentData[length+2] = SasData.MaximumVisibleLightLevel[2];
 339              		.loc 1 164 0
ARM GAS  C:\Users\310309~1\AppData\Local\Temp\cczv1s0P.s 			page 10


 340 0196 A21C     		adds	r2, r4, #2
 341 0198 2A21     		movs	r1, #42
 342 019a 5B5C     		ldrb	r3, [r3, r1]
 343 019c AB54     		strb	r3, [r5, r2]
 165:pamSasd.c     ****             length += sizeof(SasData.MaximumVisibleLightLevel);
 344              		.loc 1 165 0
 345 019e 0334     		adds	r4, r4, #3
 346              	.LVL28:
 347 01a0 E4B2     		uxtb	r4, r4
 348              	.LVL29:
 349              	.L23:
 166:pamSasd.c     ****         }
 167:pamSasd.c     ****         if(CHECK_BIT(SasData.Flags[1], 8 - ONE_BYTE/*AVERAGEVisibleLightLevel PRESENT*/))
 350              		.loc 1 167 0
 351 01a2 564B     		ldr	r3, .L38
 352 01a4 9B78     		ldrb	r3, [r3, #2]
 353 01a6 DB07     		lsls	r3, r3, #31
 354 01a8 0DD5     		bpl	.L20
 168:pamSasd.c     ****         {
 169:pamSasd.c     ****             PresentData[length] = SasData.AverageVisibleLightLevel[0];
 355              		.loc 1 169 0
 356 01aa 544B     		ldr	r3, .L38
 357 01ac 2B22     		movs	r2, #43
 358 01ae 9A5C     		ldrb	r2, [r3, r2]
 359 01b0 2A55     		strb	r2, [r5, r4]
 170:pamSasd.c     ****             PresentData[length+1] = SasData.AverageVisibleLightLevel[1];
 360              		.loc 1 170 0
 361 01b2 621C     		adds	r2, r4, #1
 362 01b4 2C21     		movs	r1, #44
 363 01b6 595C     		ldrb	r1, [r3, r1]
 364 01b8 A954     		strb	r1, [r5, r2]
 171:pamSasd.c     ****             PresentData[length+2] = SasData.AverageVisibleLightLevel[2];
 365              		.loc 1 171 0
 366 01ba A21C     		adds	r2, r4, #2
 367 01bc 2D21     		movs	r1, #45
 368 01be 5B5C     		ldrb	r3, [r3, r1]
 369 01c0 AB54     		strb	r3, [r5, r2]
 172:pamSasd.c     ****             length += sizeof(SasData.AverageVisibleLightLevel);
 370              		.loc 1 172 0
 371 01c2 0334     		adds	r4, r4, #3
 372              	.LVL30:
 373 01c4 E4B2     		uxtb	r4, r4
 374              	.LVL31:
 375              	.L20:
 173:pamSasd.c     ****         }
 174:pamSasd.c     ****     }
 175:pamSasd.c     ****     if(CHECK_BIT(pamFeature, UV_LIGHT_LEVEL_SUPPORTED))
 376              		.loc 1 175 0
 377 01c6 4E4B     		ldr	r3, .L38+4
 378 01c8 5B68     		ldr	r3, [r3, #4]
 379 01ca 5B03     		lsls	r3, r3, #13
 380 01cc 35D5     		bpl	.L24
 176:pamSasd.c     ****     {
 177:pamSasd.c     ****         if(CHECK_BIT(SasData.Flags[1], 8 - ONE_BYTE/*Minimumuvlight PRESENT*/))
 381              		.loc 1 177 0
 382 01ce 4B4B     		ldr	r3, .L38
 383 01d0 9B78     		ldrb	r3, [r3, #2]
ARM GAS  C:\Users\310309~1\AppData\Local\Temp\cczv1s0P.s 			page 11


 384 01d2 DB07     		lsls	r3, r3, #31
 385 01d4 0DD5     		bpl	.L26
 178:pamSasd.c     ****         {
 179:pamSasd.c     ****             PresentData[length] = SasData.MinimumUVLightLevel[0];
 386              		.loc 1 179 0
 387 01d6 494B     		ldr	r3, .L38
 388 01d8 2E22     		movs	r2, #46
 389 01da 9A5C     		ldrb	r2, [r3, r2]
 390 01dc 2A55     		strb	r2, [r5, r4]
 180:pamSasd.c     ****             PresentData[length+1] = SasData.MinimumUVLightLevel[1];
 391              		.loc 1 180 0
 392 01de 621C     		adds	r2, r4, #1
 393 01e0 2F21     		movs	r1, #47
 394 01e2 595C     		ldrb	r1, [r3, r1]
 395 01e4 A954     		strb	r1, [r5, r2]
 181:pamSasd.c     ****             PresentData[length+2] = SasData.MinimumUVLightLevel[2];
 396              		.loc 1 181 0
 397 01e6 A21C     		adds	r2, r4, #2
 398 01e8 3021     		movs	r1, #48
 399 01ea 5B5C     		ldrb	r3, [r3, r1]
 400 01ec AB54     		strb	r3, [r5, r2]
 182:pamSasd.c     ****             length += sizeof(SasData.MinimumUVLightLevel);
 401              		.loc 1 182 0
 402 01ee 0334     		adds	r4, r4, #3
 403              	.LVL32:
 404 01f0 E4B2     		uxtb	r4, r4
 405              	.LVL33:
 406              	.L26:
 183:pamSasd.c     ****         }
 184:pamSasd.c     ****         if(CHECK_BIT(SasData.Flags[1], 8 - ONE_BYTE/*MAXIMUMuvlight PRESENT*/))
 407              		.loc 1 184 0
 408 01f2 424B     		ldr	r3, .L38
 409 01f4 9B78     		ldrb	r3, [r3, #2]
 410 01f6 DB07     		lsls	r3, r3, #31
 411 01f8 0DD5     		bpl	.L27
 185:pamSasd.c     ****         {
 186:pamSasd.c     ****             PresentData[length] = SasData.MaximumUVLightLevel[0];
 412              		.loc 1 186 0
 413 01fa 404B     		ldr	r3, .L38
 414 01fc 3122     		movs	r2, #49
 415 01fe 9A5C     		ldrb	r2, [r3, r2]
 416 0200 2A55     		strb	r2, [r5, r4]
 187:pamSasd.c     ****             PresentData[length+1] = SasData.MaximumUVLightLevel[1];
 417              		.loc 1 187 0
 418 0202 621C     		adds	r2, r4, #1
 419 0204 3221     		movs	r1, #50
 420 0206 595C     		ldrb	r1, [r3, r1]
 421 0208 A954     		strb	r1, [r5, r2]
 188:pamSasd.c     ****             PresentData[length+2] = SasData.MaximumUVLightLevel[2];
 422              		.loc 1 188 0
 423 020a A21C     		adds	r2, r4, #2
 424 020c 3321     		movs	r1, #51
 425 020e 5B5C     		ldrb	r3, [r3, r1]
 426 0210 AB54     		strb	r3, [r5, r2]
 189:pamSasd.c     ****             length += sizeof(SasData.MaximumUVLightLevel);
 427              		.loc 1 189 0
 428 0212 0334     		adds	r4, r4, #3
ARM GAS  C:\Users\310309~1\AppData\Local\Temp\cczv1s0P.s 			page 12


 429              	.LVL34:
 430 0214 E4B2     		uxtb	r4, r4
 431              	.LVL35:
 432              	.L27:
 190:pamSasd.c     ****         }
 191:pamSasd.c     ****         if(CHECK_BIT(SasData.Flags[1], 8 - ONE_BYTE/*AVERAGEuvlight PRESENT*/))
 433              		.loc 1 191 0
 434 0216 394B     		ldr	r3, .L38
 435 0218 9B78     		ldrb	r3, [r3, #2]
 436 021a DB07     		lsls	r3, r3, #31
 437 021c 0DD5     		bpl	.L24
 192:pamSasd.c     ****         {
 193:pamSasd.c     ****             PresentData[length] = SasData.AverageUVLightLevel[0];
 438              		.loc 1 193 0
 439 021e 374B     		ldr	r3, .L38
 440 0220 3422     		movs	r2, #52
 441 0222 9A5C     		ldrb	r2, [r3, r2]
 442 0224 2A55     		strb	r2, [r5, r4]
 194:pamSasd.c     ****             PresentData[length+1] = SasData.AverageUVLightLevel[1];
 443              		.loc 1 194 0
 444 0226 621C     		adds	r2, r4, #1
 445 0228 3521     		movs	r1, #53
 446 022a 595C     		ldrb	r1, [r3, r1]
 447 022c A954     		strb	r1, [r5, r2]
 195:pamSasd.c     ****             PresentData[length+2] = SasData.AverageUVLightLevel[2];
 448              		.loc 1 195 0
 449 022e A21C     		adds	r2, r4, #2
 450 0230 3621     		movs	r1, #54
 451 0232 5B5C     		ldrb	r3, [r3, r1]
 452 0234 AB54     		strb	r3, [r5, r2]
 196:pamSasd.c     ****             length += sizeof(SasData.AverageUVLightLevel);
 453              		.loc 1 196 0
 454 0236 0334     		adds	r4, r4, #3
 455              	.LVL36:
 456 0238 E4B2     		uxtb	r4, r4
 457              	.LVL37:
 458              	.L24:
 197:pamSasd.c     ****         }
 198:pamSasd.c     ****     }
 199:pamSasd.c     ****     if(CHECK_BIT(pamFeature, IR_LIGHT_LEVEL_SUPPORTED))
 459              		.loc 1 199 0
 460 023a 314B     		ldr	r3, .L38+4
 461 023c 5B68     		ldr	r3, [r3, #4]
 462 023e 1B03     		lsls	r3, r3, #12
 463 0240 35D5     		bpl	.L28
 200:pamSasd.c     ****     {
 201:pamSasd.c     ****         if(CHECK_BIT(SasData.Flags[1], 8 - ONE_BYTE/*MinimumIRlight PRESENT*/))
 464              		.loc 1 201 0
 465 0242 2E4B     		ldr	r3, .L38
 466 0244 9B78     		ldrb	r3, [r3, #2]
 467 0246 DB07     		lsls	r3, r3, #31
 468 0248 0DD5     		bpl	.L30
 202:pamSasd.c     ****         {
 203:pamSasd.c     ****             PresentData[length] = SasData.MinimumIRLightLevel[0];
 469              		.loc 1 203 0
 470 024a 2C4B     		ldr	r3, .L38
 471 024c 3722     		movs	r2, #55
ARM GAS  C:\Users\310309~1\AppData\Local\Temp\cczv1s0P.s 			page 13


 472 024e 9A5C     		ldrb	r2, [r3, r2]
 473 0250 2A55     		strb	r2, [r5, r4]
 204:pamSasd.c     ****             PresentData[length+1] = SasData.MinimumIRLightLevel[1];
 474              		.loc 1 204 0
 475 0252 621C     		adds	r2, r4, #1
 476 0254 3821     		movs	r1, #56
 477 0256 595C     		ldrb	r1, [r3, r1]
 478 0258 A954     		strb	r1, [r5, r2]
 205:pamSasd.c     ****             PresentData[length+2] = SasData.MinimumIRLightLevel[2];
 479              		.loc 1 205 0
 480 025a A21C     		adds	r2, r4, #2
 481 025c 3921     		movs	r1, #57
 482 025e 5B5C     		ldrb	r3, [r3, r1]
 483 0260 AB54     		strb	r3, [r5, r2]
 206:pamSasd.c     ****             length += sizeof(SasData.MinimumIRLightLevel);
 484              		.loc 1 206 0
 485 0262 0334     		adds	r4, r4, #3
 486              	.LVL38:
 487 0264 E4B2     		uxtb	r4, r4
 488              	.LVL39:
 489              	.L30:
 207:pamSasd.c     ****         }
 208:pamSasd.c     ****         if(CHECK_BIT(SasData.Flags[1], 8 - ONE_BYTE/*MAXIMUMIRlight PRESENT*/))
 490              		.loc 1 208 0
 491 0266 254B     		ldr	r3, .L38
 492 0268 9B78     		ldrb	r3, [r3, #2]
 493 026a DB07     		lsls	r3, r3, #31
 494 026c 0DD5     		bpl	.L31
 209:pamSasd.c     ****         {
 210:pamSasd.c     ****             PresentData[length] = SasData.MaximumIRLightLevel[0];
 495              		.loc 1 210 0
 496 026e 234B     		ldr	r3, .L38
 497 0270 3A22     		movs	r2, #58
 498 0272 9A5C     		ldrb	r2, [r3, r2]
 499 0274 2A55     		strb	r2, [r5, r4]
 211:pamSasd.c     ****             PresentData[length+1] = SasData.MaximumIRLightLevel[1];
 500              		.loc 1 211 0
 501 0276 621C     		adds	r2, r4, #1
 502 0278 3B21     		movs	r1, #59
 503 027a 595C     		ldrb	r1, [r3, r1]
 504 027c A954     		strb	r1, [r5, r2]
 212:pamSasd.c     ****             PresentData[length+2] = SasData.MaximumIRLightLevel[2];
 505              		.loc 1 212 0
 506 027e A21C     		adds	r2, r4, #2
 507 0280 3C21     		movs	r1, #60
 508 0282 5B5C     		ldrb	r3, [r3, r1]
 509 0284 AB54     		strb	r3, [r5, r2]
 213:pamSasd.c     ****             length += sizeof(SasData.MaximumIRLightLevel);
 510              		.loc 1 213 0
 511 0286 0334     		adds	r4, r4, #3
 512              	.LVL40:
 513 0288 E4B2     		uxtb	r4, r4
 514              	.LVL41:
 515              	.L31:
 214:pamSasd.c     ****         }
 215:pamSasd.c     ****         if(CHECK_BIT(SasData.Flags[1], 8 - ONE_BYTE/*AVERAGEIRlight PRESENT*/))
 516              		.loc 1 215 0
ARM GAS  C:\Users\310309~1\AppData\Local\Temp\cczv1s0P.s 			page 14


 517 028a 1C4B     		ldr	r3, .L38
 518 028c 9B78     		ldrb	r3, [r3, #2]
 519 028e DB07     		lsls	r3, r3, #31
 520 0290 0DD5     		bpl	.L28
 216:pamSasd.c     ****         {
 217:pamSasd.c     ****             PresentData[length] = SasData.AverageIRLightLevel[0];
 521              		.loc 1 217 0
 522 0292 1A4B     		ldr	r3, .L38
 523 0294 3D22     		movs	r2, #61
 524 0296 9A5C     		ldrb	r2, [r3, r2]
 525 0298 2A55     		strb	r2, [r5, r4]
 218:pamSasd.c     ****             PresentData[length+1] = SasData.AverageIRLightLevel[1];
 526              		.loc 1 218 0
 527 029a 621C     		adds	r2, r4, #1
 528 029c 3E21     		movs	r1, #62
 529 029e 595C     		ldrb	r1, [r3, r1]
 530 02a0 A954     		strb	r1, [r5, r2]
 219:pamSasd.c     ****             PresentData[length+2] = SasData.AverageIRLightLevel[2];
 531              		.loc 1 219 0
 532 02a2 A21C     		adds	r2, r4, #2
 533 02a4 3F21     		movs	r1, #63
 534 02a6 5B5C     		ldrb	r3, [r3, r1]
 535 02a8 AB54     		strb	r3, [r5, r2]
 220:pamSasd.c     ****             length += sizeof(SasData.AverageIRLightLevel);
 536              		.loc 1 220 0
 537 02aa 0334     		adds	r4, r4, #3
 538              	.LVL42:
 539 02ac E4B2     		uxtb	r4, r4
 540              	.LVL43:
 541              	.L28:
 221:pamSasd.c     ****         }
 222:pamSasd.c     ****     }
 223:pamSasd.c     ****     if(CHECK_BIT(SasData.Flags[1], 8 - ONE_BYTE/*AVERAGE SLEEPING HEART RATE*/) &&
 542              		.loc 1 223 0
 543 02ae 134B     		ldr	r3, .L38
 544 02b0 9B78     		ldrb	r3, [r3, #2]
 545 02b2 DB07     		lsls	r3, r3, #31
 546 02b4 09D5     		bpl	.L32
 224:pamSasd.c     ****        CHECK_BIT(pamFeature, SLEEPING_HEART_RATE_SUPPORTED))
 547              		.loc 1 224 0 discriminator 1
 548 02b6 124B     		ldr	r3, .L38+4
 549 02b8 5B68     		ldr	r3, [r3, #4]
 223:pamSasd.c     ****        CHECK_BIT(pamFeature, SLEEPING_HEART_RATE_SUPPORTED))
 550              		.loc 1 223 0 discriminator 1
 551 02ba 9B02     		lsls	r3, r3, #10
 552 02bc 05D5     		bpl	.L32
 225:pamSasd.c     ****     {
 226:pamSasd.c     ****         PresentData[length] = SasData.AverageSleepingHeartRate;
 553              		.loc 1 226 0 discriminator 1
 554 02be 4023     		movs	r3, #64
 555 02c0 0E4A     		ldr	r2, .L38
 556 02c2 D35C     		ldrb	r3, [r2, r3]
 557 02c4 2B55     		strb	r3, [r5, r4]
 227:pamSasd.c     ****         length += sizeof(SasData.AverageSleepingHeartRate);
 558              		.loc 1 227 0 discriminator 1
 559 02c6 0134     		adds	r4, r4, #1
 560              	.LVL44:
ARM GAS  C:\Users\310309~1\AppData\Local\Temp\cczv1s0P.s 			page 15


 561 02c8 E4B2     		uxtb	r4, r4
 562              	.LVL45:
 563              	.L32:
 228:pamSasd.c     ****     }
 229:pamSasd.c     ****     if(CHECK_BIT(SasData.Flags[1], 8 - ONE_BYTE/*MinimumIRlight PRESENT*/) &&
 564              		.loc 1 229 0
 565 02ca 0C4B     		ldr	r3, .L38
 566 02cc 9B78     		ldrb	r3, [r3, #2]
 567 02ce DB07     		lsls	r3, r3, #31
 568 02d0 11D5     		bpl	.L34
 230:pamSasd.c     ****        CHECK_BIT(pamFeature, WORN_DURATION_SUPPORTED))
 569              		.loc 1 230 0 discriminator 1
 570 02d2 0B4B     		ldr	r3, .L38+4
 571 02d4 1B68     		ldr	r3, [r3]
 229:pamSasd.c     ****        CHECK_BIT(pamFeature, WORN_DURATION_SUPPORTED))
 572              		.loc 1 229 0 discriminator 1
 573 02d6 DB01     		lsls	r3, r3, #7
 574 02d8 0DD5     		bpl	.L34
 231:pamSasd.c     ****     {
 232:pamSasd.c     ****         PresentData[length] = SasData.WornDuration[0];
 575              		.loc 1 232 0 discriminator 1
 576 02da 084B     		ldr	r3, .L38
 577 02dc 4122     		movs	r2, #65
 578 02de 9A5C     		ldrb	r2, [r3, r2]
 579 02e0 2A55     		strb	r2, [r5, r4]
 233:pamSasd.c     ****         PresentData[length+1] = SasData.WornDuration[1];
 580              		.loc 1 233 0 discriminator 1
 581 02e2 621C     		adds	r2, r4, #1
 582 02e4 4221     		movs	r1, #66
 583 02e6 595C     		ldrb	r1, [r3, r1]
 584 02e8 A954     		strb	r1, [r5, r2]
 234:pamSasd.c     ****         PresentData[length+2] = SasData.WornDuration[2];
 585              		.loc 1 234 0 discriminator 1
 586 02ea A21C     		adds	r2, r4, #2
 587 02ec 4321     		movs	r1, #67
 588 02ee 5B5C     		ldrb	r3, [r3, r1]
 589 02f0 AB54     		strb	r3, [r5, r2]
 235:pamSasd.c     ****         length += sizeof(SasData.WornDuration);
 590              		.loc 1 235 0 discriminator 1
 591 02f2 0334     		adds	r4, r4, #3
 592              	.LVL46:
 593 02f4 E4B2     		uxtb	r4, r4
 594              	.LVL47:
 595              	.L34:
 236:pamSasd.c     ****     }
 237:pamSasd.c     ****    
 238:pamSasd.c     ****     return length;
 239:pamSasd.c     **** }
 596              		.loc 1 239 0
 597 02f6 2000     		movs	r0, r4
 598              		@ sp needed
 599              	.LVL48:
 600              	.LVL49:
 601 02f8 70BD     		pop	{r4, r5, r6, pc}
 602              	.L39:
 603 02fa C046     		.align	2
 604              	.L38:
ARM GAS  C:\Users\310309~1\AppData\Local\Temp\cczv1s0P.s 			page 16


 605 02fc 00000000 		.word	SasData
 606 0300 00000000 		.word	pamFeature
 607              		.cfi_endproc
 608              	.LFE37:
 609              		.size	getPresentSasdFields, .-getPresentSasdFields
 610              		.global	__aeabi_ui2d
 611              		.section	.text.UpdateSasd,"ax",%progbits
 612              		.align	2
 613              		.global	UpdateSasd
 614              		.code	16
 615              		.thumb_func
 616              		.type	UpdateSasd, %function
 617              	UpdateSasd:
 618              	.LFB36:
  16:pamSasd.c     ****     CYBLE_GATTS_HANDLE_VALUE_NTF_T tempHandle;
 619              		.loc 1 16 0
 620              		.cfi_startproc
 621              		@ args = 0, pretend = 0, frame = 104
 622              		@ frame_needed = 0, uses_anonymous_args = 0
 623 0000 F0B5     		push	{r4, r5, r6, r7, lr}
 624              		.cfi_def_cfa_offset 20
 625              		.cfi_offset 4, -20
 626              		.cfi_offset 5, -16
 627              		.cfi_offset 6, -12
 628              		.cfi_offset 7, -8
 629              		.cfi_offset 14, -4
 630 0002 9BB0     		sub	sp, sp, #108
 631              		.cfi_def_cfa_offset 128
  19:pamSasd.c     ****     tempHandle.value.val = (uint8 *)&SasData;
 632              		.loc 1 19 0
 633 0004 17A8     		add	r0, sp, #92
 634 0006 2E23     		movs	r3, #46
 635 0008 0381     		strh	r3, [r0, #8]
  20:pamSasd.c     ****     tempHandle.value.len = sizeof(SasData);
 636              		.loc 1 20 0
 637 000a 404B     		ldr	r3, .L49
 638 000c 1793     		str	r3, [sp, #92]
  21:pamSasd.c     ****     CyBle_GattsWriteAttributeValue(&tempHandle, 0, &cyBle_connHandle, 0);
 639              		.loc 1 21 0
 640 000e 4423     		movs	r3, #68
 641 0010 8380     		strh	r3, [r0, #4]
  22:pamSasd.c     ****     
 642              		.loc 1 22 0
 643 0012 0023     		movs	r3, #0
 644 0014 3E4A     		ldr	r2, .L49+4
 645 0016 0021     		movs	r1, #0
 646 0018 FFF7FEFF 		bl	CyBle_GattsWriteAttributeValue
 647              	.LVL50:
  24:pamSasd.c     ****     {
 648              		.loc 1 24 0
 649 001c 3D4B     		ldr	r3, .L49+8
 650 001e 1B68     		ldr	r3, [r3]
 651 0020 002B     		cmp	r3, #0
 652 0022 71D0     		beq	.L40
 653              	.LBB2:
  28:pamSasd.c     ****         DBG_PRINTF("SLEEP ACTIVITY SUMMARY DATA presentdatalength = %i\r\n", presentDataLength);
 654              		.loc 1 28 0
ARM GAS  C:\Users\310309~1\AppData\Local\Temp\cczv1s0P.s 			page 17


 655 0024 06AD     		add	r5, sp, #24
 656 0026 2800     		movs	r0, r5
 657 0028 FFF7FEFF 		bl	getPresentSasdFields
 658              	.LVL51:
 659 002c 0400     		movs	r4, r0
 660 002e 0600     		movs	r6, r0
 661              	.LVL52:
  29:pamSasd.c     ****         uint8 N = calculateNumberOfMessages(presentDataLength);
 662              		.loc 1 29 0
 663 0030 0100     		movs	r1, r0
 664 0032 3948     		ldr	r0, .L49+12
 665              	.LVL53:
 666 0034 FFF7FEFF 		bl	printf
 667              	.LVL54:
  30:pamSasd.c     ****         DBG_PRINTF("SLEEP ACTIVITY SUMMARY DATA N = %i\r\n", N);
 668              		.loc 1 30 0
 669 0038 2000     		movs	r0, r4
 670 003a FFF7FEFF 		bl	__aeabi_ui2d
 671              	.LVL55:
 672 003e FFF7FEFF 		bl	calculateNumberOfMessages
 673              	.LVL56:
 674 0042 0100     		movs	r1, r0
 675 0044 0700     		movs	r7, r0
 676              	.LVL57:
  31:pamSasd.c     ****         
 677              		.loc 1 31 0
 678 0046 3548     		ldr	r0, .L49+16
 679 0048 FFF7FEFF 		bl	printf
 680              	.LVL58:
  35:pamSasd.c     ****         PresentData[byteCount + 1] = SasData.Flags[1];
 681              		.loc 1 35 0
 682 004c 2F4C     		ldr	r4, .L49
 683 004e 6378     		ldrb	r3, [r4, #1]
 684 0050 6B70     		strb	r3, [r5, #1]
  36:pamSasd.c     ****         PresentData[byteCount + 2] = SasData.Flags[2];
 685              		.loc 1 36 0
 686 0052 A378     		ldrb	r3, [r4, #2]
 687 0054 AB70     		strb	r3, [r5, #2]
  37:pamSasd.c     ****         byteCount += sizeof(SasData.Flags);
 688              		.loc 1 37 0
 689 0056 E378     		ldrb	r3, [r4, #3]
 690 0058 EB70     		strb	r3, [r5, #3]
 691              	.LVL59:
  40:pamSasd.c     ****         byteCount += sizeof(SasData.SessionID);
 692              		.loc 1 40 0
 693 005a 2379     		ldrb	r3, [r4, #4]
 694 005c 6179     		ldrb	r1, [r4, #5]
 695 005e 0902     		lsls	r1, r1, #8
 696 0060 1943     		orrs	r1, r3
 697 0062 07A8     		add	r0, sp, #28
 698 0064 FFF7FEFF 		bl	CyBle_Set16ByPtr
 699              	.LVL60:
  43:pamSasd.c     ****         byteCount += sizeof(SasData.SubSessionID);
 700              		.loc 1 43 0
 701 0068 A379     		ldrb	r3, [r4, #6]
 702 006a E179     		ldrb	r1, [r4, #7]
 703 006c 0902     		lsls	r1, r1, #8
ARM GAS  C:\Users\310309~1\AppData\Local\Temp\cczv1s0P.s 			page 18


 704 006e 1943     		orrs	r1, r3
 705 0070 1E20     		movs	r0, #30
 706 0072 6844     		add	r0, r0, sp
 707 0074 FFF7FEFF 		bl	CyBle_Set16ByPtr
 708              	.LVL61:
  46:pamSasd.c     ****         byteCount += sizeof(SasData.RelativeTimestamp);
 709              		.loc 1 46 0
 710 0078 207A     		ldrb	r0, [r4, #8]
 711 007a 637A     		ldrb	r3, [r4, #9]
 712 007c 1B02     		lsls	r3, r3, #8
 713 007e 0343     		orrs	r3, r0
 714 0080 1A00     		movs	r2, r3
 715 0082 A17A     		ldrb	r1, [r4, #10]
 716 0084 0904     		lsls	r1, r1, #16
 717 0086 0B00     		movs	r3, r1
 718 0088 1343     		orrs	r3, r2
 719 008a E17A     		ldrb	r1, [r4, #11]
 720 008c 0906     		lsls	r1, r1, #24
 721 008e 1943     		orrs	r1, r3
 722 0090 08A8     		add	r0, sp, #32
 723 0092 FFF7FEFF 		bl	CyBle_Set32ByPtr
 724              	.LVL62:
  49:pamSasd.c     ****         byteCount += sizeof(SasData.SequenceNumber);
 725              		.loc 1 49 0
 726 0096 207B     		ldrb	r0, [r4, #12]
 727 0098 637B     		ldrb	r3, [r4, #13]
 728 009a 1B02     		lsls	r3, r3, #8
 729 009c 0343     		orrs	r3, r0
 730 009e 1A00     		movs	r2, r3
 731 00a0 A17B     		ldrb	r1, [r4, #14]
 732 00a2 0904     		lsls	r1, r1, #16
 733 00a4 0B00     		movs	r3, r1
 734 00a6 1343     		orrs	r3, r2
 735 00a8 E17B     		ldrb	r1, [r4, #15]
 736 00aa 0906     		lsls	r1, r1, #24
 737 00ac 1943     		orrs	r1, r3
 738 00ae 09A8     		add	r0, sp, #36
 739 00b0 FFF7FEFF 		bl	CyBle_Set32ByPtr
 740              	.LVL63:
 741              	.LBB3:
  59:pamSasd.c     ****         {
 742              		.loc 1 59 0
 743 00b4 0024     		movs	r4, #0
 744              	.LBE3:
  56:pamSasd.c     ****         
 745              		.loc 1 56 0
 746 00b6 0025     		movs	r5, #0
 747              	.LVL64:
 748              	.LBB5:
  59:pamSasd.c     ****         {
 749              		.loc 1 59 0
 750 00b8 24E0     		b	.L42
 751              	.LVL65:
 752              	.L48:
  61:pamSasd.c     ****             {
 753              		.loc 1 61 0
 754 00ba 002C     		cmp	r4, #0
ARM GAS  C:\Users\310309~1\AppData\Local\Temp\cczv1s0P.s 			page 19


 755 00bc 05D1     		bne	.L43
  63:pamSasd.c     ****             }
 756              		.loc 1 63 0
 757 00be 01AA     		add	r2, sp, #4
 758 00c0 3B00     		movs	r3, r7
 759 00c2 7F33     		adds	r3, r3, #127
 760 00c4 1370     		strb	r3, [r2]
 761              	.L45:
 762              	.LBE5:
 763              	.LBE2:
  16:pamSasd.c     ****     CYBLE_GATTS_HANDLE_VALUE_NTF_T tempHandle;
 764              		.loc 1 16 0 discriminator 1
 765 00c6 0122     		movs	r2, #1
 766 00c8 13E0     		b	.L44
 767              	.L43:
 768              	.LBB7:
 769              	.LBB6:
  67:pamSasd.c     ****             }
 770              		.loc 1 67 0
 771 00ca 3B1B     		subs	r3, r7, r4
 772 00cc 013B     		subs	r3, r3, #1
 773 00ce 01AA     		add	r2, sp, #4
 774 00d0 1370     		strb	r3, [r2]
 775 00d2 F8E7     		b	.L45
 776              	.LVL66:
 777              	.L47:
 778              	.LBB4:
  73:pamSasd.c     ****                 {
 779              		.loc 1 73 0
 780 00d4 E300     		lsls	r3, r4, #3
 781 00d6 1B19     		adds	r3, r3, r4
 782 00d8 5B00     		lsls	r3, r3, #1
 783 00da 1B19     		adds	r3, r3, r4
 784 00dc D318     		adds	r3, r2, r3
 785 00de B342     		cmp	r3, r6
 786 00e0 05D2     		bcs	.L46
  75:pamSasd.c     ****                     MessageSize = i + HEADER_SIZE;
 787              		.loc 1 75 0
 788 00e2 06A9     		add	r1, sp, #24
 789              	.LVL67:
 790 00e4 C95C     		ldrb	r1, [r1, r3]
 791              	.LVL68:
 792 00e6 01AB     		add	r3, sp, #4
 793 00e8 9954     		strb	r1, [r3, r2]
  76:pamSasd.c     ****                 }
 794              		.loc 1 76 0
 795 00ea 551C     		adds	r5, r2, #1
 796              	.LVL69:
 797 00ec EDB2     		uxtb	r5, r5
 798              	.LVL70:
 799              	.L46:
  71:pamSasd.c     ****             {
 800              		.loc 1 71 0 discriminator 2
 801 00ee 0132     		adds	r2, r2, #1
 802              	.LVL71:
 803 00f0 D2B2     		uxtb	r2, r2
 804              	.LVL72:
ARM GAS  C:\Users\310309~1\AppData\Local\Temp\cczv1s0P.s 			page 20


 805              	.L44:
  71:pamSasd.c     ****             {
 806              		.loc 1 71 0 is_stmt 0 discriminator 1
 807 00f2 132A     		cmp	r2, #19
 808 00f4 EED9     		bls	.L47
 809              	.LBE4:
  79:pamSasd.c     ****         }
 810              		.loc 1 79 0 is_stmt 1 discriminator 2
 811 00f6 AAB2     		uxth	r2, r5
 812              	.LVL73:
 813 00f8 01A9     		add	r1, sp, #4
 814 00fa 2E20     		movs	r0, #46
 815 00fc FFF7FEFF 		bl	ble_SendIndication
 816              	.LVL74:
  59:pamSasd.c     ****         {
 817              		.loc 1 59 0 discriminator 2
 818 0100 0134     		adds	r4, r4, #1
 819              	.LVL75:
 820 0102 E4B2     		uxtb	r4, r4
 821              	.LVL76:
 822              	.L42:
  59:pamSasd.c     ****         {
 823              		.loc 1 59 0 is_stmt 0 discriminator 1
 824 0104 BC42     		cmp	r4, r7
 825 0106 D8D3     		bcc	.L48
 826              	.LVL77:
 827              	.L40:
 828              	.LBE6:
 829              	.LBE7:
  82:pamSasd.c     **** 
 830              		.loc 1 82 0 is_stmt 1
 831 0108 1BB0     		add	sp, sp, #108
 832              		@ sp needed
 833 010a F0BD     		pop	{r4, r5, r6, r7, pc}
 834              	.L50:
 835              		.align	2
 836              	.L49:
 837 010c 00000000 		.word	SasData
 838 0110 00000000 		.word	cyBle_connHandle
 839 0114 00000000 		.word	sleepactivitysummarydataIndicate
 840 0118 00000000 		.word	.LC5
 841 011c 38000000 		.word	.LC7
 842              		.cfi_endproc
 843              	.LFE36:
 844              		.size	UpdateSasd, .-UpdateSasd
 845              		.comm	sleepactivitysummarydataIndicate,4,4
 846              		.comm	SasData,68,4
 847              		.comm	sessionDescriptorIndicate,1,1
 848              		.comm	pamFeature,8,8
 849              		.comm	send_Deleted_Sessions,1,1
 850              		.comm	Get_Ended_Data_Value,1,1
 851              		.comm	Get_Ended_Data_Sub_SessionID,2,2
 852              		.comm	Get_Ended_Data_SessionID,2,2
 853              		.comm	Enquire_Sub_Sessions_Requested_For_ID,2,2
 854              		.comm	Enquire_Sessions_Requested,2,2
 855              		.section	.rodata.str1.4,"aMS",%progbits,1
 856              		.align	2
ARM GAS  C:\Users\310309~1\AppData\Local\Temp\cczv1s0P.s 			page 21


 857              	.LC5:
 858 0000 534C4545 		.ascii	"SLEEP ACTIVITY SUMMARY DATA presentdatalength = %i\015"
 858      50204143 
 858      54495649 
 858      54592053 
 858      554D4D41 
 859 0033 0A00     		.ascii	"\012\000"
 860 0035 000000   		.space	3
 861              	.LC7:
 862 0038 534C4545 		.ascii	"SLEEP ACTIVITY SUMMARY DATA N = %i\015\012\000"
 862      50204143 
 862      54495649 
 862      54592053 
 862      554D4D41 
 863              		.text
 864              	.Letext0:
 865              		.file 2 "Generated_Source\\PSoC4/cytypes.h"
 866              		.file 3 "Generated_Source\\PSoC4/ble_StackGatt.h"
 867              		.file 4 "Generated_Source\\PSoC4/ble_StackGattServer.h"
 868              		.file 5 "pamSasd.h"
 869              		.file 6 "Generated_Source\\PSoC4/ble_eventHandler.h"
 870              		.file 7 "pams.h"
 871              		.file 8 "pamFeatures.h"
 872              		.file 9 "pamSessDescr.h"
 873              		.file 10 "Generated_Source\\PSoC4/ble.h"
 874              		.file 11 "c:\\program files (x86)\\cypress\\psoc creator\\4.1\\psoc creator\\import\\gnu\\arm\\5.4
 875              		.file 12 "Generated_Source\\PSoC4/ble_StackGattDb.h"
 876              		.file 13 "Generated_Source\\PSoC4/ble_Stack.h"