ARM GAS  C:\Users\310309~1\AppData\Local\Temp\ccsiZNab.s 			page 1


   1              		.syntax unified
   2              		.cpu cortex-m0
   3              		.fpu softvfp
   4              		.eabi_attribute 20, 1
   5              		.eabi_attribute 21, 1
   6              		.eabi_attribute 23, 3
   7              		.eabi_attribute 24, 1
   8              		.eabi_attribute 25, 1
   9              		.eabi_attribute 26, 1
  10              		.eabi_attribute 30, 1
  11              		.eabi_attribute 34, 0
  12              		.eabi_attribute 18, 4
  13              		.thumb
  14              		.syntax unified
  15              		.file	"pamSessDescr.c"
  16              		.text
  17              	.Ltext0:
  18              		.cfi_sections	.debug_frame
  19              		.section	.text.UpdateSessionDescriptor,"ax",%progbits
  20              		.align	2
  21              		.global	UpdateSessionDescriptor
  22              		.code	16
  23              		.thumb_func
  24              		.type	UpdateSessionDescriptor, %function
  25              	UpdateSessionDescriptor:
  26              	.LFB36:
  27              		.file 1 "pamSessDescr.c"
   1:pamSessDescr.c **** /* ========================================
   2:pamSessDescr.c ****  *
   3:pamSessDescr.c ****  * Copyright YOUR COMPANY, THE YEAR
   4:pamSessDescr.c ****  * All Rights Reserved
   5:pamSessDescr.c ****  * UNPUBLISHED, LICENSED SOFTWARE.
   6:pamSessDescr.c ****  *
   7:pamSessDescr.c ****  * CONFIDENTIAL AND PROPRIETARY INFORMATION
   8:pamSessDescr.c ****  * WHICH IS THE PROPERTY OF your company.
   9:pamSessDescr.c ****  *
  10:pamSessDescr.c ****  * ========================================
  11:pamSessDescr.c **** */
  12:pamSessDescr.c **** 
  13:pamSessDescr.c **** #include "pamSessDescr.h"
  14:pamSessDescr.c **** 
  15:pamSessDescr.c **** 
  16:pamSessDescr.c **** CYBIT UpdateSessionDescriptor(PAM_SESSIONDESCRIPTOR_VALUE_T session)
  17:pamSessDescr.c **** {
  28              		.loc 1 17 0
  29              		.cfi_startproc
  30              		@ args = 32, pretend = 16, frame = 32
  31              		@ frame_needed = 0, uses_anonymous_args = 0
  32 0000 84B0     		sub	sp, sp, #16
  33              		.cfi_def_cfa_offset 16
  34 0002 10B5     		push	{r4, lr}
  35              		.cfi_def_cfa_offset 24
  36              		.cfi_offset 4, -24
  37              		.cfi_offset 14, -20
  38 0004 88B0     		sub	sp, sp, #32
  39              		.cfi_def_cfa_offset 56
  40 0006 0A90     		str	r0, [sp, #40]
ARM GAS  C:\Users\310309~1\AppData\Local\Temp\ccsiZNab.s 			page 2


  41 0008 0B91     		str	r1, [sp, #44]
  42 000a 0C92     		str	r2, [sp, #48]
  43 000c 0D93     		str	r3, [sp, #52]
  18:pamSessDescr.c ****     CYBLE_GATTS_HANDLE_VALUE_IND_T tempHandle;
  19:pamSessDescr.c ****     
  20:pamSessDescr.c ****     tempHandle.attrHandle = CYBLE_PHYSICAL_ACTIVITY_MONITOR_SESSION_DESCRIPTOR_CHAR_HANDLE;
  44              		.loc 1 20 0
  45 000e 05A8     		add	r0, sp, #20
  46 0010 3A23     		movs	r3, #58
  47 0012 0381     		strh	r3, [r0, #8]
  21:pamSessDescr.c ****     tempHandle.value.val = (uint8 *)&session;
  48              		.loc 1 21 0
  49 0014 0AAB     		add	r3, sp, #40
  50 0016 0593     		str	r3, [sp, #20]
  22:pamSessDescr.c ****     tempHandle.value.len = sizeof(session);
  51              		.loc 1 22 0
  52 0018 1D23     		movs	r3, #29
  53 001a 8380     		strh	r3, [r0, #4]
  23:pamSessDescr.c ****     CyBle_GattsWriteAttributeValue(&tempHandle, 0, &cyBle_connHandle, 0);
  54              		.loc 1 23 0
  55 001c 0023     		movs	r3, #0
  56 001e 414A     		ldr	r2, .L7
  57 0020 0021     		movs	r1, #0
  58 0022 FFF7FEFF 		bl	CyBle_GattsWriteAttributeValue
  59              	.LVL0:
  24:pamSessDescr.c ****     
  25:pamSessDescr.c ****     if(sessionDescriptorIndicate == 2)
  60              		.loc 1 25 0
  61 0026 404B     		ldr	r3, .L7+4
  62 0028 1B78     		ldrb	r3, [r3]
  63 002a 022B     		cmp	r3, #2
  64 002c 74D1     		bne	.L2
  65              	.LVL1:
  66              	.LBB2:
  26:pamSessDescr.c ****     {
  27:pamSessDescr.c ****         uint8 byteCount = 0u;
  28:pamSessDescr.c ****         
  29:pamSessDescr.c ****         uint8  Message[PAM_MAX_MESSAGE_DATA_SIZE];
  30:pamSessDescr.c ****         
  31:pamSessDescr.c ****         Message[byteCount++] = session.Flags;
  67              		.loc 1 31 0
  68 002e 0AAB     		add	r3, sp, #40
  69 0030 1B78     		ldrb	r3, [r3]
  70 0032 6A46     		mov	r2, sp
  71 0034 1370     		strb	r3, [r2]
  32:pamSessDescr.c ****         CyBle_Set16ByPtr(&Message[byteCount], session.SessionID);
  72              		.loc 1 32 0
  73 0036 0A9B     		ldr	r3, [sp, #40]
  74 0038 1902     		lsls	r1, r3, #8
  75 003a 090C     		lsrs	r1, r1, #16
  76 003c 501C     		adds	r0, r2, #1
  77 003e FFF7FEFF 		bl	CyBle_Set16ByPtr
  78              	.LVL2:
  33:pamSessDescr.c ****         byteCount += 2u;
  34:pamSessDescr.c ****         
  35:pamSessDescr.c ****         if(CHECK_BIT(session.Flags, DESCRIBES_SESSION_FLAG))
  79              		.loc 1 35 0
ARM GAS  C:\Users\310309~1\AppData\Local\Temp\ccsiZNab.s 			page 3


  80 0042 0AAB     		add	r3, sp, #40
  81 0044 1B78     		ldrb	r3, [r3]
  82 0046 DB07     		lsls	r3, r3, #31
  83 0048 28D5     		bpl	.L3
  36:pamSessDescr.c ****         {
  37:pamSessDescr.c ****             //if first flag is set to 1 it is a "Session"
  38:pamSessDescr.c ****                 //include session start base time && session start time offset else exclude
  39:pamSessDescr.c ****             CyBle_Set32ByPtr(&Message[byteCount], session.SessionStartBaseTime);
  84              		.loc 1 39 0
  85 004a 0AAB     		add	r3, sp, #40
  86 004c DB78     		ldrb	r3, [r3, #3]
  87 004e 0B9A     		ldr	r2, [sp, #44]
  88 0050 1102     		lsls	r1, r2, #8
  89 0052 1943     		orrs	r1, r3
  90 0054 6B46     		mov	r3, sp
  91 0056 D81C     		adds	r0, r3, #3
  92 0058 FFF7FEFF 		bl	CyBle_Set32ByPtr
  93              	.LVL3:
  40:pamSessDescr.c ****             byteCount += 4u;
  41:pamSessDescr.c ****             CyBle_Set16ByPtr(&Message[byteCount], session.SessionStartTimeOffset);
  94              		.loc 1 41 0
  95 005c 0AAA     		add	r2, sp, #40
  96 005e D379     		ldrb	r3, [r2, #7]
  97 0060 117A     		ldrb	r1, [r2, #8]
  98 0062 0902     		lsls	r1, r1, #8
  99 0064 1943     		orrs	r1, r3
 100 0066 6B46     		mov	r3, sp
 101 0068 D81D     		adds	r0, r3, #7
 102 006a FFF7FEFF 		bl	CyBle_Set16ByPtr
 103              	.LVL4:
  42:pamSessDescr.c ****             byteCount += 2u;
  43:pamSessDescr.c ****             
  44:pamSessDescr.c ****             if(!CHECK_BIT(session.Flags, SESSION_SUB_SESSION_RUNNING_FLAG))
 104              		.loc 1 44 0
 105 006e 0AAB     		add	r3, sp, #40
 106 0070 1B78     		ldrb	r3, [r3]
 107 0072 9B07     		lsls	r3, r3, #30
 108 0074 44D4     		bmi	.L5
  45:pamSessDescr.c ****             {
  46:pamSessDescr.c ****                 //if second flag is set to 0 it is NOT "Running"
  47:pamSessDescr.c ****                     //include corresponding end time fields
  48:pamSessDescr.c ****                 CyBle_Set32ByPtr(&Message[byteCount], session.SessionEndBaseTime);
 109              		.loc 1 48 0
 110 0076 0C9B     		ldr	r3, [sp, #48]
 111 0078 1B0A     		lsrs	r3, r3, #8
 112 007a 0AAA     		add	r2, sp, #40
 113 007c 117B     		ldrb	r1, [r2, #12]
 114 007e 0906     		lsls	r1, r1, #24
 115 0080 1943     		orrs	r1, r3
 116 0082 0920     		movs	r0, #9
 117 0084 6844     		add	r0, r0, sp
 118 0086 FFF7FEFF 		bl	CyBle_Set32ByPtr
 119              	.LVL5:
  49:pamSessDescr.c ****                 byteCount += 4u;
  50:pamSessDescr.c ****                 CyBle_Set32ByPtr(&Message[byteCount], session.SessionEndTimeOffset);
 120              		.loc 1 50 0
 121 008a 0D9B     		ldr	r3, [sp, #52]
ARM GAS  C:\Users\310309~1\AppData\Local\Temp\ccsiZNab.s 			page 4


 122 008c 1902     		lsls	r1, r3, #8
 123 008e 0914     		asrs	r1, r1, #16
 124 0090 0D20     		movs	r0, #13
 125 0092 6844     		add	r0, r0, sp
 126 0094 FFF7FEFF 		bl	CyBle_Set32ByPtr
 127              	.LVL6:
  51:pamSessDescr.c ****                 byteCount += 2u;
 128              		.loc 1 51 0
 129 0098 0F24     		movs	r4, #15
 130 009a 34E0     		b	.L4
 131              	.LVL7:
 132              	.L3:
  52:pamSessDescr.c ****             }
  53:pamSessDescr.c ****             //if second flag is set to 1 it is "Running"
  54:pamSessDescr.c ****                 //Do not include extra fields
  55:pamSessDescr.c ****         }
  56:pamSessDescr.c ****         else
  57:pamSessDescr.c ****         {
  58:pamSessDescr.c ****             //if first flag is set to 0 it is a "Sub-Session"
  59:pamSessDescr.c ****                 //include subsessionID && subsession start base time && subsession start time offse
  60:pamSessDescr.c ****             CyBle_Set16ByPtr(&Message[byteCount], session.SubSessionID);
 133              		.loc 1 60 0
 134 009c 0AAA     		add	r2, sp, #40
 135 009e D37B     		ldrb	r3, [r2, #15]
 136 00a0 117C     		ldrb	r1, [r2, #16]
 137 00a2 0902     		lsls	r1, r1, #8
 138 00a4 1943     		orrs	r1, r3
 139 00a6 6B46     		mov	r3, sp
 140 00a8 D81C     		adds	r0, r3, #3
 141 00aa FFF7FEFF 		bl	CyBle_Set16ByPtr
 142              	.LVL8:
  61:pamSessDescr.c ****             byteCount += 2u;
  62:pamSessDescr.c ****             CyBle_Set32ByPtr(&Message[byteCount], session.SubSessionStartBaseTime);
 143              		.loc 1 62 0
 144 00ae 0E9B     		ldr	r3, [sp, #56]
 145 00b0 1B0A     		lsrs	r3, r3, #8
 146 00b2 0AAA     		add	r2, sp, #40
 147 00b4 117D     		ldrb	r1, [r2, #20]
 148 00b6 0906     		lsls	r1, r1, #24
 149 00b8 1943     		orrs	r1, r3
 150 00ba 6B46     		mov	r3, sp
 151 00bc 581D     		adds	r0, r3, #5
 152 00be FFF7FEFF 		bl	CyBle_Set32ByPtr
 153              	.LVL9:
  63:pamSessDescr.c ****             byteCount += 4u;
  64:pamSessDescr.c ****             CyBle_Set16ByPtr(&Message[byteCount], session.SubSessionStartTimeOffset);
 154              		.loc 1 64 0
 155 00c2 0F9B     		ldr	r3, [sp, #60]
 156 00c4 1902     		lsls	r1, r3, #8
 157 00c6 090C     		lsrs	r1, r1, #16
 158 00c8 0920     		movs	r0, #9
 159 00ca 6844     		add	r0, r0, sp
 160 00cc FFF7FEFF 		bl	CyBle_Set16ByPtr
 161              	.LVL10:
  65:pamSessDescr.c ****             byteCount += 2u;
  66:pamSessDescr.c ****             
  67:pamSessDescr.c ****             if(!CHECK_BIT(session.Flags, SESSION_SUB_SESSION_RUNNING_FLAG))
ARM GAS  C:\Users\310309~1\AppData\Local\Temp\ccsiZNab.s 			page 5


 162              		.loc 1 67 0
 163 00d0 0AAB     		add	r3, sp, #40
 164 00d2 1B78     		ldrb	r3, [r3]
 165 00d4 9B07     		lsls	r3, r3, #30
 166 00d6 15D4     		bmi	.L6
  68:pamSessDescr.c ****             {
  69:pamSessDescr.c ****                 //if second flag is set to 0 it is NOT "Running"
  70:pamSessDescr.c ****                     //include corresponding end time fields
  71:pamSessDescr.c ****                 CyBle_Set32ByPtr(&Message[byteCount], session.SubSessionEndBaseTime);
 167              		.loc 1 71 0
 168 00d8 0AAB     		add	r3, sp, #40
 169 00da DB7D     		ldrb	r3, [r3, #23]
 170 00dc 109A     		ldr	r2, [sp, #64]
 171 00de 1102     		lsls	r1, r2, #8
 172 00e0 1943     		orrs	r1, r3
 173 00e2 0B20     		movs	r0, #11
 174 00e4 6844     		add	r0, r0, sp
 175 00e6 FFF7FEFF 		bl	CyBle_Set32ByPtr
 176              	.LVL11:
  72:pamSessDescr.c ****                 byteCount += 4u;
  73:pamSessDescr.c ****                 CyBle_Set16ByPtr(&Message[byteCount], session.SubSessionEndTimeOffset);
 177              		.loc 1 73 0
 178 00ea 0AAA     		add	r2, sp, #40
 179 00ec D37E     		ldrb	r3, [r2, #27]
 180 00ee 117F     		ldrb	r1, [r2, #28]
 181 00f0 0902     		lsls	r1, r1, #8
 182 00f2 1943     		orrs	r1, r3
 183 00f4 0F20     		movs	r0, #15
 184 00f6 6844     		add	r0, r0, sp
 185 00f8 FFF7FEFF 		bl	CyBle_Set16ByPtr
 186              	.LVL12:
  74:pamSessDescr.c ****                 byteCount += 2u;
 187              		.loc 1 74 0
 188 00fc 1124     		movs	r4, #17
 189 00fe 02E0     		b	.L4
 190              	.LVL13:
 191              	.L5:
  42:pamSessDescr.c ****             
 192              		.loc 1 42 0
 193 0100 0924     		movs	r4, #9
 194 0102 00E0     		b	.L4
 195              	.LVL14:
 196              	.L6:
  65:pamSessDescr.c ****             
 197              		.loc 1 65 0
 198 0104 0B24     		movs	r4, #11
 199              	.LVL15:
 200              	.L4:
  75:pamSessDescr.c ****             }
  76:pamSessDescr.c ****             //if second flag is set to 1 it is "Running"
  77:pamSessDescr.c ****                 //Do not include extra fields
  78:pamSessDescr.c ****         }
  79:pamSessDescr.c ****         
  80:pamSessDescr.c ****         //if third flag is set to 1 it is a "DELETED" session
  81:pamSessDescr.c ****         //if third flag is set to 0 it is NOT "DELETED" session
  82:pamSessDescr.c ****     
  83:pamSessDescr.c ****         DBG_PRINTF("SESSION DESCRIPTOR SIZE = %i \r\n", byteCount);
ARM GAS  C:\Users\310309~1\AppData\Local\Temp\ccsiZNab.s 			page 6


 201              		.loc 1 83 0 discriminator 1
 202 0106 2100     		movs	r1, r4
 203 0108 0848     		ldr	r0, .L7+8
 204 010a FFF7FEFF 		bl	printf
 205              	.LVL16:
  84:pamSessDescr.c ****         ble_SendIndication(CYBLE_PHYSICAL_ACTIVITY_MONITOR_SESSION_DESCRIPTOR_CHAR_HANDLE, Message,
 206              		.loc 1 84 0 discriminator 1
 207 010e A2B2     		uxth	r2, r4
 208 0110 6946     		mov	r1, sp
 209 0112 3A20     		movs	r0, #58
 210 0114 FFF7FEFF 		bl	ble_SendIndication
 211              	.LVL17:
 212              	.L2:
 213              	.LBE2:
  85:pamSessDescr.c ****     }
  86:pamSessDescr.c ****     
  87:pamSessDescr.c ****     return FALSE;
  88:pamSessDescr.c **** }
 214              		.loc 1 88 0
 215 0118 0020     		movs	r0, #0
 216 011a 08B0     		add	sp, sp, #32
 217              		@ sp needed
 218 011c 10BC     		pop	{r4}
 219 011e 08BC     		pop	{r3}
 220 0120 04B0     		add	sp, sp, #16
 221 0122 1847     		bx	r3
 222              	.L8:
 223              		.align	2
 224              	.L7:
 225 0124 00000000 		.word	cyBle_connHandle
 226 0128 00000000 		.word	sessionDescriptorIndicate
 227 012c 00000000 		.word	.LC2
 228              		.cfi_endproc
 229              	.LFE36:
 230              		.size	UpdateSessionDescriptor, .-UpdateSessionDescriptor
 231              		.comm	sessionDescriptorIndicate,1,1
 232              		.comm	pamFeature,8,8
 233              		.comm	UserDefinedActivityTypeAllSubSessions,625,4
 234              		.comm	Update_GASD_With_New_Activity,1,1
 235              		.comm	send_Deleted_Sessions,1,1
 236              		.comm	Get_Ended_Data_Value,1,1
 237              		.comm	Get_Ended_Data_Sub_SessionID,2,2
 238              		.comm	Get_Ended_Data_SessionID,2,2
 239              		.comm	Enquire_Sub_Sessions_Requested_For_ID,2,2
 240              		.comm	Enquire_Sessions_Requested,2,2
 241              		.section	.rodata.str1.4,"aMS",%progbits,1
 242              		.align	2
 243              	.LC2:
 244 0000 53455353 		.ascii	"SESSION DESCRIPTOR SIZE = %i \015\012\000"
 244      494F4E20 
 244      44455343 
 244      52495054 
 244      4F522053 
 245              		.text
 246              	.Letext0:
 247              		.file 2 "Generated_Source\\PSoC4/cytypes.h"
 248              		.file 3 "Generated_Source\\PSoC4/ble_StackGatt.h"
ARM GAS  C:\Users\310309~1\AppData\Local\Temp\ccsiZNab.s 			page 7


 249              		.file 4 "Generated_Source\\PSoC4/ble_StackGattServer.h"
 250              		.file 5 "Generated_Source\\PSoC4/ble_Stack.h"
 251              		.file 6 "Generated_Source\\PSoC4/ble_dis.h"
 252              		.file 7 "pamSessDescr.h"
 253              		.file 8 "Generated_Source\\PSoC4/ble_eventHandler.h"
 254              		.file 9 "pams.h"
 255              		.file 10 "pamFeatures.h"
 256              		.file 11 "Generated_Source\\PSoC4/ble.h"
 257              		.file 12 "c:\\program files (x86)\\cypress\\psoc creator\\4.1\\psoc creator\\import\\gnu\\arm\\5.4
 258              		.file 13 "Generated_Source\\PSoC4/ble_StackGattDb.h"