ARM GAS  C:\Users\310309~1\AppData\Local\Temp\ccQ8h8Yd.s 			page 1


   1              		.syntax unified
   2              		.cpu cortex-m0
   3              		.fpu softvfp
   4              		.eabi_attribute 20, 1
   5              		.eabi_attribute 21, 1
   6              		.eabi_attribute 23, 3
   7              		.eabi_attribute 24, 1
   8              		.eabi_attribute 25, 1
   9              		.eabi_attribute 26, 1
  10              		.eabi_attribute 30, 1
  11              		.eabi_attribute 34, 0
  12              		.eabi_attribute 18, 4
  13              		.thumb
  14              		.syntax unified
  15              		.file	"pamSaid.c"
  16              		.text
  17              	.Ltext0:
  18              		.cfi_sections	.debug_frame
  19              		.section	.text.getPresentSaidFields,"ax",%progbits
  20              		.align	2
  21              		.global	getPresentSaidFields
  22              		.code	16
  23              		.thumb_func
  24              		.type	getPresentSaidFields, %function
  25              	getPresentSaidFields:
  26              	.LFB37:
  27              		.file 1 "pamSaid.c"
   1:pamSaid.c     **** /* ========================================
   2:pamSaid.c     ****  *
   3:pamSaid.c     ****  * Copyright YOUR COMPANY, THE YEAR
   4:pamSaid.c     ****  * All Rights Reserved
   5:pamSaid.c     ****  * UNPUBLISHED, LICENSED SOFTWARE.
   6:pamSaid.c     ****  *
   7:pamSaid.c     ****  * CONFIDENTIAL AND PROPRIETARY INFORMATION
   8:pamSaid.c     ****  * WHICH IS THE PROPERTY OF your company.
   9:pamSaid.c     ****  *
  10:pamSaid.c     ****  * ========================================
  11:pamSaid.c     **** */
  12:pamSaid.c     **** 
  13:pamSaid.c     **** #include "pamSaid.h"
  14:pamSaid.c     **** 
  15:pamSaid.c     **** void UpdateSaid(void)
  16:pamSaid.c     **** {
  17:pamSaid.c     ****     CYBLE_GATTS_HANDLE_VALUE_NTF_T tempHandle;
  18:pamSaid.c     ****     
  19:pamSaid.c     ****     tempHandle.attrHandle = CYBLE_PHYSICAL_ACTIVITY_MONITOR_SLEEP_ACTIVITY_INSTANTANEOUS_DATA_CHAR_
  20:pamSaid.c     ****     tempHandle.value.val = (uint8 *)&SaiData;
  21:pamSaid.c     ****     tempHandle.value.len = sizeof(SaiData);
  22:pamSaid.c     ****     CyBle_GattsWriteAttributeValue(&tempHandle, 0, &cyBle_connHandle, 0);
  23:pamSaid.c     ****     
  24:pamSaid.c     ****     if(sleepactivityinstantaneousdataNotify)
  25:pamSaid.c     ****     {
  26:pamSaid.c     ****         uint8 PresentData[sizeof(SaiData)];
  27:pamSaid.c     ****         
  28:pamSaid.c     ****         uint8 presentDataLength = getPresentSaidFields(PresentData);
  29:pamSaid.c     ****         DBG_PRINTF("SLEEP ACTIVITY INSTANTANEOUS DATA presentdatalength = %i\r\n", presentDataLengt
  30:pamSaid.c     ****         uint8 N = calculateNumberOfMessages(presentDataLength);
ARM GAS  C:\Users\310309~1\AppData\Local\Temp\ccQ8h8Yd.s 			page 2


  31:pamSaid.c     ****         DBG_PRINTF("SLEEP ACTIVITY INSTANTANEOUS DATA N = %i\r\n", N);
  32:pamSaid.c     ****         
  33:pamSaid.c     ****         uint8 byteCount = 1u;//Starts at 1 because 0 is the header field
  34:pamSaid.c     ****         
  35:pamSaid.c     ****         CyBle_Set16ByPtr(&PresentData[byteCount], SaiData.Flags);
  36:pamSaid.c     ****         byteCount += sizeof(SaiData.Flags);
  37:pamSaid.c     ****         
  38:pamSaid.c     ****         CyBle_Set16ByPtr(&PresentData[byteCount], SaiData.SessionID);
  39:pamSaid.c     ****         byteCount += sizeof(SaiData.SessionID);
  40:pamSaid.c     ****         
  41:pamSaid.c     ****         CyBle_Set16ByPtr(&PresentData[byteCount], SaiData.SubSessionID);
  42:pamSaid.c     ****         byteCount += sizeof(SaiData.SubSessionID);
  43:pamSaid.c     ****         
  44:pamSaid.c     ****         CyBle_Set32ByPtr(&PresentData[byteCount], SaiData.RelativeTimestamp);
  45:pamSaid.c     ****         byteCount += sizeof(SaiData.RelativeTimestamp);
  46:pamSaid.c     ****         
  47:pamSaid.c     ****         CyBle_Set32ByPtr(&PresentData[byteCount], SaiData.SequenceNumber);
  48:pamSaid.c     ****         byteCount += sizeof(SaiData.SequenceNumber);
  49:pamSaid.c     ****         //size = 15
  50:pamSaid.c     ****         
  51:pamSaid.c     ****         char* my_struct_in_bytes = (char*)(&PresentData);
  52:pamSaid.c     ****         
  53:pamSaid.c     ****         uint8 Message[PAM_MAX_MESSAGE_DATA_SIZE + HEADER_SIZE];
  54:pamSaid.c     ****         uint8 MessageSize = 0;
  55:pamSaid.c     ****         
  56:pamSaid.c     ****         
  57:pamSaid.c     ****         for(uint8 x = 0; x < N; x++)
  58:pamSaid.c     ****         {
  59:pamSaid.c     ****             if(x == 0)
  60:pamSaid.c     ****             {
  61:pamSaid.c     ****                 Message[0] = 0x80 + N - 1;
  62:pamSaid.c     ****             }
  63:pamSaid.c     ****             else
  64:pamSaid.c     ****             {
  65:pamSaid.c     ****                 Message[0] = 0x00 + N - 1 - x;
  66:pamSaid.c     ****             }
  67:pamSaid.c     ****             
  68:pamSaid.c     ****             
  69:pamSaid.c     ****             for(uint8 i = 1; i < PAM_MAX_MESSAGE_DATA_SIZE + HEADER_SIZE; i++)
  70:pamSaid.c     ****             {
  71:pamSaid.c     ****                 if((x * PAM_MAX_MESSAGE_DATA_SIZE + i) < presentDataLength)
  72:pamSaid.c     ****                 {
  73:pamSaid.c     ****                     Message[i] = my_struct_in_bytes[i + x * PAM_MAX_MESSAGE_DATA_SIZE];
  74:pamSaid.c     ****                     MessageSize = i + HEADER_SIZE;
  75:pamSaid.c     ****                 }
  76:pamSaid.c     ****             }
  77:pamSaid.c     ****             ble_SendNotification(CYBLE_PHYSICAL_ACTIVITY_MONITOR_SLEEP_ACTIVITY_INSTANTANEOUS_DATA_
  78:pamSaid.c     ****         }
  79:pamSaid.c     ****     }
  80:pamSaid.c     **** }
  81:pamSaid.c     **** 
  82:pamSaid.c     **** 
  83:pamSaid.c     **** uint8 getPresentSaidFields(uint8 *PresentData)
  84:pamSaid.c     **** {
  28              		.loc 1 84 0
  29              		.cfi_startproc
  30              		@ args = 0, pretend = 0, frame = 0
ARM GAS  C:\Users\310309~1\AppData\Local\Temp\ccQ8h8Yd.s 			page 3


  31              		@ frame_needed = 0, uses_anonymous_args = 0
  32              	.LVL0:
  33 0000 10B5     		push	{r4, lr}
  34              		.cfi_def_cfa_offset 8
  35              		.cfi_offset 4, -8
  36              		.cfi_offset 14, -4
  37 0002 0300     		movs	r3, r0
  38              	.LVL1:
  85:pamSaid.c     ****     uint8 length = ALWAYS_PRESENT_SAID_FIELD_LENGTH;
  86:pamSaid.c     ****     
  87:pamSaid.c     ****     if(CHECK_BIT(SaiData.Flags, 1/*VISIBLE LIGHT LEVEL PRESENT*/) &&
  39              		.loc 1 87 0
  40 0004 2A4A     		ldr	r2, .L14
  41 0006 5278     		ldrb	r2, [r2, #1]
  42 0008 9207     		lsls	r2, r2, #30
  43 000a 0CD5     		bpl	.L12
  88:pamSaid.c     ****        CHECK_BIT(pamFeature, VISIBLE_LIGHT_LEVEL_SUPPORTED))
  44              		.loc 1 88 0 discriminator 1
  45 000c 294A     		ldr	r2, .L14+4
  46 000e 5268     		ldr	r2, [r2, #4]
  87:pamSaid.c     ****        CHECK_BIT(pamFeature, VISIBLE_LIGHT_LEVEL_SUPPORTED))
  47              		.loc 1 87 0 discriminator 1
  48 0010 9203     		lsls	r2, r2, #14
  49 0012 0AD5     		bpl	.L13
  89:pamSaid.c     ****     {
  90:pamSaid.c     ****         PresentData[length] = SaiData.VisibleLightLevel[0];
  50              		.loc 1 90 0 discriminator 1
  51 0014 264A     		ldr	r2, .L14
  52 0016 D17B     		ldrb	r1, [r2, #15]
  53 0018 C173     		strb	r1, [r0, #15]
  91:pamSaid.c     ****         PresentData[length+1] = SaiData.VisibleLightLevel[1];
  54              		.loc 1 91 0 discriminator 1
  55 001a 117C     		ldrb	r1, [r2, #16]
  56 001c 0174     		strb	r1, [r0, #16]
  92:pamSaid.c     ****         PresentData[length+2] = SaiData.VisibleLightLevel[2];
  57              		.loc 1 92 0 discriminator 1
  58 001e 527C     		ldrb	r2, [r2, #17]
  59 0020 4274     		strb	r2, [r0, #17]
  60              	.LVL2:
  93:pamSaid.c     ****         length += sizeof(SaiData.VisibleLightLevel);
  61              		.loc 1 93 0 discriminator 1
  62 0022 1220     		movs	r0, #18
  63              	.LVL3:
  64 0024 02E0     		b	.L2
  65              	.LVL4:
  66              	.L12:
  85:pamSaid.c     ****     
  67              		.loc 1 85 0
  68 0026 0F20     		movs	r0, #15
  69              	.LVL5:
  70 0028 00E0     		b	.L2
  71              	.LVL6:
  72              	.L13:
  73 002a 0F20     		movs	r0, #15
  74              	.LVL7:
  75              	.L2:
  94:pamSaid.c     ****     }
ARM GAS  C:\Users\310309~1\AppData\Local\Temp\ccQ8h8Yd.s 			page 4


  95:pamSaid.c     ****     if(CHECK_BIT(SaiData.Flags, 1/*UV LIGHT LEVEL PRESENT*/) &&
  76              		.loc 1 95 0
  77 002c 204A     		ldr	r2, .L14
  78 002e 5278     		ldrb	r2, [r2, #1]
  79 0030 9207     		lsls	r2, r2, #30
  80 0032 0ED5     		bpl	.L4
  96:pamSaid.c     ****        CHECK_BIT(pamFeature, UV_LIGHT_LEVEL_SUPPORTED))
  81              		.loc 1 96 0 discriminator 1
  82 0034 1F4A     		ldr	r2, .L14+4
  83 0036 5268     		ldr	r2, [r2, #4]
  95:pamSaid.c     ****        CHECK_BIT(pamFeature, UV_LIGHT_LEVEL_SUPPORTED))
  84              		.loc 1 95 0 discriminator 1
  85 0038 5203     		lsls	r2, r2, #13
  86 003a 0AD5     		bpl	.L4
  97:pamSaid.c     ****     {
  98:pamSaid.c     ****         PresentData[length] = SaiData.UVLightLevel[0];
  87              		.loc 1 98 0 discriminator 1
  88 003c 1C4A     		ldr	r2, .L14
  89 003e 917C     		ldrb	r1, [r2, #18]
  90 0040 1954     		strb	r1, [r3, r0]
  99:pamSaid.c     ****         PresentData[length+1] = SaiData.UVLightLevel[1];
  91              		.loc 1 99 0 discriminator 1
  92 0042 411C     		adds	r1, r0, #1
  93 0044 D47C     		ldrb	r4, [r2, #19]
  94 0046 5C54     		strb	r4, [r3, r1]
 100:pamSaid.c     ****         PresentData[length+2] = SaiData.UVLightLevel[2];
  95              		.loc 1 100 0 discriminator 1
  96 0048 811C     		adds	r1, r0, #2
  97 004a 127D     		ldrb	r2, [r2, #20]
  98 004c 5A54     		strb	r2, [r3, r1]
 101:pamSaid.c     ****         length += sizeof(SaiData.UVLightLevel);
  99              		.loc 1 101 0 discriminator 1
 100 004e 0330     		adds	r0, r0, #3
 101              	.LVL8:
 102 0050 C0B2     		uxtb	r0, r0
 103              	.LVL9:
 104              	.L4:
 102:pamSaid.c     ****     }
 103:pamSaid.c     ****     if(CHECK_BIT(SaiData.Flags, 1/*IR LIGHT LEVEL PRESENT*/) &&
 105              		.loc 1 103 0
 106 0052 174A     		ldr	r2, .L14
 107 0054 5278     		ldrb	r2, [r2, #1]
 108 0056 9207     		lsls	r2, r2, #30
 109 0058 0ED5     		bpl	.L6
 104:pamSaid.c     ****        CHECK_BIT(pamFeature, IR_LIGHT_LEVEL_SUPPORTED))
 110              		.loc 1 104 0 discriminator 1
 111 005a 164A     		ldr	r2, .L14+4
 112 005c 5268     		ldr	r2, [r2, #4]
 103:pamSaid.c     ****        CHECK_BIT(pamFeature, IR_LIGHT_LEVEL_SUPPORTED))
 113              		.loc 1 103 0 discriminator 1
 114 005e 1203     		lsls	r2, r2, #12
 115 0060 0AD5     		bpl	.L6
 105:pamSaid.c     ****     {
 106:pamSaid.c     ****         PresentData[length] = SaiData.IRLightLevel[0];
 116              		.loc 1 106 0 discriminator 1
 117 0062 134A     		ldr	r2, .L14
 118 0064 517D     		ldrb	r1, [r2, #21]
ARM GAS  C:\Users\310309~1\AppData\Local\Temp\ccQ8h8Yd.s 			page 5


 119 0066 1954     		strb	r1, [r3, r0]
 107:pamSaid.c     ****         PresentData[length+1] = SaiData.IRLightLevel[1];
 120              		.loc 1 107 0 discriminator 1
 121 0068 411C     		adds	r1, r0, #1
 122 006a 947D     		ldrb	r4, [r2, #22]
 123 006c 5C54     		strb	r4, [r3, r1]
 108:pamSaid.c     ****         PresentData[length+2] = SaiData.IRLightLevel[2];
 124              		.loc 1 108 0 discriminator 1
 125 006e 811C     		adds	r1, r0, #2
 126 0070 D27D     		ldrb	r2, [r2, #23]
 127 0072 5A54     		strb	r2, [r3, r1]
 109:pamSaid.c     ****         length += sizeof(SaiData.IRLightLevel);
 128              		.loc 1 109 0 discriminator 1
 129 0074 0330     		adds	r0, r0, #3
 130              	.LVL10:
 131 0076 C0B2     		uxtb	r0, r0
 132              	.LVL11:
 133              	.L6:
 110:pamSaid.c     ****     }
 111:pamSaid.c     ****     if(CHECK_BIT(SaiData.Flags, 1/*SLEEP STAGE PRESENT*/) &&
 134              		.loc 1 111 0
 135 0078 0D4A     		ldr	r2, .L14
 136 007a 5278     		ldrb	r2, [r2, #1]
 137 007c 9207     		lsls	r2, r2, #30
 138 007e 08D5     		bpl	.L8
 112:pamSaid.c     ****        CHECK_BIT(pamFeature, SLEEP_STAGE_SUPPORTED))
 139              		.loc 1 112 0 discriminator 1
 140 0080 0C4A     		ldr	r2, .L14+4
 141 0082 5268     		ldr	r2, [r2, #4]
 111:pamSaid.c     ****        CHECK_BIT(pamFeature, SLEEP_STAGE_SUPPORTED))
 142              		.loc 1 111 0 discriminator 1
 143 0084 D202     		lsls	r2, r2, #11
 144 0086 04D5     		bpl	.L8
 113:pamSaid.c     ****     {
 114:pamSaid.c     ****         PresentData[length] = SaiData.SleepStage;
 145              		.loc 1 114 0 discriminator 1
 146 0088 094A     		ldr	r2, .L14
 147 008a 127E     		ldrb	r2, [r2, #24]
 148 008c 1A54     		strb	r2, [r3, r0]
 115:pamSaid.c     ****         length += sizeof(SaiData.SleepStage);
 149              		.loc 1 115 0 discriminator 1
 150 008e 0130     		adds	r0, r0, #1
 151              	.LVL12:
 152 0090 C0B2     		uxtb	r0, r0
 153              	.LVL13:
 154              	.L8:
 116:pamSaid.c     ****     }
 117:pamSaid.c     ****     if(CHECK_BIT(SaiData.Flags, 1/*SLEEPING HEART RATE PRESENT*/) &&
 155              		.loc 1 117 0
 156 0092 074A     		ldr	r2, .L14
 157 0094 5278     		ldrb	r2, [r2, #1]
 158 0096 9207     		lsls	r2, r2, #30
 159 0098 08D5     		bpl	.L10
 118:pamSaid.c     ****        CHECK_BIT(pamFeature, SLEEPING_HEART_RATE_SUPPORTED))
 160              		.loc 1 118 0 discriminator 1
 161 009a 064A     		ldr	r2, .L14+4
 162 009c 5268     		ldr	r2, [r2, #4]
ARM GAS  C:\Users\310309~1\AppData\Local\Temp\ccQ8h8Yd.s 			page 6


 117:pamSaid.c     ****        CHECK_BIT(pamFeature, SLEEPING_HEART_RATE_SUPPORTED))
 163              		.loc 1 117 0 discriminator 1
 164 009e 9202     		lsls	r2, r2, #10
 165 00a0 04D5     		bpl	.L10
 119:pamSaid.c     ****     {
 120:pamSaid.c     ****         PresentData[length] = SaiData.SleepingHeartRate;
 166              		.loc 1 120 0 discriminator 1
 167 00a2 034A     		ldr	r2, .L14
 168 00a4 527E     		ldrb	r2, [r2, #25]
 169 00a6 1A54     		strb	r2, [r3, r0]
 121:pamSaid.c     ****         length += sizeof(SaiData.SleepingHeartRate);
 170              		.loc 1 121 0 discriminator 1
 171 00a8 0130     		adds	r0, r0, #1
 172              	.LVL14:
 173 00aa C0B2     		uxtb	r0, r0
 174              	.LVL15:
 175              	.L10:
 122:pamSaid.c     ****     }
 123:pamSaid.c     ****     
 124:pamSaid.c     ****     return length;
 125:pamSaid.c     **** }
 176              		.loc 1 125 0
 177              		@ sp needed
 178 00ac 10BD     		pop	{r4, pc}
 179              	.L15:
 180 00ae C046     		.align	2
 181              	.L14:
 182 00b0 00000000 		.word	SaiData
 183 00b4 00000000 		.word	pamFeature
 184              		.cfi_endproc
 185              	.LFE37:
 186              		.size	getPresentSaidFields, .-getPresentSaidFields
 187              		.global	__aeabi_ui2d
 188              		.section	.text.UpdateSaid,"ax",%progbits
 189              		.align	2
 190              		.global	UpdateSaid
 191              		.code	16
 192              		.thumb_func
 193              		.type	UpdateSaid, %function
 194              	UpdateSaid:
 195              	.LFB36:
  16:pamSaid.c     ****     CYBLE_GATTS_HANDLE_VALUE_NTF_T tempHandle;
 196              		.loc 1 16 0
 197              		.cfi_startproc
 198              		@ args = 0, pretend = 0, frame = 64
 199              		@ frame_needed = 0, uses_anonymous_args = 0
 200 0000 F0B5     		push	{r4, r5, r6, r7, lr}
 201              		.cfi_def_cfa_offset 20
 202              		.cfi_offset 4, -20
 203              		.cfi_offset 5, -16
 204              		.cfi_offset 6, -12
 205              		.cfi_offset 7, -8
 206              		.cfi_offset 14, -4
 207 0002 91B0     		sub	sp, sp, #68
 208              		.cfi_def_cfa_offset 88
  19:pamSaid.c     ****     tempHandle.value.val = (uint8 *)&SaiData;
 209              		.loc 1 19 0
ARM GAS  C:\Users\310309~1\AppData\Local\Temp\ccQ8h8Yd.s 			page 7


 210 0004 0DA8     		add	r0, sp, #52
 211 0006 2A23     		movs	r3, #42
 212 0008 0381     		strh	r3, [r0, #8]
  20:pamSaid.c     ****     tempHandle.value.len = sizeof(SaiData);
 213              		.loc 1 20 0
 214 000a 424B     		ldr	r3, .L25
 215 000c 0D93     		str	r3, [sp, #52]
  21:pamSaid.c     ****     CyBle_GattsWriteAttributeValue(&tempHandle, 0, &cyBle_connHandle, 0);
 216              		.loc 1 21 0
 217 000e 1A23     		movs	r3, #26
 218 0010 8380     		strh	r3, [r0, #4]
  22:pamSaid.c     ****     
 219              		.loc 1 22 0
 220 0012 0023     		movs	r3, #0
 221 0014 404A     		ldr	r2, .L25+4
 222 0016 0021     		movs	r1, #0
 223 0018 FFF7FEFF 		bl	CyBle_GattsWriteAttributeValue
 224              	.LVL16:
  24:pamSaid.c     ****     {
 225              		.loc 1 24 0
 226 001c 3F4B     		ldr	r3, .L25+8
 227 001e 1B68     		ldr	r3, [r3]
 228 0020 002B     		cmp	r3, #0
 229 0022 75D0     		beq	.L16
 230              	.LBB2:
  28:pamSaid.c     ****         DBG_PRINTF("SLEEP ACTIVITY INSTANTANEOUS DATA presentdatalength = %i\r\n", presentDataLengt
 231              		.loc 1 28 0
 232 0024 06A8     		add	r0, sp, #24
 233 0026 FFF7FEFF 		bl	getPresentSaidFields
 234              	.LVL17:
 235 002a 0400     		movs	r4, r0
 236 002c 0600     		movs	r6, r0
 237              	.LVL18:
  29:pamSaid.c     ****         uint8 N = calculateNumberOfMessages(presentDataLength);
 238              		.loc 1 29 0
 239 002e 0100     		movs	r1, r0
 240 0030 3B48     		ldr	r0, .L25+12
 241              	.LVL19:
 242 0032 FFF7FEFF 		bl	printf
 243              	.LVL20:
  30:pamSaid.c     ****         DBG_PRINTF("SLEEP ACTIVITY INSTANTANEOUS DATA N = %i\r\n", N);
 244              		.loc 1 30 0
 245 0036 2000     		movs	r0, r4
 246 0038 FFF7FEFF 		bl	__aeabi_ui2d
 247              	.LVL21:
 248 003c FFF7FEFF 		bl	calculateNumberOfMessages
 249              	.LVL22:
 250 0040 0100     		movs	r1, r0
 251 0042 0700     		movs	r7, r0
 252              	.LVL23:
  31:pamSaid.c     ****         
 253              		.loc 1 31 0
 254 0044 3748     		ldr	r0, .L25+16
 255 0046 FFF7FEFF 		bl	printf
 256              	.LVL24:
  35:pamSaid.c     ****         byteCount += sizeof(SaiData.Flags);
 257              		.loc 1 35 0
ARM GAS  C:\Users\310309~1\AppData\Local\Temp\ccQ8h8Yd.s 			page 8


 258 004a 324C     		ldr	r4, .L25
 259 004c 6378     		ldrb	r3, [r4, #1]
 260 004e A178     		ldrb	r1, [r4, #2]
 261 0050 0902     		lsls	r1, r1, #8
 262 0052 1943     		orrs	r1, r3
 263 0054 1920     		movs	r0, #25
 264 0056 6844     		add	r0, r0, sp
 265 0058 FFF7FEFF 		bl	CyBle_Set16ByPtr
 266              	.LVL25:
  38:pamSaid.c     ****         byteCount += sizeof(SaiData.SessionID);
 267              		.loc 1 38 0
 268 005c E378     		ldrb	r3, [r4, #3]
 269 005e 2179     		ldrb	r1, [r4, #4]
 270 0060 0902     		lsls	r1, r1, #8
 271 0062 1943     		orrs	r1, r3
 272 0064 1B20     		movs	r0, #27
 273 0066 6844     		add	r0, r0, sp
 274 0068 FFF7FEFF 		bl	CyBle_Set16ByPtr
 275              	.LVL26:
  41:pamSaid.c     ****         byteCount += sizeof(SaiData.SubSessionID);
 276              		.loc 1 41 0
 277 006c 6379     		ldrb	r3, [r4, #5]
 278 006e A179     		ldrb	r1, [r4, #6]
 279 0070 0902     		lsls	r1, r1, #8
 280 0072 1943     		orrs	r1, r3
 281 0074 1D20     		movs	r0, #29
 282 0076 6844     		add	r0, r0, sp
 283 0078 FFF7FEFF 		bl	CyBle_Set16ByPtr
 284              	.LVL27:
  44:pamSaid.c     ****         byteCount += sizeof(SaiData.RelativeTimestamp);
 285              		.loc 1 44 0
 286 007c E079     		ldrb	r0, [r4, #7]
 287 007e 237A     		ldrb	r3, [r4, #8]
 288 0080 1B02     		lsls	r3, r3, #8
 289 0082 0343     		orrs	r3, r0
 290 0084 1A00     		movs	r2, r3
 291 0086 617A     		ldrb	r1, [r4, #9]
 292 0088 0904     		lsls	r1, r1, #16
 293 008a 0B00     		movs	r3, r1
 294 008c 1343     		orrs	r3, r2
 295 008e A17A     		ldrb	r1, [r4, #10]
 296 0090 0906     		lsls	r1, r1, #24
 297 0092 1943     		orrs	r1, r3
 298 0094 1F20     		movs	r0, #31
 299 0096 6844     		add	r0, r0, sp
 300 0098 FFF7FEFF 		bl	CyBle_Set32ByPtr
 301              	.LVL28:
  47:pamSaid.c     ****         byteCount += sizeof(SaiData.SequenceNumber);
 302              		.loc 1 47 0
 303 009c E07A     		ldrb	r0, [r4, #11]
 304 009e 237B     		ldrb	r3, [r4, #12]
 305 00a0 1B02     		lsls	r3, r3, #8
 306 00a2 0343     		orrs	r3, r0
 307 00a4 1A00     		movs	r2, r3
 308 00a6 617B     		ldrb	r1, [r4, #13]
 309 00a8 0904     		lsls	r1, r1, #16
 310 00aa 0B00     		movs	r3, r1
ARM GAS  C:\Users\310309~1\AppData\Local\Temp\ccQ8h8Yd.s 			page 9


 311 00ac 1343     		orrs	r3, r2
 312 00ae A17B     		ldrb	r1, [r4, #14]
 313 00b0 0906     		lsls	r1, r1, #24
 314 00b2 1943     		orrs	r1, r3
 315 00b4 2320     		movs	r0, #35
 316 00b6 6844     		add	r0, r0, sp
 317 00b8 FFF7FEFF 		bl	CyBle_Set32ByPtr
 318              	.LVL29:
 319              	.LBB3:
  57:pamSaid.c     ****         {
 320              		.loc 1 57 0
 321 00bc 0024     		movs	r4, #0
 322              	.LBE3:
  54:pamSaid.c     ****         
 323              		.loc 1 54 0
 324 00be 0025     		movs	r5, #0
 325              	.LBB5:
  57:pamSaid.c     ****         {
 326              		.loc 1 57 0
 327 00c0 24E0     		b	.L18
 328              	.LVL30:
 329              	.L24:
  59:pamSaid.c     ****             {
 330              		.loc 1 59 0
 331 00c2 002C     		cmp	r4, #0
 332 00c4 05D1     		bne	.L19
  61:pamSaid.c     ****             }
 333              		.loc 1 61 0
 334 00c6 01AA     		add	r2, sp, #4
 335 00c8 3B00     		movs	r3, r7
 336 00ca 7F33     		adds	r3, r3, #127
 337 00cc 1370     		strb	r3, [r2]
 338              	.L21:
 339              	.LBE5:
 340              	.LBE2:
  16:pamSaid.c     ****     CYBLE_GATTS_HANDLE_VALUE_NTF_T tempHandle;
 341              		.loc 1 16 0 discriminator 1
 342 00ce 0122     		movs	r2, #1
 343 00d0 13E0     		b	.L20
 344              	.L19:
 345              	.LBB7:
 346              	.LBB6:
  65:pamSaid.c     ****             }
 347              		.loc 1 65 0
 348 00d2 3B1B     		subs	r3, r7, r4
 349 00d4 013B     		subs	r3, r3, #1
 350 00d6 01AA     		add	r2, sp, #4
 351 00d8 1370     		strb	r3, [r2]
 352 00da F8E7     		b	.L21
 353              	.LVL31:
 354              	.L23:
 355              	.LBB4:
  71:pamSaid.c     ****                 {
 356              		.loc 1 71 0
 357 00dc E300     		lsls	r3, r4, #3
 358 00de 1B19     		adds	r3, r3, r4
 359 00e0 5B00     		lsls	r3, r3, #1
ARM GAS  C:\Users\310309~1\AppData\Local\Temp\ccQ8h8Yd.s 			page 10


 360 00e2 1B19     		adds	r3, r3, r4
 361 00e4 D318     		adds	r3, r2, r3
 362 00e6 B342     		cmp	r3, r6
 363 00e8 05D2     		bcs	.L22
  73:pamSaid.c     ****                     MessageSize = i + HEADER_SIZE;
 364              		.loc 1 73 0
 365 00ea 06A9     		add	r1, sp, #24
 366              	.LVL32:
 367 00ec C95C     		ldrb	r1, [r1, r3]
 368              	.LVL33:
 369 00ee 01AB     		add	r3, sp, #4
 370 00f0 9954     		strb	r1, [r3, r2]
  74:pamSaid.c     ****                 }
 371              		.loc 1 74 0
 372 00f2 551C     		adds	r5, r2, #1
 373              	.LVL34:
 374 00f4 EDB2     		uxtb	r5, r5
 375              	.LVL35:
 376              	.L22:
  69:pamSaid.c     ****             {
 377              		.loc 1 69 0 discriminator 2
 378 00f6 0132     		adds	r2, r2, #1
 379              	.LVL36:
 380 00f8 D2B2     		uxtb	r2, r2
 381              	.LVL37:
 382              	.L20:
  69:pamSaid.c     ****             {
 383              		.loc 1 69 0 is_stmt 0 discriminator 1
 384 00fa 132A     		cmp	r2, #19
 385 00fc EED9     		bls	.L23
 386              	.LBE4:
  77:pamSaid.c     ****         }
 387              		.loc 1 77 0 is_stmt 1 discriminator 2
 388 00fe AAB2     		uxth	r2, r5
 389              	.LVL38:
 390 0100 01A9     		add	r1, sp, #4
 391 0102 2A20     		movs	r0, #42
 392 0104 FFF7FEFF 		bl	ble_SendNotification
 393              	.LVL39:
  57:pamSaid.c     ****         {
 394              		.loc 1 57 0 discriminator 2
 395 0108 0134     		adds	r4, r4, #1
 396              	.LVL40:
 397 010a E4B2     		uxtb	r4, r4
 398              	.LVL41:
 399              	.L18:
  57:pamSaid.c     ****         {
 400              		.loc 1 57 0 is_stmt 0 discriminator 1
 401 010c BC42     		cmp	r4, r7
 402 010e D8D3     		bcc	.L24
 403              	.LVL42:
 404              	.L16:
 405              	.LBE6:
 406              	.LBE7:
  80:pamSaid.c     **** 
 407              		.loc 1 80 0 is_stmt 1
 408 0110 11B0     		add	sp, sp, #68
ARM GAS  C:\Users\310309~1\AppData\Local\Temp\ccQ8h8Yd.s 			page 11


 409              		@ sp needed
 410 0112 F0BD     		pop	{r4, r5, r6, r7, pc}
 411              	.L26:
 412              		.align	2
 413              	.L25:
 414 0114 00000000 		.word	SaiData
 415 0118 00000000 		.word	cyBle_connHandle
 416 011c 00000000 		.word	sleepactivityinstantaneousdataNotify
 417 0120 00000000 		.word	.LC5
 418 0124 3C000000 		.word	.LC7
 419              		.cfi_endproc
 420              	.LFE36:
 421              		.size	UpdateSaid, .-UpdateSaid
 422              		.comm	sleepactivityinstantaneousdataNotify,4,4
 423              		.comm	SaiData,26,4
 424              		.comm	sessionDescriptorIndicate,1,1
 425              		.comm	pamFeature,8,8
 426              		.comm	send_Deleted_Sessions,1,1
 427              		.comm	Get_Ended_Data_Value,1,1
 428              		.comm	Get_Ended_Data_Sub_SessionID,2,2
 429              		.comm	Get_Ended_Data_SessionID,2,2
 430              		.comm	Enquire_Sub_Sessions_Requested_For_ID,2,2
 431              		.comm	Enquire_Sessions_Requested,2,2
 432              		.section	.rodata.str1.4,"aMS",%progbits,1
 433              		.align	2
 434              	.LC5:
 435 0000 534C4545 		.ascii	"SLEEP ACTIVITY INSTANTANEOUS DATA presentdatalength"
 435      50204143 
 435      54495649 
 435      54592049 
 435      4E535441 
 436 0033 203D2025 		.ascii	" = %i\015\012\000"
 436      690D0A00 
 437 003b 00       		.space	1
 438              	.LC7:
 439 003c 534C4545 		.ascii	"SLEEP ACTIVITY INSTANTANEOUS DATA N = %i\015\012\000"
 439      50204143 
 439      54495649 
 439      54592049 
 439      4E535441 
 440              		.text
 441              	.Letext0:
 442              		.file 2 "Generated_Source\\PSoC4/cytypes.h"
 443              		.file 3 "Generated_Source\\PSoC4/ble_StackGatt.h"
 444              		.file 4 "Generated_Source\\PSoC4/ble_StackGattServer.h"
 445              		.file 5 "pamSaid.h"
 446              		.file 6 "Generated_Source\\PSoC4/ble_eventHandler.h"
 447              		.file 7 "pams.h"
 448              		.file 8 "pamFeatures.h"
 449              		.file 9 "pamSessDescr.h"
 450              		.file 10 "c:\\program files (x86)\\cypress\\psoc creator\\4.1\\psoc creator\\import\\gnu\\arm\\5.4
 451              		.file 11 "Generated_Source\\PSoC4/ble.h"
 452              		.file 12 "Generated_Source\\PSoC4/ble_StackGattDb.h"
 453              		.file 13 "Generated_Source\\PSoC4/ble_Stack.h"