ARM GAS  C:\Users\310309~1\AppData\Local\Temp\ccWZdjgt.s 			page 1


   1              		.syntax unified
   2              		.cpu cortex-m0
   3              		.fpu softvfp
   4              		.eabi_attribute 20, 1
   5              		.eabi_attribute 21, 1
   6              		.eabi_attribute 23, 3
   7              		.eabi_attribute 24, 1
   8              		.eabi_attribute 25, 1
   9              		.eabi_attribute 26, 1
  10              		.eabi_attribute 30, 1
  11              		.eabi_attribute 34, 0
  12              		.eabi_attribute 18, 4
  13              		.thumb
  14              		.syntax unified
  15              		.file	"pams.c"
  16              		.text
  17              	.Ltext0:
  18              		.cfi_sections	.debug_frame
  19              		.global	__aeabi_dsub
  20              		.global	__aeabi_ddiv
  21              		.global	__aeabi_d2uiz
  22              		.section	.text.calculateNumberOfMessages,"ax",%progbits
  23              		.align	2
  24              		.global	calculateNumberOfMessages
  25              		.code	16
  26              		.thumb_func
  27              		.type	calculateNumberOfMessages, %function
  28              	calculateNumberOfMessages:
  29              	.LFB36:
  30              		.file 1 "pams.c"
   1:pams.c        **** /* ========================================
   2:pams.c        ****  *
   3:pams.c        ****  * Copyright YOUR COMPANY, THE YEAR
   4:pams.c        ****  * All Rights Reserved
   5:pams.c        ****  * UNPUBLISHED, LICENSED SOFTWARE.
   6:pams.c        ****  *
   7:pams.c        ****  * CONFIDENTIAL AND PROPRIETARY INFORMATION
   8:pams.c        ****  * WHICH IS THE PROPERTY OF your company.
   9:pams.c        ****  *
  10:pams.c        ****  * ========================================
  11:pams.c        **** */
  12:pams.c        **** #include "pams.h"
  13:pams.c        **** 
  14:pams.c        **** /***************************************
  15:pams.c        **** *        Global Variables
  16:pams.c        **** ***************************************/
  17:pams.c        **** 
  18:pams.c        **** 
  19:pams.c        **** uint8 calculateNumberOfMessages(double sizeOfData)
  20:pams.c        **** {
  31              		.loc 1 20 0
  32              		.cfi_startproc
  33              		@ args = 0, pretend = 0, frame = 0
  34              		@ frame_needed = 0, uses_anonymous_args = 0
  35              	.LVL0:
  36 0000 10B5     		push	{r4, lr}
  37              		.cfi_def_cfa_offset 8
ARM GAS  C:\Users\310309~1\AppData\Local\Temp\ccWZdjgt.s 			page 2


  38              		.cfi_offset 4, -8
  39              		.cfi_offset 14, -4
  21:pams.c        ****     return ceil((sizeOfData - 1)/(PAM_ATT_MTU_SIZE - 4));
  40              		.loc 1 21 0
  41 0002 0022     		movs	r2, #0
  42 0004 064B     		ldr	r3, .L2
  43 0006 FFF7FEFF 		bl	__aeabi_dsub
  44              	.LVL1:
  45 000a 0022     		movs	r2, #0
  46 000c 054B     		ldr	r3, .L2+4
  47 000e FFF7FEFF 		bl	__aeabi_ddiv
  48              	.LVL2:
  49 0012 FFF7FEFF 		bl	ceil
  50              	.LVL3:
  51 0016 FFF7FEFF 		bl	__aeabi_d2uiz
  52              	.LVL4:
  53 001a C0B2     		uxtb	r0, r0
  22:pams.c        **** }
  54              		.loc 1 22 0
  55              		@ sp needed
  56 001c 10BD     		pop	{r4, pc}
  57              	.L3:
  58 001e C046     		.align	2
  59              	.L2:
  60 0020 0000F03F 		.word	1072693248
  61 0024 00003340 		.word	1077084160
  62              		.cfi_endproc
  63              	.LFE36:
  64              		.size	calculateNumberOfMessages, .-calculateNumberOfMessages
  65              		.section	.text.checkMaxMessageSizeReached,"ax",%progbits
  66              		.align	2
  67              		.global	checkMaxMessageSizeReached
  68              		.code	16
  69              		.thumb_func
  70              		.type	checkMaxMessageSizeReached, %function
  71              	checkMaxMessageSizeReached:
  72              	.LFB37:
  23:pams.c        **** 
  24:pams.c        **** 
  25:pams.c        **** uint8 checkMaxMessageSizeReached(uint8 currentSize, uint8 sizeToAdd)
  26:pams.c        **** {
  73              		.loc 1 26 0
  74              		.cfi_startproc
  75              		@ args = 0, pretend = 0, frame = 0
  76              		@ frame_needed = 0, uses_anonymous_args = 0
  77              		@ link register save eliminated.
  78              	.LVL5:
  27:pams.c        ****     if(currentSize + sizeToAdd > PAM_MAX_MESSAGE_DATA_SIZE)
  79              		.loc 1 27 0
  80 0000 4118     		adds	r1, r0, r1
  81              	.LVL6:
  82 0002 1329     		cmp	r1, #19
  83 0004 01D9     		bls	.L6
  28:pams.c        ****     {
  29:pams.c        ****         return  1;
  84              		.loc 1 29 0
  85 0006 0120     		movs	r0, #1
ARM GAS  C:\Users\310309~1\AppData\Local\Temp\ccWZdjgt.s 			page 3


  86              	.LVL7:
  87 0008 00E0     		b	.L5
  88              	.LVL8:
  89              	.L6:
  30:pams.c        ****     }
  31:pams.c        ****     else 
  32:pams.c        ****         return 0;
  90              		.loc 1 32 0
  91 000a 0020     		movs	r0, #0
  92              	.LVL9:
  93              	.L5:
  33:pams.c        **** }
  94              		.loc 1 33 0
  95              		@ sp needed
  96 000c 7047     		bx	lr
  97              		.cfi_endproc
  98              	.LFE37:
  99              		.size	checkMaxMessageSizeReached, .-checkMaxMessageSizeReached
 100 000e C046     		.section	.text.setMessageHeader,"ax",%progbits
 101              		.align	2
 102              		.global	setMessageHeader
 103              		.code	16
 104              		.thumb_func
 105              		.type	setMessageHeader, %function
 106              	setMessageHeader:
 107              	.LFB38:
  34:pams.c        **** 
  35:pams.c        **** void setMessageHeader(uint8 messageBuffer[][PAM_MAX_MESSAGE_DATA_SIZE], uint8 messageCount)
  36:pams.c        **** {
 108              		.loc 1 36 0
 109              		.cfi_startproc
 110              		@ args = 0, pretend = 0, frame = 0
 111              		@ frame_needed = 0, uses_anonymous_args = 0
 112              	.LVL10:
 113 0000 10B5     		push	{r4, lr}
 114              		.cfi_def_cfa_offset 8
 115              		.cfi_offset 4, -8
 116              		.cfi_offset 14, -4
  37:pams.c        ****     messageBuffer[0][0] = 0x80 + messageCount - 1;
 117              		.loc 1 37 0
 118 0002 0B00     		movs	r3, r1
 119 0004 7F33     		adds	r3, r3, #127
 120 0006 0370     		strb	r3, [r0]
 121              	.LVL11:
 122              	.LBB2:
  38:pams.c        ****     
  39:pams.c        ****     for(int i = 1; i < messageCount; i++)
 123              		.loc 1 39 0
 124 0008 0122     		movs	r2, #1
 125 000a 07E0     		b	.L8
 126              	.LVL12:
 127              	.L9:
  40:pams.c        ****     {
  41:pams.c        ****         messageBuffer[i][0] = (messageCount - 1) - i;
 128              		.loc 1 41 0 discriminator 3
 129 000c D300     		lsls	r3, r2, #3
 130 000e 9B18     		adds	r3, r3, r2
ARM GAS  C:\Users\310309~1\AppData\Local\Temp\ccWZdjgt.s 			page 4


 131 0010 5B00     		lsls	r3, r3, #1
 132 0012 9B18     		adds	r3, r3, r2
 133 0014 8C1A     		subs	r4, r1, r2
 134 0016 013C     		subs	r4, r4, #1
 135 0018 C454     		strb	r4, [r0, r3]
  39:pams.c        ****     {
 136              		.loc 1 39 0 discriminator 3
 137 001a 0132     		adds	r2, r2, #1
 138              	.LVL13:
 139              	.L8:
  39:pams.c        ****     {
 140              		.loc 1 39 0 is_stmt 0 discriminator 1
 141 001c 8A42     		cmp	r2, r1
 142 001e F5DB     		blt	.L9
 143              	.LBE2:
  42:pams.c        ****     }
  43:pams.c        **** }
 144              		.loc 1 43 0 is_stmt 1
 145              		@ sp needed
 146 0020 10BD     		pop	{r4, pc}
 147              		.cfi_endproc
 148              	.LFE38:
 149              		.size	setMessageHeader, .-setMessageHeader
 150 0022 C046     		.section	.text.addToBuffer,"ax",%progbits
 151              		.align	2
 152              		.global	addToBuffer
 153              		.code	16
 154              		.thumb_func
 155              		.type	addToBuffer, %function
 156              	addToBuffer:
 157              	.LFB39:
  44:pams.c        **** 
  45:pams.c        **** void addToBuffer(uint8 *messageBuffer, uint8 *MessageSize, uint8 *Message, uint8 *messageCount, uin
  46:pams.c        **** {
 158              		.loc 1 46 0
 159              		.cfi_startproc
 160              		@ args = 4, pretend = 0, frame = 0
 161              		@ frame_needed = 0, uses_anonymous_args = 0
 162              	.LVL14:
 163 0000 70B5     		push	{r4, r5, r6, lr}
 164              		.cfi_def_cfa_offset 16
 165              		.cfi_offset 4, -16
 166              		.cfi_offset 5, -12
 167              		.cfi_offset 6, -8
 168              		.cfi_offset 14, -4
 169 0002 0E00     		movs	r6, r1
 170 0004 1100     		movs	r1, r2
 171              	.LVL15:
 172 0006 1D00     		movs	r5, r3
 173 0008 049C     		ldr	r4, [sp, #16]
  47:pams.c        ****     memcpy(messageBuffer, Message, *byteCount);
 174              		.loc 1 47 0
 175 000a 2278     		ldrb	r2, [r4]
 176              	.LVL16:
 177 000c FFF7FEFF 		bl	memcpy
 178              	.LVL17:
  48:pams.c        ****     memcpy(MessageSize, byteCount, 1);
ARM GAS  C:\Users\310309~1\AppData\Local\Temp\ccWZdjgt.s 			page 5


 179              		.loc 1 48 0
 180 0010 2378     		ldrb	r3, [r4]
 181 0012 3370     		strb	r3, [r6]
  49:pams.c        ****     *byteCount = 1;
 182              		.loc 1 49 0
 183 0014 0123     		movs	r3, #1
 184 0016 2370     		strb	r3, [r4]
  50:pams.c        ****     *messageCount += 1;
 185              		.loc 1 50 0
 186 0018 2B78     		ldrb	r3, [r5]
 187 001a 0133     		adds	r3, r3, #1
 188 001c 2B70     		strb	r3, [r5]
  51:pams.c        **** }
 189              		.loc 1 51 0
 190              		@ sp needed
 191              	.LVL18:
 192              	.LVL19:
 193 001e 70BD     		pop	{r4, r5, r6, pc}
 194              		.cfi_endproc
 195              	.LFE39:
 196              		.size	addToBuffer, .-addToBuffer
 197              		.section	.text.ble_SendNotification,"ax",%progbits
 198              		.align	2
 199              		.global	ble_SendNotification
 200              		.code	16
 201              		.thumb_func
 202              		.type	ble_SendNotification, %function
 203              	ble_SendNotification:
 204              	.LFB40:
  52:pams.c        **** 
  53:pams.c        **** 
  54:pams.c        **** void ble_SendNotification(CYBLE_GATT_DB_ATTR_HANDLE_T characteristic, uint8* data, uint16 length)
  55:pams.c        **** {
 205              		.loc 1 55 0
 206              		.cfi_startproc
 207              		@ args = 0, pretend = 0, frame = 16
 208              		@ frame_needed = 0, uses_anonymous_args = 0
 209              	.LVL20:
 210 0000 10B5     		push	{r4, lr}
 211              		.cfi_def_cfa_offset 8
 212              		.cfi_offset 4, -8
 213              		.cfi_offset 14, -4
 214 0002 84B0     		sub	sp, sp, #16
 215              		.cfi_def_cfa_offset 24
 216 0004 1400     		movs	r4, r2
  56:pams.c        ****     CYBLE_API_RESULT_T t;
  57:pams.c        ****     CYBLE_GATTS_HANDLE_VALUE_NTF_T notification;
  58:pams.c        ****     notification.attrHandle = characteristic;
 217              		.loc 1 58 0
 218 0006 01AA     		add	r2, sp, #4
 219              	.LVL21:
 220 0008 1081     		strh	r0, [r2, #8]
  59:pams.c        ****     notification.value.val  = data;
 221              		.loc 1 59 0
 222 000a 0191     		str	r1, [sp, #4]
  60:pams.c        ****     notification.value.len  = length;
 223              		.loc 1 60 0
ARM GAS  C:\Users\310309~1\AppData\Local\Temp\ccWZdjgt.s 			page 6


 224 000c 9480     		strh	r4, [r2, #4]
  61:pams.c        ****     if ((t = CyBle_GattsNotification(cyBle_connHandle, &notification)) != CYBLE_ERROR_OK) 
 225              		.loc 1 61 0
 226 000e 0A49     		ldr	r1, .L14
 227              	.LVL22:
 228 0010 0B78     		ldrb	r3, [r1]
 229 0012 4878     		ldrb	r0, [r1, #1]
 230              	.LVL23:
 231 0014 0002     		lsls	r0, r0, #8
 232 0016 1843     		orrs	r0, r3
 233 0018 1100     		movs	r1, r2
 234 001a FFF7FEFF 		bl	CyBle_GattsNotification
 235              	.LVL24:
 236 001e 0028     		cmp	r0, #0
 237 0020 04D0     		beq	.L12
  62:pams.c        ****     {
  63:pams.c        ****         DBG_PRINTF("ERROR sending notification %i\r\n", t);
 238              		.loc 1 63 0
 239 0022 0100     		movs	r1, r0
 240 0024 0548     		ldr	r0, .L14+4
 241              	.LVL25:
 242 0026 FFF7FEFF 		bl	printf
 243              	.LVL26:
 244 002a 03E0     		b	.L11
 245              	.LVL27:
 246              	.L12:
  64:pams.c        ****     }    
  65:pams.c        ****     else
  66:pams.c        ****     {
  67:pams.c        ****         DBG_PRINTF("sending notification Size = %i\r\n", length);
 247              		.loc 1 67 0
 248 002c 2100     		movs	r1, r4
 249 002e 0448     		ldr	r0, .L14+8
 250              	.LVL28:
 251 0030 FFF7FEFF 		bl	printf
 252              	.LVL29:
 253              	.L11:
  68:pams.c        ****     }
  69:pams.c        **** }
 254              		.loc 1 69 0
 255 0034 04B0     		add	sp, sp, #16
 256              		@ sp needed
 257 0036 10BD     		pop	{r4, pc}
 258              	.L15:
 259              		.align	2
 260              	.L14:
 261 0038 00000000 		.word	cyBle_connHandle
 262 003c 00000000 		.word	.LC1
 263 0040 20000000 		.word	.LC3
 264              		.cfi_endproc
 265              	.LFE40:
 266              		.size	ble_SendNotification, .-ble_SendNotification
 267              		.section	.text.ble_SendIndication,"ax",%progbits
 268              		.align	2
 269              		.global	ble_SendIndication
 270              		.code	16
 271              		.thumb_func
ARM GAS  C:\Users\310309~1\AppData\Local\Temp\ccWZdjgt.s 			page 7


 272              		.type	ble_SendIndication, %function
 273              	ble_SendIndication:
 274              	.LFB41:
  70:pams.c        **** 
  71:pams.c        **** void ble_SendIndication(CYBLE_GATT_DB_ATTR_HANDLE_T characteristic, uint8* data, uint16 length)
  72:pams.c        **** {
 275              		.loc 1 72 0
 276              		.cfi_startproc
 277              		@ args = 0, pretend = 0, frame = 16
 278              		@ frame_needed = 0, uses_anonymous_args = 0
 279              	.LVL30:
 280 0000 70B5     		push	{r4, r5, r6, lr}
 281              		.cfi_def_cfa_offset 16
 282              		.cfi_offset 4, -16
 283              		.cfi_offset 5, -12
 284              		.cfi_offset 6, -8
 285              		.cfi_offset 14, -4
 286 0002 84B0     		sub	sp, sp, #16
 287              		.cfi_def_cfa_offset 32
 288 0004 0500     		movs	r5, r0
 289 0006 0E00     		movs	r6, r1
 290 0008 1400     		movs	r4, r2
  73:pams.c        ****     while(CyBle_IsStackIdle() == CYBLE_ERROR_STACK_BUSY || CyBle_GattGetBusStatus() == CYBLE_STACK_
 291              		.loc 1 73 0
 292 000a 01E0     		b	.L17
 293              	.LVL31:
 294              	.L18:
  74:pams.c        ****     {
  75:pams.c        ****         /* Wait for BLE Stack to comple current operation */
  76:pams.c        ****         CyBle_ProcessEvents();
 295              		.loc 1 76 0
 296 000c FFF7FEFF 		bl	CyBle_ProcessEvents
 297              	.LVL32:
 298              	.L17:
  73:pams.c        ****     while(CyBle_IsStackIdle() == CYBLE_ERROR_STACK_BUSY || CyBle_GattGetBusStatus() == CYBLE_STACK_
 299              		.loc 1 73 0
 300 0010 FFF7FEFF 		bl	CyBle_IsStackIdle
 301              	.LVL33:
 302 0014 8223     		movs	r3, #130
 303 0016 5B00     		lsls	r3, r3, #1
 304 0018 9842     		cmp	r0, r3
 305 001a F7D0     		beq	.L18
  73:pams.c        ****     while(CyBle_IsStackIdle() == CYBLE_ERROR_STACK_BUSY || CyBle_GattGetBusStatus() == CYBLE_STACK_
 306              		.loc 1 73 0 is_stmt 0 discriminator 1
 307 001c 0D4B     		ldr	r3, .L21
 308 001e 1B78     		ldrb	r3, [r3]
 309 0020 012B     		cmp	r3, #1
 310 0022 F3D0     		beq	.L18
  77:pams.c        ****     }
  78:pams.c        ****     CYBLE_API_RESULT_T t;
  79:pams.c        ****     CYBLE_GATTS_HANDLE_VALUE_IND_T indication;
  80:pams.c        ****     indication.value.val  = data;
 311              		.loc 1 80 0 is_stmt 1
 312 0024 01A9     		add	r1, sp, #4
 313 0026 0196     		str	r6, [sp, #4]
  81:pams.c        ****     indication.value.len  = length;
 314              		.loc 1 81 0
ARM GAS  C:\Users\310309~1\AppData\Local\Temp\ccWZdjgt.s 			page 8


 315 0028 8C80     		strh	r4, [r1, #4]
  82:pams.c        ****     indication.attrHandle = characteristic;
 316              		.loc 1 82 0
 317 002a 0D81     		strh	r5, [r1, #8]
  83:pams.c        ****     
  84:pams.c        ****     if ((t = CyBle_GattsIndication(cyBle_connHandle, &indication)) != CYBLE_ERROR_OK) 
 318              		.loc 1 84 0
 319 002c 0A4A     		ldr	r2, .L21+4
 320 002e 1378     		ldrb	r3, [r2]
 321 0030 5078     		ldrb	r0, [r2, #1]
 322 0032 0002     		lsls	r0, r0, #8
 323 0034 1843     		orrs	r0, r3
 324 0036 FFF7FEFF 		bl	CyBle_GattsIndication
 325              	.LVL34:
 326 003a 0028     		cmp	r0, #0
 327 003c 04D0     		beq	.L19
  85:pams.c        ****     {
  86:pams.c        ****         DBG_PRINTF("ERROR sending indication %i\r\n", t);
 328              		.loc 1 86 0
 329 003e 0100     		movs	r1, r0
 330 0040 0648     		ldr	r0, .L21+8
 331              	.LVL35:
 332 0042 FFF7FEFF 		bl	printf
 333              	.LVL36:
 334 0046 03E0     		b	.L16
 335              	.LVL37:
 336              	.L19:
  87:pams.c        ****     }    
  88:pams.c        ****     else
  89:pams.c        ****     {
  90:pams.c        ****         DBG_PRINTF("sending indication Size = %i\r\n", length);
 337              		.loc 1 90 0
 338 0048 2100     		movs	r1, r4
 339 004a 0548     		ldr	r0, .L21+12
 340              	.LVL38:
 341 004c FFF7FEFF 		bl	printf
 342              	.LVL39:
 343              	.L16:
  91:pams.c        ****     }
  92:pams.c        ****     
  93:pams.c        **** }
 344              		.loc 1 93 0
 345 0050 04B0     		add	sp, sp, #16
 346              		@ sp needed
 347              	.LVL40:
 348 0052 70BD     		pop	{r4, r5, r6, pc}
 349              	.L22:
 350              		.align	2
 351              	.L21:
 352 0054 00000000 		.word	cyBle_busyStatus
 353 0058 00000000 		.word	cyBle_connHandle
 354 005c 44000000 		.word	.LC7
 355 0060 64000000 		.word	.LC9
 356              		.cfi_endproc
 357              	.LFE41:
 358              		.size	ble_SendIndication, .-ble_SendIndication
 359              		.section	.text.CyBle_Set24ByPtr,"ax",%progbits
ARM GAS  C:\Users\310309~1\AppData\Local\Temp\ccWZdjgt.s 			page 9


 360              		.align	2
 361              		.global	CyBle_Set24ByPtr
 362              		.code	16
 363              		.thumb_func
 364              		.type	CyBle_Set24ByPtr, %function
 365              	CyBle_Set24ByPtr:
 366              	.LFB42:
  94:pams.c        **** 
  95:pams.c        **** void CyBle_Set24ByPtr(uint8 ptr[], uint32 value)
  96:pams.c        **** {
 367              		.loc 1 96 0
 368              		.cfi_startproc
 369              		@ args = 0, pretend = 0, frame = 0
 370              		@ frame_needed = 0, uses_anonymous_args = 0
 371              		@ link register save eliminated.
 372              	.LVL41:
  97:pams.c        ****     ptr[0u] = (uint8) value;
 373              		.loc 1 97 0
 374 0000 0170     		strb	r1, [r0]
  98:pams.c        ****     ptr[1u] = (uint8) (value >> 8u);
 375              		.loc 1 98 0
 376 0002 0B0A     		lsrs	r3, r1, #8
 377 0004 4370     		strb	r3, [r0, #1]
  99:pams.c        ****     ptr[2u] = (uint8) (value >> 16u);
 378              		.loc 1 99 0
 379 0006 090C     		lsrs	r1, r1, #16
 380              	.LVL42:
 381 0008 8170     		strb	r1, [r0, #2]
 100:pams.c        **** }
 382              		.loc 1 100 0
 383              		@ sp needed
 384 000a 7047     		bx	lr
 385              		.cfi_endproc
 386              	.LFE42:
 387              		.size	CyBle_Set24ByPtr, .-CyBle_Set24ByPtr
 388              		.section	.text.CyBle_Set32ByPtr,"ax",%progbits
 389              		.align	2
 390              		.global	CyBle_Set32ByPtr
 391              		.code	16
 392              		.thumb_func
 393              		.type	CyBle_Set32ByPtr, %function
 394              	CyBle_Set32ByPtr:
 395              	.LFB43:
 101:pams.c        **** 
 102:pams.c        **** void CyBle_Set32ByPtr(uint8 ptr[], uint32 value)
 103:pams.c        **** {
 396              		.loc 1 103 0
 397              		.cfi_startproc
 398              		@ args = 0, pretend = 0, frame = 0
 399              		@ frame_needed = 0, uses_anonymous_args = 0
 400              		@ link register save eliminated.
 401              	.LVL43:
 104:pams.c        ****     ptr[0u] = (uint8) value;
 402              		.loc 1 104 0
 403 0000 0170     		strb	r1, [r0]
 105:pams.c        ****     ptr[1u] = (uint8) (value >> 8u);
 404              		.loc 1 105 0
ARM GAS  C:\Users\310309~1\AppData\Local\Temp\ccWZdjgt.s 			page 10


 405 0002 0B0A     		lsrs	r3, r1, #8
 406 0004 4370     		strb	r3, [r0, #1]
 106:pams.c        ****     ptr[2u] = (uint8) (value >> 16u);
 407              		.loc 1 106 0
 408 0006 0B0C     		lsrs	r3, r1, #16
 409 0008 8370     		strb	r3, [r0, #2]
 107:pams.c        ****     ptr[3u] = (uint8) (value >> 24u);
 410              		.loc 1 107 0
 411 000a 090E     		lsrs	r1, r1, #24
 412              	.LVL44:
 413 000c C170     		strb	r1, [r0, #3]
 108:pams.c        **** }
 414              		.loc 1 108 0
 415              		@ sp needed
 416 000e 7047     		bx	lr
 417              		.cfi_endproc
 418              	.LFE43:
 419              		.size	CyBle_Set32ByPtr, .-CyBle_Set32ByPtr
 420              		.comm	UserDefinedActivityTypeAllSubSessions,625,4
 421              		.comm	Update_GASD_With_New_Activity,1,1
 422              		.comm	send_Deleted_Sessions,1,1
 423              		.comm	Get_Ended_Data_Value,1,1
 424              		.comm	Get_Ended_Data_Sub_SessionID,2,2
 425              		.comm	Get_Ended_Data_SessionID,2,2
 426              		.comm	Enquire_Sub_Sessions_Requested_For_ID,2,2
 427              		.comm	Enquire_Sessions_Requested,2,2
 428              		.comm	sessionDescriptorIndicate,1,1
 429              		.comm	pamFeature,8,8
 430              		.section	.rodata.str1.4,"aMS",%progbits,1
 431              		.align	2
 432              	.LC1:
 433 0000 4552524F 		.ascii	"ERROR sending notification %i\015\012\000"
 433      52207365 
 433      6E64696E 
 433      67206E6F 
 433      74696669 
 434              	.LC3:
 435 0020 73656E64 		.ascii	"sending notification Size = %i\015\012\000"
 435      696E6720 
 435      6E6F7469 
 435      66696361 
 435      74696F6E 
 436 0041 000000   		.space	3
 437              	.LC7:
 438 0044 4552524F 		.ascii	"ERROR sending indication %i\015\012\000"
 438      52207365 
 438      6E64696E 
 438      6720696E 
 438      64696361 
 439 0062 0000     		.space	2
 440              	.LC9:
 441 0064 73656E64 		.ascii	"sending indication Size = %i\015\012\000"
 441      696E6720 
 441      696E6469 
 441      63617469 
 441      6F6E2053 
 442              		.text
ARM GAS  C:\Users\310309~1\AppData\Local\Temp\ccWZdjgt.s 			page 11


 443              	.Letext0:
 444              		.file 2 "Generated_Source\\PSoC4/cytypes.h"
 445              		.file 3 "Generated_Source\\PSoC4/ble_Stack.h"
 446              		.file 4 "Generated_Source\\PSoC4/ble_StackGatt.h"
 447              		.file 5 "Generated_Source\\PSoC4/ble_StackGattServer.h"
 448              		.file 6 "Generated_Source\\PSoC4/ble_eventHandler.h"
 449              		.file 7 "pamFeatures.h"
 450              		.file 8 "pamSessDescr.h"
 451              		.file 9 "pams.h"
 452              		.file 10 "c:\\program files (x86)\\cypress\\psoc creator\\4.1\\psoc creator\\import\\gnu\\arm\\5.4
 453              		.file 11 "c:\\program files (x86)\\cypress\\psoc creator\\4.1\\psoc creator\\import\\gnu\\arm\\5.4